Archive member included to satisfy reference by file (symbol)

/home/jbrawley/Desktop/rockbox-photo-cf-support/build/lib/libtlsf.a(tlsf.o)
                              /home/jbrawley/Desktop/rockbox-photo-cf-support/build/apps/plugins/sdl/main.o (init_memory_pool)
/home/jbrawley/Desktop/rockbox-photo-cf-support/build/apps/plugins/libplugin.a(gcc-support.o)
                              /home/jbrawley/Desktop/rockbox-photo-cf-support/build/apps/plugins/sdl/src/audio/SDL_audio.o (memcpy)
/home/jbrawley/Desktop/rockbox-photo-cf-support/build/apps/plugins/libplugin.a(helper.o)
                              /home/jbrawley/Desktop/rockbox-photo-cf-support/build/apps/plugins/sdl/main.o (backlight_ignore_timeout)
/home/jbrawley/Desktop/rockbox-photo-cf-support/build/apps/plugins/libplugin.a(strncpy.o)
                              /home/jbrawley/Desktop/rockbox-photo-cf-support/build/apps/plugins/sdl/SDL_mixer/timidity/common.o (strncpy)
/home/jbrawley/Desktop/rockbox-photo-cf-support/build/apps/plugins/libplugin.a(stdio_compat.o)
                              /home/jbrawley/Desktop/rockbox-photo-cf-support/build/apps/plugins/sdl/src/file/SDL_rwops.o (_fopen_)
/home/jbrawley/Desktop/rockbox-photo-cf-support/build/apps/plugins/libplugin.a(pluginlib_bmp.o)
                              /home/jbrawley/Desktop/rockbox-photo-cf-support/build/apps/plugins/sdl/src/video/rockbox/SDL_rockboxvideo.o (simple_resize_bitmap)
/home/jbrawley/Desktop/rockbox-photo-cf-support/build/apps/plugins/libplugin.a(pluginlib_resize.o)
                              /home/jbrawley/Desktop/rockbox-photo-cf-support/build/apps/plugins/libplugin.a(pluginlib_bmp.o) (recalc_dimension)
/home/jbrawley/Desktop/rockbox-photo-cf-support/build/lib/libsetjmp.a(setjmp.o)
                              /home/jbrawley/Desktop/rockbox-photo-cf-support/build/apps/plugins/plugin_crt0.o (setjmp)
/home/jbrawley/Desktop/rockbox-photo-cf-support/build/lib/libfixedpoint.a(fixedpoint.o)
                              /home/jbrawley/Desktop/rockbox-photo-cf-support/build/apps/plugins/sdl/wrappers.o (fp_sincos)
/usr/local/lib/gcc/arm-elf-eabi/4.9.4/libgcc.a(_udivsi3.o)
                              /home/jbrawley/Desktop/rockbox-photo-cf-support/build/apps/plugins/sdl/src/file/SDL_rwops.o (__aeabi_uidiv)
/usr/local/lib/gcc/arm-elf-eabi/4.9.4/libgcc.a(_divsi3.o)
                              /home/jbrawley/Desktop/rockbox-photo-cf-support/build/apps/plugins/sdl/src/audio/SDL_audio.o (__aeabi_idiv)
/usr/local/lib/gcc/arm-elf-eabi/4.9.4/libgcc.a(_dvmd_tls.o)
                              /usr/local/lib/gcc/arm-elf-eabi/4.9.4/libgcc.a(_udivsi3.o) (__aeabi_idiv0)
/usr/local/lib/gcc/arm-elf-eabi/4.9.4/libgcc.a(_ashrdi3.o)
                              /home/jbrawley/Desktop/rockbox-photo-cf-support/build/lib/libfixedpoint.a(fixedpoint.o) (__aeabi_lasr)
/usr/local/lib/gcc/arm-elf-eabi/4.9.4/libgcc.a(_ashldi3.o)
                              /home/jbrawley/Desktop/rockbox-photo-cf-support/build/lib/libfixedpoint.a(fixedpoint.o) (__aeabi_llsl)
/usr/local/lib/gcc/arm-elf-eabi/4.9.4/libgcc.a(_arm_addsubdf3.o)
                              /home/jbrawley/Desktop/rockbox-photo-cf-support/build/apps/plugins/sdl/wrappers.o (__aeabi_dsub)
/usr/local/lib/gcc/arm-elf-eabi/4.9.4/libgcc.a(_arm_muldivdf3.o)
                              /home/jbrawley/Desktop/rockbox-photo-cf-support/build/apps/plugins/sdl/wrappers.o (__aeabi_dmul)
/usr/local/lib/gcc/arm-elf-eabi/4.9.4/libgcc.a(_arm_cmpdf2.o)
                              /home/jbrawley/Desktop/rockbox-photo-cf-support/build/apps/plugins/sdl/wrappers.o (__aeabi_dcmpeq)
/usr/local/lib/gcc/arm-elf-eabi/4.9.4/libgcc.a(_arm_fixdfsi.o)
                              /home/jbrawley/Desktop/rockbox-photo-cf-support/build/apps/plugins/sdl/wrappers.o (__aeabi_d2iz)
/usr/local/lib/gcc/arm-elf-eabi/4.9.4/libgcc.a(_arm_fixunsdfsi.o)
                              /home/jbrawley/Desktop/rockbox-photo-cf-support/build/apps/plugins/sdl/wrappers.o (__aeabi_d2uiz)
/usr/local/lib/gcc/arm-elf-eabi/4.9.4/libgcc.a(_arm_truncdfsf2.o)
                              /home/jbrawley/Desktop/rockbox-photo-cf-support/build/apps/plugins/sdl/wrappers.o (__aeabi_d2f)
/usr/local/lib/gcc/arm-elf-eabi/4.9.4/libgcc.a(_arm_addsubsf3.o)
                              /home/jbrawley/Desktop/rockbox-photo-cf-support/build/apps/plugins/sdl/wrappers.o (__aeabi_fsub)
/usr/local/lib/gcc/arm-elf-eabi/4.9.4/libgcc.a(_arm_muldivsf3.o)
                              /home/jbrawley/Desktop/rockbox-photo-cf-support/build/apps/plugins/sdl/wrappers.o (__aeabi_fmul)
/usr/local/lib/gcc/arm-elf-eabi/4.9.4/libgcc.a(_arm_cmpsf2.o)
                              /home/jbrawley/Desktop/rockbox-photo-cf-support/build/apps/plugins/sdl/wrappers.o (__aeabi_fcmpeq)
/usr/local/lib/gcc/arm-elf-eabi/4.9.4/libgcc.a(_arm_fixsfsi.o)
                              /home/jbrawley/Desktop/rockbox-photo-cf-support/build/apps/plugins/sdl/wrappers.o (__aeabi_f2iz)
/usr/local/lib/gcc/arm-elf-eabi/4.9.4/libgcc.a(_arm_fixunssfsi.o)
                              /home/jbrawley/Desktop/rockbox-photo-cf-support/build/apps/plugins/sdl/SDL_mixer/effect_position.o (__aeabi_f2uiz)
/usr/local/lib/gcc/arm-elf-eabi/4.9.4/libgcc.a(_clzsi2.o)
                              /home/jbrawley/Desktop/rockbox-photo-cf-support/build/lib/libfixedpoint.a(fixedpoint.o) (__clzsi2)
/usr/local/lib/gcc/arm-elf-eabi/4.9.4/libgcc.a(_aeabi_ldivmod.o)
                              /home/jbrawley/Desktop/rockbox-photo-cf-support/build/apps/plugins/sdl/src/stdlib/SDL_string.o (__aeabi_ldivmod)
/usr/local/lib/gcc/arm-elf-eabi/4.9.4/libgcc.a(_aeabi_uldivmod.o)
                              /home/jbrawley/Desktop/rockbox-photo-cf-support/build/apps/plugins/sdl/src/stdlib/SDL_string.o (__aeabi_uldivmod)
/usr/local/lib/gcc/arm-elf-eabi/4.9.4/libgcc.a(bpabi.o)
                              /usr/local/lib/gcc/arm-elf-eabi/4.9.4/libgcc.a(_aeabi_ldivmod.o) (__gnu_ldivmod_helper)
/usr/local/lib/gcc/arm-elf-eabi/4.9.4/libgcc.a(_divdi3.o)
                              /usr/local/lib/gcc/arm-elf-eabi/4.9.4/libgcc.a(bpabi.o) (__divdi3)
/usr/local/lib/gcc/arm-elf-eabi/4.9.4/libgcc.a(_udivdi3.o)
                              /usr/local/lib/gcc/arm-elf-eabi/4.9.4/libgcc.a(bpabi.o) (__udivdi3)
/usr/local/lib/gcc/arm-elf-eabi/4.9.4/libgcc.a(_clzdi2.o)
                              /usr/local/lib/gcc/arm-elf-eabi/4.9.4/libgcc.a(_divdi3.o) (__clzdi2)

Allocating common symbols
Common symbol       size              file

otherp              0x2               /home/jbrawley/Desktop/rockbox-photo-cf-support/build/apps/plugins/sdl/progs/duke3d/Game/src/actors.o
FXVolume            0x4               /home/jbrawley/Desktop/rockbox-photo-cf-support/build/apps/plugins/sdl/progs/duke3d/Game/src/config.o
rpgblastradius      0x4               /home/jbrawley/Desktop/rockbox-photo-cf-support/build/apps/plugins/sdl/progs/duke3d/Game/src/global.o
tripbombblastradius
                    0x4               /home/jbrawley/Desktop/rockbox-photo-cf-support/build/apps/plugins/sdl/progs/duke3d/Game/src/global.o
sdl_thread_id       0x4               /home/jbrawley/Desktop/rockbox-photo-cf-support/build/apps/plugins/sdl/main.o
mirrorsector        0x80              /home/jbrawley/Desktop/rockbox-photo-cf-support/build/apps/plugins/sdl/progs/duke3d/Game/src/global.o
_argv               0x4               /home/jbrawley/Desktop/rockbox-photo-cf-support/build/apps/plugins/sdl/progs/duke3d/Engine/src/cache.o
linearmode          0x4               /home/jbrawley/Desktop/rockbox-photo-cf-support/build/apps/plugins/sdl/progs/duke3d/Engine/src/display.o
sounddebugAllocateSoundCalls
                    0x4               /home/jbrawley/Desktop/rockbox-photo-cf-support/build/apps/plugins/sdl/progs/duke3d/Engine/src/cache.o
globalyscale        0x4               /home/jbrawley/Desktop/rockbox-photo-cf-support/build/apps/plugins/sdl/progs/duke3d/Engine/src/engine.o
asm3                0x4               /home/jbrawley/Desktop/rockbox-photo-cf-support/build/apps/plugins/sdl/progs/duke3d/Engine/src/engine.o
cp                  0x1               /home/jbrawley/Desktop/rockbox-photo-cf-support/build/apps/plugins/sdl/progs/duke3d/Game/src/game.o
mapCRC              0x2               /home/jbrawley/Desktop/rockbox-photo-cf-support/build/apps/plugins/sdl/progs/duke3d/Engine/src/engine.o
viewingrangerecip   0x4               /home/jbrawley/Desktop/rockbox-photo-cf-support/build/apps/plugins/sdl/progs/duke3d/Engine/src/engine.o
typebuflen          0x1               /home/jbrawley/Desktop/rockbox-photo-cf-support/build/apps/plugins/sdl/progs/duke3d/Game/src/global.o
fistsign            0x2               /home/jbrawley/Desktop/rockbox-photo-cf-support/build/apps/plugins/sdl/progs/duke3d/Game/src/player.o
headspritesect      0x802             /home/jbrawley/Desktop/rockbox-photo-cf-support/build/apps/plugins/sdl/progs/duke3d/Engine/src/engine.o
bakvidoption        0x10              /home/jbrawley/Desktop/rockbox-photo-cf-support/build/apps/plugins/sdl/progs/duke3d/Engine/src/engine.o
numlumps            0x4               /home/jbrawley/Desktop/rockbox-photo-cf-support/build/apps/plugins/sdl/progs/duke3d/Game/src/rts.o
britable            0x400             /home/jbrawley/Desktop/rockbox-photo-cf-support/build/apps/plugins/sdl/progs/duke3d/Engine/src/engine.o
globalx             0x4               /home/jbrawley/Desktop/rockbox-photo-cf-support/build/apps/plugins/sdl/progs/duke3d/Engine/src/engine.o
numclouds           0x2               /home/jbrawley/Desktop/rockbox-photo-cf-support/build/apps/plugins/sdl/progs/duke3d/Game/src/global.o
myangbak            0x200             /home/jbrawley/Desktop/rockbox-photo-cf-support/build/apps/plugins/sdl/progs/duke3d/Game/src/global.o
earthquaketime      0x1               /home/jbrawley/Desktop/rockbox-photo-cf-support/build/apps/plugins/sdl/progs/duke3d/Game/src/global.o
CONTROL_MouseButtonState2
                    0x4               /home/jbrawley/Desktop/rockbox-photo-cf-support/build/apps/plugins/sdl/progs/duke3d/Game/src/control.o
artfilename         0x14              /home/jbrawley/Desktop/rockbox-photo-cf-support/build/apps/plugins/sdl/progs/duke3d/Engine/src/tiles.o
linehighlight       0x2               /home/jbrawley/Desktop/rockbox-photo-cf-support/build/apps/plugins/sdl/progs/duke3d/Engine/src/engine.o
MusicToggle         0x4               /home/jbrawley/Desktop/rockbox-photo-cf-support/build/apps/plugins/sdl/progs/duke3d/Game/src/config.o
syncval             0x1000            /home/jbrawley/Desktop/rockbox-photo-cf-support/build/apps/plugins/sdl/progs/duke3d/Game/src/global.o
ydim                0x4               /home/jbrawley/Desktop/rockbox-photo-cf-support/build/apps/plugins/sdl/progs/duke3d/Engine/src/engine.o
soundvo             0x384             /home/jbrawley/Desktop/rockbox-photo-cf-support/build/apps/plugins/sdl/progs/duke3d/Game/src/global.o
windowx2            0x4               /home/jbrawley/Desktop/rockbox-photo-cf-support/build/apps/plugins/sdl/progs/duke3d/Engine/src/engine.o
artfilnum           0x4               /home/jbrawley/Desktop/rockbox-photo-cf-support/build/apps/plugins/sdl/progs/duke3d/Engine/src/engine.o
cac                 0x1b000           /home/jbrawley/Desktop/rockbox-photo-cf-support/build/apps/plugins/sdl/progs/duke3d/Engine/src/cache.o
SoundToggle         0x4               /home/jbrawley/Desktop/rockbox-photo-cf-support/build/apps/plugins/sdl/progs/duke3d/Game/src/config.o
picsiz              0x2400            /home/jbrawley/Desktop/rockbox-photo-cf-support/build/apps/plugins/sdl/progs/duke3d/Engine/src/engine.o
MV_GLast            0x4               /home/jbrawley/Desktop/rockbox-photo-cf-support/build/apps/plugins/sdl/progs/duke3d/Game/src/audiolib/multivoc.o
drumvolume          0x800             /home/jbrawley/Desktop/rockbox-photo-cf-support/build/apps/plugins/sdl/SDL_mixer/timidity/playmidi.o
endingpal           0x300             /home/jbrawley/Desktop/rockbox-photo-cf-support/build/apps/plugins/sdl/progs/duke3d/Game/src/game.o
globalang           0x2               /home/jbrawley/Desktop/rockbox-photo-cf-support/build/apps/plugins/sdl/progs/duke3d/Engine/src/engine.o
animatesect         0x80              /home/jbrawley/Desktop/rockbox-photo-cf-support/build/apps/plugins/sdl/progs/duke3d/Game/src/global.o
g_CV_TransConsole   0x4               /home/jbrawley/Desktop/rockbox-photo-cf-support/build/apps/plugins/sdl/progs/duke3d/Engine/src/cache.o
argv                0x2bc             /home/jbrawley/Desktop/rockbox-photo-cf-support/build/apps/plugins/sdl/progs/duke3d/Game/src/console.o
master_volume       0x8               /home/jbrawley/Desktop/rockbox-photo-cf-support/build/apps/plugins/sdl/SDL_mixer/timidity/playmidi.o
animatevel          0x100             /home/jbrawley/Desktop/rockbox-photo-cf-support/build/apps/plugins/sdl/progs/duke3d/Game/src/global.o
avgsvel             0x4               /home/jbrawley/Desktop/rockbox-photo-cf-support/build/apps/plugins/sdl/progs/duke3d/Game/src/global.o
numwalls            0x2               /home/jbrawley/Desktop/rockbox-photo-cf-support/build/apps/plugins/sdl/progs/duke3d/Engine/src/engine.o
NumBits             0x4               /home/jbrawley/Desktop/rockbox-photo-cf-support/build/apps/plugins/sdl/progs/duke3d/Game/src/config.o
startumost          0xc80             /home/jbrawley/Desktop/rockbox-photo-cf-support/build/apps/plugins/sdl/progs/duke3d/Engine/src/engine.o
msy                 0x2000            /home/jbrawley/Desktop/rockbox-photo-cf-support/build/apps/plugins/sdl/progs/duke3d/Game/src/global.o
bakwindowy2         0x10              /home/jbrawley/Desktop/rockbox-photo-cf-support/build/apps/plugins/sdl/progs/duke3d/Engine/src/engine.o
cheatbuf            0xa               /home/jbrawley/Desktop/rockbox-photo-cf-support/build/apps/plugins/sdl/progs/duke3d/Game/src/game.o
BlasterConfig       0x1c              /home/jbrawley/Desktop/rockbox-photo-cf-support/build/apps/plugins/sdl/progs/duke3d/Game/src/config.o
Sound               0x1c20            /home/jbrawley/Desktop/rockbox-photo-cf-support/build/apps/plugins/sdl/progs/duke3d/Game/src/global.o
syncvaltottail      0x4               /home/jbrawley/Desktop/rockbox-photo-cf-support/build/apps/plugins/sdl/progs/duke3d/Game/src/global.o
recbuf              0x50              /home/jbrawley/Desktop/rockbox-photo-cf-support/build/apps/plugins/sdl/progs/duke3d/Game/src/game.o
multiwhat           0x1               /home/jbrawley/Desktop/rockbox-photo-cf-support/build/apps/plugins/sdl/progs/duke3d/Game/src/global.o
onbar               0x2               /home/jbrawley/Desktop/rockbox-photo-cf-support/build/apps/plugins/sdl/progs/duke3d/Game/src/menues.o
title_zoom          0x2               /home/jbrawley/Desktop/rockbox-photo-cf-support/build/apps/plugins/sdl/progs/duke3d/Game/src/global.o
oldipos             0x2000            /home/jbrawley/Desktop/rockbox-photo-cf-support/build/apps/plugins/sdl/progs/duke3d/Game/src/global.o
yres                0x4               /home/jbrawley/Desktop/rockbox-photo-cf-support/build/apps/plugins/sdl/progs/duke3d/Engine/src/display.o
MouseDigitalAxeMapping
                    0x10              /home/jbrawley/Desktop/rockbox-photo-cf-support/build/apps/plugins/sdl/progs/duke3d/Game/src/audiolib/multivoc.o
MV_MixRate          0x4               /home/jbrawley/Desktop/rockbox-photo-cf-support/build/apps/plugins/sdl/progs/duke3d/Game/src/audiolib/multivoc.o
MV_GVal             0x4               /home/jbrawley/Desktop/rockbox-photo-cf-support/build/apps/plugins/sdl/progs/duke3d/Game/src/audiolib/multivoc.o
numframes           0x4               /home/jbrawley/Desktop/rockbox-photo-cf-support/build/apps/plugins/sdl/progs/duke3d/Engine/src/engine.o
globalypanning      0x4               /home/jbrawley/Desktop/rockbox-photo-cf-support/build/apps/plugins/sdl/progs/duke3d/Engine/src/engine.o
voice               0x1c800           /home/jbrawley/Desktop/rockbox-photo-cf-support/build/apps/plugins/sdl/SDL_mixer/timidity/playmidi.o
numanimwalls        0x2               /home/jbrawley/Desktop/rockbox-photo-cf-support/build/apps/plugins/sdl/progs/duke3d/Game/src/global.o
CONTROL_MouseEnabled
                    0x1               /home/jbrawley/Desktop/rockbox-photo-cf-support/build/apps/plugins/sdl/progs/duke3d/Game/src/control.o
syncvaltail         0x4               /home/jbrawley/Desktop/rockbox-photo-cf-support/build/apps/plugins/sdl/progs/duke3d/Game/src/global.o
palette             0x300             /home/jbrawley/Desktop/rockbox-photo-cf-support/build/apps/plugins/sdl/progs/duke3d/Engine/src/engine.o
ps                  0x3a40            /home/jbrawley/Desktop/rockbox-photo-cf-support/build/apps/plugins/sdl/progs/duke3d/Game/src/global.o
label               0x4               /home/jbrawley/Desktop/rockbox-photo-cf-support/build/apps/plugins/sdl/progs/duke3d/Game/src/global.o
myzvel              0x4               /home/jbrawley/Desktop/rockbox-photo-cf-support/build/apps/plugins/sdl/progs/duke3d/Game/src/global.o
globalpicnum        0x2               /home/jbrawley/Desktop/rockbox-photo-cf-support/build/apps/plugins/sdl/progs/duke3d/Engine/src/engine.o
uplc                0xc82             /home/jbrawley/Desktop/rockbox-photo-cf-support/build/apps/plugins/sdl/progs/duke3d/Engine/src/engine.o
bakipos             0x2000            /home/jbrawley/Desktop/rockbox-photo-cf-support/build/apps/plugins/sdl/progs/duke3d/Game/src/global.o
bakysiz             0x10              /home/jbrawley/Desktop/rockbox-photo-cf-support/build/apps/plugins/sdl/progs/duke3d/Engine/src/engine.o
globaly1            0x4               /home/jbrawley/Desktop/rockbox-photo-cf-support/build/apps/plugins/sdl/progs/duke3d/Engine/src/engine.o
playerswhenstarted  0x1               /home/jbrawley/Desktop/rockbox-photo-cf-support/build/apps/plugins/sdl/progs/duke3d/Game/src/game.o
curipos             0x2000            /home/jbrawley/Desktop/rockbox-photo-cf-support/build/apps/plugins/sdl/progs/duke3d/Game/src/global.o
wx1                 0x4               /home/jbrawley/Desktop/rockbox-photo-cf-support/build/apps/plugins/sdl/progs/duke3d/Engine/src/engine.o
connectpoint2       0x20              /home/jbrawley/Desktop/rockbox-photo-cf-support/build/apps/plugins/sdl/progs/duke3d/Engine/src/dummy_multi.o
tsmach_eax1         0x4               /home/jbrawley/Desktop/rockbox-photo-cf-support/build/apps/plugins/sdl/progs/duke3d/Engine/src/draw.o
searchparent        0x800             /home/jbrawley/Desktop/rockbox-photo-cf-support/build/apps/plugins/sdl/progs/duke3d/Game/src/player.o
multiflag           0x1               /home/jbrawley/Desktop/rockbox-photo-cf-support/build/apps/plugins/sdl/progs/duke3d/Game/src/global.o
MV_LeftScale        0x4               /home/jbrawley/Desktop/rockbox-photo-cf-support/build/apps/plugins/sdl/progs/duke3d/Game/src/audiolib/multivoc.o
fricyv              0x4               /home/jbrawley/Desktop/rockbox-photo-cf-support/build/apps/plugins/sdl/progs/duke3d/Game/src/global.o
groupfile           0x4               /home/jbrawley/Desktop/rockbox-photo-cf-support/build/apps/plugins/sdl/progs/duke3d/Game/src/global.o
searchsect          0x800             /home/jbrawley/Desktop/rockbox-photo-cf-support/build/apps/plugins/sdl/progs/duke3d/Game/src/player.o
parsing_actor       0x4               /home/jbrawley/Desktop/rockbox-photo-cf-support/build/apps/plugins/sdl/progs/duke3d/Game/src/global.o
fakemovefifoplc     0x4               /home/jbrawley/Desktop/rockbox-photo-cf-support/build/apps/plugins/sdl/progs/duke3d/Game/src/global.o
MV_RightChannelOffset
                    0x4               /home/jbrawley/Desktop/rockbox-photo-cf-support/build/apps/plugins/sdl/progs/duke3d/Game/src/audiolib/multivoc.o
vidoption           0x1               /home/jbrawley/Desktop/rockbox-photo-cf-support/build/apps/plugins/sdl/progs/duke3d/Engine/src/engine.o
numscans            0x2               /home/jbrawley/Desktop/rockbox-photo-cf-support/build/apps/plugins/sdl/progs/duke3d/Engine/src/engine.o
tsprite             0xb000            /home/jbrawley/Desktop/rockbox-photo-cf-support/build/apps/plugins/sdl/progs/duke3d/Engine/src/engine.o
dmost               0xc82             /home/jbrawley/Desktop/rockbox-photo-cf-support/build/apps/plugins/sdl/progs/duke3d/Engine/src/engine.o
music_select        0x1               /home/jbrawley/Desktop/rockbox-photo-cf-support/build/apps/plugins/sdl/progs/duke3d/Game/src/global.o
NumVoices           0x4               /home/jbrawley/Desktop/rockbox-photo-cf-support/build/apps/plugins/sdl/progs/duke3d/Game/src/config.o
fpuasm              0x4               /home/jbrawley/Desktop/rockbox-photo-cf-support/build/apps/plugins/sdl/progs/duke3d/Engine/src/engine.o
actortype           0x2400            /home/jbrawley/Desktop/rockbox-photo-cf-support/build/apps/plugins/sdl/progs/duke3d/Game/src/global.o
ortca               0x1               /home/jbrawley/Desktop/rockbox-photo-cf-support/build/apps/plugins/sdl/progs/duke3d/Engine/src/engine.o
reverbMutex         0x4               /home/jbrawley/Desktop/rockbox-photo-cf-support/build/apps/plugins/sdl/progs/duke3d/Game/src/audiolib/fx_man.o
animwall            0x1000            /home/jbrawley/Desktop/rockbox-photo-cf-support/build/apps/plugins/sdl/progs/duke3d/Game/src/global.o
MixRate             0x4               /home/jbrawley/Desktop/rockbox-photo-cf-support/build/apps/plugins/sdl/progs/duke3d/Game/src/config.o
music_pointer       0x4               /home/jbrawley/Desktop/rockbox-photo-cf-support/build/apps/plugins/sdl/progs/duke3d/Game/src/global.o
rb_SDL_alarm_callback
                    0x4               /home/jbrawley/Desktop/rockbox-photo-cf-support/build/apps/plugins/sdl/src/timer/SDL_timer.o
actorscrptr         0x9000            /home/jbrawley/Desktop/rockbox-photo-cf-support/build/apps/plugins/sdl/progs/duke3d/Game/src/global.o
sh                  0x2               /home/jbrawley/Desktop/rockbox-photo-cf-support/build/apps/plugins/sdl/progs/duke3d/Game/src/menues.o
tsmach_eax3         0x4               /home/jbrawley/Desktop/rockbox-photo-cf-support/build/apps/plugins/sdl/progs/duke3d/Engine/src/draw.o
screenpeek          0x2               /home/jbrawley/Desktop/rockbox-photo-cf-support/build/apps/plugins/sdl/progs/duke3d/Game/src/global.o
searchit            0x2               /home/jbrawley/Desktop/rockbox-photo-cf-support/build/apps/plugins/sdl/progs/duke3d/Engine/src/engine.o
morterblastradius   0x4               /home/jbrawley/Desktop/rockbox-photo-cf-support/build/apps/plugins/sdl/progs/duke3d/Game/src/global.o
user_quote_time     0x8               /home/jbrawley/Desktop/rockbox-photo-cf-support/build/apps/plugins/sdl/progs/duke3d/Game/src/game.o
rtsplaying          0x1               /home/jbrawley/Desktop/rockbox-photo-cf-support/build/apps/plugins/sdl/progs/duke3d/Game/src/global.o
globalpalwritten    0x4               /home/jbrawley/Desktop/rockbox-photo-cf-support/build/apps/plugins/sdl/progs/duke3d/Engine/src/engine.o
XG_System_chorus_type
                    0x4               /home/jbrawley/Desktop/rockbox-photo-cf-support/build/apps/plugins/sdl/SDL_mixer/timidity/playmidi.o
globalx3            0x4               /home/jbrawley/Desktop/rockbox-photo-cf-support/build/apps/plugins/sdl/progs/duke3d/Engine/src/engine.o
asm1                0x4               /home/jbrawley/Desktop/rockbox-photo-cf-support/build/apps/plugins/sdl/progs/duke3d/Engine/src/engine.o
gotpic              0x480             /home/jbrawley/Desktop/rockbox-photo-cf-support/build/apps/plugins/sdl/progs/duke3d/Engine/src/tiles.o
screen              0x4               /home/jbrawley/Desktop/rockbox-photo-cf-support/build/apps/plugins/sdl/progs/duke3d/Engine/src/display.o
prevspritestat      0x2000            /home/jbrawley/Desktop/rockbox-photo-cf-support/build/apps/plugins/sdl/progs/duke3d/Engine/src/engine.o
syncstat            0x1               /home/jbrawley/Desktop/rockbox-photo-cf-support/build/apps/plugins/sdl/progs/duke3d/Game/src/global.o
textptr             0x4               /home/jbrawley/Desktop/rockbox-photo-cf-support/build/apps/plugins/sdl/progs/duke3d/Game/src/global.o
myybak              0x400             /home/jbrawley/Desktop/rockbox-photo-cf-support/build/apps/plugins/sdl/progs/duke3d/Game/src/global.o
level_names         0x5ac             /home/jbrawley/Desktop/rockbox-photo-cf-support/build/apps/plugins/sdl/progs/duke3d/Game/src/global.o
main_thread_id      0x4               /home/jbrawley/Desktop/rockbox-photo-cf-support/build/apps/plugins/sdl/main.o
CONTROL_JoyHatState2
                    0x4               /home/jbrawley/Desktop/rockbox-photo-cf-support/build/apps/plugins/sdl/progs/duke3d/Game/src/control.o
myz                 0x4               /home/jbrawley/Desktop/rockbox-photo-cf-support/build/apps/plugins/sdl/progs/duke3d/Game/src/global.o
lastageclock        0x4               /home/jbrawley/Desktop/rockbox-photo-cf-support/build/apps/plugins/sdl/progs/duke3d/Engine/src/engine.o
frameplace          0x4               /home/jbrawley/Desktop/rockbox-photo-cf-support/build/apps/plugins/sdl/progs/duke3d/Engine/src/display.o
wy2                 0x4               /home/jbrawley/Desktop/rockbox-photo-cf-support/build/apps/plugins/sdl/progs/duke3d/Engine/src/engine.o
spriteq             0x800             /home/jbrawley/Desktop/rockbox-photo-cf-support/build/apps/plugins/sdl/progs/duke3d/Game/src/global.o
angvel              0x4               /home/jbrawley/Desktop/rockbox-photo-cf-support/build/apps/plugins/sdl/progs/duke3d/Game/src/global.o
cosglobalang        0x4               /home/jbrawley/Desktop/rockbox-photo-cf-support/build/apps/plugins/sdl/progs/duke3d/Engine/src/engine.o
tsmach_ecx          0x4               /home/jbrawley/Desktop/rockbox-photo-cf-support/build/apps/plugins/sdl/progs/duke3d/Engine/src/draw.o
startposx           0x4               /home/jbrawley/Desktop/rockbox-photo-cf-support/build/apps/plugins/sdl/progs/duke3d/Engine/src/engine.o
mouseSensitivity_X  0x4               /home/jbrawley/Desktop/rockbox-photo-cf-support/build/apps/plugins/sdl/progs/duke3d/Game/src/config.o
startsectnum        0x2               /home/jbrawley/Desktop/rockbox-photo-cf-support/build/apps/plugins/sdl/progs/duke3d/Engine/src/engine.o
display_mirror      0x1               /home/jbrawley/Desktop/rockbox-photo-cf-support/build/apps/plugins/sdl/progs/duke3d/Game/src/global.o
MusicDevice         0x4               /home/jbrawley/Desktop/rockbox-photo-cf-support/build/apps/plugins/sdl/progs/duke3d/Game/src/config.o
showinvisibility    0x1               /home/jbrawley/Desktop/rockbox-photo-cf-support/build/apps/plugins/sdl/progs/duke3d/Engine/src/engine.o
cyclers             0xc00             /home/jbrawley/Desktop/rockbox-photo-cf-support/build/apps/plugins/sdl/progs/duke3d/Game/src/global.o
argc                0x4               /home/jbrawley/Desktop/rockbox-photo-cf-support/build/apps/plugins/sdl/progs/duke3d/Game/src/console.o
nextspritesect      0x2000            /home/jbrawley/Desktop/rockbox-photo-cf-support/build/apps/plugins/sdl/progs/duke3d/Engine/src/engine.o
playerreadyflag     0x10              /home/jbrawley/Desktop/rockbox-photo-cf-support/build/apps/plugins/sdl/progs/duke3d/Game/src/global.o
mymembuf            0x4               /home/jbrawley/Desktop/rockbox-photo-cf-support/build/apps/plugins/sdl/progs/duke3d/Game/src/audiolib/multivoc.o
globalbufplc        0x4               /home/jbrawley/Desktop/rockbox-photo-cf-support/build/apps/plugins/sdl/progs/duke3d/Engine/src/engine.o
waterpal            0x300             /home/jbrawley/Desktop/rockbox-photo-cf-support/build/apps/plugins/sdl/progs/duke3d/Game/src/game.o
KB_LastScan         0x1               /home/jbrawley/Desktop/rockbox-photo-cf-support/build/apps/plugins/sdl/progs/duke3d/Game/src/keyboard.o
avghorz             0x4               /home/jbrawley/Desktop/rockbox-photo-cf-support/build/apps/plugins/sdl/progs/duke3d/Game/src/global.o
nonsharedtimer      0x4               /home/jbrawley/Desktop/rockbox-photo-cf-support/build/apps/plugins/sdl/progs/duke3d/Game/src/game.o
CONTROL_MouseDigitalAxisState1
                    0x4               /home/jbrawley/Desktop/rockbox-photo-cf-support/build/apps/plugins/sdl/progs/duke3d/Game/src/control.o
tempsectorz         0x1000            /home/jbrawley/Desktop/rockbox-photo-cf-support/build/apps/plugins/sdl/progs/duke3d/Game/src/game.o
show2dwall          0x400             /home/jbrawley/Desktop/rockbox-photo-cf-support/build/apps/plugins/sdl/progs/duke3d/Engine/src/engine.o
midi_name           0x105             /home/jbrawley/Desktop/rockbox-photo-cf-support/build/apps/plugins/sdl/SDL_mixer/timidity/readmidi.o
headspritestat      0x802             /home/jbrawley/Desktop/rockbox-photo-cf-support/build/apps/plugins/sdl/progs/duke3d/Engine/src/engine.o
bufplce             0x10              /home/jbrawley/Desktop/rockbox-photo-cf-support/build/apps/plugins/sdl/progs/duke3d/Engine/src/engine.o
pub                 0x1               /home/jbrawley/Desktop/rockbox-photo-cf-support/build/apps/plugins/sdl/progs/duke3d/Game/src/global.o
haltsoundhack       0x1               /home/jbrawley/Desktop/rockbox-photo-cf-support/build/apps/plugins/sdl/progs/duke3d/Game/src/sector.o
drumreverberation   0x800             /home/jbrawley/Desktop/rockbox-photo-cf-support/build/apps/plugins/sdl/SDL_mixer/timidity/playmidi.o
spriteqloc          0x2               /home/jbrawley/Desktop/rockbox-photo-cf-support/build/apps/plugins/sdl/progs/duke3d/Game/src/global.o
g_CV_classic        0x4               /home/jbrawley/Desktop/rockbox-photo-cf-support/build/apps/plugins/sdl/progs/duke3d/Engine/src/cache.o
current_menu        0x4               /home/jbrawley/Desktop/rockbox-photo-cf-support/build/apps/plugins/sdl/progs/duke3d/Game/src/global.o
m_Files             0x4               /home/jbrawley/Desktop/rockbox-photo-cf-support/build/apps/plugins/sdl/progs/duke3d/Game/src/menues.o
MusicVolume         0x4               /home/jbrawley/Desktop/rockbox-photo-cf-support/build/apps/plugins/sdl/progs/duke3d/Game/src/config.o
lastvisinc          0x4               /home/jbrawley/Desktop/rockbox-photo-cf-support/build/apps/plugins/sdl/progs/duke3d/Game/src/player.o
buttonstat          0x2               /home/jbrawley/Desktop/rockbox-photo-cf-support/build/apps/plugins/sdl/progs/duke3d/Game/src/menues.o
viewoffset          0x4               /home/jbrawley/Desktop/rockbox-photo-cf-support/build/apps/plugins/sdl/progs/duke3d/Engine/src/engine.o
palookupoffse       0x10              /home/jbrawley/Desktop/rockbox-photo-cf-support/build/apps/plugins/sdl/progs/duke3d/Engine/src/engine.o
playerquitflag      0x10              /home/jbrawley/Desktop/rockbox-photo-cf-support/build/apps/plugins/sdl/progs/duke3d/Game/src/global.o
globaly3            0x4               /home/jbrawley/Desktop/rockbox-photo-cf-support/build/apps/plugins/sdl/progs/duke3d/Engine/src/engine.o
impact_damage       0x4               /home/jbrawley/Desktop/rockbox-photo-cf-support/build/apps/plugins/sdl/progs/duke3d/Game/src/global.o
volnum              0x4               /home/jbrawley/Desktop/rockbox-photo-cf-support/build/apps/plugins/sdl/progs/duke3d/Game/src/menues.o
numsectors          0x2               /home/jbrawley/Desktop/rockbox-photo-cf-support/build/apps/plugins/sdl/progs/duke3d/Engine/src/engine.o
parallaxvisibility  0x4               /home/jbrawley/Desktop/rockbox-photo-cf-support/build/apps/plugins/sdl/progs/duke3d/Engine/src/engine.o
cheatbuflen         0x1               /home/jbrawley/Desktop/rockbox-photo-cf-support/build/apps/plugins/sdl/progs/duke3d/Game/src/game.o
soundpe             0x384             /home/jbrawley/Desktop/rockbox-photo-cf-support/build/apps/plugins/sdl/progs/duke3d/Game/src/global.o
typebuf             0x29              /home/jbrawley/Desktop/rockbox-photo-cf-support/build/apps/plugins/sdl/progs/duke3d/Game/src/audiolib/multivoc.o
vel                 0x4               /home/jbrawley/Desktop/rockbox-photo-cf-support/build/apps/plugins/sdl/progs/duke3d/Game/src/global.o
mycursectnum        0x2               /home/jbrawley/Desktop/rockbox-photo-cf-support/build/apps/plugins/sdl/progs/duke3d/Game/src/global.o
camsprite           0x2               /home/jbrawley/Desktop/rockbox-photo-cf-support/build/apps/plugins/sdl/progs/duke3d/Game/src/global.o
lockrecip           0x320             /home/jbrawley/Desktop/rockbox-photo-cf-support/build/apps/plugins/sdl/progs/duke3d/Engine/src/cache.o
everyothertime      0x1               /home/jbrawley/Desktop/rockbox-photo-cf-support/build/apps/plugins/sdl/progs/duke3d/Game/src/global.o
myhorizoff          0x2               /home/jbrawley/Desktop/rockbox-photo-cf-support/build/apps/plugins/sdl/progs/duke3d/Game/src/global.o
slimepal            0x300             /home/jbrawley/Desktop/rockbox-photo-cf-support/build/apps/plugins/sdl/progs/duke3d/Game/src/game.o
clouds              0x100             /home/jbrawley/Desktop/rockbox-photo-cf-support/build/apps/plugins/sdl/progs/duke3d/Game/src/global.o
seenineblastradius  0x4               /home/jbrawley/Desktop/rockbox-photo-cf-support/build/apps/plugins/sdl/progs/duke3d/Game/src/global.o
randomseed          0x4               /home/jbrawley/Desktop/rockbox-photo-cf-support/build/apps/plugins/sdl/progs/duke3d/Engine/src/engine.o
show_shareware      0x4               /home/jbrawley/Desktop/rockbox-photo-cf-support/build/apps/plugins/sdl/progs/duke3d/Game/src/global.o
rtsptr              0x4               /home/jbrawley/Desktop/rockbox-photo-cf-support/build/apps/plugins/sdl/progs/duke3d/Game/src/game.o
vplce               0x10              /home/jbrawley/Desktop/rockbox-photo-cf-support/build/apps/plugins/sdl/progs/duke3d/Engine/src/engine.o
sprite              0x2c000           /home/jbrawley/Desktop/rockbox-photo-cf-support/build/apps/plugins/sdl/progs/duke3d/Engine/src/engine.o
ortcb               0x1               /home/jbrawley/Desktop/rockbox-photo-cf-support/build/apps/plugins/sdl/progs/duke3d/Engine/src/engine.o
lasermode           0x1               /home/jbrawley/Desktop/rockbox-photo-cf-support/build/apps/plugins/sdl/progs/duke3d/Game/src/global.o
shrinkerblastradius
                    0x4               /home/jbrawley/Desktop/rockbox-photo-cf-support/build/apps/plugins/sdl/progs/duke3d/Game/src/global.o
globalxshift        0x1               /home/jbrawley/Desktop/rockbox-photo-cf-support/build/apps/plugins/sdl/progs/duke3d/Engine/src/engine.o
tspal               0x4               /home/jbrawley/Desktop/rockbox-photo-cf-support/build/apps/plugins/sdl/progs/duke3d/Engine/src/draw.o
globalorientation   0x4               /home/jbrawley/Desktop/rockbox-photo-cf-support/build/apps/plugins/sdl/progs/duke3d/Engine/src/engine.o
globaldclip         0x4               /home/jbrawley/Desktop/rockbox-photo-cf-support/build/apps/plugins/sdl/progs/duke3d/Engine/src/engine.o
mirrorcnt           0x2               /home/jbrawley/Desktop/rockbox-photo-cf-support/build/apps/plugins/sdl/progs/duke3d/Game/src/global.o
neartagsprite       0x2               /home/jbrawley/Desktop/rockbox-photo-cf-support/build/apps/plugins/sdl/progs/duke3d/Game/src/global.o
tmpmax              0x20              /home/jbrawley/Desktop/rockbox-photo-cf-support/build/apps/plugins/sdl/progs/duke3d/Engine/src/mmulti.o
mymaxlag            0x4               /home/jbrawley/Desktop/rockbox-photo-cf-support/build/apps/plugins/sdl/progs/duke3d/Game/src/global.o
designertime        0xb0              /home/jbrawley/Desktop/rockbox-photo-cf-support/build/apps/plugins/sdl/progs/duke3d/Game/src/global.o
cvar_binding_list   0x1100            /home/jbrawley/Desktop/rockbox-photo-cf-support/build/apps/plugins/sdl/progs/duke3d/Game/src/cvars.o
xdim                0x4               /home/jbrawley/Desktop/rockbox-photo-cf-support/build/apps/plugins/sdl/progs/duke3d/Engine/src/engine.o
wx2                 0x4               /home/jbrawley/Desktop/rockbox-photo-cf-support/build/apps/plugins/sdl/progs/duke3d/Engine/src/engine.o
artfilplc           0x4               /home/jbrawley/Desktop/rockbox-photo-cf-support/build/apps/plugins/sdl/progs/duke3d/Engine/src/engine.o
numplr              0x4               /home/jbrawley/Desktop/rockbox-photo-cf-support/build/apps/plugins/sdl/progs/duke3d/Game/src/menues.o
CONTROL_MousePresent
                    0x1               /home/jbrawley/Desktop/rockbox-photo-cf-support/build/apps/plugins/sdl/progs/duke3d/Game/src/control.o
script              0x13fb0           /home/jbrawley/Desktop/rockbox-photo-cf-support/build/apps/plugins/sdl/progs/duke3d/Game/src/global.o
frags               0x200             /home/jbrawley/Desktop/rockbox-photo-cf-support/build/apps/plugins/sdl/progs/duke3d/Game/src/global.o
syncvalhead         0x40              /home/jbrawley/Desktop/rockbox-photo-cf-support/build/apps/plugins/sdl/progs/duke3d/Game/src/global.o
globalshiftval      0x2               /home/jbrawley/Desktop/rockbox-photo-cf-support/build/apps/plugins/sdl/progs/duke3d/Engine/src/engine.o
omyx                0x4               /home/jbrawley/Desktop/rockbox-photo-cf-support/build/apps/plugins/sdl/progs/duke3d/Game/src/global.o
numplayersprites    0x1               /home/jbrawley/Desktop/rockbox-photo-cf-support/build/apps/plugins/sdl/progs/duke3d/Game/src/global.o
horiz               0x4               /home/jbrawley/Desktop/rockbox-photo-cf-support/build/apps/plugins/sdl/progs/duke3d/Game/src/global.o
xdimenscale         0x4               /home/jbrawley/Desktop/rockbox-photo-cf-support/build/apps/plugins/sdl/progs/duke3d/Engine/src/engine.o
avgfvel             0x4               /home/jbrawley/Desktop/rockbox-photo-cf-support/build/apps/plugins/sdl/progs/duke3d/Game/src/global.o
avgbits             0x4               /home/jbrawley/Desktop/rockbox-photo-cf-support/build/apps/plugins/sdl/progs/duke3d/Game/src/global.o
MV_MixPosition      0x4               /home/jbrawley/Desktop/rockbox-photo-cf-support/build/apps/plugins/sdl/progs/duke3d/Game/src/audiolib/multivoc.o
movefifosendplc     0x4               /home/jbrawley/Desktop/rockbox-photo-cf-support/build/apps/plugins/sdl/progs/duke3d/Game/src/global.o
sbar                0x66              /home/jbrawley/Desktop/rockbox-photo-cf-support/build/apps/plugins/sdl/progs/duke3d/Game/src/global.o
sounddebugActiveSounds
                    0x4               /home/jbrawley/Desktop/rockbox-photo-cf-support/build/apps/plugins/sdl/progs/duke3d/Engine/src/cache.o
rb_SDL_ProcessEvents
                    0x20              /home/jbrawley/Desktop/rockbox-photo-cf-support/build/apps/plugins/sdl/src/events/SDL_events.o
AmbienceToggle      0x4               /home/jbrawley/Desktop/rockbox-photo-cf-support/build/apps/plugins/sdl/progs/duke3d/Game/src/config.o
windowx1            0x4               /home/jbrawley/Desktop/rockbox-photo-cf-support/build/apps/plugins/sdl/progs/duke3d/Engine/src/engine.o
validmodecnt        0x4               /home/jbrawley/Desktop/rockbox-photo-cf-support/build/apps/plugins/sdl/progs/duke3d/Engine/src/engine.o
quotebotgoal        0x4               /home/jbrawley/Desktop/rockbox-photo-cf-support/build/apps/plugins/sdl/progs/duke3d/Game/src/game.o
music_fn            0x23c             /home/jbrawley/Desktop/rockbox-photo-cf-support/build/apps/plugins/sdl/progs/duke3d/Game/src/global.o
sinviewingrangeglobalang
                    0x4               /home/jbrawley/Desktop/rockbox-photo-cf-support/build/apps/plugins/sdl/progs/duke3d/Engine/src/engine.o
ready2send          0x1               /home/jbrawley/Desktop/rockbox-photo-cf-support/build/apps/plugins/sdl/progs/duke3d/Game/src/global.o
g_CV_num_console_lines
                    0x4               /home/jbrawley/Desktop/rockbox-photo-cf-support/build/apps/plugins/sdl/progs/duke3d/Engine/src/cache.o
last_used_text      0x4               /home/jbrawley/Desktop/rockbox-photo-cf-support/build/apps/plugins/sdl/progs/duke3d/Game/src/gamedef.o
scriptptr           0x4               /home/jbrawley/Desktop/rockbox-photo-cf-support/build/apps/plugins/sdl/progs/duke3d/Game/src/global.o
show2dsector        0x80              /home/jbrawley/Desktop/rockbox-photo-cf-support/build/apps/plugins/sdl/progs/duke3d/Engine/src/engine.o
startdmost          0xc80             /home/jbrawley/Desktop/rockbox-photo-cf-support/build/apps/plugins/sdl/progs/duke3d/Engine/src/engine.o
globalpal           0x4               /home/jbrawley/Desktop/rockbox-photo-cf-support/build/apps/plugins/sdl/progs/duke3d/Engine/src/engine.o
fta_quotes          0x3000            /home/jbrawley/Desktop/rockbox-photo-cf-support/build/apps/plugins/sdl/progs/duke3d/Game/src/global.o
max_ammo_amount     0x30              /home/jbrawley/Desktop/rockbox-photo-cf-support/build/apps/plugins/sdl/progs/duke3d/Game/src/global.o
numtilefiles        0x4               /home/jbrawley/Desktop/rockbox-photo-cf-support/build/apps/plugins/sdl/progs/duke3d/Engine/src/engine.o
camerashitable      0x1               /home/jbrawley/Desktop/rockbox-photo-cf-support/build/apps/plugins/sdl/progs/duke3d/Game/src/global.o
myxbak              0x400             /home/jbrawley/Desktop/rockbox-photo-cf-support/build/apps/plugins/sdl/progs/duke3d/Game/src/global.o
ylookup             0x12c4            /home/jbrawley/Desktop/rockbox-photo-cf-support/build/apps/plugins/sdl/progs/duke3d/Engine/src/engine.o
parallaxtype        0x1               /home/jbrawley/Desktop/rockbox-photo-cf-support/build/apps/plugins/sdl/progs/duke3d/Engine/src/engine.o
po                  0x100             /home/jbrawley/Desktop/rockbox-photo-cf-support/build/apps/plugins/sdl/progs/duke3d/Game/src/global.o
CONTROL_RudderEnabled
                    0x4               /home/jbrawley/Desktop/rockbox-photo-cf-support/build/apps/plugins/sdl/progs/duke3d/Game/src/control.o
omyz                0x4               /home/jbrawley/Desktop/rockbox-photo-cf-support/build/apps/plugins/sdl/progs/duke3d/Game/src/global.o
recfilep            0x4               /home/jbrawley/Desktop/rockbox-photo-cf-support/build/apps/plugins/sdl/progs/duke3d/Game/src/game.o
imageSize           0x4               /home/jbrawley/Desktop/rockbox-photo-cf-support/build/apps/plugins/sdl/progs/duke3d/Engine/src/display.o
myreturntocenter    0x1               /home/jbrawley/Desktop/rockbox-photo-cf-support/build/apps/plugins/sdl/progs/duke3d/Game/src/global.o
activepage          0x4               /home/jbrawley/Desktop/rockbox-photo-cf-support/build/apps/plugins/sdl/progs/duke3d/Engine/src/engine.o
current_filename    0x400             /home/jbrawley/Desktop/rockbox-photo-cf-support/build/apps/plugins/sdl/SDL_mixer/timidity/common.o
smalltextfont       0x400             /home/jbrawley/Desktop/rockbox-photo-cf-support/build/apps/plugins/sdl/progs/duke3d/Engine/src/engine.o
prevspritesect      0x2000            /home/jbrawley/Desktop/rockbox-photo-cf-support/build/apps/plugins/sdl/progs/duke3d/Engine/src/engine.o
parallaxyscale      0x4               /home/jbrawley/Desktop/rockbox-photo-cf-support/build/apps/plugins/sdl/progs/duke3d/Engine/src/engine.o
globalzd            0x4               /home/jbrawley/Desktop/rockbox-photo-cf-support/build/apps/plugins/sdl/progs/duke3d/Engine/src/engine.o
cloudx              0x100             /home/jbrawley/Desktop/rockbox-photo-cf-support/build/apps/plugins/sdl/progs/duke3d/Game/src/global.o
bouncemineblastradius
                    0x4               /home/jbrawley/Desktop/rockbox-photo-cf-support/build/apps/plugins/sdl/progs/duke3d/Game/src/global.o
sector              0xa000            /home/jbrawley/Desktop/rockbox-photo-cf-support/build/apps/plugins/sdl/progs/duke3d/Engine/src/engine.o
nextspritestat      0x2000            /home/jbrawley/Desktop/rockbox-photo-cf-support/build/apps/plugins/sdl/progs/duke3d/Engine/src/engine.o
VoiceToggle         0x4               /home/jbrawley/Desktop/rockbox-photo-cf-support/build/apps/plugins/sdl/progs/duke3d/Game/src/config.o
connecthead         0x2               /home/jbrawley/Desktop/rockbox-photo-cf-support/build/apps/plugins/sdl/progs/duke3d/Engine/src/dummy_multi.o
globalyshift        0x1               /home/jbrawley/Desktop/rockbox-photo-cf-support/build/apps/plugins/sdl/progs/duke3d/Engine/src/engine.o
visibility          0x4               /home/jbrawley/Desktop/rockbox-photo-cf-support/build/apps/plugins/sdl/progs/duke3d/Engine/src/engine.o
qe                  0x1               /home/jbrawley/Desktop/rockbox-photo-cf-support/build/apps/plugins/sdl/progs/duke3d/Game/src/game.o
spritesortcnt       0x4               /home/jbrawley/Desktop/rockbox-photo-cf-support/build/apps/plugins/sdl/progs/duke3d/Engine/src/engine.o
dplc                0xc82             /home/jbrawley/Desktop/rockbox-photo-cf-support/build/apps/plugins/sdl/progs/duke3d/Engine/src/engine.o
globalvisibility    0x4               /home/jbrawley/Desktop/rockbox-photo-cf-support/build/apps/plugins/sdl/progs/duke3d/Engine/src/engine.o
artversion          0x4               /home/jbrawley/Desktop/rockbox-photo-cf-support/build/apps/plugins/sdl/progs/duke3d/Engine/src/tiles.o
betaname            0x50              /home/jbrawley/Desktop/rockbox-photo-cf-support/build/apps/plugins/sdl/progs/duke3d/Game/src/global.o
packbuf             0x240             /home/jbrawley/Desktop/rockbox-photo-cf-support/build/apps/plugins/sdl/progs/duke3d/Game/src/global.o
pus                 0x1               /home/jbrawley/Desktop/rockbox-photo-cf-support/build/apps/plugins/sdl/progs/duke3d/Game/src/global.o
global_random       0x2               /home/jbrawley/Desktop/rockbox-photo-cf-support/build/apps/plugins/sdl/progs/duke3d/Game/src/global.o
globaly             0x4               /home/jbrawley/Desktop/rockbox-photo-cf-support/build/apps/plugins/sdl/progs/duke3d/Engine/src/engine.o
show2dsprite        0x200             /home/jbrawley/Desktop/rockbox-photo-cf-support/build/apps/plugins/sdl/progs/duke3d/Engine/src/engine.o
blackband           0x4               /home/jbrawley/Desktop/rockbox-photo-cf-support/build/apps/plugins/sdl/progs/duke3d/Engine/src/engine.o
bakumost            0xc82             /home/jbrawley/Desktop/rockbox-photo-cf-support/build/apps/plugins/sdl/progs/duke3d/Engine/src/engine.o
globalx1            0x4               /home/jbrawley/Desktop/rockbox-photo-cf-support/build/apps/plugins/sdl/progs/duke3d/Engine/src/engine.o
totalreccnt         0x4               /home/jbrawley/Desktop/rockbox-photo-cf-support/build/apps/plugins/sdl/progs/duke3d/Game/src/game.o
animatecnt          0x4               /home/jbrawley/Desktop/rockbox-photo-cf-support/build/apps/plugins/sdl/progs/duke3d/Game/src/global.o
sounds              0x189c            /home/jbrawley/Desktop/rockbox-photo-cf-support/build/apps/plugins/sdl/progs/duke3d/Game/src/global.o
globalposz          0x4               /home/jbrawley/Desktop/rockbox-photo-cf-support/build/apps/plugins/sdl/progs/duke3d/Engine/src/engine.o
lastPalette         0x300             /home/jbrawley/Desktop/rockbox-photo-cf-support/build/apps/plugins/sdl/progs/duke3d/Engine/src/display.o
numbunches          0x2               /home/jbrawley/Desktop/rockbox-photo-cf-support/build/apps/plugins/sdl/progs/duke3d/Engine/src/engine.o
startposz           0x4               /home/jbrawley/Desktop/rockbox-photo-cf-support/build/apps/plugins/sdl/progs/duke3d/Engine/src/engine.o
xres                0x4               /home/jbrawley/Desktop/rockbox-photo-cf-support/build/apps/plugins/sdl/progs/duke3d/Engine/src/display.o
startposy           0x4               /home/jbrawley/Desktop/rockbox-photo-cf-support/build/apps/plugins/sdl/progs/duke3d/Engine/src/engine.o
neartagsector       0x2               /home/jbrawley/Desktop/rockbox-photo-cf-support/build/apps/plugins/sdl/progs/duke3d/Game/src/global.o
numpages            0x4               /home/jbrawley/Desktop/rockbox-photo-cf-support/build/apps/plugins/sdl/progs/duke3d/Engine/src/engine.o
omyhorizoff         0x2               /home/jbrawley/Desktop/rockbox-photo-cf-support/build/apps/plugins/sdl/progs/duke3d/Game/src/global.o
drumchorusdepth     0x800             /home/jbrawley/Desktop/rockbox-photo-cf-support/build/apps/plugins/sdl/SDL_mixer/timidity/playmidi.o
halfxdimen          0x4               /home/jbrawley/Desktop/rockbox-photo-cf-support/build/apps/plugins/sdl/progs/duke3d/Engine/src/engine.o
groupefil_crc32     0x10              /home/jbrawley/Desktop/rockbox-photo-cf-support/build/apps/plugins/sdl/progs/duke3d/Engine/src/filesystem.o
reciptable          0x2000            /home/jbrawley/Desktop/rockbox-photo-cf-support/build/apps/plugins/sdl/progs/duke3d/Engine/src/engine.o
sounddebugDeallocateSoundCalls
                    0x4               /home/jbrawley/Desktop/rockbox-photo-cf-support/build/apps/plugins/sdl/progs/duke3d/Engine/src/cache.o
levnum              0x4               /home/jbrawley/Desktop/rockbox-photo-cf-support/build/apps/plugins/sdl/progs/duke3d/Game/src/menues.o
channel             0x580             /home/jbrawley/Desktop/rockbox-photo-cf-support/build/apps/plugins/sdl/SDL_mixer/timidity/playmidi.o
globalzx            0x4               /home/jbrawley/Desktop/rockbox-photo-cf-support/build/apps/plugins/sdl/progs/duke3d/Engine/src/engine.o
ControllerType      0x4               /home/jbrawley/Desktop/rockbox-photo-cf-support/build/apps/plugins/sdl/progs/duke3d/Game/src/config.o
CONTROL_JoystickPort
                    0x1               /home/jbrawley/Desktop/rockbox-photo-cf-support/build/apps/plugins/sdl/progs/duke3d/Game/src/control.o
prog_idx            0x4               /home/jbrawley/Desktop/rockbox-photo-cf-support/build/apps/plugins/sdl/main.o
pskyoff             0x200             /home/jbrawley/Desktop/rockbox-photo-cf-support/build/apps/plugins/sdl/progs/duke3d/Engine/src/engine.o
ydim16              0x4               /home/jbrawley/Desktop/rockbox-photo-cf-support/build/apps/plugins/sdl/progs/duke3d/Engine/src/engine.o
umost               0xc82             /home/jbrawley/Desktop/rockbox-photo-cf-support/build/apps/plugins/sdl/progs/duke3d/Engine/src/engine.o
FXDevice            0x4               /home/jbrawley/Desktop/rockbox-photo-cf-support/build/apps/plugins/sdl/progs/duke3d/Game/src/config.o
labelcode           0x4               /home/jbrawley/Desktop/rockbox-photo-cf-support/build/apps/plugins/sdl/progs/duke3d/Game/src/global.o
avgavel             0x4               /home/jbrawley/Desktop/rockbox-photo-cf-support/build/apps/plugins/sdl/progs/duke3d/Game/src/global.o
MV_ReverbDelay      0x4               /home/jbrawley/Desktop/rockbox-photo-cf-support/build/apps/plugins/sdl/progs/duke3d/Game/src/audiolib/multivoc.o
MV_MixBuffer        0x44              /home/jbrawley/Desktop/rockbox-photo-cf-support/build/apps/plugins/sdl/progs/duke3d/Game/src/audiolib/multivoc.o
maxpages            0x4               /home/jbrawley/Desktop/rockbox-photo-cf-support/build/apps/plugins/sdl/progs/duke3d/Engine/src/display.o
searchwall          0x2               /home/jbrawley/Desktop/rockbox-photo-cf-support/build/apps/plugins/sdl/progs/duke3d/Engine/src/engine.o
ApogeePath          0x100             /home/jbrawley/Desktop/rockbox-photo-cf-support/build/apps/plugins/sdl/progs/duke3d/Game/src/global.o
last_zero           0x2               /home/jbrawley/Desktop/rockbox-photo-cf-support/build/apps/plugins/sdl/progs/duke3d/Game/src/menues.o
totalclock          0x4               /home/jbrawley/Desktop/rockbox-photo-cf-support/build/apps/plugins/sdl/progs/duke3d/Engine/src/engine.o
globalpisibility    0x4               /home/jbrawley/Desktop/rockbox-photo-cf-support/build/apps/plugins/sdl/progs/duke3d/Engine/src/engine.o
drealms             0x300             /home/jbrawley/Desktop/rockbox-photo-cf-support/build/apps/plugins/sdl/progs/duke3d/Game/src/game.o
myyvel              0x4               /home/jbrawley/Desktop/rockbox-photo-cf-support/build/apps/plugins/sdl/progs/duke3d/Game/src/global.o
soundpr             0x1c2             /home/jbrawley/Desktop/rockbox-photo-cf-support/build/apps/plugins/sdl/progs/duke3d/Game/src/global.o
searchsector        0x2               /home/jbrawley/Desktop/rockbox-photo-cf-support/build/apps/plugins/sdl/progs/duke3d/Engine/src/engine.o
numTiles            0x4               /home/jbrawley/Desktop/rockbox-photo-cf-support/build/apps/plugins/sdl/progs/duke3d/Engine/src/tiles.o
parallaxyoffs       0x4               /home/jbrawley/Desktop/rockbox-photo-cf-support/build/apps/plugins/sdl/progs/duke3d/Engine/src/engine.o
svel                0x4               /home/jbrawley/Desktop/rockbox-photo-cf-support/build/apps/plugins/sdl/progs/duke3d/Game/src/global.o
whiteband           0x4               /home/jbrawley/Desktop/rockbox-photo-cf-support/build/apps/plugins/sdl/progs/duke3d/Engine/src/engine.o
env_music_fn        0x34              /home/jbrawley/Desktop/rockbox-photo-cf-support/build/apps/plugins/sdl/progs/duke3d/Game/src/global.o
highlightcnt        0x2               /home/jbrawley/Desktop/rockbox-photo-cf-support/build/apps/plugins/sdl/progs/duke3d/Engine/src/engine.o
startang            0x2               /home/jbrawley/Desktop/rockbox-photo-cf-support/build/apps/plugins/sdl/progs/duke3d/Engine/src/engine.o
user_quote          0x200             /home/jbrawley/Desktop/rockbox-photo-cf-support/build/apps/plugins/sdl/progs/duke3d/Game/src/game.o
duke_sync           0xa0              /home/jbrawley/Desktop/rockbox-photo-cf-support/build/apps/plugins/sdl/progs/duke3d/Game/src/global.o
mouseSensitivity_Y  0x4               /home/jbrawley/Desktop/rockbox-photo-cf-support/build/apps/plugins/sdl/progs/duke3d/Game/src/config.o
turnheldtime        0x4               /home/jbrawley/Desktop/rockbox-photo-cf-support/build/apps/plugins/sdl/progs/duke3d/Game/src/player.o
AUDIO_BUFFER_SIZE   0x4               /home/jbrawley/Desktop/rockbox-photo-cf-support/build/apps/plugins/sdl/SDL_mixer/timidity/timidity.o
validmodeydim       0x400             /home/jbrawley/Desktop/rockbox-photo-cf-support/build/apps/plugins/sdl/progs/duke3d/Engine/src/engine.o
minfo               0x18              /home/jbrawley/Desktop/rockbox-photo-cf-support/build/apps/plugins/sdl/progs/duke3d/Game/src/menues.o
CONTROL_JoyButtonState2
                    0x4               /home/jbrawley/Desktop/rockbox-photo-cf-support/build/apps/plugins/sdl/progs/duke3d/Game/src/control.o
automapping         0x1               /home/jbrawley/Desktop/rockbox-photo-cf-support/build/apps/plugins/sdl/progs/duke3d/Engine/src/engine.o
loc                 0xa               /home/jbrawley/Desktop/rockbox-photo-cf-support/build/apps/plugins/sdl/progs/duke3d/Game/src/global.o
nomorelogohack      0x1               /home/jbrawley/Desktop/rockbox-photo-cf-support/build/apps/plugins/sdl/progs/duke3d/Game/src/game.o
numcyclers          0x2               /home/jbrawley/Desktop/rockbox-photo-cf-support/build/apps/plugins/sdl/progs/duke3d/Game/src/global.o
pageoffset          0x4               /home/jbrawley/Desktop/rockbox-photo-cf-support/build/apps/plugins/sdl/progs/duke3d/Engine/src/engine.o
neartagwall         0x2               /home/jbrawley/Desktop/rockbox-photo-cf-support/build/apps/plugins/sdl/progs/duke3d/Game/src/global.o
adder               0x4               /home/jbrawley/Desktop/rockbox-photo-cf-support/build/apps/plugins/sdl/progs/duke3d/Engine/src/draw.o
labelcnt            0x4               /home/jbrawley/Desktop/rockbox-photo-cf-support/build/apps/plugins/sdl/progs/duke3d/Game/src/global.o
lastcontroltime     0x4               /home/jbrawley/Desktop/rockbox-photo-cf-support/build/apps/plugins/sdl/progs/duke3d/Game/src/player.o
KeyMapping          0xc0              /home/jbrawley/Desktop/rockbox-photo-cf-support/build/apps/plugins/sdl/progs/duke3d/Game/src/audiolib/multivoc.o
NumChannels         0x4               /home/jbrawley/Desktop/rockbox-photo-cf-support/build/apps/plugins/sdl/progs/duke3d/Game/src/config.o
CONTROL_MouseDigitalAxisState2
                    0x4               /home/jbrawley/Desktop/rockbox-photo-cf-support/build/apps/plugins/sdl/progs/duke3d/Game/src/control.o
asm4                0x4               /home/jbrawley/Desktop/rockbox-photo-cf-support/build/apps/plugins/sdl/progs/duke3d/Engine/src/engine.o
windowy2            0x4               /home/jbrawley/Desktop/rockbox-photo-cf-support/build/apps/plugins/sdl/progs/duke3d/Engine/src/engine.o
ud                  0xb74             /home/jbrawley/Desktop/rockbox-photo-cf-support/build/apps/plugins/sdl/progs/duke3d/Game/src/global.o
vesachecked         0x1               /home/jbrawley/Desktop/rockbox-photo-cf-support/build/apps/plugins/sdl/progs/duke3d/Engine/src/display.o
searchstat          0x2               /home/jbrawley/Desktop/rockbox-photo-cf-support/build/apps/plugins/sdl/progs/duke3d/Engine/src/engine.o
myonground          0x1               /home/jbrawley/Desktop/rockbox-photo-cf-support/build/apps/plugins/sdl/progs/duke3d/Game/src/global.o
last_fifty          0x2               /home/jbrawley/Desktop/rockbox-photo-cf-support/build/apps/plugins/sdl/progs/duke3d/Game/src/menues.o
rb_SDL_numcds       0x4               /home/jbrawley/Desktop/rockbox-photo-cf-support/build/apps/plugins/sdl/src/cdrom/SDL_cdrom.o
singlobalang        0x4               /home/jbrawley/Desktop/rockbox-photo-cf-support/build/apps/plugins/sdl/progs/duke3d/Engine/src/engine.o
MusicPtr            0x11940           /home/jbrawley/Desktop/rockbox-photo-cf-support/build/apps/plugins/sdl/progs/duke3d/Game/src/global.o
insptr              0x4               /home/jbrawley/Desktop/rockbox-photo-cf-support/build/apps/plugins/sdl/progs/duke3d/Game/src/global.o
globalposx          0x4               /home/jbrawley/Desktop/rockbox-photo-cf-support/build/apps/plugins/sdl/progs/duke3d/Engine/src/engine.o
deletespot          0x2               /home/jbrawley/Desktop/rockbox-photo-cf-support/build/apps/plugins/sdl/progs/duke3d/Game/src/menues.o
tempbuf             0x800             /home/jbrawley/Desktop/rockbox-photo-cf-support/build/apps/plugins/sdl/progs/duke3d/Game/src/global.o
numpalookups        0x2               /home/jbrawley/Desktop/rockbox-photo-cf-support/build/apps/plugins/sdl/progs/duke3d/Engine/src/engine.o
fricxv              0x4               /home/jbrawley/Desktop/rockbox-photo-cf-support/build/apps/plugins/sdl/progs/duke3d/Game/src/global.o
g_CV_DebugFileAccess
                    0x4               /home/jbrawley/Desktop/rockbox-photo-cf-support/build/apps/plugins/sdl/progs/duke3d/Engine/src/cache.o
dirty_buffer        0x46              /home/jbrawley/Desktop/rockbox-photo-cf-support/build/apps/plugins/sdl/progs/duke3d/Game/src/console.o
g_CV_DebugJoystick  0x4               /home/jbrawley/Desktop/rockbox-photo-cf-support/build/apps/plugins/sdl/progs/duke3d/Engine/src/cache.o
drumpanpot          0x800             /home/jbrawley/Desktop/rockbox-photo-cf-support/build/apps/plugins/sdl/SDL_mixer/timidity/playmidi.o
num_ochannels       0x4               /home/jbrawley/Desktop/rockbox-photo-cf-support/build/apps/plugins/sdl/SDL_mixer/timidity/timidity.o
lockclock           0x4               /home/jbrawley/Desktop/rockbox-photo-cf-support/build/apps/plugins/sdl/progs/duke3d/Game/src/global.o
mirrorwall          0x80              /home/jbrawley/Desktop/rockbox-photo-cf-support/build/apps/plugins/sdl/progs/duke3d/Game/src/global.o
globalxpanning      0x4               /home/jbrawley/Desktop/rockbox-photo-cf-support/build/apps/plugins/sdl/progs/duke3d/Engine/src/engine.o
killit_flag         0x1               /home/jbrawley/Desktop/rockbox-photo-cf-support/build/apps/plugins/sdl/progs/duke3d/Game/src/global.o
hittype             0x48000           /home/jbrawley/Desktop/rockbox-photo-cf-support/build/apps/plugins/sdl/progs/duke3d/Game/src/global.o
animategoal         0x100             /home/jbrawley/Desktop/rockbox-photo-cf-support/build/apps/plugins/sdl/progs/duke3d/Game/src/global.o
neartaghitdist      0x4               /home/jbrawley/Desktop/rockbox-photo-cf-support/build/apps/plugins/sdl/progs/duke3d/Game/src/global.o
myy                 0x4               /home/jbrawley/Desktop/rockbox-photo-cf-support/build/apps/plugins/sdl/progs/duke3d/Game/src/global.o
omyhoriz            0x2               /home/jbrawley/Desktop/rockbox-photo-cf-support/build/apps/plugins/sdl/progs/duke3d/Game/src/global.o
CONTROL_JoystickEnabled
                    0x1               /home/jbrawley/Desktop/rockbox-photo-cf-support/build/apps/plugins/sdl/progs/duke3d/Game/src/control.o
XG_System_variation_type
                    0x4               /home/jbrawley/Desktop/rockbox-photo-cf-support/build/apps/plugins/sdl/SDL_mixer/timidity/playmidi.o
bakwindowx1         0x10              /home/jbrawley/Desktop/rockbox-photo-cf-support/build/apps/plugins/sdl/progs/duke3d/Engine/src/engine.o
OpponentSoundToggle
                    0x4               /home/jbrawley/Desktop/rockbox-photo-cf-support/build/apps/plugins/sdl/progs/duke3d/Game/src/config.o
sintable            0x1000            /home/jbrawley/Desktop/rockbox-photo-cf-support/build/apps/plugins/sdl/progs/duke3d/Engine/src/engine.o
ototalclock         0x4               /home/jbrawley/Desktop/rockbox-photo-cf-support/build/apps/plugins/sdl/progs/duke3d/Game/src/global.o
oa1                 0x1               /home/jbrawley/Desktop/rockbox-photo-cf-support/build/apps/plugins/sdl/progs/duke3d/Engine/src/engine.o
error               0x1               /home/jbrawley/Desktop/rockbox-photo-cf-support/build/apps/plugins/sdl/progs/duke3d/Game/src/global.o
overtbits           0x1               /home/jbrawley/Desktop/rockbox-photo-cf-support/build/apps/plugins/sdl/progs/duke3d/Engine/src/engine.o
XG_System_reverb_type
                    0x4               /home/jbrawley/Desktop/rockbox-photo-cf-support/build/apps/plugins/sdl/SDL_mixer/timidity/playmidi.o
g_CV_DebugSound     0x4               /home/jbrawley/Desktop/rockbox-photo-cf-support/build/apps/plugins/sdl/progs/duke3d/Engine/src/cache.o
o3c2                0x1               /home/jbrawley/Desktop/rockbox-photo-cf-support/build/apps/plugins/sdl/progs/duke3d/Engine/src/engine.o
CONTROL_JoyButtonState1
                    0x4               /home/jbrawley/Desktop/rockbox-photo-cf-support/build/apps/plugins/sdl/progs/duke3d/Game/src/control.o
xyaspect            0x4               /home/jbrawley/Desktop/rockbox-photo-cf-support/build/apps/plugins/sdl/progs/duke3d/Engine/src/engine.o
MV_RightVolume      0x4               /home/jbrawley/Desktop/rockbox-photo-cf-support/build/apps/plugins/sdl/progs/duke3d/Game/src/audiolib/multivoc.o
partime             0xb0              /home/jbrawley/Desktop/rockbox-photo-cf-support/build/apps/plugins/sdl/progs/duke3d/Game/src/global.o
globalz             0x4               /home/jbrawley/Desktop/rockbox-photo-cf-support/build/apps/plugins/sdl/progs/duke3d/Engine/src/engine.o
buffermode          0x4               /home/jbrawley/Desktop/rockbox-photo-cf-support/build/apps/plugins/sdl/progs/duke3d/Engine/src/display.o
bakxsiz             0x10              /home/jbrawley/Desktop/rockbox-photo-cf-support/build/apps/plugins/sdl/progs/duke3d/Engine/src/engine.o
omyy                0x4               /home/jbrawley/Desktop/rockbox-photo-cf-support/build/apps/plugins/sdl/progs/duke3d/Game/src/global.o
tempwallptr         0x4               /home/jbrawley/Desktop/rockbox-photo-cf-support/build/apps/plugins/sdl/progs/duke3d/Game/src/game.o
buf                 0x50              /home/jbrawley/Desktop/rockbox-photo-cf-support/build/apps/plugins/sdl/progs/duke3d/Game/src/global.o
multipos            0x1               /home/jbrawley/Desktop/rockbox-photo-cf-support/build/apps/plugins/sdl/progs/duke3d/Game/src/global.o
movefifoplc         0x4               /home/jbrawley/Desktop/rockbox-photo-cf-support/build/apps/plugins/sdl/progs/duke3d/Game/src/global.o
myhardlanding       0x1               /home/jbrawley/Desktop/rockbox-photo-cf-support/build/apps/plugins/sdl/progs/duke3d/Game/src/global.o
globparaceilclip    0x1               /home/jbrawley/Desktop/rockbox-photo-cf-support/build/apps/plugins/sdl/progs/duke3d/Engine/src/engine.o
myjumpingtoggle     0x1               /home/jbrawley/Desktop/rockbox-photo-cf-support/build/apps/plugins/sdl/progs/duke3d/Game/src/global.o
visualpage          0x4               /home/jbrawley/Desktop/rockbox-photo-cf-support/build/apps/plugins/sdl/progs/duke3d/Engine/src/engine.o
ebpbak              0x4               /home/jbrawley/Desktop/rockbox-photo-cf-support/build/apps/plugins/sdl/progs/duke3d/Engine/src/engine.o
numenvsnds          0x4               /home/jbrawley/Desktop/rockbox-photo-cf-support/build/apps/plugins/sdl/progs/duke3d/Game/src/sounds.o
mapversion          0x4               /home/jbrawley/Desktop/rockbox-photo-cf-support/build/apps/plugins/sdl/progs/duke3d/Engine/src/engine.o
myhoriz             0x2               /home/jbrawley/Desktop/rockbox-photo-cf-support/build/apps/plugins/sdl/progs/duke3d/Game/src/global.o
wall                0x40000           /home/jbrawley/Desktop/rockbox-photo-cf-support/build/apps/plugins/sdl/progs/duke3d/Engine/src/engine.o
dashow2dsector      0x80              /home/jbrawley/Desktop/rockbox-photo-cf-support/build/apps/plugins/sdl/progs/duke3d/Game/src/player.o
max_armour_amount   0x4               /home/jbrawley/Desktop/rockbox-photo-cf-support/build/apps/plugins/sdl/progs/duke3d/Game/src/global.o
myminlag            0x40              /home/jbrawley/Desktop/rockbox-photo-cf-support/build/apps/plugins/sdl/progs/duke3d/Game/src/global.o
warning             0x1               /home/jbrawley/Desktop/rockbox-photo-cf-support/build/apps/plugins/sdl/progs/duke3d/Game/src/global.o
totalclocklock      0x4               /home/jbrawley/Desktop/rockbox-photo-cf-support/build/apps/plugins/sdl/progs/duke3d/Engine/src/engine.o
viewingrange        0x4               /home/jbrawley/Desktop/rockbox-photo-cf-support/build/apps/plugins/sdl/progs/duke3d/Engine/src/engine.o
KB_KeyDown          0x80              /home/jbrawley/Desktop/rockbox-photo-cf-support/build/apps/plugins/sdl/progs/duke3d/Game/src/keyboard.o
bytesperline        0x4               /home/jbrawley/Desktop/rockbox-photo-cf-support/build/apps/plugins/sdl/progs/duke3d/Engine/src/display.o
numhits             0x2               /home/jbrawley/Desktop/rockbox-photo-cf-support/build/apps/plugins/sdl/progs/duke3d/Engine/src/engine.o
cloudy              0x100             /home/jbrawley/Desktop/rockbox-photo-cf-support/build/apps/plugins/sdl/progs/duke3d/Game/src/global.o
pipebombblastradius
                    0x4               /home/jbrawley/Desktop/rockbox-photo-cf-support/build/apps/plugins/sdl/progs/duke3d/Game/src/global.o
wy1                 0x4               /home/jbrawley/Desktop/rockbox-photo-cf-support/build/apps/plugins/sdl/progs/duke3d/Engine/src/engine.o
CONTROL_MouseButtonState1
                    0x4               /home/jbrawley/Desktop/rockbox-photo-cf-support/build/apps/plugins/sdl/progs/duke3d/Game/src/control.o
globparaflorclip    0x1               /home/jbrawley/Desktop/rockbox-photo-cf-support/build/apps/plugins/sdl/progs/duke3d/Engine/src/engine.o
bakwindowx2         0x10              /home/jbrawley/Desktop/rockbox-photo-cf-support/build/apps/plugins/sdl/progs/duke3d/Engine/src/engine.o
crctable            0x400             /home/jbrawley/Desktop/rockbox-photo-cf-support/build/apps/plugins/sdl/progs/duke3d/Engine/src/mmulti.o
otherminlag         0x4               /home/jbrawley/Desktop/rockbox-photo-cf-support/build/apps/plugins/sdl/progs/duke3d/Game/src/global.o
bakdmost            0xc82             /home/jbrawley/Desktop/rockbox-photo-cf-support/build/apps/plugins/sdl/progs/duke3d/Engine/src/engine.o
globalhoriz         0x4               /home/jbrawley/Desktop/rockbox-photo-cf-support/build/apps/plugins/sdl/progs/duke3d/Engine/src/engine.o
max_player_health   0x4               /home/jbrawley/Desktop/rockbox-photo-cf-support/build/apps/plugins/sdl/progs/duke3d/Game/src/global.o
pointhighlight      0x2               /home/jbrawley/Desktop/rockbox-photo-cf-support/build/apps/plugins/sdl/progs/duke3d/Engine/src/engine.o
bakwindowy1         0x10              /home/jbrawley/Desktop/rockbox-photo-cf-support/build/apps/plugins/sdl/progs/duke3d/Engine/src/engine.o
s32tobuf            0x4               /home/jbrawley/Desktop/rockbox-photo-cf-support/build/apps/plugins/sdl/SDL_mixer/timidity/timidity.o
MV_MixDestination   0x4               /home/jbrawley/Desktop/rockbox-photo-cf-support/build/apps/plugins/sdl/progs/duke3d/Game/src/audiolib/multivoc.o
ReverseStereo       0x4               /home/jbrawley/Desktop/rockbox-photo-cf-support/build/apps/plugins/sdl/progs/duke3d/Game/src/config.o
globaluclip         0x4               /home/jbrawley/Desktop/rockbox-photo-cf-support/build/apps/plugins/sdl/progs/duke3d/Engine/src/engine.o
soundps             0x384             /home/jbrawley/Desktop/rockbox-photo-cf-support/build/apps/plugins/sdl/progs/duke3d/Game/src/global.o
vgacompatible       0x1               /home/jbrawley/Desktop/rockbox-photo-cf-support/build/apps/plugins/sdl/progs/duke3d/Engine/src/display.o
xdimscale           0x4               /home/jbrawley/Desktop/rockbox-photo-cf-support/build/apps/plugins/sdl/progs/duke3d/Engine/src/engine.o
MouseMapping        0x1c              /home/jbrawley/Desktop/rockbox-photo-cf-support/build/apps/plugins/sdl/progs/duke3d/Game/src/audiolib/multivoc.o
quotebot            0x4               /home/jbrawley/Desktop/rockbox-photo-cf-support/build/apps/plugins/sdl/progs/duke3d/Game/src/game.o
origbuffermode      0x4               /home/jbrawley/Desktop/rockbox-photo-cf-support/build/apps/plugins/sdl/progs/duke3d/Engine/src/display.o
plrskl              0x4               /home/jbrawley/Desktop/rockbox-photo-cf-support/build/apps/plugins/sdl/progs/duke3d/Game/src/menues.o
tilefileoffs        0x9000            /home/jbrawley/Desktop/rockbox-photo-cf-support/build/apps/plugins/sdl/progs/duke3d/Engine/src/engine.o
vince               0x10              /home/jbrawley/Desktop/rockbox-photo-cf-support/build/apps/plugins/sdl/progs/duke3d/Engine/src/engine.o
checksume           0x4               /home/jbrawley/Desktop/rockbox-photo-cf-support/build/apps/plugins/sdl/progs/duke3d/Game/src/global.o
myang               0x2               /home/jbrawley/Desktop/rockbox-photo-cf-support/build/apps/plugins/sdl/progs/duke3d/Game/src/global.o
msx                 0x2000            /home/jbrawley/Desktop/rockbox-photo-cf-support/build/apps/plugins/sdl/progs/duke3d/Game/src/global.o
ydimen              0x4               /home/jbrawley/Desktop/rockbox-photo-cf-support/build/apps/plugins/sdl/progs/duke3d/Engine/src/engine.o
animateptr          0x100             /home/jbrawley/Desktop/rockbox-photo-cf-support/build/apps/plugins/sdl/progs/duke3d/Game/src/global.o
xdimenrecip         0x4               /home/jbrawley/Desktop/rockbox-photo-cf-support/build/apps/plugins/sdl/progs/duke3d/Engine/src/engine.o
SoundOwner          0x3840            /home/jbrawley/Desktop/rockbox-photo-cf-support/build/apps/plugins/sdl/progs/duke3d/Game/src/global.o
horizycent          0x4               /home/jbrawley/Desktop/rockbox-photo-cf-support/build/apps/plugins/sdl/progs/duke3d/Engine/src/engine.o
asm2                0x4               /home/jbrawley/Desktop/rockbox-photo-cf-support/build/apps/plugins/sdl/progs/duke3d/Engine/src/engine.o
MidiPort            0x4               /home/jbrawley/Desktop/rockbox-photo-cf-support/build/apps/plugins/sdl/progs/duke3d/Game/src/config.o
MV_LeftVolume       0x4               /home/jbrawley/Desktop/rockbox-photo-cf-support/build/apps/plugins/sdl/progs/duke3d/Game/src/audiolib/multivoc.o
globalposy          0x4               /home/jbrawley/Desktop/rockbox-photo-cf-support/build/apps/plugins/sdl/progs/duke3d/Engine/src/engine.o
visitedSectors      0x80              /home/jbrawley/Desktop/rockbox-photo-cf-support/build/apps/plugins/sdl/progs/duke3d/Engine/src/engine.o
bakframeplace       0x10              /home/jbrawley/Desktop/rockbox-photo-cf-support/build/apps/plugins/sdl/progs/duke3d/Engine/src/engine.o
slopalookup         0x10000           /home/jbrawley/Desktop/rockbox-photo-cf-support/build/apps/plugins/sdl/progs/duke3d/Engine/src/engine.o
recsync             0x6270            /home/jbrawley/Desktop/rockbox-photo-cf-support/build/apps/plugins/sdl/progs/duke3d/Game/src/global.o
myxvel              0x4               /home/jbrawley/Desktop/rockbox-photo-cf-support/build/apps/plugins/sdl/progs/duke3d/Game/src/global.o
rbaud_underruns     0x4               /home/jbrawley/Desktop/rockbox-photo-cf-support/build/apps/plugins/sdl/src/audio/rockbox/SDL_rockboxaudio.o
level_file_names    0x1600            /home/jbrawley/Desktop/rockbox-photo-cf-support/build/apps/plugins/sdl/progs/duke3d/Game/src/global.o
device              0xc               /home/jbrawley/Desktop/rockbox-photo-cf-support/build/apps/plugins/sdl/progs/duke3d/Game/src/global.o
globalhisibility    0x4               /home/jbrawley/Desktop/rockbox-photo-cf-support/build/apps/plugins/sdl/progs/duke3d/Engine/src/engine.o
_argc               0x4               /home/jbrawley/Desktop/rockbox-photo-cf-support/build/apps/plugins/sdl/progs/duke3d/Engine/src/cache.o
tilefilenum         0x2400            /home/jbrawley/Desktop/rockbox-photo-cf-support/build/apps/plugins/sdl/progs/duke3d/Engine/src/engine.o
validmode           0x200             /home/jbrawley/Desktop/rockbox-photo-cf-support/build/apps/plugins/sdl/progs/duke3d/Engine/src/engine.o
soundm              0x1c2             /home/jbrawley/Desktop/rockbox-photo-cf-support/build/apps/plugins/sdl/progs/duke3d/Game/src/global.o
myx                 0x4               /home/jbrawley/Desktop/rockbox-photo-cf-support/build/apps/plugins/sdl/progs/duke3d/Game/src/global.o
rb_keymap           0x58              /home/jbrawley/Desktop/rockbox-photo-cf-support/build/apps/plugins/sdl/src/video/rockbox/SDL_rockboxvideo.o
laststereoint       0x1               /home/jbrawley/Desktop/rockbox-photo-cf-support/build/apps/plugins/sdl/progs/duke3d/Engine/src/engine.o
espbak              0x4               /home/jbrawley/Desktop/rockbox-photo-cf-support/build/apps/plugins/sdl/progs/duke3d/Engine/src/engine.o
globalx2            0x4               /home/jbrawley/Desktop/rockbox-photo-cf-support/build/apps/plugins/sdl/progs/duke3d/Engine/src/engine.o
gc                  0x4               /home/jbrawley/Desktop/rockbox-photo-cf-support/build/apps/plugins/sdl/progs/duke3d/Game/src/global.o
backflag            0x4               /home/jbrawley/Desktop/rockbox-photo-cf-support/build/apps/plugins/sdl/progs/duke3d/Game/src/sounds.o
MV_RightScale       0x4               /home/jbrawley/Desktop/rockbox-photo-cf-support/build/apps/plugins/sdl/progs/duke3d/Game/src/audiolib/multivoc.o
lumplockbyte        0xb               /home/jbrawley/Desktop/rockbox-photo-cf-support/build/apps/plugins/sdl/progs/duke3d/Game/src/rts.o
pskybits            0x2               /home/jbrawley/Desktop/rockbox-photo-cf-support/build/apps/plugins/sdl/progs/duke3d/Engine/src/engine.o
textfont            0x400             /home/jbrawley/Desktop/rockbox-photo-cf-support/build/apps/plugins/sdl/progs/duke3d/Engine/src/engine.o
tiles               0x24000           /home/jbrawley/Desktop/rockbox-photo-cf-support/build/apps/plugins/sdl/progs/duke3d/Engine/src/tiles.o
myhorizbak          0x400             /home/jbrawley/Desktop/rockbox-photo-cf-support/build/apps/plugins/sdl/progs/duke3d/Game/src/global.o
myjumpingcounter    0x2               /home/jbrawley/Desktop/rockbox-photo-cf-support/build/apps/plugins/sdl/progs/duke3d/Game/src/global.o
movefifoend         0x40              /home/jbrawley/Desktop/rockbox-photo-cf-support/build/apps/plugins/sdl/progs/duke3d/Game/src/global.o
g_CV_CubicInterpolation
                    0x4               /home/jbrawley/Desktop/rockbox-photo-cf-support/build/apps/plugins/sdl/progs/duke3d/Engine/src/cache.o
globalshade         0x4               /home/jbrawley/Desktop/rockbox-photo-cf-support/build/apps/plugins/sdl/progs/duke3d/Engine/src/engine.o
myzbak              0x400             /home/jbrawley/Desktop/rockbox-photo-cf-support/build/apps/plugins/sdl/progs/duke3d/Game/src/global.o
kensmessage         0x80              /home/jbrawley/Desktop/rockbox-photo-cf-support/build/apps/plugins/sdl/progs/duke3d/Engine/src/engine.o
yxaspect            0x4               /home/jbrawley/Desktop/rockbox-photo-cf-support/build/apps/plugins/sdl/progs/duke3d/Engine/src/engine.o
cosviewingrangeglobalang
                    0x4               /home/jbrawley/Desktop/rockbox-photo-cf-support/build/apps/plugins/sdl/progs/duke3d/Engine/src/engine.o
restorepalette      0x1               /home/jbrawley/Desktop/rockbox-photo-cf-support/build/apps/plugins/sdl/progs/duke3d/Game/src/game.o
last_menu           0x2               /home/jbrawley/Desktop/rockbox-photo-cf-support/build/apps/plugins/sdl/progs/duke3d/Game/src/menues.o
soundsiz            0x708             /home/jbrawley/Desktop/rockbox-photo-cf-support/build/apps/plugins/sdl/progs/duke3d/Game/src/global.o
main_fn             0x4               /home/jbrawley/Desktop/rockbox-photo-cf-support/build/apps/plugins/sdl/main.o
screencapt          0x1               /home/jbrawley/Desktop/rockbox-photo-cf-support/build/apps/plugins/sdl/progs/duke3d/Game/src/game.o
CONTROL_JoysPresent
                    0x2               /home/jbrawley/Desktop/rockbox-photo-cf-support/build/apps/plugins/sdl/progs/duke3d/Game/src/control.o
validmodexdim       0x400             /home/jbrawley/Desktop/rockbox-photo-cf-support/build/apps/plugins/sdl/progs/duke3d/Engine/src/engine.o
CONTROL_JoyHatState1
                    0x4               /home/jbrawley/Desktop/rockbox-photo-cf-support/build/apps/plugins/sdl/progs/duke3d/Game/src/control.o
globaly2            0x4               /home/jbrawley/Desktop/rockbox-photo-cf-support/build/apps/plugins/sdl/progs/duke3d/Engine/src/engine.o
tempsectorpicnum    0x1000            /home/jbrawley/Desktop/rockbox-photo-cf-support/build/apps/plugins/sdl/progs/duke3d/Game/src/game.o
frameoffset         0x4               /home/jbrawley/Desktop/rockbox-photo-cf-support/build/apps/plugins/sdl/progs/duke3d/Engine/src/display.o
g_CV_console_text_color
                    0x4               /home/jbrawley/Desktop/rockbox-photo-cf-support/build/apps/plugins/sdl/progs/duke3d/Engine/src/cache.o
titlepal            0x300             /home/jbrawley/Desktop/rockbox-photo-cf-support/build/apps/plugins/sdl/progs/duke3d/Game/src/game.o
inputfifo           0xa000            /home/jbrawley/Desktop/rockbox-photo-cf-support/build/apps/plugins/sdl/progs/duke3d/Game/src/global.o
omyang              0x2               /home/jbrawley/Desktop/rockbox-photo-cf-support/build/apps/plugins/sdl/progs/duke3d/Game/src/global.o
windowy1            0x4               /home/jbrawley/Desktop/rockbox-photo-cf-support/build/apps/plugins/sdl/progs/duke3d/Engine/src/engine.o
musicDataBuffer     0x19000           /home/jbrawley/Desktop/rockbox-photo-cf-support/build/apps/plugins/sdl/progs/duke3d/Game/src/midi/sdl_midi.o
MV_GPos             0x4               /home/jbrawley/Desktop/rockbox-photo-cf-support/build/apps/plugins/sdl/progs/duke3d/Game/src/audiolib/multivoc.o
globalcursectnum    0x2               /home/jbrawley/Desktop/rockbox-photo-cf-support/build/apps/plugins/sdl/progs/duke3d/Engine/src/engine.o
multiwho            0x1               /home/jbrawley/Desktop/rockbox-photo-cf-support/build/apps/plugins/sdl/progs/duke3d/Game/src/global.o
rb_SDL_KeyRepeat    0x20              /home/jbrawley/Desktop/rockbox-photo-cf-support/build/apps/plugins/sdl/src/events/SDL_keyboard.o
palookup            0x400             /home/jbrawley/Desktop/rockbox-photo-cf-support/build/apps/plugins/sdl/progs/duke3d/Engine/src/engine.o
pvWalls             0x12000           /home/jbrawley/Desktop/rockbox-photo-cf-support/build/apps/plugins/sdl/progs/duke3d/Engine/src/engine.o
globalcisibility    0x4               /home/jbrawley/Desktop/rockbox-photo-cf-support/build/apps/plugins/sdl/progs/duke3d/Engine/src/engine.o
searchy             0x4               /home/jbrawley/Desktop/rockbox-photo-cf-support/build/apps/plugins/sdl/progs/duke3d/Engine/src/engine.o

Discarded input sections

 .data          0x0000000000000000        0x0 /home/jbrawley/Desktop/rockbox-photo-cf-support/build/apps/plugins/sdl/src/SDL_error.o
 .data          0x0000000000000000        0x0 /home/jbrawley/Desktop/rockbox-photo-cf-support/build/apps/plugins/sdl/src/SDL_fatal.o
 .bss           0x0000000000000000        0x0 /home/jbrawley/Desktop/rockbox-photo-cf-support/build/apps/plugins/sdl/src/SDL_fatal.o
 .data          0x0000000000000000        0x0 /home/jbrawley/Desktop/rockbox-photo-cf-support/build/apps/plugins/sdl/src/audio/SDL_audio.o
 .data          0x0000000000000000        0x0 /home/jbrawley/Desktop/rockbox-photo-cf-support/build/apps/plugins/sdl/src/audio/SDL_audiocvt.o
 .bss           0x0000000000000000        0x0 /home/jbrawley/Desktop/rockbox-photo-cf-support/build/apps/plugins/sdl/src/audio/SDL_audiocvt.o
 .text          0x0000000000000000        0x0 /home/jbrawley/Desktop/rockbox-photo-cf-support/build/apps/plugins/sdl/src/audio/SDL_audiodev.o
 .data          0x0000000000000000        0x0 /home/jbrawley/Desktop/rockbox-photo-cf-support/build/apps/plugins/sdl/src/audio/SDL_audiodev.o
 .bss           0x0000000000000000        0x0 /home/jbrawley/Desktop/rockbox-photo-cf-support/build/apps/plugins/sdl/src/audio/SDL_audiodev.o
 .data          0x0000000000000000        0x0 /home/jbrawley/Desktop/rockbox-photo-cf-support/build/apps/plugins/sdl/src/audio/SDL_mixer.o
 .bss           0x0000000000000000        0x0 /home/jbrawley/Desktop/rockbox-photo-cf-support/build/apps/plugins/sdl/src/audio/SDL_mixer.o
 .text          0x0000000000000000        0x0 /home/jbrawley/Desktop/rockbox-photo-cf-support/build/apps/plugins/sdl/src/audio/SDL_mixer_MMX.o
 .data          0x0000000000000000        0x0 /home/jbrawley/Desktop/rockbox-photo-cf-support/build/apps/plugins/sdl/src/audio/SDL_mixer_MMX.o
 .bss           0x0000000000000000        0x0 /home/jbrawley/Desktop/rockbox-photo-cf-support/build/apps/plugins/sdl/src/audio/SDL_mixer_MMX.o
 .text          0x0000000000000000        0x0 /home/jbrawley/Desktop/rockbox-photo-cf-support/build/apps/plugins/sdl/src/audio/SDL_mixer_MMX_VC.o
 .data          0x0000000000000000        0x0 /home/jbrawley/Desktop/rockbox-photo-cf-support/build/apps/plugins/sdl/src/audio/SDL_mixer_MMX_VC.o
 .bss           0x0000000000000000        0x0 /home/jbrawley/Desktop/rockbox-photo-cf-support/build/apps/plugins/sdl/src/audio/SDL_mixer_MMX_VC.o
 .text          0x0000000000000000        0x0 /home/jbrawley/Desktop/rockbox-photo-cf-support/build/apps/plugins/sdl/src/audio/SDL_mixer_m68k.o
 .data          0x0000000000000000        0x0 /home/jbrawley/Desktop/rockbox-photo-cf-support/build/apps/plugins/sdl/src/audio/SDL_mixer_m68k.o
 .bss           0x0000000000000000        0x0 /home/jbrawley/Desktop/rockbox-photo-cf-support/build/apps/plugins/sdl/src/audio/SDL_mixer_m68k.o
 .data          0x0000000000000000        0x0 /home/jbrawley/Desktop/rockbox-photo-cf-support/build/apps/plugins/sdl/src/audio/SDL_wave.o
 .text          0x0000000000000000      0xab0 /home/jbrawley/Desktop/rockbox-photo-cf-support/build/apps/plugins/sdl/src/cdrom/SDL_cdrom.o
 .data          0x0000000000000000        0x0 /home/jbrawley/Desktop/rockbox-photo-cf-support/build/apps/plugins/sdl/src/cdrom/SDL_cdrom.o
 .bss           0x0000000000000000       0x30 /home/jbrawley/Desktop/rockbox-photo-cf-support/build/apps/plugins/sdl/src/cdrom/SDL_cdrom.o
 .rodata.str1.4
                0x0000000000000000       0xca /home/jbrawley/Desktop/rockbox-photo-cf-support/build/apps/plugins/sdl/src/cdrom/SDL_cdrom.o
 COMMON         0x0000000000000000        0x4 /home/jbrawley/Desktop/rockbox-photo-cf-support/build/apps/plugins/sdl/src/cdrom/SDL_cdrom.o
 .text          0x0000000000000000        0xc /home/jbrawley/Desktop/rockbox-photo-cf-support/build/apps/plugins/sdl/src/cdrom/dummy/SDL_syscdrom.o
 .data          0x0000000000000000        0x0 /home/jbrawley/Desktop/rockbox-photo-cf-support/build/apps/plugins/sdl/src/cdrom/dummy/SDL_syscdrom.o
 .bss           0x0000000000000000        0x0 /home/jbrawley/Desktop/rockbox-photo-cf-support/build/apps/plugins/sdl/src/cdrom/dummy/SDL_syscdrom.o
 .bss           0x0000000000000000        0x0 /home/jbrawley/Desktop/rockbox-photo-cf-support/build/apps/plugins/sdl/src/cpuinfo/SDL_cpuinfo.o
 .data          0x0000000000000000        0x0 /home/jbrawley/Desktop/rockbox-photo-cf-support/build/apps/plugins/sdl/src/events/SDL_active.o
 .data          0x0000000000000000        0x0 /home/jbrawley/Desktop/rockbox-photo-cf-support/build/apps/plugins/sdl/src/events/SDL_events.o
 .text          0x0000000000000000       0x8c /home/jbrawley/Desktop/rockbox-photo-cf-support/build/apps/plugins/sdl/src/events/SDL_expose.o
 .data          0x0000000000000000        0x0 /home/jbrawley/Desktop/rockbox-photo-cf-support/build/apps/plugins/sdl/src/events/SDL_expose.o
 .bss           0x0000000000000000        0x0 /home/jbrawley/Desktop/rockbox-photo-cf-support/build/apps/plugins/sdl/src/events/SDL_expose.o
 .data          0x0000000000000000        0x0 /home/jbrawley/Desktop/rockbox-photo-cf-support/build/apps/plugins/sdl/src/events/SDL_keyboard.o
 .data          0x0000000000000000        0x0 /home/jbrawley/Desktop/rockbox-photo-cf-support/build/apps/plugins/sdl/src/events/SDL_mouse.o
 .data          0x0000000000000000        0x0 /home/jbrawley/Desktop/rockbox-photo-cf-support/build/apps/plugins/sdl/src/events/SDL_quit.o
 .bss           0x0000000000000000        0x0 /home/jbrawley/Desktop/rockbox-photo-cf-support/build/apps/plugins/sdl/src/events/SDL_quit.o
 .data          0x0000000000000000        0x0 /home/jbrawley/Desktop/rockbox-photo-cf-support/build/apps/plugins/sdl/src/events/SDL_resize.o
 .data          0x0000000000000000        0x0 /home/jbrawley/Desktop/rockbox-photo-cf-support/build/apps/plugins/sdl/src/file/SDL_rwops.o
 .bss           0x0000000000000000        0x0 /home/jbrawley/Desktop/rockbox-photo-cf-support/build/apps/plugins/sdl/src/file/SDL_rwops.o
 .data          0x0000000000000000        0x0 /home/jbrawley/Desktop/rockbox-photo-cf-support/build/apps/plugins/sdl/src/joystick/SDL_joystick.o
 .data          0x0000000000000000        0x0 /home/jbrawley/Desktop/rockbox-photo-cf-support/build/apps/plugins/sdl/src/joystick/dummy/SDL_sysjoystick.o
 .bss           0x0000000000000000        0x0 /home/jbrawley/Desktop/rockbox-photo-cf-support/build/apps/plugins/sdl/src/joystick/dummy/SDL_sysjoystick.o
 .text          0x0000000000000000       0x50 /home/jbrawley/Desktop/rockbox-photo-cf-support/build/apps/plugins/sdl/src/loadso/dummy/SDL_sysloadso.o
 .data          0x0000000000000000        0x0 /home/jbrawley/Desktop/rockbox-photo-cf-support/build/apps/plugins/sdl/src/loadso/dummy/SDL_sysloadso.o
 .bss           0x0000000000000000        0x0 /home/jbrawley/Desktop/rockbox-photo-cf-support/build/apps/plugins/sdl/src/loadso/dummy/SDL_sysloadso.o
 .rodata.str1.4
                0x0000000000000000       0x5f /home/jbrawley/Desktop/rockbox-photo-cf-support/build/apps/plugins/sdl/src/loadso/dummy/SDL_sysloadso.o
 .data          0x0000000000000000        0x0 /home/jbrawley/Desktop/rockbox-photo-cf-support/build/apps/plugins/sdl/src/stdlib/SDL_getenv.o
 .text          0x0000000000000000     0x2864 /home/jbrawley/Desktop/rockbox-photo-cf-support/build/apps/plugins/sdl/src/stdlib/SDL_iconv.o
 .data          0x0000000000000000        0x0 /home/jbrawley/Desktop/rockbox-photo-cf-support/build/apps/plugins/sdl/src/stdlib/SDL_iconv.o
 .bss           0x0000000000000000        0x0 /home/jbrawley/Desktop/rockbox-photo-cf-support/build/apps/plugins/sdl/src/stdlib/SDL_iconv.o
 .rodata        0x0000000000000000       0xb0 /home/jbrawley/Desktop/rockbox-photo-cf-support/build/apps/plugins/sdl/src/stdlib/SDL_iconv.o
 .rodata.str1.4
                0x0000000000000000       0xf2 /home/jbrawley/Desktop/rockbox-photo-cf-support/build/apps/plugins/sdl/src/stdlib/SDL_iconv.o
 .text          0x0000000000000000        0x0 /home/jbrawley/Desktop/rockbox-photo-cf-support/build/apps/plugins/sdl/src/stdlib/SDL_malloc.o
 .data          0x0000000000000000        0x0 /home/jbrawley/Desktop/rockbox-photo-cf-support/build/apps/plugins/sdl/src/stdlib/SDL_malloc.o
 .bss           0x0000000000000000        0x0 /home/jbrawley/Desktop/rockbox-photo-cf-support/build/apps/plugins/sdl/src/stdlib/SDL_malloc.o
 .text          0x0000000000000000        0x0 /home/jbrawley/Desktop/rockbox-photo-cf-support/build/apps/plugins/sdl/src/stdlib/SDL_qsort.o
 .data          0x0000000000000000        0x0 /home/jbrawley/Desktop/rockbox-photo-cf-support/build/apps/plugins/sdl/src/stdlib/SDL_qsort.o
 .bss           0x0000000000000000        0x0 /home/jbrawley/Desktop/rockbox-photo-cf-support/build/apps/plugins/sdl/src/stdlib/SDL_qsort.o
 .text          0x0000000000000000        0x0 /home/jbrawley/Desktop/rockbox-photo-cf-support/build/apps/plugins/sdl/src/stdlib/SDL_stdlib.o
 .data          0x0000000000000000        0x0 /home/jbrawley/Desktop/rockbox-photo-cf-support/build/apps/plugins/sdl/src/stdlib/SDL_stdlib.o
 .bss           0x0000000000000000        0x0 /home/jbrawley/Desktop/rockbox-photo-cf-support/build/apps/plugins/sdl/src/stdlib/SDL_stdlib.o
 .data          0x0000000000000000        0x0 /home/jbrawley/Desktop/rockbox-photo-cf-support/build/apps/plugins/sdl/src/stdlib/SDL_string.o
 .bss           0x0000000000000000        0x0 /home/jbrawley/Desktop/rockbox-photo-cf-support/build/apps/plugins/sdl/src/stdlib/SDL_string.o
 .data          0x0000000000000000        0x0 /home/jbrawley/Desktop/rockbox-photo-cf-support/build/apps/plugins/sdl/src/thread/SDL_thread.o
 .text          0x0000000000000000      0x544 /home/jbrawley/Desktop/rockbox-photo-cf-support/build/apps/plugins/sdl/src/thread/rockbox/SDL_syscond.o
 .data          0x0000000000000000        0x0 /home/jbrawley/Desktop/rockbox-photo-cf-support/build/apps/plugins/sdl/src/thread/rockbox/SDL_syscond.o
 .bss           0x0000000000000000        0x0 /home/jbrawley/Desktop/rockbox-photo-cf-support/build/apps/plugins/sdl/src/thread/rockbox/SDL_syscond.o
 .rodata.str1.4
                0x0000000000000000       0x21 /home/jbrawley/Desktop/rockbox-photo-cf-support/build/apps/plugins/sdl/src/thread/rockbox/SDL_syscond.o
 .data          0x0000000000000000        0x0 /home/jbrawley/Desktop/rockbox-photo-cf-support/build/apps/plugins/sdl/src/thread/rockbox/SDL_sysmutex.o
 .bss           0x0000000000000000        0x0 /home/jbrawley/Desktop/rockbox-photo-cf-support/build/apps/plugins/sdl/src/thread/rockbox/SDL_sysmutex.o
 .data          0x0000000000000000        0x0 /home/jbrawley/Desktop/rockbox-photo-cf-support/build/apps/plugins/sdl/src/thread/rockbox/SDL_syssem.o
 .bss           0x0000000000000000        0x0 /home/jbrawley/Desktop/rockbox-photo-cf-support/build/apps/plugins/sdl/src/thread/rockbox/SDL_syssem.o
 .data          0x0000000000000000        0x0 /home/jbrawley/Desktop/rockbox-photo-cf-support/build/apps/plugins/sdl/src/thread/rockbox/SDL_systhread.o
 .data          0x0000000000000000        0x0 /home/jbrawley/Desktop/rockbox-photo-cf-support/build/apps/plugins/sdl/src/timer/SDL_timer.o
 .data          0x0000000000000000        0x0 /home/jbrawley/Desktop/rockbox-photo-cf-support/build/apps/plugins/sdl/src/timer/rockbox/SDL_systimer.o
 .data          0x0000000000000000        0x0 /home/jbrawley/Desktop/rockbox-photo-cf-support/build/apps/plugins/sdl/src/video/SDL_RLEaccel.o
 .bss           0x0000000000000000        0x0 /home/jbrawley/Desktop/rockbox-photo-cf-support/build/apps/plugins/sdl/src/video/SDL_RLEaccel.o
 .data          0x0000000000000000        0x0 /home/jbrawley/Desktop/rockbox-photo-cf-support/build/apps/plugins/sdl/src/video/SDL_blit.o
 .bss           0x0000000000000000        0x0 /home/jbrawley/Desktop/rockbox-photo-cf-support/build/apps/plugins/sdl/src/video/SDL_blit.o
 .data          0x0000000000000000        0x0 /home/jbrawley/Desktop/rockbox-photo-cf-support/build/apps/plugins/sdl/src/video/SDL_blit_0.o
 .bss           0x0000000000000000        0x0 /home/jbrawley/Desktop/rockbox-photo-cf-support/build/apps/plugins/sdl/src/video/SDL_blit_0.o
 .data          0x0000000000000000        0x0 /home/jbrawley/Desktop/rockbox-photo-cf-support/build/apps/plugins/sdl/src/video/SDL_blit_1.o
 .bss           0x0000000000000000        0x0 /home/jbrawley/Desktop/rockbox-photo-cf-support/build/apps/plugins/sdl/src/video/SDL_blit_1.o
 .data          0x0000000000000000        0x0 /home/jbrawley/Desktop/rockbox-photo-cf-support/build/apps/plugins/sdl/src/video/SDL_blit_A.o
 .bss           0x0000000000000000        0x0 /home/jbrawley/Desktop/rockbox-photo-cf-support/build/apps/plugins/sdl/src/video/SDL_blit_A.o
 .data          0x0000000000000000        0x0 /home/jbrawley/Desktop/rockbox-photo-cf-support/build/apps/plugins/sdl/src/video/SDL_blit_N.o
 .bss           0x0000000000000000        0x0 /home/jbrawley/Desktop/rockbox-photo-cf-support/build/apps/plugins/sdl/src/video/SDL_blit_N.o
 .data          0x0000000000000000        0x0 /home/jbrawley/Desktop/rockbox-photo-cf-support/build/apps/plugins/sdl/src/video/SDL_bmp.o
 .bss           0x0000000000000000        0x0 /home/jbrawley/Desktop/rockbox-photo-cf-support/build/apps/plugins/sdl/src/video/SDL_bmp.o
 .text          0x0000000000000000     0x1e70 /home/jbrawley/Desktop/rockbox-photo-cf-support/build/apps/plugins/sdl/src/video/SDL_gamma.o
 .data          0x0000000000000000        0x0 /home/jbrawley/Desktop/rockbox-photo-cf-support/build/apps/plugins/sdl/src/video/SDL_gamma.o
 .bss           0x0000000000000000        0x0 /home/jbrawley/Desktop/rockbox-photo-cf-support/build/apps/plugins/sdl/src/video/SDL_gamma.o
 .rodata.str1.4
                0x0000000000000000       0x42 /home/jbrawley/Desktop/rockbox-photo-cf-support/build/apps/plugins/sdl/src/video/SDL_gamma.o
 .data          0x0000000000000000        0x0 /home/jbrawley/Desktop/rockbox-photo-cf-support/build/apps/plugins/sdl/src/video/SDL_pixels.o
 .text          0x0000000000000000      0xc10 /home/jbrawley/Desktop/rockbox-photo-cf-support/build/apps/plugins/sdl/src/video/SDL_stretch.o
 .data          0x0000000000000000        0x0 /home/jbrawley/Desktop/rockbox-photo-cf-support/build/apps/plugins/sdl/src/video/SDL_stretch.o
 .bss           0x0000000000000000        0x0 /home/jbrawley/Desktop/rockbox-photo-cf-support/build/apps/plugins/sdl/src/video/SDL_stretch.o
 .rodata.str1.4
                0x0000000000000000       0xae /home/jbrawley/Desktop/rockbox-photo-cf-support/build/apps/plugins/sdl/src/video/SDL_stretch.o
 .data          0x0000000000000000        0x0 /home/jbrawley/Desktop/rockbox-photo-cf-support/build/apps/plugins/sdl/src/video/SDL_surface.o
 .bss           0x0000000000000000        0x0 /home/jbrawley/Desktop/rockbox-photo-cf-support/build/apps/plugins/sdl/src/video/SDL_surface.o
 .text          0x0000000000000000      0x398 /home/jbrawley/Desktop/rockbox-photo-cf-support/build/apps/plugins/sdl/src/video/SDL_yuv.o
 .data          0x0000000000000000        0x0 /home/jbrawley/Desktop/rockbox-photo-cf-support/build/apps/plugins/sdl/src/video/SDL_yuv.o
 .bss           0x0000000000000000        0x0 /home/jbrawley/Desktop/rockbox-photo-cf-support/build/apps/plugins/sdl/src/video/SDL_yuv.o
 .rodata.str1.4
                0x0000000000000000       0x93 /home/jbrawley/Desktop/rockbox-photo-cf-support/build/apps/plugins/sdl/src/video/SDL_yuv.o
 .text          0x0000000000000000        0x0 /home/jbrawley/Desktop/rockbox-photo-cf-support/build/apps/plugins/sdl/src/video/SDL_yuv_mmx.o
 .data          0x0000000000000000        0x0 /home/jbrawley/Desktop/rockbox-photo-cf-support/build/apps/plugins/sdl/src/video/SDL_yuv_mmx.o
 .bss           0x0000000000000000        0x0 /home/jbrawley/Desktop/rockbox-photo-cf-support/build/apps/plugins/sdl/src/video/SDL_yuv_mmx.o
 .text          0x0000000000000000     0x2a28 /home/jbrawley/Desktop/rockbox-photo-cf-support/build/apps/plugins/sdl/src/video/SDL_yuv_sw.o
 .data          0x0000000000000000       0x10 /home/jbrawley/Desktop/rockbox-photo-cf-support/build/apps/plugins/sdl/src/video/SDL_yuv_sw.o
 .bss           0x0000000000000000        0x0 /home/jbrawley/Desktop/rockbox-photo-cf-support/build/apps/plugins/sdl/src/video/SDL_yuv_sw.o
 .rodata.str1.4
                0x0000000000000000       0x67 /home/jbrawley/Desktop/rockbox-photo-cf-support/build/apps/plugins/sdl/src/video/SDL_yuv_sw.o
 .text          0x0000000000000000        0x8 /home/jbrawley/Desktop/rockbox-photo-cf-support/build/apps/plugins/sdl/src/video/dummy/SDL_nullevents.o
 .data          0x0000000000000000        0x0 /home/jbrawley/Desktop/rockbox-photo-cf-support/build/apps/plugins/sdl/src/video/dummy/SDL_nullevents.o
 .bss           0x0000000000000000        0x0 /home/jbrawley/Desktop/rockbox-photo-cf-support/build/apps/plugins/sdl/src/video/dummy/SDL_nullevents.o
 .text          0x0000000000000000        0x0 /home/jbrawley/Desktop/rockbox-photo-cf-support/build/apps/plugins/sdl/src/video/dummy/SDL_nullmouse.o
 .data          0x0000000000000000        0x0 /home/jbrawley/Desktop/rockbox-photo-cf-support/build/apps/plugins/sdl/src/video/dummy/SDL_nullmouse.o
 .bss           0x0000000000000000        0x0 /home/jbrawley/Desktop/rockbox-photo-cf-support/build/apps/plugins/sdl/src/video/dummy/SDL_nullmouse.o
 .text          0x0000000000000000      0x340 /home/jbrawley/Desktop/rockbox-photo-cf-support/build/apps/plugins/sdl/src/video/dummy/SDL_nullvideo.o
 .data          0x0000000000000000       0x10 /home/jbrawley/Desktop/rockbox-photo-cf-support/build/apps/plugins/sdl/src/video/dummy/SDL_nullvideo.o
 .bss           0x0000000000000000        0x0 /home/jbrawley/Desktop/rockbox-photo-cf-support/build/apps/plugins/sdl/src/video/dummy/SDL_nullvideo.o
 .rodata.str1.4
                0x0000000000000000       0x93 /home/jbrawley/Desktop/rockbox-photo-cf-support/build/apps/plugins/sdl/src/video/dummy/SDL_nullvideo.o
 .text          0x0000000000000000       0x30 /home/jbrawley/Desktop/rockbox-photo-cf-support/build/apps/plugins/sdl/SDL_image/IMG_bmp.o
 .data          0x0000000000000000        0x0 /home/jbrawley/Desktop/rockbox-photo-cf-support/build/apps/plugins/sdl/SDL_image/IMG_bmp.o
 .bss           0x0000000000000000        0x0 /home/jbrawley/Desktop/rockbox-photo-cf-support/build/apps/plugins/sdl/SDL_image/IMG_bmp.o
 .text          0x0000000000000000      0x4b0 /home/jbrawley/Desktop/rockbox-photo-cf-support/build/apps/plugins/sdl/SDL_image/IMG.o
 .data          0x0000000000000000        0x0 /home/jbrawley/Desktop/rockbox-photo-cf-support/build/apps/plugins/sdl/SDL_image/IMG.o
 .bss           0x0000000000000000        0x8 /home/jbrawley/Desktop/rockbox-photo-cf-support/build/apps/plugins/sdl/SDL_image/IMG.o
 .rodata        0x0000000000000000       0xb4 /home/jbrawley/Desktop/rockbox-photo-cf-support/build/apps/plugins/sdl/SDL_image/IMG.o
 .rodata.str1.4
                0x0000000000000000       0x99 /home/jbrawley/Desktop/rockbox-photo-cf-support/build/apps/plugins/sdl/SDL_image/IMG.o
 .text          0x0000000000000000       0x10 /home/jbrawley/Desktop/rockbox-photo-cf-support/build/apps/plugins/sdl/SDL_image/IMG_gif.o
 .data          0x0000000000000000        0x0 /home/jbrawley/Desktop/rockbox-photo-cf-support/build/apps/plugins/sdl/SDL_image/IMG_gif.o
 .bss           0x0000000000000000        0x0 /home/jbrawley/Desktop/rockbox-photo-cf-support/build/apps/plugins/sdl/SDL_image/IMG_gif.o
 .text          0x0000000000000000       0x30 /home/jbrawley/Desktop/rockbox-photo-cf-support/build/apps/plugins/sdl/SDL_image/IMG_jpg.o
 .data          0x0000000000000000        0x0 /home/jbrawley/Desktop/rockbox-photo-cf-support/build/apps/plugins/sdl/SDL_image/IMG_jpg.o
 .bss           0x0000000000000000        0x0 /home/jbrawley/Desktop/rockbox-photo-cf-support/build/apps/plugins/sdl/SDL_image/IMG_jpg.o
 .rodata.str1.4
                0x0000000000000000       0x1e /home/jbrawley/Desktop/rockbox-photo-cf-support/build/apps/plugins/sdl/SDL_image/IMG_jpg.o
 .text          0x0000000000000000       0x10 /home/jbrawley/Desktop/rockbox-photo-cf-support/build/apps/plugins/sdl/SDL_image/IMG_lbm.o
 .data          0x0000000000000000        0x0 /home/jbrawley/Desktop/rockbox-photo-cf-support/build/apps/plugins/sdl/SDL_image/IMG_lbm.o
 .bss           0x0000000000000000        0x0 /home/jbrawley/Desktop/rockbox-photo-cf-support/build/apps/plugins/sdl/SDL_image/IMG_lbm.o
 .text          0x0000000000000000       0x10 /home/jbrawley/Desktop/rockbox-photo-cf-support/build/apps/plugins/sdl/SDL_image/IMG_pcx.o
 .data          0x0000000000000000        0x0 /home/jbrawley/Desktop/rockbox-photo-cf-support/build/apps/plugins/sdl/SDL_image/IMG_pcx.o
 .bss           0x0000000000000000        0x0 /home/jbrawley/Desktop/rockbox-photo-cf-support/build/apps/plugins/sdl/SDL_image/IMG_pcx.o
 .text          0x0000000000000000       0x30 /home/jbrawley/Desktop/rockbox-photo-cf-support/build/apps/plugins/sdl/SDL_image/IMG_png.o
 .data          0x0000000000000000        0x0 /home/jbrawley/Desktop/rockbox-photo-cf-support/build/apps/plugins/sdl/SDL_image/IMG_png.o
 .bss           0x0000000000000000        0x0 /home/jbrawley/Desktop/rockbox-photo-cf-support/build/apps/plugins/sdl/SDL_image/IMG_png.o
 .rodata.str1.4
                0x0000000000000000       0x1d /home/jbrawley/Desktop/rockbox-photo-cf-support/build/apps/plugins/sdl/SDL_image/IMG_png.o
 .text          0x0000000000000000       0x10 /home/jbrawley/Desktop/rockbox-photo-cf-support/build/apps/plugins/sdl/SDL_image/IMG_pnm.o
 .data          0x0000000000000000        0x0 /home/jbrawley/Desktop/rockbox-photo-cf-support/build/apps/plugins/sdl/SDL_image/IMG_pnm.o
 .bss           0x0000000000000000        0x0 /home/jbrawley/Desktop/rockbox-photo-cf-support/build/apps/plugins/sdl/SDL_image/IMG_pnm.o
 .text          0x0000000000000000        0x8 /home/jbrawley/Desktop/rockbox-photo-cf-support/build/apps/plugins/sdl/SDL_image/IMG_tga.o
 .data          0x0000000000000000        0x0 /home/jbrawley/Desktop/rockbox-photo-cf-support/build/apps/plugins/sdl/SDL_image/IMG_tga.o
 .bss           0x0000000000000000        0x0 /home/jbrawley/Desktop/rockbox-photo-cf-support/build/apps/plugins/sdl/SDL_image/IMG_tga.o
 .text          0x0000000000000000       0x30 /home/jbrawley/Desktop/rockbox-photo-cf-support/build/apps/plugins/sdl/SDL_image/IMG_tif.o
 .data          0x0000000000000000        0x0 /home/jbrawley/Desktop/rockbox-photo-cf-support/build/apps/plugins/sdl/SDL_image/IMG_tif.o
 .bss           0x0000000000000000        0x0 /home/jbrawley/Desktop/rockbox-photo-cf-support/build/apps/plugins/sdl/SDL_image/IMG_tif.o
 .rodata.str1.4
                0x0000000000000000       0x1e /home/jbrawley/Desktop/rockbox-photo-cf-support/build/apps/plugins/sdl/SDL_image/IMG_tif.o
 .text          0x0000000000000000       0x30 /home/jbrawley/Desktop/rockbox-photo-cf-support/build/apps/plugins/sdl/SDL_image/IMG_webp.o
 .data          0x0000000000000000        0x0 /home/jbrawley/Desktop/rockbox-photo-cf-support/build/apps/plugins/sdl/SDL_image/IMG_webp.o
 .bss           0x0000000000000000        0x0 /home/jbrawley/Desktop/rockbox-photo-cf-support/build/apps/plugins/sdl/SDL_image/IMG_webp.o
 .rodata.str1.4
                0x0000000000000000       0x1e /home/jbrawley/Desktop/rockbox-photo-cf-support/build/apps/plugins/sdl/SDL_image/IMG_webp.o
 .text          0x0000000000000000       0x10 /home/jbrawley/Desktop/rockbox-photo-cf-support/build/apps/plugins/sdl/SDL_image/IMG_xcf.o
 .data          0x0000000000000000        0x0 /home/jbrawley/Desktop/rockbox-photo-cf-support/build/apps/plugins/sdl/SDL_image/IMG_xcf.o
 .bss           0x0000000000000000        0x0 /home/jbrawley/Desktop/rockbox-photo-cf-support/build/apps/plugins/sdl/SDL_image/IMG_xcf.o
 .text          0x0000000000000000     0x1000 /home/jbrawley/Desktop/rockbox-photo-cf-support/build/apps/plugins/sdl/SDL_image/IMG_xpm.o
 .data          0x0000000000000000        0x0 /home/jbrawley/Desktop/rockbox-photo-cf-support/build/apps/plugins/sdl/SDL_image/IMG_xpm.o
 .bss           0x0000000000000000        0xc /home/jbrawley/Desktop/rockbox-photo-cf-support/build/apps/plugins/sdl/SDL_image/IMG_xpm.o
 .rodata        0x0000000000000000       0x30 /home/jbrawley/Desktop/rockbox-photo-cf-support/build/apps/plugins/sdl/SDL_image/IMG_xpm.o
 .rodata.str1.4
                0x0000000000000000       0x99 /home/jbrawley/Desktop/rockbox-photo-cf-support/build/apps/plugins/sdl/SDL_image/IMG_xpm.o
 .text          0x0000000000000000       0x10 /home/jbrawley/Desktop/rockbox-photo-cf-support/build/apps/plugins/sdl/SDL_image/IMG_xv.o
 .data          0x0000000000000000        0x0 /home/jbrawley/Desktop/rockbox-photo-cf-support/build/apps/plugins/sdl/SDL_image/IMG_xv.o
 .bss           0x0000000000000000        0x0 /home/jbrawley/Desktop/rockbox-photo-cf-support/build/apps/plugins/sdl/SDL_image/IMG_xv.o
 .text          0x0000000000000000       0x10 /home/jbrawley/Desktop/rockbox-photo-cf-support/build/apps/plugins/sdl/SDL_image/IMG_xxx.o
 .data          0x0000000000000000        0x0 /home/jbrawley/Desktop/rockbox-photo-cf-support/build/apps/plugins/sdl/SDL_image/IMG_xxx.o
 .bss           0x0000000000000000        0x0 /home/jbrawley/Desktop/rockbox-photo-cf-support/build/apps/plugins/sdl/SDL_image/IMG_xxx.o
 .text          0x0000000000000000        0x0 /home/jbrawley/Desktop/rockbox-photo-cf-support/build/apps/plugins/sdl/SDL_mixer/dynamic_flac.o
 .data          0x0000000000000000        0x0 /home/jbrawley/Desktop/rockbox-photo-cf-support/build/apps/plugins/sdl/SDL_mixer/dynamic_flac.o
 .bss           0x0000000000000000        0x0 /home/jbrawley/Desktop/rockbox-photo-cf-support/build/apps/plugins/sdl/SDL_mixer/dynamic_flac.o
 .text          0x0000000000000000        0x0 /home/jbrawley/Desktop/rockbox-photo-cf-support/build/apps/plugins/sdl/SDL_mixer/dynamic_fluidsynth.o
 .data          0x0000000000000000        0x0 /home/jbrawley/Desktop/rockbox-photo-cf-support/build/apps/plugins/sdl/SDL_mixer/dynamic_fluidsynth.o
 .bss           0x0000000000000000        0x0 /home/jbrawley/Desktop/rockbox-photo-cf-support/build/apps/plugins/sdl/SDL_mixer/dynamic_fluidsynth.o
 .text          0x0000000000000000        0x0 /home/jbrawley/Desktop/rockbox-photo-cf-support/build/apps/plugins/sdl/SDL_mixer/dynamic_mod.o
 .data          0x0000000000000000        0x0 /home/jbrawley/Desktop/rockbox-photo-cf-support/build/apps/plugins/sdl/SDL_mixer/dynamic_mod.o
 .bss           0x0000000000000000        0x0 /home/jbrawley/Desktop/rockbox-photo-cf-support/build/apps/plugins/sdl/SDL_mixer/dynamic_mod.o
 .text          0x0000000000000000        0x0 /home/jbrawley/Desktop/rockbox-photo-cf-support/build/apps/plugins/sdl/SDL_mixer/dynamic_mp3.o
 .data          0x0000000000000000        0x0 /home/jbrawley/Desktop/rockbox-photo-cf-support/build/apps/plugins/sdl/SDL_mixer/dynamic_mp3.o
 .bss           0x0000000000000000        0x0 /home/jbrawley/Desktop/rockbox-photo-cf-support/build/apps/plugins/sdl/SDL_mixer/dynamic_mp3.o
 .text          0x0000000000000000        0x0 /home/jbrawley/Desktop/rockbox-photo-cf-support/build/apps/plugins/sdl/SDL_mixer/dynamic_ogg.o
 .data          0x0000000000000000        0x0 /home/jbrawley/Desktop/rockbox-photo-cf-support/build/apps/plugins/sdl/SDL_mixer/dynamic_ogg.o
 .bss           0x0000000000000000        0x0 /home/jbrawley/Desktop/rockbox-photo-cf-support/build/apps/plugins/sdl/SDL_mixer/dynamic_ogg.o
 .data          0x0000000000000000        0x0 /home/jbrawley/Desktop/rockbox-photo-cf-support/build/apps/plugins/sdl/SDL_mixer/effect_position.o
 .data          0x0000000000000000        0x0 /home/jbrawley/Desktop/rockbox-photo-cf-support/build/apps/plugins/sdl/SDL_mixer/effects_internal.o
 .text          0x0000000000000000      0x3dc /home/jbrawley/Desktop/rockbox-photo-cf-support/build/apps/plugins/sdl/SDL_mixer/effect_stereoreverse.o
 .data          0x0000000000000000        0x0 /home/jbrawley/Desktop/rockbox-photo-cf-support/build/apps/plugins/sdl/SDL_mixer/effect_stereoreverse.o
 .bss           0x0000000000000000        0x0 /home/jbrawley/Desktop/rockbox-photo-cf-support/build/apps/plugins/sdl/SDL_mixer/effect_stereoreverse.o
 .rodata.str1.4
                0x0000000000000000       0x19 /home/jbrawley/Desktop/rockbox-photo-cf-support/build/apps/plugins/sdl/SDL_mixer/effect_stereoreverse.o
 .text          0x0000000000000000        0x0 /home/jbrawley/Desktop/rockbox-photo-cf-support/build/apps/plugins/sdl/SDL_mixer/fluidsynth.o
 .data          0x0000000000000000        0x0 /home/jbrawley/Desktop/rockbox-photo-cf-support/build/apps/plugins/sdl/SDL_mixer/fluidsynth.o
 .bss           0x0000000000000000        0x0 /home/jbrawley/Desktop/rockbox-photo-cf-support/build/apps/plugins/sdl/SDL_mixer/fluidsynth.o
 .data          0x0000000000000000        0x0 /home/jbrawley/Desktop/rockbox-photo-cf-support/build/apps/plugins/sdl/SDL_mixer/load_aiff.o
 .bss           0x0000000000000000        0x0 /home/jbrawley/Desktop/rockbox-photo-cf-support/build/apps/plugins/sdl/SDL_mixer/load_aiff.o
 .text          0x0000000000000000        0x0 /home/jbrawley/Desktop/rockbox-photo-cf-support/build/apps/plugins/sdl/SDL_mixer/load_flac.o
 .data          0x0000000000000000        0x0 /home/jbrawley/Desktop/rockbox-photo-cf-support/build/apps/plugins/sdl/SDL_mixer/load_flac.o
 .bss           0x0000000000000000        0x0 /home/jbrawley/Desktop/rockbox-photo-cf-support/build/apps/plugins/sdl/SDL_mixer/load_flac.o
 .text          0x0000000000000000        0x0 /home/jbrawley/Desktop/rockbox-photo-cf-support/build/apps/plugins/sdl/SDL_mixer/load_ogg.o
 .data          0x0000000000000000        0x0 /home/jbrawley/Desktop/rockbox-photo-cf-support/build/apps/plugins/sdl/SDL_mixer/load_ogg.o
 .bss           0x0000000000000000        0x0 /home/jbrawley/Desktop/rockbox-photo-cf-support/build/apps/plugins/sdl/SDL_mixer/load_ogg.o
 .data          0x0000000000000000        0x0 /home/jbrawley/Desktop/rockbox-photo-cf-support/build/apps/plugins/sdl/SDL_mixer/load_voc.o
 .bss           0x0000000000000000        0x0 /home/jbrawley/Desktop/rockbox-photo-cf-support/build/apps/plugins/sdl/SDL_mixer/load_voc.o
 .text          0x0000000000000000        0x0 /home/jbrawley/Desktop/rockbox-photo-cf-support/build/apps/plugins/sdl/SDL_mixer/music_cmd.o
 .data          0x0000000000000000        0x0 /home/jbrawley/Desktop/rockbox-photo-cf-support/build/apps/plugins/sdl/SDL_mixer/music_cmd.o
 .bss           0x0000000000000000        0x0 /home/jbrawley/Desktop/rockbox-photo-cf-support/build/apps/plugins/sdl/SDL_mixer/music_cmd.o
 .text          0x0000000000000000        0x0 /home/jbrawley/Desktop/rockbox-photo-cf-support/build/apps/plugins/sdl/SDL_mixer/music_flac.o
 .data          0x0000000000000000        0x0 /home/jbrawley/Desktop/rockbox-photo-cf-support/build/apps/plugins/sdl/SDL_mixer/music_flac.o
 .bss           0x0000000000000000        0x0 /home/jbrawley/Desktop/rockbox-photo-cf-support/build/apps/plugins/sdl/SDL_mixer/music_flac.o
 .text          0x0000000000000000        0x0 /home/jbrawley/Desktop/rockbox-photo-cf-support/build/apps/plugins/sdl/SDL_mixer/music_mad.o
 .data          0x0000000000000000        0x0 /home/jbrawley/Desktop/rockbox-photo-cf-support/build/apps/plugins/sdl/SDL_mixer/music_mad.o
 .bss           0x0000000000000000        0x0 /home/jbrawley/Desktop/rockbox-photo-cf-support/build/apps/plugins/sdl/SDL_mixer/music_mad.o
 .text          0x0000000000000000        0x0 /home/jbrawley/Desktop/rockbox-photo-cf-support/build/apps/plugins/sdl/SDL_mixer/music_mod.o
 .data          0x0000000000000000        0x0 /home/jbrawley/Desktop/rockbox-photo-cf-support/build/apps/plugins/sdl/SDL_mixer/music_mod.o
 .bss           0x0000000000000000        0x0 /home/jbrawley/Desktop/rockbox-photo-cf-support/build/apps/plugins/sdl/SDL_mixer/music_mod.o
 .text          0x0000000000000000        0x0 /home/jbrawley/Desktop/rockbox-photo-cf-support/build/apps/plugins/sdl/SDL_mixer/music_modplug.o
 .data          0x0000000000000000        0x0 /home/jbrawley/Desktop/rockbox-photo-cf-support/build/apps/plugins/sdl/SDL_mixer/music_modplug.o
 .bss           0x0000000000000000        0x0 /home/jbrawley/Desktop/rockbox-photo-cf-support/build/apps/plugins/sdl/SDL_mixer/music_modplug.o
 .text          0x0000000000000000        0x0 /home/jbrawley/Desktop/rockbox-photo-cf-support/build/apps/plugins/sdl/SDL_mixer/music_ogg.o
 .data          0x0000000000000000        0x0 /home/jbrawley/Desktop/rockbox-photo-cf-support/build/apps/plugins/sdl/SDL_mixer/music_ogg.o
 .bss           0x0000000000000000        0x0 /home/jbrawley/Desktop/rockbox-photo-cf-support/build/apps/plugins/sdl/SDL_mixer/music_ogg.o
 .text          0x0000000000000000      0x9a4 /home/jbrawley/Desktop/rockbox-photo-cf-support/build/apps/plugins/sdl/SDL_mixer/wavestream.o
 .data          0x0000000000000000        0x4 /home/jbrawley/Desktop/rockbox-photo-cf-support/build/apps/plugins/sdl/SDL_mixer/wavestream.o
 .bss           0x0000000000000000       0x1c /home/jbrawley/Desktop/rockbox-photo-cf-support/build/apps/plugins/sdl/SDL_mixer/wavestream.o
 .rodata.str1.4
                0x0000000000000000      0x16c /home/jbrawley/Desktop/rockbox-photo-cf-support/build/apps/plugins/sdl/SDL_mixer/wavestream.o
 .data          0x0000000000000000        0x0 /home/jbrawley/Desktop/rockbox-photo-cf-support/build/apps/plugins/sdl/SDL_mixer/timidity/common.o
 .text          0x0000000000000000        0x0 /home/jbrawley/Desktop/rockbox-photo-cf-support/build/apps/plugins/sdl/SDL_mixer/timidity/ctrlmode.o
 .bss           0x0000000000000000        0x0 /home/jbrawley/Desktop/rockbox-photo-cf-support/build/apps/plugins/sdl/SDL_mixer/timidity/ctrlmode.o
 .data          0x0000000000000000        0x0 /home/jbrawley/Desktop/rockbox-photo-cf-support/build/apps/plugins/sdl/SDL_mixer/timidity/filter.o
 .bss           0x0000000000000000        0x0 /home/jbrawley/Desktop/rockbox-photo-cf-support/build/apps/plugins/sdl/SDL_mixer/timidity/filter.o
 .data          0x0000000000000000        0x0 /home/jbrawley/Desktop/rockbox-photo-cf-support/build/apps/plugins/sdl/SDL_mixer/timidity/mix.o
 .bss           0x0000000000000000        0x0 /home/jbrawley/Desktop/rockbox-photo-cf-support/build/apps/plugins/sdl/SDL_mixer/timidity/mix.o
 .bss           0x0000000000000000        0x0 /home/jbrawley/Desktop/rockbox-photo-cf-support/build/apps/plugins/sdl/SDL_mixer/timidity/output.o
 .data          0x0000000000000000        0x0 /home/jbrawley/Desktop/rockbox-photo-cf-support/build/apps/plugins/sdl/SDL_mixer/timidity/readmidi.o
 .data          0x0000000000000000        0x0 /home/jbrawley/Desktop/rockbox-photo-cf-support/build/apps/plugins/sdl/SDL_mixer/timidity/resample.o
 .bss           0x0000000000000000        0x0 /home/jbrawley/Desktop/rockbox-photo-cf-support/build/apps/plugins/sdl/SDL_mixer/timidity/resample.o
 .text          0x0000000000000000        0x0 /home/jbrawley/Desktop/rockbox-photo-cf-support/build/apps/plugins/sdl/SDL_mixer/timidity/sdl_a.o
 .bss           0x0000000000000000        0x0 /home/jbrawley/Desktop/rockbox-photo-cf-support/build/apps/plugins/sdl/SDL_mixer/timidity/sdl_a.o
 .bss           0x0000000000000000        0x0 /home/jbrawley/Desktop/rockbox-photo-cf-support/build/apps/plugins/sdl/SDL_mixer/timidity/sdl_c.o
 .bss           0x0000000000000000        0x0 /home/jbrawley/Desktop/rockbox-photo-cf-support/build/apps/plugins/sdl/SDL_mixer/timidity/tables.o
 .data          0x0000000000000000        0x0 /home/jbrawley/Desktop/rockbox-photo-cf-support/build/apps/plugins/sdl/SDL_mixer/timidity/timidity.o
 .text          0x0000000000000000        0x0 /home/jbrawley/Desktop/rockbox-photo-cf-support/build/apps/plugins/sdl/progs/duke3d/Engine/src/dummy_multi.o
 .data          0x0000000000000000        0x0 /home/jbrawley/Desktop/rockbox-photo-cf-support/build/apps/plugins/sdl/progs/duke3d/Engine/src/filesystem.o
 .data          0x0000000000000000        0x0 /home/jbrawley/Desktop/rockbox-photo-cf-support/build/apps/plugins/sdl/progs/duke3d/Engine/src/fixedPoint_math.o
 .bss           0x0000000000000000        0x0 /home/jbrawley/Desktop/rockbox-photo-cf-support/build/apps/plugins/sdl/progs/duke3d/Engine/src/fixedPoint_math.o
 .text          0x0000000000000000        0x0 /home/jbrawley/Desktop/rockbox-photo-cf-support/build/apps/plugins/sdl/progs/duke3d/Engine/src/icon.o
 .bss           0x0000000000000000        0x0 /home/jbrawley/Desktop/rockbox-photo-cf-support/build/apps/plugins/sdl/progs/duke3d/Engine/src/icon.o
 .text          0x0000000000000000     0x19f4 /home/jbrawley/Desktop/rockbox-photo-cf-support/build/apps/plugins/sdl/progs/duke3d/Engine/src/mmulti.o
 .data          0x0000000000000000        0x0 /home/jbrawley/Desktop/rockbox-photo-cf-support/build/apps/plugins/sdl/progs/duke3d/Engine/src/mmulti.o
 .rodata.str1.4
                0x0000000000000000      0x116 /home/jbrawley/Desktop/rockbox-photo-cf-support/build/apps/plugins/sdl/progs/duke3d/Engine/src/mmulti.o
 COMMON         0x0000000000000000      0x420 /home/jbrawley/Desktop/rockbox-photo-cf-support/build/apps/plugins/sdl/progs/duke3d/Engine/src/mmulti.o
 .data          0x0000000000000000        0x0 /home/jbrawley/Desktop/rockbox-photo-cf-support/build/apps/plugins/sdl/progs/duke3d/Engine/src/network.o
 .data          0x0000000000000000        0x0 /home/jbrawley/Desktop/rockbox-photo-cf-support/build/apps/plugins/sdl/progs/duke3d/Engine/src/tiles.o
 .data          0x0000000000000000        0x0 /home/jbrawley/Desktop/rockbox-photo-cf-support/build/apps/plugins/sdl/progs/duke3d/Game/src/audiolib/dsl.o
 .data          0x0000000000000000        0x0 /home/jbrawley/Desktop/rockbox-photo-cf-support/build/apps/plugins/sdl/progs/duke3d/Game/src/audiolib/ll_man.o
 .bss           0x0000000000000000        0x0 /home/jbrawley/Desktop/rockbox-photo-cf-support/build/apps/plugins/sdl/progs/duke3d/Game/src/audiolib/ll_man.o
 .data          0x0000000000000000        0x0 /home/jbrawley/Desktop/rockbox-photo-cf-support/build/apps/plugins/sdl/progs/duke3d/Game/src/audiolib/mv_mix.o
 .data          0x0000000000000000        0x0 /home/jbrawley/Desktop/rockbox-photo-cf-support/build/apps/plugins/sdl/progs/duke3d/Game/src/audiolib/mvreverb.o
 .data          0x0000000000000000        0x0 /home/jbrawley/Desktop/rockbox-photo-cf-support/build/apps/plugins/sdl/progs/duke3d/Game/src/audiolib/nodpmi.o
 .bss           0x0000000000000000        0x0 /home/jbrawley/Desktop/rockbox-photo-cf-support/build/apps/plugins/sdl/progs/duke3d/Game/src/audiolib/nodpmi.o
 .bss           0x0000000000000000        0x0 /home/jbrawley/Desktop/rockbox-photo-cf-support/build/apps/plugins/sdl/progs/duke3d/Game/src/audiolib/pitch.o
 .data          0x0000000000000000        0x0 /home/jbrawley/Desktop/rockbox-photo-cf-support/build/apps/plugins/sdl/progs/duke3d/Game/src/audiolib/user.o
 .bss           0x0000000000000000        0x0 /home/jbrawley/Desktop/rockbox-photo-cf-support/build/apps/plugins/sdl/progs/duke3d/Game/src/audiolib/user.o
 .data          0x0000000000000000        0x0 /home/jbrawley/Desktop/rockbox-photo-cf-support/build/apps/plugins/sdl/progs/duke3d/Game/src/audiolib/usrhooks.o
 .bss           0x0000000000000000        0x0 /home/jbrawley/Desktop/rockbox-photo-cf-support/build/apps/plugins/sdl/progs/duke3d/Game/src/audiolib/usrhooks.o
 .data          0x0000000000000000        0x0 /home/jbrawley/Desktop/rockbox-photo-cf-support/build/apps/plugins/sdl/progs/duke3d/Game/src/actors.o
 .bss           0x0000000000000000        0x0 /home/jbrawley/Desktop/rockbox-photo-cf-support/build/apps/plugins/sdl/progs/duke3d/Game/src/actors.o
 .data          0x0000000000000000        0x0 /home/jbrawley/Desktop/rockbox-photo-cf-support/build/apps/plugins/sdl/progs/duke3d/Game/src/animlib.o
 .data          0x0000000000000000        0x0 /home/jbrawley/Desktop/rockbox-photo-cf-support/build/apps/plugins/sdl/progs/duke3d/Game/src/console.o
 .data          0x0000000000000000        0x0 /home/jbrawley/Desktop/rockbox-photo-cf-support/build/apps/plugins/sdl/progs/duke3d/Game/src/control.o
 .data          0x0000000000000000        0x0 /home/jbrawley/Desktop/rockbox-photo-cf-support/build/apps/plugins/sdl/progs/duke3d/Game/src/cvar_defs.o
 .bss           0x0000000000000000        0x0 /home/jbrawley/Desktop/rockbox-photo-cf-support/build/apps/plugins/sdl/progs/duke3d/Game/src/cvar_defs.o
 .data          0x0000000000000000        0x0 /home/jbrawley/Desktop/rockbox-photo-cf-support/build/apps/plugins/sdl/progs/duke3d/Game/src/cvars.o
 .text          0x0000000000000000        0x0 /home/jbrawley/Desktop/rockbox-photo-cf-support/build/apps/plugins/sdl/progs/duke3d/Game/src/dummy_audiolib.o
 .data          0x0000000000000000        0x0 /home/jbrawley/Desktop/rockbox-photo-cf-support/build/apps/plugins/sdl/progs/duke3d/Game/src/dummy_audiolib.o
 .bss           0x0000000000000000        0x0 /home/jbrawley/Desktop/rockbox-photo-cf-support/build/apps/plugins/sdl/progs/duke3d/Game/src/dummy_audiolib.o
 .data          0x0000000000000000        0x0 /home/jbrawley/Desktop/rockbox-photo-cf-support/build/apps/plugins/sdl/progs/duke3d/Game/src/keyboard.o
 .data          0x0000000000000000        0x0 /home/jbrawley/Desktop/rockbox-photo-cf-support/build/apps/plugins/sdl/progs/duke3d/Game/src/midi/sdl_midi.o
 .bss           0x0000000000000000        0x0 /home/jbrawley/Desktop/rockbox-photo-cf-support/build/apps/plugins/sdl/progs/duke3d/Game/src/midi/sdl_midi.o
 .bss           0x0000000000000000        0x0 /home/jbrawley/Desktop/rockbox-photo-cf-support/build/apps/plugins/sdl/progs/duke3d/Game/src/premap.o
 .data          0x0000000000000000        0x0 /home/jbrawley/Desktop/rockbox-photo-cf-support/build/apps/plugins/sdl/progs/duke3d/Game/src/rts.o
 .data          0x0000000000000000        0x0 /home/jbrawley/Desktop/rockbox-photo-cf-support/build/apps/plugins/sdl/progs/duke3d/Game/src/scriplib.o
 .data          0x0000000000000000        0x0 /home/jbrawley/Desktop/rockbox-photo-cf-support/build/apps/plugins/sdl/progs/duke3d/Game/src/sector.o
 .bss           0x0000000000000000        0x0 /home/jbrawley/Desktop/rockbox-photo-cf-support/build/apps/plugins/sdl/progs/duke3d/Game/src/sector.o
 .data          0x0000000000000000        0x0 /home/jbrawley/Desktop/rockbox-photo-cf-support/build/apps/plugins/sdl/progs/duke3d/Game/src/sounds.o
 .text          0x0000000000000000        0x0 /home/jbrawley/Desktop/rockbox-photo-cf-support/build/lib/libtlsf.a(tlsf.o)
 .data          0x0000000000000000        0x0 /home/jbrawley/Desktop/rockbox-photo-cf-support/build/lib/libtlsf.a(tlsf.o)
 .text.get_used_size
                0x0000000000000000        0x8 /home/jbrawley/Desktop/rockbox-photo-cf-support/build/lib/libtlsf.a(tlsf.o)
 .text.get_max_size
                0x0000000000000000        0x8 /home/jbrawley/Desktop/rockbox-photo-cf-support/build/lib/libtlsf.a(tlsf.o)
 .text.destroy_memory_pool
                0x0000000000000000        0xc /home/jbrawley/Desktop/rockbox-photo-cf-support/build/lib/libtlsf.a(tlsf.o)
 .text          0x0000000000000000        0x0 /home/jbrawley/Desktop/rockbox-photo-cf-support/build/apps/plugins/libplugin.a(gcc-support.o)
 .data          0x0000000000000000        0x0 /home/jbrawley/Desktop/rockbox-photo-cf-support/build/apps/plugins/libplugin.a(gcc-support.o)
 .bss           0x0000000000000000        0x0 /home/jbrawley/Desktop/rockbox-photo-cf-support/build/apps/plugins/libplugin.a(gcc-support.o)
 .text.__div0   0x0000000000000000       0x14 /home/jbrawley/Desktop/rockbox-photo-cf-support/build/apps/plugins/libplugin.a(gcc-support.o)
 .text.memmove  0x0000000000000000       0x14 /home/jbrawley/Desktop/rockbox-photo-cf-support/build/apps/plugins/libplugin.a(gcc-support.o)
 .text          0x0000000000000000        0x0 /home/jbrawley/Desktop/rockbox-photo-cf-support/build/apps/plugins/libplugin.a(helper.o)
 .data          0x0000000000000000        0x0 /home/jbrawley/Desktop/rockbox-photo-cf-support/build/apps/plugins/libplugin.a(helper.o)
 .bss           0x0000000000000000        0x0 /home/jbrawley/Desktop/rockbox-photo-cf-support/build/apps/plugins/libplugin.a(helper.o)
 .text.talk_val
                0x0000000000000000       0x1c /home/jbrawley/Desktop/rockbox-photo-cf-support/build/apps/plugins/libplugin.a(helper.o)
 .text.backlight_force_on
                0x0000000000000000       0x34 /home/jbrawley/Desktop/rockbox-photo-cf-support/build/apps/plugins/libplugin.a(helper.o)
 .text.sw_poweroff_disable
                0x0000000000000000       0x3c /home/jbrawley/Desktop/rockbox-photo-cf-support/build/apps/plugins/libplugin.a(helper.o)
 .text.sw_poweroff_restore
                0x0000000000000000       0x20 /home/jbrawley/Desktop/rockbox-photo-cf-support/build/apps/plugins/libplugin.a(helper.o)
 .text.remote_backlight_force_on
                0x0000000000000000        0x4 /home/jbrawley/Desktop/rockbox-photo-cf-support/build/apps/plugins/libplugin.a(helper.o)
 .text.remote_backlight_ignore_timeout
                0x0000000000000000        0x4 /home/jbrawley/Desktop/rockbox-photo-cf-support/build/apps/plugins/libplugin.a(helper.o)
 .text.remote_backlight_use_settings
                0x0000000000000000        0x4 /home/jbrawley/Desktop/rockbox-photo-cf-support/build/apps/plugins/libplugin.a(helper.o)
 .text.buttonlight_force_on
                0x0000000000000000        0x4 /home/jbrawley/Desktop/rockbox-photo-cf-support/build/apps/plugins/libplugin.a(helper.o)
 .text.buttonlight_force_off
                0x0000000000000000        0x4 /home/jbrawley/Desktop/rockbox-photo-cf-support/build/apps/plugins/libplugin.a(helper.o)
 .text.buttonlight_ignore_timeout
                0x0000000000000000        0x4 /home/jbrawley/Desktop/rockbox-photo-cf-support/build/apps/plugins/libplugin.a(helper.o)
 .text.buttonlight_use_settings
                0x0000000000000000        0x4 /home/jbrawley/Desktop/rockbox-photo-cf-support/build/apps/plugins/libplugin.a(helper.o)
 .text.backlight_brightness_set
                0x0000000000000000       0x14 /home/jbrawley/Desktop/rockbox-photo-cf-support/build/apps/plugins/libplugin.a(helper.o)
 .text.backlight_brightness_use_setting
                0x0000000000000000       0x1c /home/jbrawley/Desktop/rockbox-photo-cf-support/build/apps/plugins/libplugin.a(helper.o)
 .text.buttonlight_brightness_set
                0x0000000000000000        0x4 /home/jbrawley/Desktop/rockbox-photo-cf-support/build/apps/plugins/libplugin.a(helper.o)
 .text.buttonlight_brightness_use_setting
                0x0000000000000000        0x4 /home/jbrawley/Desktop/rockbox-photo-cf-support/build/apps/plugins/libplugin.a(helper.o)
 .data.original_sw_poweroff_state
                0x0000000000000000        0x1 /home/jbrawley/Desktop/rockbox-photo-cf-support/build/apps/plugins/libplugin.a(helper.o)
 .text          0x0000000000000000        0x0 /home/jbrawley/Desktop/rockbox-photo-cf-support/build/apps/plugins/libplugin.a(strncpy.o)
 .data          0x0000000000000000        0x0 /home/jbrawley/Desktop/rockbox-photo-cf-support/build/apps/plugins/libplugin.a(strncpy.o)
 .bss           0x0000000000000000        0x0 /home/jbrawley/Desktop/rockbox-photo-cf-support/build/apps/plugins/libplugin.a(strncpy.o)
 .text          0x0000000000000000        0x0 /home/jbrawley/Desktop/rockbox-photo-cf-support/build/apps/plugins/libplugin.a(stdio_compat.o)
 .data          0x0000000000000000        0x0 /home/jbrawley/Desktop/rockbox-photo-cf-support/build/apps/plugins/libplugin.a(stdio_compat.o)
 .bss           0x0000000000000000        0x0 /home/jbrawley/Desktop/rockbox-photo-cf-support/build/apps/plugins/libplugin.a(stdio_compat.o)
 .text._fflush_
                0x0000000000000000        0x8 /home/jbrawley/Desktop/rockbox-photo-cf-support/build/apps/plugins/libplugin.a(stdio_compat.o)
 .text._ungetc_
                0x0000000000000000        0x8 /home/jbrawley/Desktop/rockbox-photo-cf-support/build/apps/plugins/libplugin.a(stdio_compat.o)
 .text._fputc_  0x0000000000000000       0x48 /home/jbrawley/Desktop/rockbox-photo-cf-support/build/apps/plugins/libplugin.a(stdio_compat.o)
 .text._clearerr_
                0x0000000000000000       0x10 /home/jbrawley/Desktop/rockbox-photo-cf-support/build/apps/plugins/libplugin.a(stdio_compat.o)
 .text._feof_   0x0000000000000000       0x20 /home/jbrawley/Desktop/rockbox-photo-cf-support/build/apps/plugins/libplugin.a(stdio_compat.o)
 .bss._stdout_  0x0000000000000000        0x4 /home/jbrawley/Desktop/rockbox-photo-cf-support/build/apps/plugins/libplugin.a(stdio_compat.o)
 .text          0x0000000000000000        0x0 /home/jbrawley/Desktop/rockbox-photo-cf-support/build/apps/plugins/libplugin.a(pluginlib_bmp.o)
 .data          0x0000000000000000        0x0 /home/jbrawley/Desktop/rockbox-photo-cf-support/build/apps/plugins/libplugin.a(pluginlib_bmp.o)
 .bss           0x0000000000000000        0x0 /home/jbrawley/Desktop/rockbox-photo-cf-support/build/apps/plugins/libplugin.a(pluginlib_bmp.o)
 .text.read_part_line
                0x0000000000000000      0x360 /home/jbrawley/Desktop/rockbox-photo-cf-support/build/apps/plugins/libplugin.a(pluginlib_bmp.o)
 .text.store_part_bmp
                0x0000000000000000       0x24 /home/jbrawley/Desktop/rockbox-photo-cf-support/build/apps/plugins/libplugin.a(pluginlib_bmp.o)
 .text.output_row_8_native
                0x0000000000000000      0x130 /home/jbrawley/Desktop/rockbox-photo-cf-support/build/apps/plugins/libplugin.a(pluginlib_bmp.o)
 .text.save_bmp_file
                0x0000000000000000      0x2c8 /home/jbrawley/Desktop/rockbox-photo-cf-support/build/apps/plugins/libplugin.a(pluginlib_bmp.o)
 .text.read_bmp_fd
                0x0000000000000000      0x744 /home/jbrawley/Desktop/rockbox-photo-cf-support/build/apps/plugins/libplugin.a(pluginlib_bmp.o)
 .text.read_bmp_file
                0x0000000000000000       0x80 /home/jbrawley/Desktop/rockbox-photo-cf-support/build/apps/plugins/libplugin.a(pluginlib_bmp.o)
 .rodata.dither_table
                0x0000000000000000       0x10 /home/jbrawley/Desktop/rockbox-photo-cf-support/build/apps/plugins/libplugin.a(pluginlib_bmp.o)
 .rodata.bitfields
                0x0000000000000000       0x40 /home/jbrawley/Desktop/rockbox-photo-cf-support/build/apps/plugins/libplugin.a(pluginlib_bmp.o)
 .text          0x0000000000000000        0x0 /home/jbrawley/Desktop/rockbox-photo-cf-support/build/apps/plugins/libplugin.a(pluginlib_resize.o)
 .data          0x0000000000000000        0x0 /home/jbrawley/Desktop/rockbox-photo-cf-support/build/apps/plugins/libplugin.a(pluginlib_resize.o)
 .bss           0x0000000000000000        0x0 /home/jbrawley/Desktop/rockbox-photo-cf-support/build/apps/plugins/libplugin.a(pluginlib_resize.o)
 .text.scale_h_area
                0x0000000000000000      0x278 /home/jbrawley/Desktop/rockbox-photo-cf-support/build/apps/plugins/libplugin.a(pluginlib_resize.o)
 .text.output_row_32_native
                0x0000000000000000      0x150 /home/jbrawley/Desktop/rockbox-photo-cf-support/build/apps/plugins/libplugin.a(pluginlib_resize.o)
 .text.get_size_native
                0x0000000000000000       0x14 /home/jbrawley/Desktop/rockbox-photo-cf-support/build/apps/plugins/libplugin.a(pluginlib_resize.o)
 .text.scale_h_linear
                0x0000000000000000      0x28c /home/jbrawley/Desktop/rockbox-photo-cf-support/build/apps/plugins/libplugin.a(pluginlib_resize.o)
 .text.output_row_32_native_fromyuv
                0x0000000000000000      0x174 /home/jbrawley/Desktop/rockbox-photo-cf-support/build/apps/plugins/libplugin.a(pluginlib_resize.o)
 .text.recalc_dimension
                0x0000000000000000       0x9c /home/jbrawley/Desktop/rockbox-photo-cf-support/build/apps/plugins/libplugin.a(pluginlib_resize.o)
 .text.resize_on_load
                0x0000000000000000      0x470 /home/jbrawley/Desktop/rockbox-photo-cf-support/build/apps/plugins/libplugin.a(pluginlib_resize.o)
 .rodata.format_native
                0x0000000000000000       0x10 /home/jbrawley/Desktop/rockbox-photo-cf-support/build/apps/plugins/libplugin.a(pluginlib_resize.o)
 .data          0x0000000000000000        0x0 /home/jbrawley/Desktop/rockbox-photo-cf-support/build/lib/libsetjmp.a(setjmp.o)
 .bss           0x0000000000000000        0x0 /home/jbrawley/Desktop/rockbox-photo-cf-support/build/lib/libsetjmp.a(setjmp.o)
 .text          0x0000000000000000        0x0 /home/jbrawley/Desktop/rockbox-photo-cf-support/build/lib/libfixedpoint.a(fixedpoint.o)
 .data          0x0000000000000000        0x0 /home/jbrawley/Desktop/rockbox-photo-cf-support/build/lib/libfixedpoint.a(fixedpoint.o)
 .bss           0x0000000000000000        0x0 /home/jbrawley/Desktop/rockbox-photo-cf-support/build/lib/libfixedpoint.a(fixedpoint.o)
 .text.fp_sqrt  0x0000000000000000       0xc4 /home/jbrawley/Desktop/rockbox-photo-cf-support/build/lib/libfixedpoint.a(fixedpoint.o)
 .text.ipow     0x0000000000000000       0x48 /home/jbrawley/Desktop/rockbox-photo-cf-support/build/lib/libfixedpoint.a(fixedpoint.o)
 .text.fp14_sin
                0x0000000000000000       0x5c /home/jbrawley/Desktop/rockbox-photo-cf-support/build/lib/libfixedpoint.a(fixedpoint.o)
 .text.fp14_cos
                0x0000000000000000       0x7c /home/jbrawley/Desktop/rockbox-photo-cf-support/build/lib/libfixedpoint.a(fixedpoint.o)
 .text.fp16_log
                0x0000000000000000       0xd4 /home/jbrawley/Desktop/rockbox-photo-cf-support/build/lib/libfixedpoint.a(fixedpoint.o)
 .text.fp16_exp
                0x0000000000000000       0xf8 /home/jbrawley/Desktop/rockbox-photo-cf-support/build/lib/libfixedpoint.a(fixedpoint.o)
 .text.fp_exp10
                0x0000000000000000      0x1a0 /home/jbrawley/Desktop/rockbox-photo-cf-support/build/lib/libfixedpoint.a(fixedpoint.o)
 .text.fp_log10
                0x0000000000000000       0xb0 /home/jbrawley/Desktop/rockbox-photo-cf-support/build/lib/libfixedpoint.a(fixedpoint.o)
 .text.fp_decibels
                0x0000000000000000       0x2c /home/jbrawley/Desktop/rockbox-photo-cf-support/build/lib/libfixedpoint.a(fixedpoint.o)
 .text.fp_factor
                0x0000000000000000       0x30 /home/jbrawley/Desktop/rockbox-photo-cf-support/build/lib/libfixedpoint.a(fixedpoint.o)
 .rodata.sin_table
                0x0000000000000000       0xb6 /home/jbrawley/Desktop/rockbox-photo-cf-support/build/lib/libfixedpoint.a(fixedpoint.o)
 .data          0x0000000000000000        0x0 /usr/local/lib/gcc/arm-elf-eabi/4.9.4/libgcc.a(_udivsi3.o)
 .bss           0x0000000000000000        0x0 /usr/local/lib/gcc/arm-elf-eabi/4.9.4/libgcc.a(_udivsi3.o)
 .data          0x0000000000000000        0x0 /usr/local/lib/gcc/arm-elf-eabi/4.9.4/libgcc.a(_divsi3.o)
 .bss           0x0000000000000000        0x0 /usr/local/lib/gcc/arm-elf-eabi/4.9.4/libgcc.a(_divsi3.o)
 .data          0x0000000000000000        0x0 /usr/local/lib/gcc/arm-elf-eabi/4.9.4/libgcc.a(_dvmd_tls.o)
 .bss           0x0000000000000000        0x0 /usr/local/lib/gcc/arm-elf-eabi/4.9.4/libgcc.a(_dvmd_tls.o)
 .text          0x0000000000000000       0x1c /usr/local/lib/gcc/arm-elf-eabi/4.9.4/libgcc.a(_ashrdi3.o)
 .data          0x0000000000000000        0x0 /usr/local/lib/gcc/arm-elf-eabi/4.9.4/libgcc.a(_ashrdi3.o)
 .bss           0x0000000000000000        0x0 /usr/local/lib/gcc/arm-elf-eabi/4.9.4/libgcc.a(_ashrdi3.o)
 .debug_line    0x0000000000000000       0x67 /usr/local/lib/gcc/arm-elf-eabi/4.9.4/libgcc.a(_ashrdi3.o)
 .debug_info    0x0000000000000000       0x88 /usr/local/lib/gcc/arm-elf-eabi/4.9.4/libgcc.a(_ashrdi3.o)
 .debug_abbrev  0x0000000000000000       0x14 /usr/local/lib/gcc/arm-elf-eabi/4.9.4/libgcc.a(_ashrdi3.o)
 .debug_aranges
                0x0000000000000000       0x20 /usr/local/lib/gcc/arm-elf-eabi/4.9.4/libgcc.a(_ashrdi3.o)
 .ARM.attributes
                0x0000000000000000       0x18 /usr/local/lib/gcc/arm-elf-eabi/4.9.4/libgcc.a(_ashrdi3.o)
 .text          0x0000000000000000       0x1c /usr/local/lib/gcc/arm-elf-eabi/4.9.4/libgcc.a(_ashldi3.o)
 .data          0x0000000000000000        0x0 /usr/local/lib/gcc/arm-elf-eabi/4.9.4/libgcc.a(_ashldi3.o)
 .bss           0x0000000000000000        0x0 /usr/local/lib/gcc/arm-elf-eabi/4.9.4/libgcc.a(_ashldi3.o)
 .debug_line    0x0000000000000000       0x67 /usr/local/lib/gcc/arm-elf-eabi/4.9.4/libgcc.a(_ashldi3.o)
 .debug_info    0x0000000000000000       0x88 /usr/local/lib/gcc/arm-elf-eabi/4.9.4/libgcc.a(_ashldi3.o)
 .debug_abbrev  0x0000000000000000       0x14 /usr/local/lib/gcc/arm-elf-eabi/4.9.4/libgcc.a(_ashldi3.o)
 .debug_aranges
                0x0000000000000000       0x20 /usr/local/lib/gcc/arm-elf-eabi/4.9.4/libgcc.a(_ashldi3.o)
 .ARM.attributes
                0x0000000000000000       0x18 /usr/local/lib/gcc/arm-elf-eabi/4.9.4/libgcc.a(_ashldi3.o)
 .data          0x0000000000000000        0x0 /usr/local/lib/gcc/arm-elf-eabi/4.9.4/libgcc.a(_arm_addsubdf3.o)
 .bss           0x0000000000000000        0x0 /usr/local/lib/gcc/arm-elf-eabi/4.9.4/libgcc.a(_arm_addsubdf3.o)
 .data          0x0000000000000000        0x0 /usr/local/lib/gcc/arm-elf-eabi/4.9.4/libgcc.a(_arm_muldivdf3.o)
 .bss           0x0000000000000000        0x0 /usr/local/lib/gcc/arm-elf-eabi/4.9.4/libgcc.a(_arm_muldivdf3.o)
 .data          0x0000000000000000        0x0 /usr/local/lib/gcc/arm-elf-eabi/4.9.4/libgcc.a(_arm_cmpdf2.o)
 .bss           0x0000000000000000        0x0 /usr/local/lib/gcc/arm-elf-eabi/4.9.4/libgcc.a(_arm_cmpdf2.o)
 .data          0x0000000000000000        0x0 /usr/local/lib/gcc/arm-elf-eabi/4.9.4/libgcc.a(_arm_fixdfsi.o)
 .bss           0x0000000000000000        0x0 /usr/local/lib/gcc/arm-elf-eabi/4.9.4/libgcc.a(_arm_fixdfsi.o)
 .data          0x0000000000000000        0x0 /usr/local/lib/gcc/arm-elf-eabi/4.9.4/libgcc.a(_arm_fixunsdfsi.o)
 .bss           0x0000000000000000        0x0 /usr/local/lib/gcc/arm-elf-eabi/4.9.4/libgcc.a(_arm_fixunsdfsi.o)
 .data          0x0000000000000000        0x0 /usr/local/lib/gcc/arm-elf-eabi/4.9.4/libgcc.a(_arm_truncdfsf2.o)
 .bss           0x0000000000000000        0x0 /usr/local/lib/gcc/arm-elf-eabi/4.9.4/libgcc.a(_arm_truncdfsf2.o)
 .data          0x0000000000000000        0x0 /usr/local/lib/gcc/arm-elf-eabi/4.9.4/libgcc.a(_arm_addsubsf3.o)
 .bss           0x0000000000000000        0x0 /usr/local/lib/gcc/arm-elf-eabi/4.9.4/libgcc.a(_arm_addsubsf3.o)
 .data          0x0000000000000000        0x0 /usr/local/lib/gcc/arm-elf-eabi/4.9.4/libgcc.a(_arm_muldivsf3.o)
 .bss           0x0000000000000000        0x0 /usr/local/lib/gcc/arm-elf-eabi/4.9.4/libgcc.a(_arm_muldivsf3.o)
 .data          0x0000000000000000        0x0 /usr/local/lib/gcc/arm-elf-eabi/4.9.4/libgcc.a(_arm_cmpsf2.o)
 .bss           0x0000000000000000        0x0 /usr/local/lib/gcc/arm-elf-eabi/4.9.4/libgcc.a(_arm_cmpsf2.o)
 .data          0x0000000000000000        0x0 /usr/local/lib/gcc/arm-elf-eabi/4.9.4/libgcc.a(_arm_fixsfsi.o)
 .bss           0x0000000000000000        0x0 /usr/local/lib/gcc/arm-elf-eabi/4.9.4/libgcc.a(_arm_fixsfsi.o)
 .data          0x0000000000000000        0x0 /usr/local/lib/gcc/arm-elf-eabi/4.9.4/libgcc.a(_arm_fixunssfsi.o)
 .bss           0x0000000000000000        0x0 /usr/local/lib/gcc/arm-elf-eabi/4.9.4/libgcc.a(_arm_fixunssfsi.o)
 .data          0x0000000000000000        0x0 /usr/local/lib/gcc/arm-elf-eabi/4.9.4/libgcc.a(_clzsi2.o)
 .bss           0x0000000000000000        0x0 /usr/local/lib/gcc/arm-elf-eabi/4.9.4/libgcc.a(_clzsi2.o)
 .data          0x0000000000000000        0x0 /usr/local/lib/gcc/arm-elf-eabi/4.9.4/libgcc.a(_aeabi_ldivmod.o)
 .bss           0x0000000000000000        0x0 /usr/local/lib/gcc/arm-elf-eabi/4.9.4/libgcc.a(_aeabi_ldivmod.o)
 .data          0x0000000000000000        0x0 /usr/local/lib/gcc/arm-elf-eabi/4.9.4/libgcc.a(_aeabi_uldivmod.o)
 .bss           0x0000000000000000        0x0 /usr/local/lib/gcc/arm-elf-eabi/4.9.4/libgcc.a(_aeabi_uldivmod.o)
 .data          0x0000000000000000        0x0 /usr/local/lib/gcc/arm-elf-eabi/4.9.4/libgcc.a(bpabi.o)
 .bss           0x0000000000000000        0x0 /usr/local/lib/gcc/arm-elf-eabi/4.9.4/libgcc.a(bpabi.o)
 .data          0x0000000000000000        0x0 /usr/local/lib/gcc/arm-elf-eabi/4.9.4/libgcc.a(_divdi3.o)
 .bss           0x0000000000000000        0x0 /usr/local/lib/gcc/arm-elf-eabi/4.9.4/libgcc.a(_divdi3.o)
 .ARM.extab     0x0000000000000000        0x0 /usr/local/lib/gcc/arm-elf-eabi/4.9.4/libgcc.a(_divdi3.o)
 .data          0x0000000000000000        0x0 /usr/local/lib/gcc/arm-elf-eabi/4.9.4/libgcc.a(_udivdi3.o)
 .bss           0x0000000000000000        0x0 /usr/local/lib/gcc/arm-elf-eabi/4.9.4/libgcc.a(_udivdi3.o)
 .ARM.extab     0x0000000000000000        0x0 /usr/local/lib/gcc/arm-elf-eabi/4.9.4/libgcc.a(_udivdi3.o)
 .data          0x0000000000000000        0x0 /usr/local/lib/gcc/arm-elf-eabi/4.9.4/libgcc.a(_clzdi2.o)
 .bss           0x0000000000000000        0x0 /usr/local/lib/gcc/arm-elf-eabi/4.9.4/libgcc.a(_clzdi2.o)

Memory Configuration

Name             Origin             Length             Attributes
PLUGIN_RAM       0x00000000019e0e50 0x000000000049f1b0
PLUGIN_IRAM      0x000000004000c000 0x000000000000c000
*default*        0x0000000000000000 0xffffffffffffffff

Linker script and memory map

LOAD /home/jbrawley/Desktop/rockbox-photo-cf-support/build/apps/plugins/sdl/main.o
LOAD /home/jbrawley/Desktop/rockbox-photo-cf-support/build/apps/plugins/sdl/wrappers.o
LOAD /home/jbrawley/Desktop/rockbox-photo-cf-support/build/apps/plugins/sdl/src/SDL.o
LOAD /home/jbrawley/Desktop/rockbox-photo-cf-support/build/apps/plugins/sdl/src/SDL_error.o
LOAD /home/jbrawley/Desktop/rockbox-photo-cf-support/build/apps/plugins/sdl/src/SDL_fatal.o
LOAD /home/jbrawley/Desktop/rockbox-photo-cf-support/build/apps/plugins/sdl/src/audio/SDL_audio.o
LOAD /home/jbrawley/Desktop/rockbox-photo-cf-support/build/apps/plugins/sdl/src/audio/SDL_audiocvt.o
LOAD /home/jbrawley/Desktop/rockbox-photo-cf-support/build/apps/plugins/sdl/src/audio/SDL_audiodev.o
LOAD /home/jbrawley/Desktop/rockbox-photo-cf-support/build/apps/plugins/sdl/src/audio/SDL_mixer.o
LOAD /home/jbrawley/Desktop/rockbox-photo-cf-support/build/apps/plugins/sdl/src/audio/SDL_mixer_MMX.o
LOAD /home/jbrawley/Desktop/rockbox-photo-cf-support/build/apps/plugins/sdl/src/audio/SDL_mixer_MMX_VC.o
LOAD /home/jbrawley/Desktop/rockbox-photo-cf-support/build/apps/plugins/sdl/src/audio/SDL_mixer_m68k.o
LOAD /home/jbrawley/Desktop/rockbox-photo-cf-support/build/apps/plugins/sdl/src/audio/SDL_wave.o
LOAD /home/jbrawley/Desktop/rockbox-photo-cf-support/build/apps/plugins/sdl/src/audio/rockbox/SDL_rockboxaudio.o
LOAD /home/jbrawley/Desktop/rockbox-photo-cf-support/build/apps/plugins/sdl/src/cdrom/SDL_cdrom.o
LOAD /home/jbrawley/Desktop/rockbox-photo-cf-support/build/apps/plugins/sdl/src/cdrom/dummy/SDL_syscdrom.o
LOAD /home/jbrawley/Desktop/rockbox-photo-cf-support/build/apps/plugins/sdl/src/cpuinfo/SDL_cpuinfo.o
LOAD /home/jbrawley/Desktop/rockbox-photo-cf-support/build/apps/plugins/sdl/src/events/SDL_active.o
LOAD /home/jbrawley/Desktop/rockbox-photo-cf-support/build/apps/plugins/sdl/src/events/SDL_events.o
LOAD /home/jbrawley/Desktop/rockbox-photo-cf-support/build/apps/plugins/sdl/src/events/SDL_expose.o
LOAD /home/jbrawley/Desktop/rockbox-photo-cf-support/build/apps/plugins/sdl/src/events/SDL_keyboard.o
LOAD /home/jbrawley/Desktop/rockbox-photo-cf-support/build/apps/plugins/sdl/src/events/SDL_mouse.o
LOAD /home/jbrawley/Desktop/rockbox-photo-cf-support/build/apps/plugins/sdl/src/events/SDL_quit.o
LOAD /home/jbrawley/Desktop/rockbox-photo-cf-support/build/apps/plugins/sdl/src/events/SDL_resize.o
LOAD /home/jbrawley/Desktop/rockbox-photo-cf-support/build/apps/plugins/sdl/src/file/SDL_rwops.o
LOAD /home/jbrawley/Desktop/rockbox-photo-cf-support/build/apps/plugins/sdl/src/joystick/SDL_joystick.o
LOAD /home/jbrawley/Desktop/rockbox-photo-cf-support/build/apps/plugins/sdl/src/joystick/dummy/SDL_sysjoystick.o
LOAD /home/jbrawley/Desktop/rockbox-photo-cf-support/build/apps/plugins/sdl/src/loadso/dummy/SDL_sysloadso.o
LOAD /home/jbrawley/Desktop/rockbox-photo-cf-support/build/apps/plugins/sdl/src/stdlib/SDL_getenv.o
LOAD /home/jbrawley/Desktop/rockbox-photo-cf-support/build/apps/plugins/sdl/src/stdlib/SDL_iconv.o
LOAD /home/jbrawley/Desktop/rockbox-photo-cf-support/build/apps/plugins/sdl/src/stdlib/SDL_malloc.o
LOAD /home/jbrawley/Desktop/rockbox-photo-cf-support/build/apps/plugins/sdl/src/stdlib/SDL_qsort.o
LOAD /home/jbrawley/Desktop/rockbox-photo-cf-support/build/apps/plugins/sdl/src/stdlib/SDL_stdlib.o
LOAD /home/jbrawley/Desktop/rockbox-photo-cf-support/build/apps/plugins/sdl/src/stdlib/SDL_string.o
LOAD /home/jbrawley/Desktop/rockbox-photo-cf-support/build/apps/plugins/sdl/src/thread/SDL_thread.o
LOAD /home/jbrawley/Desktop/rockbox-photo-cf-support/build/apps/plugins/sdl/src/thread/rockbox/SDL_syscond.o
LOAD /home/jbrawley/Desktop/rockbox-photo-cf-support/build/apps/plugins/sdl/src/thread/rockbox/SDL_sysmutex.o
LOAD /home/jbrawley/Desktop/rockbox-photo-cf-support/build/apps/plugins/sdl/src/thread/rockbox/SDL_syssem.o
LOAD /home/jbrawley/Desktop/rockbox-photo-cf-support/build/apps/plugins/sdl/src/thread/rockbox/SDL_systhread.o
LOAD /home/jbrawley/Desktop/rockbox-photo-cf-support/build/apps/plugins/sdl/src/timer/SDL_timer.o
LOAD /home/jbrawley/Desktop/rockbox-photo-cf-support/build/apps/plugins/sdl/src/timer/rockbox/SDL_systimer.o
LOAD /home/jbrawley/Desktop/rockbox-photo-cf-support/build/apps/plugins/sdl/src/video/SDL_RLEaccel.o
LOAD /home/jbrawley/Desktop/rockbox-photo-cf-support/build/apps/plugins/sdl/src/video/SDL_blit.o
LOAD /home/jbrawley/Desktop/rockbox-photo-cf-support/build/apps/plugins/sdl/src/video/SDL_blit_0.o
LOAD /home/jbrawley/Desktop/rockbox-photo-cf-support/build/apps/plugins/sdl/src/video/SDL_blit_1.o
LOAD /home/jbrawley/Desktop/rockbox-photo-cf-support/build/apps/plugins/sdl/src/video/SDL_blit_A.o
LOAD /home/jbrawley/Desktop/rockbox-photo-cf-support/build/apps/plugins/sdl/src/video/SDL_blit_N.o
LOAD /home/jbrawley/Desktop/rockbox-photo-cf-support/build/apps/plugins/sdl/src/video/SDL_bmp.o
LOAD /home/jbrawley/Desktop/rockbox-photo-cf-support/build/apps/plugins/sdl/src/video/SDL_cursor.o
LOAD /home/jbrawley/Desktop/rockbox-photo-cf-support/build/apps/plugins/sdl/src/video/SDL_gamma.o
LOAD /home/jbrawley/Desktop/rockbox-photo-cf-support/build/apps/plugins/sdl/src/video/SDL_pixels.o
LOAD /home/jbrawley/Desktop/rockbox-photo-cf-support/build/apps/plugins/sdl/src/video/SDL_stretch.o
LOAD /home/jbrawley/Desktop/rockbox-photo-cf-support/build/apps/plugins/sdl/src/video/SDL_surface.o
LOAD /home/jbrawley/Desktop/rockbox-photo-cf-support/build/apps/plugins/sdl/src/video/SDL_video.o
LOAD /home/jbrawley/Desktop/rockbox-photo-cf-support/build/apps/plugins/sdl/src/video/SDL_yuv.o
LOAD /home/jbrawley/Desktop/rockbox-photo-cf-support/build/apps/plugins/sdl/src/video/SDL_yuv_mmx.o
LOAD /home/jbrawley/Desktop/rockbox-photo-cf-support/build/apps/plugins/sdl/src/video/SDL_yuv_sw.o
LOAD /home/jbrawley/Desktop/rockbox-photo-cf-support/build/apps/plugins/sdl/src/video/dummy/SDL_nullevents.o
LOAD /home/jbrawley/Desktop/rockbox-photo-cf-support/build/apps/plugins/sdl/src/video/dummy/SDL_nullmouse.o
LOAD /home/jbrawley/Desktop/rockbox-photo-cf-support/build/apps/plugins/sdl/src/video/dummy/SDL_nullvideo.o
LOAD /home/jbrawley/Desktop/rockbox-photo-cf-support/build/apps/plugins/sdl/src/video/rockbox/SDL_rockboxvideo.o
LOAD /home/jbrawley/Desktop/rockbox-photo-cf-support/build/apps/plugins/sdl/SDL_image/IMG_bmp.o
LOAD /home/jbrawley/Desktop/rockbox-photo-cf-support/build/apps/plugins/sdl/SDL_image/IMG.o
LOAD /home/jbrawley/Desktop/rockbox-photo-cf-support/build/apps/plugins/sdl/SDL_image/IMG_gif.o
LOAD /home/jbrawley/Desktop/rockbox-photo-cf-support/build/apps/plugins/sdl/SDL_image/IMG_jpg.o
LOAD /home/jbrawley/Desktop/rockbox-photo-cf-support/build/apps/plugins/sdl/SDL_image/IMG_lbm.o
LOAD /home/jbrawley/Desktop/rockbox-photo-cf-support/build/apps/plugins/sdl/SDL_image/IMG_pcx.o
LOAD /home/jbrawley/Desktop/rockbox-photo-cf-support/build/apps/plugins/sdl/SDL_image/IMG_png.o
LOAD /home/jbrawley/Desktop/rockbox-photo-cf-support/build/apps/plugins/sdl/SDL_image/IMG_pnm.o
LOAD /home/jbrawley/Desktop/rockbox-photo-cf-support/build/apps/plugins/sdl/SDL_image/IMG_tga.o
LOAD /home/jbrawley/Desktop/rockbox-photo-cf-support/build/apps/plugins/sdl/SDL_image/IMG_tif.o
LOAD /home/jbrawley/Desktop/rockbox-photo-cf-support/build/apps/plugins/sdl/SDL_image/IMG_webp.o
LOAD /home/jbrawley/Desktop/rockbox-photo-cf-support/build/apps/plugins/sdl/SDL_image/IMG_xcf.o
LOAD /home/jbrawley/Desktop/rockbox-photo-cf-support/build/apps/plugins/sdl/SDL_image/IMG_xpm.o
LOAD /home/jbrawley/Desktop/rockbox-photo-cf-support/build/apps/plugins/sdl/SDL_image/IMG_xv.o
LOAD /home/jbrawley/Desktop/rockbox-photo-cf-support/build/apps/plugins/sdl/SDL_image/IMG_xxx.o
LOAD /home/jbrawley/Desktop/rockbox-photo-cf-support/build/apps/plugins/sdl/SDL_mixer/dynamic_flac.o
LOAD /home/jbrawley/Desktop/rockbox-photo-cf-support/build/apps/plugins/sdl/SDL_mixer/dynamic_fluidsynth.o
LOAD /home/jbrawley/Desktop/rockbox-photo-cf-support/build/apps/plugins/sdl/SDL_mixer/dynamic_mod.o
LOAD /home/jbrawley/Desktop/rockbox-photo-cf-support/build/apps/plugins/sdl/SDL_mixer/dynamic_mp3.o
LOAD /home/jbrawley/Desktop/rockbox-photo-cf-support/build/apps/plugins/sdl/SDL_mixer/dynamic_ogg.o
LOAD /home/jbrawley/Desktop/rockbox-photo-cf-support/build/apps/plugins/sdl/SDL_mixer/effect_position.o
LOAD /home/jbrawley/Desktop/rockbox-photo-cf-support/build/apps/plugins/sdl/SDL_mixer/effects_internal.o
LOAD /home/jbrawley/Desktop/rockbox-photo-cf-support/build/apps/plugins/sdl/SDL_mixer/effect_stereoreverse.o
LOAD /home/jbrawley/Desktop/rockbox-photo-cf-support/build/apps/plugins/sdl/SDL_mixer/fluidsynth.o
LOAD /home/jbrawley/Desktop/rockbox-photo-cf-support/build/apps/plugins/sdl/SDL_mixer/load_aiff.o
LOAD /home/jbrawley/Desktop/rockbox-photo-cf-support/build/apps/plugins/sdl/SDL_mixer/load_flac.o
LOAD /home/jbrawley/Desktop/rockbox-photo-cf-support/build/apps/plugins/sdl/SDL_mixer/load_ogg.o
LOAD /home/jbrawley/Desktop/rockbox-photo-cf-support/build/apps/plugins/sdl/SDL_mixer/load_voc.o
LOAD /home/jbrawley/Desktop/rockbox-photo-cf-support/build/apps/plugins/sdl/SDL_mixer/mixer.o
LOAD /home/jbrawley/Desktop/rockbox-photo-cf-support/build/apps/plugins/sdl/SDL_mixer/music.o
LOAD /home/jbrawley/Desktop/rockbox-photo-cf-support/build/apps/plugins/sdl/SDL_mixer/music_cmd.o
LOAD /home/jbrawley/Desktop/rockbox-photo-cf-support/build/apps/plugins/sdl/SDL_mixer/music_flac.o
LOAD /home/jbrawley/Desktop/rockbox-photo-cf-support/build/apps/plugins/sdl/SDL_mixer/music_mad.o
LOAD /home/jbrawley/Desktop/rockbox-photo-cf-support/build/apps/plugins/sdl/SDL_mixer/music_mod.o
LOAD /home/jbrawley/Desktop/rockbox-photo-cf-support/build/apps/plugins/sdl/SDL_mixer/music_modplug.o
LOAD /home/jbrawley/Desktop/rockbox-photo-cf-support/build/apps/plugins/sdl/SDL_mixer/music_ogg.o
LOAD /home/jbrawley/Desktop/rockbox-photo-cf-support/build/apps/plugins/sdl/SDL_mixer/wavestream.o
LOAD /home/jbrawley/Desktop/rockbox-photo-cf-support/build/apps/plugins/sdl/SDL_mixer/timidity/common.o
LOAD /home/jbrawley/Desktop/rockbox-photo-cf-support/build/apps/plugins/sdl/SDL_mixer/timidity/ctrlmode.o
LOAD /home/jbrawley/Desktop/rockbox-photo-cf-support/build/apps/plugins/sdl/SDL_mixer/timidity/filter.o
LOAD /home/jbrawley/Desktop/rockbox-photo-cf-support/build/apps/plugins/sdl/SDL_mixer/timidity/instrum.o
LOAD /home/jbrawley/Desktop/rockbox-photo-cf-support/build/apps/plugins/sdl/SDL_mixer/timidity/mix.o
LOAD /home/jbrawley/Desktop/rockbox-photo-cf-support/build/apps/plugins/sdl/SDL_mixer/timidity/output.o
LOAD /home/jbrawley/Desktop/rockbox-photo-cf-support/build/apps/plugins/sdl/SDL_mixer/timidity/playmidi.o
LOAD /home/jbrawley/Desktop/rockbox-photo-cf-support/build/apps/plugins/sdl/SDL_mixer/timidity/readmidi.o
LOAD /home/jbrawley/Desktop/rockbox-photo-cf-support/build/apps/plugins/sdl/SDL_mixer/timidity/resample.o
LOAD /home/jbrawley/Desktop/rockbox-photo-cf-support/build/apps/plugins/sdl/SDL_mixer/timidity/sdl_a.o
LOAD /home/jbrawley/Desktop/rockbox-photo-cf-support/build/apps/plugins/sdl/SDL_mixer/timidity/sdl_c.o
LOAD /home/jbrawley/Desktop/rockbox-photo-cf-support/build/apps/plugins/sdl/SDL_mixer/timidity/tables.o
LOAD /home/jbrawley/Desktop/rockbox-photo-cf-support/build/apps/plugins/sdl/SDL_mixer/timidity/timidity.o
LOAD /home/jbrawley/Desktop/rockbox-photo-cf-support/build/apps/plugins/sdl/progs/duke3d/Engine/src/cache.o
LOAD /home/jbrawley/Desktop/rockbox-photo-cf-support/build/apps/plugins/sdl/progs/duke3d/Engine/src/display.o
LOAD /home/jbrawley/Desktop/rockbox-photo-cf-support/build/apps/plugins/sdl/progs/duke3d/Engine/src/draw.o
LOAD /home/jbrawley/Desktop/rockbox-photo-cf-support/build/apps/plugins/sdl/progs/duke3d/Engine/src/dummy_multi.o
LOAD /home/jbrawley/Desktop/rockbox-photo-cf-support/build/apps/plugins/sdl/progs/duke3d/Engine/src/engine.o
LOAD /home/jbrawley/Desktop/rockbox-photo-cf-support/build/apps/plugins/sdl/progs/duke3d/Engine/src/filesystem.o
LOAD /home/jbrawley/Desktop/rockbox-photo-cf-support/build/apps/plugins/sdl/progs/duke3d/Engine/src/fixedPoint_math.o
LOAD /home/jbrawley/Desktop/rockbox-photo-cf-support/build/apps/plugins/sdl/progs/duke3d/Engine/src/icon.o
LOAD /home/jbrawley/Desktop/rockbox-photo-cf-support/build/apps/plugins/sdl/progs/duke3d/Engine/src/mmulti.o
LOAD /home/jbrawley/Desktop/rockbox-photo-cf-support/build/apps/plugins/sdl/progs/duke3d/Engine/src/network.o
LOAD /home/jbrawley/Desktop/rockbox-photo-cf-support/build/apps/plugins/sdl/progs/duke3d/Engine/src/tiles.o
LOAD /home/jbrawley/Desktop/rockbox-photo-cf-support/build/apps/plugins/sdl/progs/duke3d/Game/src/audiolib/fx_man.o
LOAD /home/jbrawley/Desktop/rockbox-photo-cf-support/build/apps/plugins/sdl/progs/duke3d/Game/src/audiolib/dsl.o
LOAD /home/jbrawley/Desktop/rockbox-photo-cf-support/build/apps/plugins/sdl/progs/duke3d/Game/src/audiolib/ll_man.o
LOAD /home/jbrawley/Desktop/rockbox-photo-cf-support/build/apps/plugins/sdl/progs/duke3d/Game/src/audiolib/multivoc.o
LOAD /home/jbrawley/Desktop/rockbox-photo-cf-support/build/apps/plugins/sdl/progs/duke3d/Game/src/audiolib/mv_mix.o
LOAD /home/jbrawley/Desktop/rockbox-photo-cf-support/build/apps/plugins/sdl/progs/duke3d/Game/src/audiolib/mvreverb.o
LOAD /home/jbrawley/Desktop/rockbox-photo-cf-support/build/apps/plugins/sdl/progs/duke3d/Game/src/audiolib/nodpmi.o
LOAD /home/jbrawley/Desktop/rockbox-photo-cf-support/build/apps/plugins/sdl/progs/duke3d/Game/src/audiolib/pitch.o
LOAD /home/jbrawley/Desktop/rockbox-photo-cf-support/build/apps/plugins/sdl/progs/duke3d/Game/src/audiolib/user.o
LOAD /home/jbrawley/Desktop/rockbox-photo-cf-support/build/apps/plugins/sdl/progs/duke3d/Game/src/audiolib/usrhooks.o
LOAD /home/jbrawley/Desktop/rockbox-photo-cf-support/build/apps/plugins/sdl/progs/duke3d/Game/src/actors.o
LOAD /home/jbrawley/Desktop/rockbox-photo-cf-support/build/apps/plugins/sdl/progs/duke3d/Game/src/animlib.o
LOAD /home/jbrawley/Desktop/rockbox-photo-cf-support/build/apps/plugins/sdl/progs/duke3d/Game/src/config.o
LOAD /home/jbrawley/Desktop/rockbox-photo-cf-support/build/apps/plugins/sdl/progs/duke3d/Game/src/console.o
LOAD /home/jbrawley/Desktop/rockbox-photo-cf-support/build/apps/plugins/sdl/progs/duke3d/Game/src/control.o
LOAD /home/jbrawley/Desktop/rockbox-photo-cf-support/build/apps/plugins/sdl/progs/duke3d/Game/src/cvar_defs.o
LOAD /home/jbrawley/Desktop/rockbox-photo-cf-support/build/apps/plugins/sdl/progs/duke3d/Game/src/cvars.o
LOAD /home/jbrawley/Desktop/rockbox-photo-cf-support/build/apps/plugins/sdl/progs/duke3d/Game/src/dummy_audiolib.o
LOAD /home/jbrawley/Desktop/rockbox-photo-cf-support/build/apps/plugins/sdl/progs/duke3d/Game/src/game.o
LOAD /home/jbrawley/Desktop/rockbox-photo-cf-support/build/apps/plugins/sdl/progs/duke3d/Game/src/gamedef.o
LOAD /home/jbrawley/Desktop/rockbox-photo-cf-support/build/apps/plugins/sdl/progs/duke3d/Game/src/global.o
LOAD /home/jbrawley/Desktop/rockbox-photo-cf-support/build/apps/plugins/sdl/progs/duke3d/Game/src/keyboard.o
LOAD /home/jbrawley/Desktop/rockbox-photo-cf-support/build/apps/plugins/sdl/progs/duke3d/Game/src/menues.o
LOAD /home/jbrawley/Desktop/rockbox-photo-cf-support/build/apps/plugins/sdl/progs/duke3d/Game/src/midi/sdl_midi.o
LOAD /home/jbrawley/Desktop/rockbox-photo-cf-support/build/apps/plugins/sdl/progs/duke3d/Game/src/player.o
LOAD /home/jbrawley/Desktop/rockbox-photo-cf-support/build/apps/plugins/sdl/progs/duke3d/Game/src/premap.o
LOAD /home/jbrawley/Desktop/rockbox-photo-cf-support/build/apps/plugins/sdl/progs/duke3d/Game/src/rts.o
LOAD /home/jbrawley/Desktop/rockbox-photo-cf-support/build/apps/plugins/sdl/progs/duke3d/Game/src/scriplib.o
LOAD /home/jbrawley/Desktop/rockbox-photo-cf-support/build/apps/plugins/sdl/progs/duke3d/Game/src/sector.o
LOAD /home/jbrawley/Desktop/rockbox-photo-cf-support/build/apps/plugins/sdl/progs/duke3d/Game/src/sounds.o
LOAD /home/jbrawley/Desktop/rockbox-photo-cf-support/build/apps/plugins/plugin_crt0.o
LOAD /home/jbrawley/Desktop/rockbox-photo-cf-support/build/lib/libtlsf.a
LOAD /home/jbrawley/Desktop/rockbox-photo-cf-support/build/apps/plugins/libplugin.a
LOAD /home/jbrawley/Desktop/rockbox-photo-cf-support/build/apps/plugins/bitmaps/libpluginbitmaps.a
LOAD /home/jbrawley/Desktop/rockbox-photo-cf-support/build/lib/libsetjmp.a
LOAD /home/jbrawley/Desktop/rockbox-photo-cf-support/build/lib/libfixedpoint.a
LOAD /usr/local/lib/gcc/arm-elf-eabi/4.9.4/libgcc.a

.header         0x00000000019e0e50       0x1c
                0x00000000019e0e50                _plugin_start_addr = .
                0x00000000019e0e50                plugin_start_addr = .
 *(.header)
 .header        0x00000000019e0e50       0x1c /home/jbrawley/Desktop/rockbox-photo-cf-support/build/apps/plugins/plugin_crt0.o
                0x00000000019e0e50                __header

.text           0x00000000019e0e70   0x14482c
 *(.text*)
 .text          0x00000000019e0e70      0x30c /home/jbrawley/Desktop/rockbox-photo-cf-support/build/apps/plugins/sdl/main.o
                0x00000000019e0e70                cleanup
                0x00000000019e0f68                rbsdl_atexit
                0x00000000019e0fb4                rb_exit
                0x00000000019e0ff8                plugin_start
 *fill*         0x00000000019e117c        0x4 
 .text          0x00000000019e1180     0x1b10 /home/jbrawley/Desktop/rockbox-photo-cf-support/build/apps/plugins/sdl/wrappers.o
                0x00000000019e1180                strtok_wrapper
                0x00000000019e119c                atof_wrapper
                0x00000000019e14e4                sin_wrapper
                0x00000000019e1614                cos_wrapper
                0x00000000019e174c                tan_wrapper
                0x00000000019e19b4                fscanf_wrapper
                0x00000000019e1ad0                printf_wrapper
                0x00000000019e1c40                fatal
                0x00000000019e1cd8                vprintf_wrapper
                0x00000000019e1d24                sprintf_wrapper
                0x00000000019e1d70                vsprintf_wrapper
                0x00000000019e1d94                strcpy_wrapper
                0x00000000019e1dc8                strdup_wrapper
                0x00000000019e1e1c                strcat_wrapper
                0x00000000019e1e50                strpbrk_wrapper
                0x00000000019e1eac                fabs_wrapper
                0x00000000019e1eb4                fmod_wrapper
                0x00000000019e1ee8                sqrt_wrapper
                0x00000000019e20c4                atan_wrapper
                0x00000000019e23cc                atan2_wrapper
                0x00000000019e2560                __fpclassifyf
                0x00000000019e25ac                __isinff
                0x00000000019e25c4                rb_exp
                0x00000000019e2778                floor_wrapper
                0x00000000019e27f4                ceil_wrapper
                0x00000000019e287c                rb_log
                0x00000000019e2b9c                pow_wrapper
 .text          0x00000000019e2c90      0x38c /home/jbrawley/Desktop/rockbox-photo-cf-support/build/apps/plugins/sdl/src/SDL.o
                0x00000000019e2c90                rb_SDL_InitSubSystem
                0x00000000019e2dc4                rb_SDL_Init
                0x00000000019e2f08                rb_SDL_QuitSubSystem
                0x00000000019e2f80                rb_SDL_WasInit
                0x00000000019e2fa4                rb_SDL_Quit
                0x00000000019e3010                rb_SDL_Linked_Version
 .text          0x00000000019e301c      0x564 /home/jbrawley/Desktop/rockbox-photo-cf-support/build/apps/plugins/sdl/src/SDL_error.o
                0x00000000019e301c                rb_SDL_SetError
                0x00000000019e3220                rb_SDL_GetErrorMsg
                0x00000000019e3500                rb_SDL_GetError
                0x00000000019e3510                rb_SDL_ClearError
                0x00000000019e3528                rb_SDL_Error
 .text          0x00000000019e3580        0x8 /home/jbrawley/Desktop/rockbox-photo-cf-support/build/apps/plugins/sdl/src/SDL_fatal.o
                0x00000000019e3580                rb_SDL_InstallParachute
                0x00000000019e3584                rb_SDL_UninstallParachute
 .text          0x00000000019e3588      0xb5c /home/jbrawley/Desktop/rockbox-photo-cf-support/build/apps/plugins/sdl/src/audio/SDL_audio.o
                0x00000000019e35f0                rb_SDL_RunAudio
                0x00000000019e37a4                rb_SDL_AudioDriverName
                0x00000000019e37f4                rb_SDL_OpenAudio
                0x00000000019e3d40                rb_SDL_GetAudioStatus
                0x00000000019e3d7c                rb_SDL_PauseAudio
                0x00000000019e3d94                rb_SDL_LockAudio
                0x00000000019e3db8                rb_SDL_UnlockAudio
                0x00000000019e3ddc                rb_SDL_CloseAudio
                0x00000000019e3df0                rb_SDL_AudioQuit
                0x00000000019e3e9c                rb_SDL_AudioInit
                0x00000000019e3f94                rb_SDL_FirstAudioFormat
                0x00000000019e4038                rb_SDL_NextAudioFormat
                0x00000000019e4084                rb_SDL_CalculateAudioSpec
                0x00000000019e40b8                rb_SDL_Audio_SetCaption
 *fill*         0x00000000019e40e4        0x4 
 .text          0x00000000019e40e8     0x7050 /home/jbrawley/Desktop/rockbox-photo-cf-support/build/apps/plugins/sdl/src/audio/SDL_audiocvt.o
                0x00000000019e40e8                rb_SDL_ConvertMono
                0x00000000019e4990                rb_SDL_ConvertStrip
                0x00000000019e5298                rb_SDL_ConvertStrip_2
                0x00000000019e5ba8                rb_SDL_ConvertStereo
                0x00000000019e5f4c                rb_SDL_ConvertSurround
                0x00000000019e6670                rb_SDL_ConvertSurround_4
                0x00000000019e6cc4                rb_SDL_Convert16LSB
                0x00000000019e6e54                rb_SDL_Convert16MSB
                0x00000000019e6ffc                rb_SDL_Convert8
                0x00000000019e7188                rb_SDL_ConvertSign
                0x00000000019e764c                rb_SDL_ConvertEndian
                0x00000000019e7830                rb_SDL_RateMUL2
                0x00000000019e7ba0                rb_SDL_RateMUL2_c2
                0x00000000019e7ed8                rb_SDL_RateMUL2_c4
                0x00000000019e82f8                rb_SDL_RateMUL2_c6
                0x00000000019e8624                rb_SDL_RateDIV2
                0x00000000019e8998                rb_SDL_RateDIV2_c2
                0x00000000019e8f14                rb_SDL_RateDIV2_c4
                0x00000000019e9664                rb_SDL_RateDIV2_c6
                0x00000000019e9cc0                rb_SDL_RateSLOW
                0x00000000019ea4cc                rb_SDL_ConvertAudio
                0x00000000019ea52c                rb_SDL_BuildAudioCVT
 .text          0x00000000019eb138      0x834 /home/jbrawley/Desktop/rockbox-photo-cf-support/build/apps/plugins/sdl/src/audio/SDL_mixer.o
                0x00000000019eb138                rb_SDL_MixAudio
 .text          0x00000000019eb96c      0xf50 /home/jbrawley/Desktop/rockbox-photo-cf-support/build/apps/plugins/sdl/src/audio/SDL_wave.o
                0x00000000019eba7c                rb_SDL_LoadWAV_RW
                0x00000000019ec8a4                rb_SDL_FreeWAV
 .text          0x00000000019ec8bc      0x9c0 /home/jbrawley/Desktop/rockbox-photo-cf-support/build/apps/plugins/sdl/src/audio/rockbox/SDL_rockboxaudio.o
 .text          0x00000000019ed27c      0x25c /home/jbrawley/Desktop/rockbox-photo-cf-support/build/apps/plugins/sdl/src/cpuinfo/SDL_cpuinfo.o
                0x00000000019ed27c                rb_SDL_HasRDTSC
                0x00000000019ed2c4                rb_SDL_HasMMX
                0x00000000019ed310                rb_SDL_HasMMXExt
                0x00000000019ed35c                rb_SDL_Has3DNow
                0x00000000019ed3a8                rb_SDL_Has3DNowExt
                0x00000000019ed3f4                rb_SDL_HasSSE
                0x00000000019ed440                rb_SDL_HasSSE2
                0x00000000019ed48c                rb_SDL_HasAltiVec
 .text          0x00000000019ed4d8      0x118 /home/jbrawley/Desktop/rockbox-photo-cf-support/build/apps/plugins/sdl/src/events/SDL_active.o
                0x00000000019ed4d8                rb_SDL_AppActiveInit
                0x00000000019ed4f0                rb_SDL_AppActiveQuit
                0x00000000019ed4f4                rb_SDL_GetAppState
                0x00000000019ed504                rb_SDL_PrivateAppActive
 .text          0x00000000019ed5f0     0x14e0 /home/jbrawley/Desktop/rockbox-photo-cf-support/build/apps/plugins/sdl/src/events/SDL_events.o
                0x00000000019ed6a0                rb_SDL_Lock_EventThread
                0x00000000019ed6f8                rb_SDL_Unlock_EventThread
                0x00000000019ed72c                rb_SDL_EventThreadID
                0x00000000019ed73c                rb_SDL_StopEventLoop
                0x00000000019ed7a8                rb_SDL_StartEventLoop
                0x00000000019ed930                rb_SDL_PeepEvents
                0x00000000019ede08                rb_SDL_PumpEvents
                0x00000000019ede54                rb_SDL_PollEvent
                0x00000000019edfe4                rb_SDL_WaitEvent
                0x00000000019ee1a8                rb_SDL_PushEvent
                0x00000000019ee290                rb_SDL_SetEventFilter
                0x00000000019ee420                rb_SDL_GetEventFilter
                0x00000000019ee430                rb_SDL_EventState
                0x00000000019ee98c                rb_SDL_PrivateSysWMEvent
 .text          0x00000000019eead0     0x1320 /home/jbrawley/Desktop/rockbox-photo-cf-support/build/apps/plugins/sdl/src/events/SDL_keyboard.o
                0x00000000019eead0                rb_SDL_KeyboardInit
                0x00000000019ef680                rb_SDL_KeyboardQuit
                0x00000000019ef684                rb_SDL_ResetKeyboard
                0x00000000019ef8cc                rb_SDL_EnableUNICODE
                0x00000000019ef8e4                rb_SDL_GetKeyState
                0x00000000019ef900                rb_SDL_GetModState
                0x00000000019ef910                rb_SDL_SetModState
                0x00000000019ef920                rb_SDL_GetKeyName
                0x00000000019ef95c                rb_SDL_PrivateKeyboard
                0x00000000019efcf8                rb_SDL_CheckKeyRepeat
                0x00000000019efd90                rb_SDL_EnableKeyRepeat
                0x00000000019efdd4                rb_SDL_GetKeyRepeat
 .text          0x00000000019efdf0      0x5dc /home/jbrawley/Desktop/rockbox-photo-cf-support/build/apps/plugins/sdl/src/events/SDL_mouse.o
                0x00000000019efdf0                rb_SDL_MouseInit
                0x00000000019efe20                rb_SDL_MouseQuit
                0x00000000019efe24                rb_SDL_ResetMouse
                0x00000000019eff04                rb_SDL_GetMouseState
                0x00000000019eff2c                rb_SDL_GetRelativeMouseState
                0x00000000019eff60                rb_SDL_SetMouseRange
                0x00000000019eff74                rb_SDL_PrivateMouseMotion
                0x00000000019f0188                rb_SDL_PrivateMouseButton
 .text          0x00000000019f03cc       0x7c /home/jbrawley/Desktop/rockbox-photo-cf-support/build/apps/plugins/sdl/src/events/SDL_quit.o
                0x00000000019f03cc                rb_SDL_QuitInit
                0x00000000019f03d4                rb_SDL_QuitQuit
                0x00000000019f03d8                rb_SDL_PrivateQuit
 .text          0x00000000019f0448       0xe4 /home/jbrawley/Desktop/rockbox-photo-cf-support/build/apps/plugins/sdl/src/events/SDL_resize.o
                0x00000000019f0448                rb_SDL_PrivateResize
 .text          0x00000000019f052c      0x820 /home/jbrawley/Desktop/rockbox-photo-cf-support/build/apps/plugins/sdl/src/file/SDL_rwops.o
                0x00000000019f0810                rb_SDL_RWFromFile
                0x00000000019f08f8                rb_SDL_RWFromFP
                0x00000000019f095c                rb_SDL_RWFromMem
                0x00000000019f09c8                rb_SDL_RWFromConstMem
                0x00000000019f0a34                rb_SDL_AllocRW
                0x00000000019f0a64                rb_SDL_FreeRW
                0x00000000019f0a74                rb_SDL_ReadLE16
                0x00000000019f0aa4                rb_SDL_ReadBE16
                0x00000000019f0ae4                rb_SDL_ReadLE32
                0x00000000019f0b14                rb_SDL_ReadBE32
                0x00000000019f0b54                rb_SDL_ReadLE64
                0x00000000019f0b84                rb_SDL_ReadBE64
                0x00000000019f0bd8                rb_SDL_WriteLE16
                0x00000000019f0c0c                rb_SDL_WriteBE16
                0x00000000019f0c48                rb_SDL_WriteLE32
                0x00000000019f0c7c                rb_SDL_WriteBE32
                0x00000000019f0cc0                rb_SDL_WriteLE64
                0x00000000019f0cf0                rb_SDL_WriteBE64
 .text          0x00000000019f0d4c      0xc08 /home/jbrawley/Desktop/rockbox-photo-cf-support/build/apps/plugins/sdl/src/joystick/SDL_joystick.o
                0x00000000019f0d4c                rb_SDL_JoystickInit
                0x00000000019f0db8                rb_SDL_NumJoysticks
                0x00000000019f0dc8                rb_SDL_JoystickName
                0x00000000019f0e14                rb_SDL_JoystickOpened
                0x00000000019f0e70                rb_SDL_JoystickIndex
                0x00000000019f0e9c                rb_SDL_JoystickNumAxes
                0x00000000019f0ec8                rb_SDL_JoystickNumHats
                0x00000000019f0ef4                rb_SDL_JoystickNumBalls
                0x00000000019f0f20                rb_SDL_JoystickNumButtons
                0x00000000019f0f4c                rb_SDL_JoystickGetAxis
                0x00000000019f0fb8                rb_SDL_JoystickGetHat
                0x00000000019f1010                rb_SDL_JoystickGetBall
                0x00000000019f1094                rb_SDL_JoystickGetButton
                0x00000000019f10ec                rb_SDL_JoystickClose
                0x00000000019f1200                rb_SDL_JoystickOpen
                0x00000000019f143c                rb_SDL_JoystickQuit
                0x00000000019f1594                rb_SDL_PrivateJoystickAxis
                0x00000000019f162c                rb_SDL_PrivateJoystickHat
                0x00000000019f16c0                rb_SDL_PrivateJoystickBall
                0x00000000019f1778                rb_SDL_PrivateJoystickButton
                0x00000000019f1828                rb_SDL_JoystickUpdate
                0x00000000019f1868                rb_SDL_JoystickEventState
 .text          0x00000000019f1954       0x5c /home/jbrawley/Desktop/rockbox-photo-cf-support/build/apps/plugins/sdl/src/joystick/dummy/SDL_sysjoystick.o
                0x00000000019f1954                rb_SDL_SYS_JoystickInit
                0x00000000019f196c                rb_SDL_SYS_JoystickName
                0x00000000019f1988                rb_SDL_SYS_JoystickOpen
                0x00000000019f19a4                rb_SDL_SYS_JoystickUpdate
                0x00000000019f19a8                rb_SDL_SYS_JoystickClose
                0x00000000019f19ac                rb_SDL_SYS_JoystickQuit
 .text          0x00000000019f19b0      0x218 /home/jbrawley/Desktop/rockbox-photo-cf-support/build/apps/plugins/sdl/src/stdlib/SDL_getenv.o
                0x00000000019f19b0                rb_SDL_putenv
                0x00000000019f1af4                rb_SDL_getenv
 .text          0x00000000019f1bc8     0x3b90 /home/jbrawley/Desktop/rockbox-photo-cf-support/build/apps/plugins/sdl/src/stdlib/SDL_string.o
                0x00000000019f2478                rb_SDL_memset
                0x00000000019f2588                rb_SDL_revcpy
                0x00000000019f268c                rb_SDL_strlcat
                0x00000000019f2700                rb_SDL_strdup
                0x00000000019f2754                rb_SDL_strrev
                0x00000000019f2908                rb_SDL_strupr
                0x00000000019f293c                rb_SDL_strlwr
                0x00000000019f2970                rb_SDL_strchr
                0x00000000019f29a8                rb_SDL_strrchr
                0x00000000019f2b74                rb_SDL_strstr
                0x00000000019f2bf8                rb_SDL_ltoa
                0x00000000019f2fc8                rb_SDL_ultoa
                0x00000000019f31d4                rb_SDL_strtol
                0x00000000019f326c                rb_SDL_strtoul
                0x00000000019f3384                rb_SDL_lltoa
                0x00000000019f378c                rb_SDL_ulltoa
                0x00000000019f39bc                rb_SDL_strtoll
                0x00000000019f3a54                rb_SDL_strtoull
                0x00000000019f3ba0                rb_SDL_strtod
                0x00000000019f3d08                rb_SDL_strcasecmp
                0x00000000019f3d90                rb_SDL_strncasecmp
                0x00000000019f3e38                rb_SDL_sscanf
                0x00000000019f4a78                rb_SDL_vsnprintf
                0x00000000019f5728                rb_SDL_snprintf
 .text          0x00000000019f5758      0x9a8 /home/jbrawley/Desktop/rockbox-photo-cf-support/build/apps/plugins/sdl/src/thread/SDL_thread.o
                0x00000000019f5758                rb_SDL_ThreadsInit
                0x00000000019f5784                rb_SDL_ThreadsQuit
                0x00000000019f57ac                rb_SDL_GetErrBuf
                0x00000000019f5984                rb_SDL_RunThread
                0x00000000019f59c8                rb_SDL_CreateThread
                0x00000000019f5de4                rb_SDL_WaitThread
                0x00000000019f60bc                rb_SDL_GetThreadID
                0x00000000019f60dc                rb_SDL_KillThread
 .text          0x00000000019f6100      0x180 /home/jbrawley/Desktop/rockbox-photo-cf-support/build/apps/plugins/sdl/src/thread/rockbox/SDL_sysmutex.o
                0x00000000019f6100                rb_SDL_CreateMutex
                0x00000000019f6158                rb_SDL_DestroyMutex
                0x00000000019f6170                rb_SDL_mutexP
                0x00000000019f61ec                rb_SDL_mutexV
 .text          0x00000000019f6280      0x1b4 /home/jbrawley/Desktop/rockbox-photo-cf-support/build/apps/plugins/sdl/src/thread/rockbox/SDL_syssem.o
                0x00000000019f6280                rb_SDL_CreateSemaphore
                0x00000000019f62cc                rb_SDL_DestroySemaphore
                0x00000000019f62e4                rb_SDL_SemTryWait
                0x00000000019f6330                rb_SDL_SemWaitTimeout
                0x00000000019f6394                rb_SDL_SemWait
                0x00000000019f63e4                rb_SDL_SemValue
                0x00000000019f63f0                rb_SDL_SemPost
 .text          0x00000000019f6434      0x140 /home/jbrawley/Desktop/rockbox-photo-cf-support/build/apps/plugins/sdl/src/thread/rockbox/SDL_systhread.o
                0x00000000019f6458                rb_SDL_SYS_CreateThread
                0x00000000019f6540                rb_SDL_SYS_SetupThread
                0x00000000019f6544                rb_SDL_ThreadID
                0x00000000019f6558                rb_SDL_SYS_WaitThread
                0x00000000019f6570                rb_SDL_SYS_KillThread
 .text          0x00000000019f6574      0x688 /home/jbrawley/Desktop/rockbox-photo-cf-support/build/apps/plugins/sdl/src/timer/SDL_timer.o
                0x00000000019f6578                rb_SDL_SetTimerThreaded
                0x00000000019f65b4                rb_SDL_TimerInit
                0x00000000019f66ec                rb_SDL_TimerQuit
                0x00000000019f67d4                rb_SDL_ThreadedTimerCheck
                0x00000000019f68e8                rb_SDL_AddTimer
                0x00000000019f69d4                rb_SDL_RemoveTimer
                0x00000000019f6a74                rb_SDL_SetTimer
 .text          0x00000000019f6bfc      0x198 /home/jbrawley/Desktop/rockbox-photo-cf-support/build/apps/plugins/sdl/src/timer/rockbox/SDL_systimer.o
                0x00000000019f6c80                rb_SDL_StartTicks
                0x00000000019f6cc4                rb_SDL_GetTicks
                0x00000000019f6cd4                rb_SDL_Delay
                0x00000000019f6cf8                rb_SDL_SYS_TimerInit
                0x00000000019f6d40                rb_SDL_SYS_TimerQuit
                0x00000000019f6d74                rb_SDL_SYS_StartTimer
                0x00000000019f6d90                rb_SDL_SYS_StopTimer
 .text          0x00000000019f6d94     0x7800 /home/jbrawley/Desktop/rockbox-photo-cf-support/build/apps/plugins/sdl/src/video/SDL_RLEaccel.o
                0x00000000019f7650                rb_SDL_RLEBlit
                0x00000000019fb33c                rb_SDL_RLEAlphaBlit
                0x00000000019fc5dc                rb_SDL_UnRLESurface
                0x00000000019fc8a8                rb_SDL_RLESurface
 .text          0x00000000019fe594      0xb78 /home/jbrawley/Desktop/rockbox-photo-cf-support/build/apps/plugins/sdl/src/video/SDL_blit.o
                0x00000000019fed7c                rb_SDL_CalculateBlit
 .text          0x00000000019ff10c     0x1a14 /home/jbrawley/Desktop/rockbox-photo-cf-support/build/apps/plugins/sdl/src/video/SDL_blit_0.o
                0x0000000001a00a6c                rb_SDL_CalculateBlit0
 .text          0x0000000001a00b20     0x2408 /home/jbrawley/Desktop/rockbox-photo-cf-support/build/apps/plugins/sdl/src/video/SDL_blit_1.o
                0x0000000001a02e88                rb_SDL_CalculateBlit1
 .text          0x0000000001a02f28     0x5bc8 /home/jbrawley/Desktop/rockbox-photo-cf-support/build/apps/plugins/sdl/src/video/SDL_blit_A.o
                0x0000000001a088bc                rb_SDL_CalculateAlphaBlit
 .text          0x0000000001a08af0     0x6ca8 /home/jbrawley/Desktop/rockbox-photo-cf-support/build/apps/plugins/sdl/src/video/SDL_blit_N.o
                0x0000000001a0f4d0                rb_SDL_CalculateBlitN
 .text          0x0000000001a0f798     0x1218 /home/jbrawley/Desktop/rockbox-photo-cf-support/build/apps/plugins/sdl/src/video/SDL_bmp.o
                0x0000000001a0f798                rb_SDL_LoadBMP_RW
                0x0000000001a102bc                rb_SDL_SaveBMP_RW
 .text          0x0000000001a109b0     0x2380 /home/jbrawley/Desktop/rockbox-photo-cf-support/build/apps/plugins/sdl/src/video/SDL_cursor.o
                0x0000000001a109b0                rb_SDL_GetCursor
                0x0000000001a109c0                rb_SDL_WarpMouse
                0x0000000001a10acc                rb_SDL_CursorPaletteChanged
                0x0000000001a10ae0                rb_SDL_MouseRect
                0x0000000001a10bcc                rb_SDL_DrawCursorNoLock
                0x0000000001a119e4                rb_SDL_DrawCursor
                0x0000000001a11b80                rb_SDL_EraseCursorNoLock
                0x0000000001a11f80                rb_SDL_EraseCursor
                0x0000000001a1211c                rb_SDL_SetCursor
                0x0000000001a122d4                rb_SDL_FreeCursor
                0x0000000001a1236c                rb_SDL_CursorInit
                0x0000000001a125d8                rb_SDL_CursorQuit
                0x0000000001a12728                rb_SDL_CreateCursor
                0x0000000001a12a74                rb_SDL_MoveCursor
                0x0000000001a12b28                rb_SDL_ShowCursor
                0x0000000001a12cec                rb_SDL_ResetCursor
 .text          0x0000000001a12d30     0x1d54 /home/jbrawley/Desktop/rockbox-photo-cf-support/build/apps/plugins/sdl/src/video/SDL_pixels.o
                0x0000000001a13208                rb_SDL_AllocFormat
                0x0000000001a137a8                rb_SDL_ReallocFormat
                0x0000000001a1387c                rb_SDL_FormatChanged
                0x0000000001a138dc                rb_SDL_FreeFormat
                0x0000000001a13924                rb_SDL_DitherColors
                0x0000000001a13a6c                rb_SDL_CalculatePitch
                0x0000000001a13ac4                rb_SDL_FindColor
                0x0000000001a13d40                rb_SDL_MapRGB
                0x0000000001a14000                rb_SDL_MapRGBA
                0x0000000001a142d4                rb_SDL_GetRGBA
                0x0000000001a143e8                rb_SDL_GetRGB
                0x0000000001a144c0                rb_SDL_ApplyGamma
                0x0000000001a14634                rb_SDL_AllocBlitMap
                0x0000000001a146d4                rb_SDL_InvalidateMap
                0x0000000001a14710                rb_SDL_MapSurface
                0x0000000001a14a34                rb_SDL_FreeBlitMap
 .text          0x0000000001a14a84     0x23b8 /home/jbrawley/Desktop/rockbox-photo-cf-support/build/apps/plugins/sdl/src/video/SDL_surface.o
                0x0000000001a14a84                rb_SDL_SetColorKey
                0x0000000001a14b98                rb_SDL_SetAlpha
                0x0000000001a14d30                rb_SDL_SetAlphaChannel
                0x0000000001a14fd0                rb_SDL_SetClipRect
                0x0000000001a15084                rb_SDL_GetClipRect
                0x0000000001a150b0                rb_SDL_LowerBlit
                0x0000000001a151d8                rb_SDL_UpperBlit
                0x0000000001a153e8                rb_SDL_FillRect
                0x0000000001a161dc                rb_SDL_LockSurface
                0x0000000001a16284                rb_SDL_UnlockSurface
                0x0000000001a162f4                rb_SDL_FreeSurface
                0x0000000001a16584                rb_SDL_CreateRGBSurface
                0x0000000001a167f0                rb_SDL_ConvertSurface
                0x0000000001a16cac                rb_SDL_CreateRGBSurfaceFrom
 .text          0x0000000001a16e3c     0x2d14 /home/jbrawley/Desktop/rockbox-photo-cf-support/build/apps/plugins/sdl/src/video/SDL_video.o
                0x0000000001a17168                rb_SDL_VideoDriverName
                0x0000000001a171b8                rb_SDL_GetVideoSurface
                0x0000000001a171d0                rb_SDL_GetVideoInfo
                0x0000000001a171e8                rb_SDL_ListModes
                0x0000000001a17224                rb_SDL_VideoModeOK
                0x0000000001a17390                rb_SDL_DisplayFormat
                0x0000000001a173f4                rb_SDL_DisplayFormatAlpha
                0x0000000001a1754c                rb_SDL_UpdateRect
                0x0000000001a17730                rb_SDL_UpdateRects
                0x0000000001a17f68                rb_SDL_Flip
                0x0000000001a18254                rb_SDL_SetPalette
                0x0000000001a18418                rb_SDL_SetColors
                0x0000000001a18544                rb_SDL_VideoQuit
                0x0000000001a186bc                rb_SDL_VideoInit
                0x0000000001a188d0                rb_SDL_GL_LoadLibrary
                0x0000000001a18928                rb_SDL_GL_GetProcAddress
                0x0000000001a18984                rb_SDL_GL_SetAttribute
                0x0000000001a18ac8                rb_SDL_GL_GetAttribute
                0x0000000001a18b18                rb_SDL_GL_SwapBuffers
                0x0000000001a18b54                rb_SDL_GL_UpdateRectsLock
                0x0000000001a18b58                rb_SDL_GL_UpdateRects
                0x0000000001a18b5c                rb_SDL_GL_Lock
                0x0000000001a18b60                rb_SDL_GL_Unlock
                0x0000000001a18b64                rb_SDL_WM_SetCaption
                0x0000000001a18c08                rb_SDL_WM_GetCaption
                0x0000000001a18c38                rb_SDL_WM_SetIcon
                0x0000000001a190b8                rb_SDL_WM_GrabInput
                0x0000000001a191c4                rb_SDL_SetVideoMode
                0x0000000001a19a20                rb_SDL_WM_IconifyWindow
                0x0000000001a19a40                rb_SDL_WM_ToggleFullScreen
                0x0000000001a19b20                rb_SDL_GetWMInfo
 .text          0x0000000001a19b50     0x1034 /home/jbrawley/Desktop/rockbox-photo-cf-support/build/apps/plugins/sdl/src/video/rockbox/SDL_rockboxvideo.o
                0x0000000001a19b58                ROCKBOX_InitOSKeymap
                0x0000000001a19b5c                ROCKBOX_ShowWMCursor
                0x0000000001a19b64                ROCKBOX_WarpWMCursor
                0x0000000001a19b68                ROCKBOX_MoveWMCursor
                0x0000000001a19c1c                ROCKBOX_PumpEvents
 .text          0x0000000001a1ab84     0x4d98 /home/jbrawley/Desktop/rockbox-photo-cf-support/build/apps/plugins/sdl/SDL_mixer/effect_position.o
                0x0000000001a1e3bc                _Eff_PositionDeinit
                0x0000000001a1e41c                Mix_SetDistance
                0x0000000001a1e9c8                Mix_SetPosition
                0x0000000001a1f65c                Mix_SetPanning
 *fill*         0x0000000001a1f91c        0x4 
 .text          0x0000000001a1f920      0x3b4 /home/jbrawley/Desktop/rockbox-photo-cf-support/build/apps/plugins/sdl/SDL_mixer/effects_internal.o
                0x0000000001a1f920                _Mix_InitEffects
                0x0000000001a1f94c                _Mix_DeinitEffects
                0x0000000001a1f95c                _Eff_build_volume_table_u8
                0x0000000001a1fb2c                _Eff_build_volume_table_s8
 .text          0x0000000001a1fcd4      0x4f4 /home/jbrawley/Desktop/rockbox-photo-cf-support/build/apps/plugins/sdl/SDL_mixer/load_aiff.o
                0x0000000001a1fcd4                Mix_LoadAIFF_RW
 .text          0x0000000001a201c8      0xb08 /home/jbrawley/Desktop/rockbox-photo-cf-support/build/apps/plugins/sdl/SDL_mixer/load_voc.o
                0x0000000001a20990                Mix_LoadVOC_RW
 .text          0x0000000001a20cd0     0x5254 /home/jbrawley/Desktop/rockbox-photo-cf-support/build/apps/plugins/sdl/SDL_mixer/mixer.o
                0x0000000001a20cd0                Mix_GetNumChunkDecoders
                0x0000000001a20ce0                Mix_GetChunkDecoder
                0x0000000001a20d10                Mix_Linked_Version
                0x0000000001a20d38                Mix_Init
                0x0000000001a20dbc                Mix_Quit
                0x0000000001a20dec                Mix_QuerySpec
                0x0000000001a20e3c                Mix_LoadWAV_RW
                0x0000000001a21120                Mix_QuickLoad_WAV
                0x0000000001a21204                Mix_QuickLoad_RAW
                0x0000000001a2127c                Mix_FreeChunk
                0x0000000001a21490                Mix_SetPostMix
                0x0000000001a214bc                Mix_HookMusic
                0x0000000001a21504                Mix_GetMusicHookData
                0x0000000001a21514                Mix_ChannelFinished
                0x0000000001a21538                Mix_ReserveChannels
                0x0000000001a21554                Mix_PlayChannelTimed
                0x0000000001a2191c                Mix_ExpireChannel
                0x0000000001a21f10                Mix_FadeInChannelTimed
                0x0000000001a222ec                Mix_Volume
                0x0000000001a22d3c                Mix_VolumeChunk
                0x0000000001a22d5c                Mix_HaltChannel
                0x0000000001a23384                Mix_AllocateChannels
                0x0000000001a236e0                Mix_HaltGroup
                0x0000000001a23758                Mix_FadeOutChannel
                0x0000000001a23c14                Mix_FadeOutGroup
                0x0000000001a23ca4                Mix_FadingChannel
                0x0000000001a23cdc                Mix_Playing
                0x0000000001a23ff8                Mix_GetChunk
                0x0000000001a2402c                Mix_CloseAudio
                0x0000000001a24208                Mix_OpenAudio
                0x0000000001a245b4                Mix_Pause
                0x0000000001a24764                Mix_Resume
                0x0000000001a24998                Mix_Paused
                0x0000000001a24b4c                Mix_GroupChannel
                0x0000000001a24bac                Mix_GroupChannels
                0x0000000001a24e10                Mix_GroupAvailable
                0x0000000001a252ac                Mix_GroupCount
                0x0000000001a253e4                Mix_GroupOldest
                0x0000000001a25654                Mix_GroupNewer
                0x0000000001a258b0                _Mix_RegisterEffect_locked
                0x0000000001a259bc                Mix_RegisterEffect
                0x0000000001a25adc                _Mix_UnregisterEffect_locked
                0x0000000001a25c1c                Mix_UnregisterEffect
                0x0000000001a25d80                _Mix_UnregisterAllEffects_locked
                0x0000000001a25e48                Mix_UnregisterAllEffects
 .text          0x0000000001a25f24     0x18c0 /home/jbrawley/Desktop/rockbox-photo-cf-support/build/apps/plugins/sdl/SDL_mixer/music.o
                0x0000000001a262ac                Mix_GetNumMusicDecoders
                0x0000000001a262bc                Mix_GetMusicDecoder
                0x0000000001a262ec                Mix_HookMusicFinished
                0x0000000001a26310                music_mixer
                0x0000000001a2657c                open_music
                0x0000000001a266b8                MIX_string_equals
                0x0000000001a26760                Mix_LoadMUS_RW
                0x0000000001a2684c                Mix_LoadMUSType_RW
                0x0000000001a26950                Mix_LoadMUS
                0x0000000001a26cf4                Mix_FreeMusic
                0x0000000001a26dc4                Mix_GetMusicType
                0x0000000001a26e10                Mix_FadeInMusicPos
                0x0000000001a26f1c                Mix_FadeInMusic
                0x0000000001a27028                Mix_PlayMusic
                0x0000000001a2711c                Mix_SetMusicPosition
                0x0000000001a2715c                Mix_VolumeMusic
                0x0000000001a271d8                Mix_HaltMusic
                0x0000000001a27238                Mix_FadeOutMusic
                0x0000000001a27364                Mix_FadingMusic
                0x0000000001a27398                Mix_PauseMusic
                0x0000000001a273ac                Mix_ResumeMusic
                0x0000000001a273c0                Mix_RewindMusic
                0x0000000001a273fc                Mix_PausedMusic
                0x0000000001a27414                Mix_PlayingMusic
                0x0000000001a2749c                Mix_SetMusicCMD
                0x0000000001a27564                Mix_SetSynchroValue
                0x0000000001a2756c                Mix_GetSynchroValue
                0x0000000001a27574                close_music
                0x0000000001a275ec                Mix_SetSoundFonts
                0x0000000001a27658                Mix_GetSoundFonts
                0x0000000001a276b0                Mix_EachSoundFont
 .text          0x0000000001a277e4      0x508 /home/jbrawley/Desktop/rockbox-photo-cf-support/build/apps/plugins/sdl/SDL_mixer/timidity/common.o
                0x0000000001a277e4                close_file
                0x0000000001a27810                skip
                0x0000000001a278a8                safe_malloc
                0x0000000001a27948                add_to_pathlist
                0x0000000001a27a78                open_file
                0x0000000001a27c90                free_pathlist
 *fill*         0x0000000001a27cec        0x4 
 .text          0x0000000001a27cf0      0xd80 /home/jbrawley/Desktop/rockbox-photo-cf-support/build/apps/plugins/sdl/SDL_mixer/timidity/filter.o
                0x0000000001a27cf0                antialiasing
 .text          0x0000000001a28a70     0x33bc /home/jbrawley/Desktop/rockbox-photo-cf-support/build/apps/plugins/sdl/SDL_mixer/timidity/instrum.o
                0x0000000001a2b378                convert_envelope_rate_attack
                0x0000000001a2b3d4                convert_envelope_rate
                0x0000000001a2b448                convert_envelope_offset
                0x0000000001a2b450                convert_tremolo_sweep
                0x0000000001a2b498                convert_vibrato_sweep
                0x0000000001a2b510                convert_tremolo_rate
                0x0000000001a2b554                convert_vibrato_rate
                0x0000000001a2b584                load_missing_instruments
                0x0000000001a2ba18                free_instruments
                0x0000000001a2bdb4                set_default_instrument
 *fill*         0x0000000001a2be2c        0x4 
 .text          0x0000000001a2be30     0x50d8 /home/jbrawley/Desktop/rockbox-photo-cf-support/build/apps/plugins/sdl/SDL_mixer/timidity/mix.o
                0x0000000001a2c788                recompute_envelope
                0x0000000001a2c958                apply_envelope_to_amp
                0x0000000001a2cd38                mix_voice
 .text          0x0000000001a30f08      0xc4c /home/jbrawley/Desktop/rockbox-photo-cf-support/build/apps/plugins/sdl/SDL_mixer/timidity/output.o
                0x0000000001a30f08                s32tos8
                0x0000000001a31158                s32tou8
                0x0000000001a312e4                s32tos16
                0x0000000001a31448                s32tou16
                0x0000000001a315ec                s32tos16x
                0x0000000001a317b8                s32tou16x
                0x0000000001a319bc                s32toulaw
 *fill*         0x0000000001a31b54        0x4 
 .text          0x0000000001a31b58     0x5d5c /home/jbrawley/Desktop/rockbox-photo-cf-support/build/apps/plugins/sdl/SDL_mixer/timidity/playmidi.o
                0x0000000001a34204                Timidity_PlaySome
                0x0000000001a36e98                Timidity_SetVolume
                0x0000000001a37580                Timidity_LoadSong_RW
                0x0000000001a3761c                Timidity_Start
                0x0000000001a37808                Timidity_Active
                0x0000000001a37818                Timidity_Stop
                0x0000000001a3782c                Timidity_FreeSong
                0x0000000001a37860                Timidity_Close
 *fill*         0x0000000001a378b4        0x4 
 .text          0x0000000001a378b8     0x2918 /home/jbrawley/Desktop/rockbox-photo-cf-support/build/apps/plugins/sdl/SDL_mixer/timidity/readmidi.o
                0x0000000001a39c00                read_midi_file
 .text          0x0000000001a3a1d0     0x1eec /home/jbrawley/Desktop/rockbox-photo-cf-support/build/apps/plugins/sdl/SDL_mixer/timidity/resample.o
                0x0000000001a3a440                resample_voice
                0x0000000001a3bc50                pre_resample
 .text          0x0000000001a3c0bc       0xfc /home/jbrawley/Desktop/rockbox-photo-cf-support/build/apps/plugins/sdl/SDL_mixer/timidity/sdl_c.o
 .text          0x0000000001a3c1b8        0x4 /home/jbrawley/Desktop/rockbox-photo-cf-support/build/apps/plugins/sdl/SDL_mixer/timidity/tables.o
                0x0000000001a3c1b8                init_tables
 .text          0x0000000001a3c1bc      0xe38 /home/jbrawley/Desktop/rockbox-photo-cf-support/build/apps/plugins/sdl/SDL_mixer/timidity/timidity.o
                0x0000000001a3cd10                Timidity_Init
                0x0000000001a3cfe8                Timidity_Error
 .text          0x0000000001a3cff4      0xa20 /home/jbrawley/Desktop/rockbox-photo-cf-support/build/apps/plugins/sdl/progs/duke3d/Engine/src/cache.o
                0x0000000001a3cff4                initcache
                0x0000000001a3d0ec                suckcache
                0x0000000001a3d22c                agecache
                0x0000000001a3d3c8                reportandexit
                0x0000000001a3d4b8                allocache
 *fill*         0x0000000001a3da14        0x4 
 .text          0x0000000001a3da18     0x5cfc /home/jbrawley/Desktop/rockbox-photo-cf-support/build/apps/plugins/sdl/progs/duke3d/Engine/src/display.o
                0x0000000001a3da18                get_framebuffer
                0x0000000001a3da2c                _joystick_init
                0x0000000001a3e0cc                _joystick_deinit
                0x0000000001a3e128                _joystick_update
                0x0000000001a3e150                _joystick_axis
                0x0000000001a3e17c                _joystick_hat
                0x0000000001a3e1b0                _joystick_button
                0x0000000001a3e1e8                _readlastkeyhit
                0x0000000001a3e1f8                _platform_init
                0x0000000001a3eaf4                screencapture
                0x0000000001a3eb2c                setvmode
                0x0000000001a3eb60                getvalidvesamodes
                0x0000000001a40144                _setgamemode
                0x0000000001a410e0                fullscreen_toggle_and_change_driver
                0x0000000001a41500                _handle_events
                0x0000000001a41504                WriteTranslucToFile
                0x0000000001a416b0                WritePaletteToFile
                0x0000000001a4192c                WriteLastPaletteToFile
                0x0000000001a41abc                VBE_setPalette
                0x0000000001a41c28                VBE_getPalette
                0x0000000001a41e64                _uninitengine
                0x0000000001a41e78                setupmouse
                0x0000000001a41ee0                readmousexy
                0x0000000001a41f18                readmousebstatus
                0x0000000001a41f50                _updateScreenRect
                0x0000000001a41f90                _nextpage
                0x0000000001a4201c                readpixel
                0x0000000001a42024                drawpixel
                0x0000000001a4202c                setcolor16
                0x0000000001a4203c                drawpixel16
                0x0000000001a42058                fillscreen16
                0x0000000001a421a8                drawline16
                0x0000000001a43384                clear2dscreen
                0x0000000001a4340c                _idle
                0x0000000001a43434                _getVideoBase
                0x0000000001a43448                installusertimercallback
                0x0000000001a43460                inittimer
                0x0000000001a434cc                uninittimer
                0x0000000001a43500                sampletimer
                0x0000000001a4369c                getticks
                0x0000000001a436cc                gettimerfreq
                0x0000000001a436dc                initkeys
                0x0000000001a436e0                uninitkeys
                0x0000000001a436e4                TIMER_GetPlatformTicksInOneSecond
                0x0000000001a436f8                TIMER_GetPlatformTicks
 .text          0x0000000001a43714     0x2bd0 /home/jbrawley/Desktop/rockbox-photo-cf-support/build/apps/plugins/sdl/progs/duke3d/Engine/src/draw.o
                0x0000000001a43714                sethlinesizes
                0x0000000001a4372c                hlineasm4
                0x0000000001a438fc                setuprhlineasm4
                0x0000000001a43928                rhlineasm4
                0x0000000001a43b74                setuprmhlineasm4
                0x0000000001a43ba0                rmhlineasm4
                0x0000000001a43e1c                setBytesPerLine
                0x0000000001a43e2c                prevlineasm1
                0x0000000001a4403c                vlineasm1
                0x0000000001a44200                tvlineasm1
                0x0000000001a44664                setuptvlineasm2
                0x0000000001a44680                tvlineasm2
                0x0000000001a44894                mvlineasm1
                0x0000000001a44aa4                setupvlineasm
                0x0000000001a44ab8                vlineasm4
                0x0000000001a44c4c                setupmvlineasm
                0x0000000001a44c60                mvlineasm4
                0x0000000001a44df0                setupspritevline
                0x0000000001a44e28                spritevline
                0x0000000001a44f1c                msetupspritevline
                0x0000000001a44f58                mspritevline
                0x0000000001a45068                tsetupspritevline
                0x0000000001a450c0                DrawSpriteVerticalLine
                0x0000000001a45360                settrans
                0x0000000001a45370                mhline
                0x0000000001a455fc                mhlineskipmodify
                0x0000000001a45868                msethlineshift
                0x0000000001a45888                thline
                0x0000000001a45c78                thlineskipmodify
                0x0000000001a4604c                tsethlineshift
                0x0000000001a4606c                setupslopevlin
                0x0000000001a460dc                slopevlin
 .text          0x0000000001a462e4    0x2f7e8 /home/jbrawley/Desktop/rockbox-photo-cf-support/build/apps/plugins/sdl/progs/duke3d/Engine/src/engine.o
                0x0000000001a57aec                krecip
                0x0000000001a57b24                _swap16
                0x0000000001a57b38                _swap32
                0x0000000001a57b4c                wallfront
                0x0000000001a5897c                saveboard
                0x0000000001a596cc                setgamemode
                0x0000000001a59708                initengine
                0x0000000001a5a290                uninitengine
                0x0000000001a5a2f4                nextpage
                0x0000000001a5a568                clipinsidebox
                0x0000000001a5a6f0                drawline256
                0x0000000001a5afa4                inside
                0x0000000001a5b0fc                getangle
                0x0000000001a5b25c                ksqrt
                0x0000000001a5b2b8                drawmasks
                0x0000000001a5c220                initspritelists
                0x0000000001a5c69c                insertsprite
                0x0000000001a5c814                insertspritesect
                0x0000000001a5c8e4                insertspritestat
                0x0000000001a5c9b4                deletesprite
                0x0000000001a5cb6c                deletespritesect
                0x0000000001a5cc58                deletespritestat
                0x0000000001a5cd48                changespritesect
                0x0000000001a5ceb8                changespritestat
                0x0000000001a5d02c                nextsectorneighborz
                0x0000000001a5d7c8                lintersect
                0x0000000001a5d948                rintersect
                0x0000000001a5da90                neartag
                0x0000000001a5e448                dragpoint
                0x0000000001a5e7e4                lastwall
                0x0000000001a5e8d0                updatesector
                0x0000000001a5ed7c                loadboard
                0x0000000001a5f928                setsprite
                0x0000000001a5fb38                rotatepoint
                0x0000000001a5fbb0                initmouse
                0x0000000001a5fbd4                getmousevalues
                0x0000000001a5fc18                draw2dgrid
                0x0000000001a5fe10                draw2dscreen
                0x0000000001a608d8                printext256
                0x0000000001a60c88                krand
                0x0000000001a60cc0                setview
                0x0000000001a61624                setaspect
                0x0000000001a616f8                flushperms
                0x0000000001a61710                rotatesprite
                0x0000000001a61c40                makepalookup
                0x0000000001a623f0                setbrightness
                0x0000000001a6253c                drawmapview
                0x0000000001a63f90                clearview
                0x0000000001a6404c                clearallviews
                0x0000000001a64110                plotpixel
                0x0000000001a64144                getpixel
                0x0000000001a64174                setviewback
                0x0000000001a643cc                preparemirror
                0x0000000001a64660                completemirror
                0x0000000001a64804                sectorofwall
                0x0000000001a64988                getceilzofslope
                0x0000000001a64b90                getflorzofslope
                0x0000000001a66068                clipmove
                0x0000000001a68550                pushmove
                0x0000000001a68fd4                getzsofslope
                0x0000000001a6f884                drawrooms
                0x0000000001a71a54                cansee
                0x0000000001a72014                hitscan
                0x0000000001a73b38                getzrange
                0x0000000001a74a4c                alignceilslope
                0x0000000001a74c50                alignflorslope
                0x0000000001a74e54                loopnumofsector
                0x0000000001a75040                setfirstwall
 .text.unlikely
                0x0000000001a75acc      0x224 /home/jbrawley/Desktop/rockbox-photo-cf-support/build/apps/plugins/sdl/progs/duke3d/Engine/src/engine.o
 .text          0x0000000001a75cf0     0x2370 /home/jbrawley/Desktop/rockbox-photo-cf-support/build/apps/plugins/sdl/progs/duke3d/Engine/src/filesystem.o
                0x0000000001a75cf0                uninitgroupfile
                0x0000000001a75d88                crc32_table_gen
                0x0000000001a75e48                crc32_update
                0x0000000001a7605c                crc32
                0x0000000001a76064                initgroupfile
                0x0000000001a7658c                crc16
                0x0000000001a76678                kopen4load
                0x0000000001a76950                kread
                0x0000000001a76b7c                kread16
                0x0000000001a76d98                kread32
                0x0000000001a76fb4                kread8
                0x0000000001a771d0                klseek
                0x0000000001a772d4                rb_filelength
                0x0000000001a77348                kfilelength
                0x0000000001a7744c                kclose
                0x0000000001a77504                compress
                0x0000000001a77aa4                uncompress
                0x0000000001a77d14                kdfread
                0x0000000001a77f38                dfread
                0x0000000001a77f48                dfwrite
                0x0000000001a77f58                TCkopen4load
                0x0000000001a78014                setGameDir
                0x0000000001a7803c                getGameDir
                0x0000000001a78048                getGRPcrc32
 .text          0x0000000001a78060      0x988 /home/jbrawley/Desktop/rockbox-photo-cf-support/build/apps/plugins/sdl/progs/duke3d/Engine/src/fixedPoint_math.o
                0x0000000001a78060                clearbuf
                0x0000000001a78134                clearbufbyte
                0x0000000001a782c8                copybuf
                0x0000000001a783dc                copybufbyte
                0x0000000001a78670                copybufreverse
                0x0000000001a78768                qinterpolatedown16
                0x0000000001a788a8                qinterpolatedown16short
 .text          0x0000000001a789e8       0x6c /home/jbrawley/Desktop/rockbox-photo-cf-support/build/apps/plugins/sdl/progs/duke3d/Engine/src/network.o
                0x0000000001a789e8                Setup_UnstableNetworking
                0x0000000001a789fc                Setup_StableNetworking
                0x0000000001a78a10                callcommit
                0x0000000001a78a14                initcrc
                0x0000000001a78a18                getcrc
                0x0000000001a78a20                initmultiplayers
                0x0000000001a78a24                sendpacket
                0x0000000001a78a28                setpackettimeout
                0x0000000001a78a2c                uninitmultiplayers
                0x0000000001a78a30                sendlogon
                0x0000000001a78a34                sendlogoff
                0x0000000001a78a38                getoutputcirclesize
                0x0000000001a78a40                setsocket
                0x0000000001a78a44                getpacket
                0x0000000001a78a4c                flushpackets
                0x0000000001a78a50                genericmultifunction
 .text          0x0000000001a78a54     0x1f68 /home/jbrawley/Desktop/rockbox-photo-cf-support/build/apps/plugins/sdl/progs/duke3d/Engine/src/tiles.o
                0x0000000001a78c30                setviewtotile
                0x0000000001a78ecc                squarerotatetile
                0x0000000001a79118                setgotpic
                0x0000000001a7915c                loadtile
                0x0000000001a79338                allocatepermanenttile
                0x0000000001a79618                loadpics
                0x0000000001a7a298                TILE_MakeAvailable
                0x0000000001a7a484                copytilepiece
                0x0000000001a7a914                animateoffs
 .text          0x0000000001a7a9bc      0x834 /home/jbrawley/Desktop/rockbox-photo-cf-support/build/apps/plugins/sdl/progs/duke3d/Game/src/audiolib/fx_man.o
                0x0000000001a7a9bc                FX_ErrorString
                0x0000000001a7aa78                FX_SetupCard
                0x0000000001a7aaf4                FX_GetBlasterSettings
                0x0000000001a7aafc                FX_SetupSoundBlaster
                0x0000000001a7ab14                FX_Init
                0x0000000001a7ac54                FX_Shutdown
                0x0000000001a7acd8                FX_SetCallBack
                0x0000000001a7ad38                FX_SetVolume
                0x0000000001a7ad48                FX_GetVolume
                0x0000000001a7ad58                FX_SetReverseStereo
                0x0000000001a7ad68                FX_GetReverseStereo
                0x0000000001a7ad78                FX_SetReverb
                0x0000000001a7ad88                FX_SetFastReverb
                0x0000000001a7ad98                FX_GetMaxReverbDelay
                0x0000000001a7ada8                FX_GetReverbDelay
                0x0000000001a7adb8                FX_SetReverbDelay
                0x0000000001a7adc8                FX_VoiceAvailable
                0x0000000001a7add8                FX_EndLooping
                0x0000000001a7ae00                FX_SetPan
                0x0000000001a7ae28                FX_SetPitch
                0x0000000001a7ae50                FX_SetFrequency
                0x0000000001a7ae78                FX_PlayVOC
                0x0000000001a7aebc                FX_PlayLoopedVOC
                0x0000000001a7af14                FX_PlayWAV
                0x0000000001a7af58                FX_PlayLoopedWAV
                0x0000000001a7afb0                FX_PlayVOC3D
                0x0000000001a7aff0                FX_PlayWAV3D
                0x0000000001a7b030                FX_PlayRaw
                0x0000000001a7b088                FX_PlayLoopedRaw
                0x0000000001a7b0f0                FX_Pan3D
                0x0000000001a7b118                FX_SoundActive
                0x0000000001a7b128                FX_SoundsPlaying
                0x0000000001a7b138                FX_StopSound
                0x0000000001a7b160                FX_StopAllSounds
                0x0000000001a7b188                FX_StartDemandFeedPlayback
                0x0000000001a7b1d4                FX_StartRecording
                0x0000000001a7b1ec                FX_StopRecord
 .text          0x0000000001a7b1f0      0x40c /home/jbrawley/Desktop/rockbox-photo-cf-support/build/apps/plugins/sdl/progs/duke3d/Game/src/audiolib/dsl.o
                0x0000000001a7b2b8                DSL_ErrorString
                0x0000000001a7b330                DSL_Init
                0x0000000001a7b36c                DSL_Shutdown
                0x0000000001a7b3d4                DSL_BeginBufferedPlayback
                0x0000000001a7b578                DSL_StopPlayback
                0x0000000001a7b5e0                DSL_GetPlaybackRate
                0x0000000001a7b5f0                DisableInterrupts
                0x0000000001a7b5f8                RestoreInterrupts
 .text          0x0000000001a7b5fc       0xd4 /home/jbrawley/Desktop/rockbox-photo-cf-support/build/apps/plugins/sdl/progs/duke3d/Game/src/audiolib/ll_man.o
                0x0000000001a7b5fc                LL_AddNode
                0x0000000001a7b634                LL_RemoveNode
                0x0000000001a7b688                LL_UnlockMemory
                0x0000000001a7b6a8                LL_LockMemory
 .text          0x0000000001a7b6d0     0x4920 /home/jbrawley/Desktop/rockbox-photo-cf-support/build/apps/plugins/sdl/progs/duke3d/Game/src/audiolib/multivoc.o
                0x0000000001a7b8d4                MV_GetNextRawBlock
                0x0000000001a7b968                MV_GetNextWAVBlock
                0x0000000001a7ba00                MV_GetNextDemandFeedBlock
                0x0000000001a7bab8                MV_ServiceVoc
                0x0000000001a7bda0                MV_ErrorString
                0x0000000001a7bed8                MV_PlayVoice
                0x0000000001a7bf74                MV_StopVoice
                0x0000000001a7c028                MV_GetVoice
                0x0000000001a7c090                MV_VoicePlaying
                0x0000000001a7c124                MV_KillAllVoices
                0x0000000001a7c2e0                MV_Kill
                0x0000000001a7c43c                MV_VoicesPlaying
                0x0000000001a7c49c                MV_AllocVoice
                0x0000000001a7c628                MV_VoiceAvailable
                0x0000000001a7c6bc                MV_SetVoicePitch
                0x0000000001a7c700                MV_SetPitch
                0x0000000001a7c7b8                MV_SetFrequency
                0x0000000001a7c870                MV_SetVoiceMixMode
                0x0000000001a7c9f4                MV_GetNextVOCBlock
                0x0000000001a7cdfc                MV_SetVoiceVolume
                0x0000000001a7d090                MV_EndLooping
                0x0000000001a7d144                MV_SetPan
                0x0000000001a7d1f8                MV_Pan3D
                0x0000000001a7d2dc                MV_SetReverb
                0x0000000001a7d360                MV_SetFastReverb
                0x0000000001a7d38c                MV_GetMaxReverbDelay
                0x0000000001a7d394                MV_GetReverbDelay
                0x0000000001a7d3a4                MV_SetReverbDelay
                0x0000000001a7d3cc                MV_SetMixMode
                0x0000000001a7d504                MV_StartPlayback
                0x0000000001a7d6a8                MV_StopPlayback
                0x0000000001a7d8f4                MV_StartRecording
                0x0000000001a7d90c                MV_StopRecord
                0x0000000001a7d910                MV_StartDemandFeedPlayback
                0x0000000001a7daa4                MV_PlayRaw
                0x0000000001a7dc38                MV_PlayLoopedRaw
                0x0000000001a7ddcc                MV_PlayWAV
                0x0000000001a7e094                MV_PlayWAV3D
                0x0000000001a7e398                MV_PlayLoopedWAV
                0x0000000001a7e6a4                MV_PlayVOC3D
                0x0000000001a7e8a0                MV_PlayVOC
                0x0000000001a7ea5c                MV_PlayLoopedVOC
                0x0000000001a7ec20                MV_CalcVolume
                0x0000000001a7ec24                MV_CalcPanTable
                0x0000000001a7edd0                MV_SetVolume
                0x0000000001a7edec                MV_GetVolume
                0x0000000001a7edfc                MV_SetCallBack
                0x0000000001a7ee0c                MV_SetReverseStereo
                0x0000000001a7ee1c                MV_GetReverseStereo
                0x0000000001a7ee2c                MV_TestPlayback
                0x0000000001a7ee34                MV_Shutdown
                0x0000000001a7ee58                MV_UnlockMemory
                0x0000000001a7f090                MV_LockMemory
                0x0000000001a7f3b4                MV_Init
                0x0000000001a7ff1c                ClearBuffer_DW
 .text          0x0000000001a7fff0      0x780 /home/jbrawley/Desktop/rockbox-photo-cf-support/build/apps/plugins/sdl/progs/duke3d/Game/src/audiolib/mv_mix.o
                0x0000000001a7fff0                MV_cubic
                0x0000000001a800a0                MV_MixFPMono8
                0x0000000001a80238                MV_MixFPStereo8
                0x0000000001a80400                MV_MixFPMono16
                0x0000000001a805a0                MV_MixFPStereo16
 .text          0x0000000001a80770     0x1eb0 /home/jbrawley/Desktop/rockbox-photo-cf-support/build/apps/plugins/sdl/progs/duke3d/Game/src/audiolib/mvreverb.o
                0x0000000001a81a1c                MV_FPReverb
                0x0000000001a82160                MV_FPReverbFree
                0x0000000001a821a8                MV_16BitDownmix
                0x0000000001a82438                MV_8BitDownmix
 .text          0x0000000001a82620       0x84 /home/jbrawley/Desktop/rockbox-photo-cf-support/build/apps/plugins/sdl/progs/duke3d/Game/src/audiolib/nodpmi.o
                0x0000000001a82620                DPMI_GetRealModeVector
                0x0000000001a82628                DPMI_CallRealModeFunction
                0x0000000001a82630                DPMI_LockMemory
                0x0000000001a82638                DPMI_LockMemoryRegion
                0x0000000001a82640                DPMI_UnlockMemory
                0x0000000001a82648                DPMI_UnlockMemoryRegion
                0x0000000001a82650                DPMI_GetDOSMemory
                0x0000000001a82684                DPMI_FreeDOSMemory
 .text          0x0000000001a826a4      0x11c /home/jbrawley/Desktop/rockbox-photo-cf-support/build/apps/plugins/sdl/progs/duke3d/Game/src/audiolib/pitch.o
                0x0000000001a826a8                PITCH_GetScale
                0x0000000001a82734                PITCH_UnlockMemory
                0x0000000001a82764                PITCH_LockMemory
 .text          0x0000000001a827c0       0x10 /home/jbrawley/Desktop/rockbox-photo-cf-support/build/apps/plugins/sdl/progs/duke3d/Game/src/audiolib/user.o
                0x0000000001a827c0                USER_CheckParameter
                0x0000000001a827c8                USER_GetText
 .text          0x0000000001a827d0       0x4c /home/jbrawley/Desktop/rockbox-photo-cf-support/build/apps/plugins/sdl/progs/duke3d/Game/src/audiolib/usrhooks.o
                0x0000000001a827d0                USRHOOKS_GetMem
                0x0000000001a827f8                USRHOOKS_FreeMem
 .text          0x0000000001a8281c    0x22514 /home/jbrawley/Desktop/rockbox-photo-cf-support/build/apps/plugins/sdl/progs/duke3d/Game/src/actors.o
                0x0000000001a8281c                updateinterpolations
                0x0000000001a82978                setinterpolation
                0x0000000001a82af8                stopinterpolation
                0x0000000001a82efc                dointerpolations
                0x0000000001a83144                restoreinterpolations
                0x0000000001a832a0                ceilingspace
                0x0000000001a83304                floorspace
                0x0000000001a83364                addammo
                0x0000000001a8339c                addweapon
                0x0000000001a834fc                checkavailinven
                0x0000000001a835bc                checkavailweapon
                0x0000000001a838bc                ifsquished
                0x0000000001a83a5c                hitradius
                0x0000000001a84df8                movesprite
                0x0000000001a856e0                ssp
                0x0000000001a8608c                insertspriteq
                0x0000000001a8612c                lotsofmoney
                0x0000000001a86274                lotsofmail
                0x0000000001a863bc                lotsofpaper
                0x0000000001a86504                guts
                0x0000000001a8680c                gutsdir
                0x0000000001a86a08                setsectinterpolate
                0x0000000001a874c4                clearsectinterpolate
                0x0000000001a88584                ms
                0x0000000001a887a4                movefta
                0x0000000001a88d6c                ifhitsectors
                0x0000000001a88e2c                ifhitbyweapon
                0x0000000001a892ec                movecyclers
                0x0000000001a89470                movedummyplayers
                0x0000000001a89848                moveplayers
                0x0000000001a8a168                movefx
                0x0000000001a8a878                movefallers
                0x0000000001a8b008                movestandables
                0x0000000001a8e648                bounce
                0x0000000001a8e97c                moveweapons
                0x0000000001a90694                movetransports
                0x0000000001a92254                moveactors
                0x0000000001a97b2c                moveexplosions
                0x0000000001a99e80                moveeffectors
 .text          0x0000000001aa4d30     0x1cac /home/jbrawley/Desktop/rockbox-photo-cf-support/build/apps/plugins/sdl/progs/duke3d/Game/src/animlib.o
                0x0000000001aa4d30                CheckAnimStarted
                0x0000000001aa4d60                findpage
                0x0000000001aa4efc                loadpage
                0x0000000001aa4fd0                CPlayRunSkipDump
                0x0000000001aa58b0                renderframe
                0x0000000001aa5b30                drawframe
                0x0000000001aa604c                ANIM_LoadAnim
                0x0000000001aa61c4                ANIM_FreeAnim
                0x0000000001aa61e0                ANIM_NumFrames
                0x0000000001aa6234                ANIM_DrawFrame
                0x0000000001aa6998                ANIM_GetPalette
 .text          0x0000000001aa69dc     0x32a8 /home/jbrawley/Desktop/rockbox-photo-cf-support/build/apps/plugins/sdl/progs/duke3d/Game/src/config.o
                0x0000000001aa69dc                CONFIG_GetSetupFilename
                0x0000000001aa6a28                CONFIG_FunctionNameToNum
                0x0000000001aa6b60                CONFIG_FunctionNumToName
                0x0000000001aa6b7c                CONFIG_AnalogNameToNum
                0x0000000001aa6c30                CONFIG_SetDefaults
                0x0000000001aa6e14                CONFIG_ReadKeys
                0x0000000001aa71a4                CONFIG_SetupMouse
                0x0000000001aa78c8                CONFIG_SetupGamePad
                0x0000000001aa7ef0                CONFIG_SetupJoystick
                0x0000000001aa8818                readsavenames
                0x0000000001aa897c                CONFIG_ReadSetup
                0x0000000001aa92b0                CONFIG_WriteSetup
 .text          0x0000000001aa9c84     0x1970 /home/jbrawley/Desktop/rockbox-photo-cf-support/build/apps/plugins/sdl/progs/duke3d/Game/src/console.o
                0x0000000001aa9c84                CONSOLE_Reset
                0x0000000001aa9cc0                CONSOLE_Term
                0x0000000001aa9d24                CONSOLE_Render
                0x0000000001aaa08c                CONSOLE_ParseCommand
                0x0000000001aaa3b8                CONSOLE_ParseStartupScript
                0x0000000001aaa424                CONSOLE_InsertUsedCommand
                0x0000000001aaa48c                CONSOLE_ClearUsedCommandList
                0x0000000001aaa4c8                CONSOLE_RecalculateDirtyBuffer
                0x0000000001aaa6a4                CONSOLE_Printf
                0x0000000001aaa738                CONSOLE_Init
                0x0000000001aaa7f4                CONSOLE_HandleInput
                0x0000000001aab5a4                CONSOLE_GetArgc
                0x0000000001aab5b4                CONSOLE_GetArgv
                0x0000000001aab5cc                CONSOLE_IsActive
                0x0000000001aab5dc                CONSOLE_SetActive
 .text          0x0000000001aab5f4      0xf5c /home/jbrawley/Desktop/rockbox-photo-cf-support/build/apps/plugins/sdl/progs/duke3d/Game/src/control.o
                0x0000000001aab5f4                ACTION
                0x0000000001aab770                RESET_ACTION
                0x0000000001aab7a4                RESMOUSEBUTTON
                0x0000000001aab7d4                SETMOUSEDIGITALAXIS
                0x0000000001aab80c                RESMOUSEDIGITALAXIS
                0x0000000001aab844                CONTROL_UpdateKeyboardState
                0x0000000001aab848                CONTROL_MapKey
                0x0000000001aab8c4                CONTROL_MapButton
                0x0000000001aab8e0                CONTROL_MapJoyButton
                0x0000000001aab8f8                CONTROL_MapJoyHat
                0x0000000001aab914                CONTROL_DefineFlag
                0x0000000001aab918                CONTROL_FlagActive
                0x0000000001aab920                CONTROL_ClearAssignments
                0x0000000001aab924                CONTROL_GetUserInput
                0x0000000001aab928                CONTROL_GetInput
                0x0000000001aac128                CONTROL_ClearAction
                0x0000000001aac200                CONTROL_ClearUserInput
                0x0000000001aac204                CONTROL_WaitRelease
                0x0000000001aac208                CONTROL_Ack
                0x0000000001aac20c                CONTROL_CenterJoystick
                0x0000000001aac210                CONTROL_GetMouseSensitivity_X
                0x0000000001aac220                CONTROL_SetMouseSensitivity_X
                0x0000000001aac230                CONTROL_GetMouseSensitivity_Y
                0x0000000001aac240                CONTROL_SetMouseSensitivity_Y
                0x0000000001aac250                CONTROL_Startup
                0x0000000001aac2e4                CONTROL_Shutdown
                0x0000000001aac2f4                CONTROL_MapAnalogAxis
                0x0000000001aac30c                CONTROL_MapDigitalAxis
                0x0000000001aac328                CONTROL_SetAnalogAxisScale
                0x0000000001aac36c                CONTROL_SetAnalogAxisDeadzone
                0x0000000001aac384                CONTROL_FilterDeadzone
                0x0000000001aac39c                CONTROL_GetFilteredAxisValue
                0x0000000001aac3f0                CONTROL_PrintAxes
                0x0000000001aac3f4                MOUSE_Init
                0x0000000001aac42c                MOUSE_Shutdown
                0x0000000001aac430                MOUSE_ShowCursor
                0x0000000001aac434                MOUSE_HideCursor
                0x0000000001aac438                MOUSE_GetButtons
                0x0000000001aac448                MOUSE_GetPosition
                0x0000000001aac470                MOUSE_GetDelta
                0x0000000001aac4f0                JOYSTICK_UpdateHats
 .text          0x0000000001aac550      0xd74 /home/jbrawley/Desktop/rockbox-photo-cf-support/build/apps/plugins/sdl/progs/duke3d/Game/src/cvar_defs.o
                0x0000000001aac550                CVARDEFS_FunctionClear
                0x0000000001aac560                CVARDEFS_FunctionHelp
                0x0000000001aac880                CVARDEFS_DefaultFunction
                0x0000000001aac8e4                CVARDEFS_FunctionQuit
                0x0000000001aac970                CVARDEFS_FunctionName
                0x0000000001aacb1c                CVARDEFS_FunctionLevel
                0x0000000001aacd04                CVARDEFS_FunctionPlayMidi
                0x0000000001aacd28                CVARDEFS_Init
                0x0000000001aacfa8                CVARDEFS_Render
 .text          0x0000000001aad2c4      0x10c /home/jbrawley/Desktop/rockbox-photo-cf-support/build/apps/plugins/sdl/progs/duke3d/Game/src/cvars.o
                0x0000000001aad2c4                CVAR_RegisterCvar
                0x0000000001aad374                CVAR_GetNumCvarBindings
                0x0000000001aad384                CVAR_GetCvarBinding
                0x0000000001aad3b0                CVAR_RegisterDefaultCvarBindings
                0x0000000001aad3c0                CVAR_Render
 .text          0x0000000001aad3d0    0x2c268 /home/jbrawley/Desktop/rockbox-photo-cf-support/build/apps/plugins/sdl/progs/duke3d/Game/src/game.o
                0x0000000001aad3d0                GetTime
                0x0000000001aad3e0                CenterCenter
                0x0000000001aad3f8                UpperLeft
                0x0000000001aad410                LowerRight
                0x0000000001aad428                CenterThrottle
                0x0000000001aad440                CenterRudder
                0x0000000001aad458                ShutDown
                0x0000000001aaebe8                timerhandler
                0x0000000001aaec00                gametext
                0x0000000001aaed8c                gametextpal
                0x0000000001aaef20                gametextpart
                0x0000000001aaf158                minitext
                0x0000000001aaf250                minitextshade
                0x0000000001aaf360                gamenumber
                0x0000000001aaf3ac                grpVersion2char_from_crc
                0x0000000001aaf3fc                grpVersion2char
                0x0000000001aaf4a0                caches
                0x0000000001aaf5ec                dispVersion
                0x0000000001aaf9b0                checksync
                0x0000000001aaff08                check_fta_sounds
                0x0000000001ab0198                inventory
                0x0000000001ab01f4                badguy
                0x0000000001ab03d8                badguypic
                0x0000000001ab05a8                myos
                0x0000000001ab066c                myospal
                0x0000000001ab06f4                invennum
                0x0000000001ab0940                orderweaponnum
                0x0000000001ab0b10                weaponnum
                0x0000000001ab0e9c                weaponnum999
                0x0000000001ab1364                weapon_amounts
                0x0000000001ab2010                digitalnumber
                0x0000000001ab22a8                displayinventory
                0x0000000001ab27f8                displayfragbar
                0x0000000001ab2c80                drawsmallweapon
                0x0000000001ab2e70                duke_tics
                0x0000000001ab31bc                display_boardfilename_FPS_weapon
                0x0000000001ab3440                coolgaugetext
                0x0000000001ab5ba8                coords
                0x0000000001ab5f30                operatefta
                0x0000000001ab61e0                FTA
                0x0000000001ab6298                showtwoscreens
                0x0000000001ab6910                strget
                0x0000000001ab6be0                typemode
                0x0000000001ab7664                moveclouds
                0x0000000001ab78b0                updatesectorz
                0x0000000001ab7ebc                view
                0x0000000001ab83d0                drawbackground
                0x0000000001ab8bf4                LocateTheLocator
                0x0000000001ab8d00                wallswitchcheck
                0x0000000001ab8df8                animatesprites
                0x0000000001abd154                displayrooms
                0x0000000001abe658                cheats
                0x0000000001ac01d8                comlinehelp
                0x0000000001ac0314                checkcommandline
                0x0000000001ac0db8                printstr
                0x0000000001ac0dfc                loadtmb
                0x0000000001ac0e50                compilecons
                0x0000000001ac0ec8                sendscore
                0x0000000001ac0f18                dukeGRP_Match
                0x0000000001ac0f88                findGRPToUse
                0x0000000001ac113c                opendemoread
                0x0000000001ac16e0                opendemowrite
                0x0000000001ac19d8                record
                0x0000000001ac1ad0                closedemowrite
                0x0000000001ac1b80                fakedomovethings
                0x0000000001ac352c                fakedomovethingscorrect
                0x0000000001ac37e0                cameratext
                0x0000000001ac3b2c                displayrest
                0x0000000001ac4bd0                SetupGameButtons
                0x0000000001ac4e58                Startup
                0x0000000001ac501c                takescreenshot
                0x0000000001ac5370                nonsharedkeys
                0x0000000001ac6cf4                dobonus
                0x0000000001acaf9c                gameexit
                0x0000000001acb354                getpackets
                0x0000000001acb3d8                EGS
                0x0000000001acb6b4                spawn
                0x0000000001ad2090                getnames
                0x0000000001ad28a8                domovethings
                0x0000000001ad373c                lotsofglass
                0x0000000001ad3b44                vglass
                0x0000000001ad3f98                spriteglass
                0x0000000001ad43c4                ceilingglass
                0x0000000001ad48a0                lotsofcolourglass
                0x0000000001ad4f04                allowtimetocorrecterrorswhenquitting
                0x0000000001ad5058                doorders
                0x0000000001ad5850                faketimerhandler
                0x0000000001ad6e80                moveloop
                0x0000000001ad78d4                playback
                0x0000000001ad78f0                Logo
                0x0000000001ad85dc                my_main
 .text          0x0000000001ad9638     0xb04c /home/jbrawley/Desktop/rockbox-photo-cf-support/build/apps/plugins/sdl/progs/duke3d/Game/src/gamedef.o
                0x0000000001ad9638                getincangle
                0x0000000001ad9694                ispecial
                0x0000000001ad96cc                isaltok
                0x0000000001ad9720                getglobalz
                0x0000000001ad9ac4                makeitfall
                0x0000000001ad9e64                getlabel
                0x0000000001ad9f90                keyword
                0x0000000001ada1e0                transword
                0x0000000001ada600                transnum
                0x0000000001add850                parsecommand
                0x0000000001add894                passone
                0x0000000001add918                copydefaultcons
                0x0000000001add9c0                loadefs
                0x0000000001adde28                dodge
                0x0000000001ade024                furthestangle
                0x0000000001ade2a0                furthestcanseepoint
                0x0000000001ade5fc                alterang
                0x0000000001adefc8                move
                0x0000000001ae016c                parseifelse
                0x0000000001ae4294                parse
                0x0000000001ae42b0                execute
 .text          0x0000000001ae4684      0xc70 /home/jbrawley/Desktop/rockbox-photo-cf-support/build/apps/plugins/sdl/progs/duke3d/Game/src/global.o
                0x0000000001ae489c                FixFilePath
                0x0000000001ae48e8                FindDistance2D
                0x0000000001ae4920                FindDistance3D
                0x0000000001ae496c                Error
                0x0000000001ae49ac                write2disk
                0x0000000001ae4a60                SafeOpenAppend
                0x0000000001ae4b28                SafeFileExists
                0x0000000001ae4ba4                SafeOpenWrite
                0x0000000001ae4c6c                SafeOpenRead
                0x0000000001ae4d28                SafeRead
                0x0000000001ae4d98                SafeWrite
                0x0000000001ae4e08                SafeWriteString
                0x0000000001ae4e78                SafeMalloc
                0x0000000001ae4eb8                SafeRealloc
                0x0000000001ae4f00                SafeLevelMalloc
                0x0000000001ae4f40                SafeFree
                0x0000000001ae4f7c                MotoShort
                0x0000000001ae4f94                IntelShort
                0x0000000001ae4f98                MotoLong
                0x0000000001ae4fb8                IntelLong
                0x0000000001ae4fbc                SwapIntelLong
                0x0000000001ae4fc0                SwapIntelShort
                0x0000000001ae4fc4                SwapIntelLongArray
                0x0000000001ae4fc8                SwapIntelShortArray
                0x0000000001ae4fcc                duke_strlwr
                0x0000000001ae501c                duke_strupr
                0x0000000001ae506c                duke_itoa
                0x0000000001ae50c0                duke_ltoa
                0x0000000001ae5114                duke_ultoa
                0x0000000001ae5168                setup_homedir
                0x0000000001ae5218                CheckParm
                0x0000000001ae52b4                RegisterShutdownFunction
                0x0000000001ae52c4                Shutdown
 .text          0x0000000001ae52f4      0x704 /home/jbrawley/Desktop/rockbox-photo-cf-support/build/apps/plugins/sdl/progs/duke3d/Game/src/keyboard.o
                0x0000000001ae52f4                keyhandler
                0x0000000001ae53cc                KB_KeyEvent
                0x0000000001ae53d0                KB_KeyWaiting
                0x0000000001ae53ec                KB_Getch
                0x0000000001ae5480                KB_Addch
                0x0000000001ae5484                KB_FlushKeyboardQueue
                0x0000000001ae54b8                KB_ClearKeysDown
                0x0000000001ae54e8                KB_ScanCodeToString
                0x0000000001ae552c                KB_StringToScanCode
                0x0000000001ae55a4                KB_TurnKeypadOn
                0x0000000001ae55a8                KB_TurnKeypadOff
                0x0000000001ae55ac                KB_KeypadActive
                0x0000000001ae55b4                KB_Startup
                0x0000000001ae59c8                KB_Shutdown
 .text          0x0000000001ae59f8     0xfb4c /home/jbrawley/Desktop/rockbox-photo-cf-support/build/apps/plugins/sdl/progs/duke3d/Game/src/menues.o
                0x0000000001ae59f8                dummyfunc
                0x0000000001ae59fc                dummymess
                0x0000000001ae5a00                cmenu
                0x0000000001ae5aa0                savetemp
                0x0000000001ae5b40                getangplayers
                0x0000000001ae5ca0                loadpheader
                0x0000000001ae5e64                saveplayer
                0x0000000001ae719c                probeXduke
                0x0000000001ae77bc                probe
                0x0000000001ae77dc                menutext
                0x0000000001ae7bec                loadplayer
                0x0000000001ae934c                menutextc
                0x0000000001ae96e0                bar
                0x0000000001ae9b44                dispnames
                0x0000000001ae9e74                getfilenames
                0x0000000001aea024                sortfilenames
                0x0000000001aea258                gameexitanycase
                0x0000000001aea36c                menus
                0x0000000001af33bc                palto
                0x0000000001af3538                drawoverheadmap
                0x0000000001af483c                endanimsounds
                0x0000000001af49bc                logoanimsounds
                0x0000000001af49ec                intro4animsounds
                0x0000000001af4abc                first4animsounds
                0x0000000001af4b84                intro42animsounds
                0x0000000001af4ba0                endanimvol41
                0x0000000001af4bd0                endanimvol42
                0x0000000001af4cc4                endanimvol43
                0x0000000001af4d28                playanm
 .text          0x0000000001af5544      0x320 /home/jbrawley/Desktop/rockbox-photo-cf-support/build/apps/plugins/sdl/progs/duke3d/Game/src/midi/sdl_midi.o
                0x0000000001af5544                MUSIC_ErrorString
                0x0000000001af5550                MUSIC_Init
                0x0000000001af55a4                MUSIC_Shutdown
                0x0000000001af55d0                MUSIC_SetMaxFMMidiChannel
                0x0000000001af55d4                MUSIC_SetVolume
                0x0000000001af55ec                MUSIC_SetMidiChannelVolume
                0x0000000001af55f0                MUSIC_ResetMidiChannelVolumes
                0x0000000001af55f4                MUSIC_GetVolume
                0x0000000001af55fc                MUSIC_SetLoopFlag
                0x0000000001af5600                MUSIC_SongPlaying
                0x0000000001af5610                MUSIC_Continue
                0x0000000001af5628                MUSIC_Pause
                0x0000000001af5638                MUSIC_StopSong
                0x0000000001af5664                MUSIC_PlaySong
                0x0000000001af5750                MUSIC_SetContext
                0x0000000001af5754                MUSIC_GetContext
                0x0000000001af575c                MUSIC_SetSongTick
                0x0000000001af5760                MUSIC_SetSongTime
                0x0000000001af5764                MUSIC_SetSongPosition
                0x0000000001af5768                MUSIC_GetSongPosition
                0x0000000001af576c                MUSIC_GetSongLength
                0x0000000001af5770                MUSIC_FadeVolume
                0x0000000001af5778                MUSIC_FadeActive
                0x0000000001af5780                MUSIC_StopFade
                0x0000000001af5784                MUSIC_RerouteMidiChannel
                0x0000000001af5788                MUSIC_RegisterTimbreBank
                0x0000000001af578c                PlayMusic
 .text          0x0000000001af5864    0x113f8 /home/jbrawley/Desktop/rockbox-photo-cf-support/build/apps/plugins/sdl/progs/duke3d/Game/src/player.o
                0x0000000001af5864                setpal
                0x0000000001af58f4                incur_damage
                0x0000000001af5a04                quickkill
                0x0000000001af5aa4                forceplayerangle
                0x0000000001af5aec                tracers
                0x0000000001af5cd0                hits
                0x0000000001af5e50                hitasprite
                0x0000000001af6050                hitawall
                0x0000000001af6114                aim
                0x0000000001af68ec                shoot
                0x0000000001af9fb0                displayloogie
                0x0000000001afa108                animatefist
                0x0000000001afa2dc                animateknee
                0x0000000001afa47c                animateknuckles
                0x0000000001afa5f8                displaymasks
                0x0000000001afa7ec                animatetip
                0x0000000001afa950                animateaccess
                0x0000000001afab74                displayweapon
                0x0000000001afc464                getinput
                0x0000000001afd474                doincrements
                0x0000000001afe374                checkweapons
                0x0000000001afe3ec                processinput
                0x0000000001b039b4                computergetinput
 .text          0x0000000001b06c5c     0x6b2c /home/jbrawley/Desktop/rockbox-photo-cf-support/build/apps/plugins/sdl/progs/duke3d/Game/src/premap.o
                0x0000000001b06c5c                cachespritenum
                0x0000000001b07434                cachegoodsprites
                0x0000000001b07b38                getsound
                0x0000000001b07c58                precachenecessarysounds
                0x0000000001b07f2c                cacheit
                0x0000000001b08340                docacheit
                0x0000000001b08520                xyzmirror
                0x0000000001b0869c                vscrn
                0x0000000001b088f4                countfragbars
                0x0000000001b0899c                pickrandomspot
                0x0000000001b08a5c                resetplayerstats
                0x0000000001b08cfc                resetweapons
                0x0000000001b08db8                resetinventory
                0x0000000001b08e3c                resetprestat
                0x0000000001b092dc                setupbackdrop
                0x0000000001b0950c                prelevel
                0x0000000001b0ac44                newgame
                0x0000000001b0b240                resetpspritevars
                0x0000000001b0beb0                clearfrags
                0x0000000001b0bfa8                resettimevars
                0x0000000001b0c028                genspriteremaps
                0x0000000001b0c184                waitforeverybody
                0x0000000001b0c284                dofrontscreens
                0x0000000001b0c5c0                clearfifo
                0x0000000001b0c708                resetmys
                0x0000000001b0c880                enterlevel
 .text          0x0000000001b0d788      0x4b0 /home/jbrawley/Desktop/rockbox-photo-cf-support/build/apps/plugins/sdl/progs/duke3d/Game/src/rts.o
                0x0000000001b0d788                RTS_AddFile
                0x0000000001b0d900                RTS_Init
                0x0000000001b0d98c                RTS_NumSounds
                0x0000000001b0d9a0                RTS_SoundLength
                0x0000000001b0d9ec                RTS_GetSoundName
                0x0000000001b0da34                RTS_ReadLump
                0x0000000001b0dae0                RTS_GetSound
 .text          0x0000000001b0dc38     0x2f28 /home/jbrawley/Desktop/rockbox-photo-cf-support/build/apps/plugins/sdl/progs/duke3d/Game/src/scriplib.o
                0x0000000001b0de44                SCRIPT_Init
                0x0000000001b0de4c                SCRIPT_Free
                0x0000000001b0df3c                SCRIPT_Parse
                0x0000000001b0df44                SCRIPT_Load
                0x0000000001b0fba4                SCRIPT_Save
                0x0000000001b0fc1c                SCRIPT_NumberSections
                0x0000000001b0fc24                SCRIPT_Section
                0x0000000001b0fc2c                SCRIPT_NumberEntries
                0x0000000001b0fcd0                SCRIPT_Entry
                0x0000000001b0feb8                SCRIPT_GetRaw
                0x0000000001b0fec0                SCRIPT_GetString
                0x0000000001b0ff90                SCRIPT_GetDoubleString
                0x0000000001b1006c                SCRIPT_GetNumber
                0x0000000001b10148                SCRIPT_GetBoolean
                0x0000000001b1014c                SCRIPT_GetFloat
                0x0000000001b10228                SCRIPT_GetDouble
                0x0000000001b1022c                SCRIPT_PutComment
                0x0000000001b10230                SCRIPT_PutEOL
                0x0000000001b10234                SCRIPT_PutMultiComment
                0x0000000001b10240                SCRIPT_PutSection
                0x0000000001b10244                SCRIPT_PutRaw
                0x0000000001b10248                SCRIPT_PutString
                0x0000000001b10548                SCRIPT_PutDoubleString
                0x0000000001b1087c                SCRIPT_PutNumber
                0x0000000001b10b58                SCRIPT_PutBoolean
                0x0000000001b10b5c                SCRIPT_PutDouble
 .text          0x0000000001b10b60     0xf0cc /home/jbrawley/Desktop/rockbox-photo-cf-support/build/apps/plugins/sdl/progs/duke3d/Game/src/sector.o
                0x0000000001b10b60                callsound
                0x0000000001b10dec                check_activator_motion
                0x0000000001b11020                isadoorwall
                0x0000000001b110f0                isanunderoperator
                0x0000000001b11130                isanearoperator
                0x0000000001b11170                checkcursectnums
                0x0000000001b1125c                ldist
                0x0000000001b112e8                dist
                0x0000000001b113b0                findplayer
                0x0000000001b115e8                findotherplayer
                0x0000000001b116ec                doanimations
                0x0000000001b11b50                getanimationgoal
                0x0000000001b11cc8                setanimation
                0x0000000001b11f34                animatecamsprite
                0x0000000001b12108                animatewalls
                0x0000000001b12404                activatewarpelevators
                0x0000000001b1263c                operatesectors
                0x0000000001b17c64                operaterespawns
                0x0000000001b17db0                operateactivators
                0x0000000001b183ac                operatemasterswitches
                0x0000000001b1845c                operateforcefields
                0x0000000001b18674                checkhitswitch
                0x0000000001b19ad4                activatebysector
                0x0000000001b19b94                breakwall
                0x0000000001b19be4                checkhitwall
                0x0000000001b1a830                checkplayerhurt
                0x0000000001b1aac0                checkhitceiling
                0x0000000001b1ae78                checkhitsprite
                0x0000000001b1d128                allignwarpelevators
                0x0000000001b1d2bc                cheatkeys
                0x0000000001b1e77c                checksectors
 .text          0x0000000001b1fc2c     0x2aac /home/jbrawley/Desktop/rockbox-photo-cf-support/build/apps/plugins/sdl/progs/duke3d/Game/src/sounds.o
                0x0000000001b1fc2c                TestCallBack
                0x0000000001b1ff94                SoundStartup
                0x0000000001b20114                SoundShutdown
                0x0000000001b2015c                MusicStartup
                0x0000000001b202cc                MusicShutdown
                0x0000000001b20320                intomenusounds
                0x0000000001b2075c                playmusic
                0x0000000001b20790                loadsound
                0x0000000001b208b0                sound
                0x0000000001b20c1c                stopsound
                0x0000000001b20f94                xyzsound
                0x0000000001b21a54                spritesound
                0x0000000001b21afc                stopenvsound
                0x0000000001b21bbc                pan3dsound
                0x0000000001b222f0                testcallback
                0x0000000001b22658                clearsoundlocks
 .text          0x0000000001b226d8      0x214 /home/jbrawley/Desktop/rockbox-photo-cf-support/build/apps/plugins/plugin_crt0.o
                0x0000000001b226f0                plugin__start
                0x0000000001b22840                rb_atexit
                0x0000000001b22860                exit
                0x0000000001b22880                _exit
                0x0000000001b22898                exit_on_usb
 .text.ls_bit   0x0000000001b228ec       0x44 /home/jbrawley/Desktop/rockbox-photo-cf-support/build/lib/libtlsf.a(tlsf.o)
 .text.ms_bit   0x0000000001b22930       0x3c /home/jbrawley/Desktop/rockbox-photo-cf-support/build/lib/libtlsf.a(tlsf.o)
 .text.set_bit  0x0000000001b2296c       0x1c /home/jbrawley/Desktop/rockbox-photo-cf-support/build/lib/libtlsf.a(tlsf.o)
 .text.clear_bit
                0x0000000001b22988       0x1c /home/jbrawley/Desktop/rockbox-photo-cf-support/build/lib/libtlsf.a(tlsf.o)
 .text.MAPPING_SEARCH
                0x0000000001b229a4       0x8c /home/jbrawley/Desktop/rockbox-photo-cf-support/build/lib/libtlsf.a(tlsf.o)
 .text.FIND_SUITABLE_BLOCK
                0x0000000001b22a30       0x78 /home/jbrawley/Desktop/rockbox-photo-cf-support/build/lib/libtlsf.a(tlsf.o)
 .text.process_area
                0x0000000001b22aa8       0x60 /home/jbrawley/Desktop/rockbox-photo-cf-support/build/lib/libtlsf.a(tlsf.o)
 .text.MAPPING_INSERT
                0x0000000001b22b08       0x5c /home/jbrawley/Desktop/rockbox-photo-cf-support/build/lib/libtlsf.a(tlsf.o)
 .text.panicf   0x0000000001b22b64        0x8 /home/jbrawley/Desktop/rockbox-photo-cf-support/build/lib/libtlsf.a(tlsf.o)
                0x0000000001b22b64                panicf
 .text.get_new_area
                0x0000000001b22b6c        0x8 /home/jbrawley/Desktop/rockbox-photo-cf-support/build/lib/libtlsf.a(tlsf.o)
                0x0000000001b22b6c                get_new_area
 .text.free_ex  0x0000000001b22b74      0x2a0 /home/jbrawley/Desktop/rockbox-photo-cf-support/build/lib/libtlsf.a(tlsf.o)
                0x0000000001b22b74                free_ex
 .text.init_memory_pool
                0x0000000001b22e14       0xcc /home/jbrawley/Desktop/rockbox-photo-cf-support/build/lib/libtlsf.a(tlsf.o)
                0x0000000001b22e14                init_memory_pool
 .text.add_new_area
                0x0000000001b22ee0      0x16c /home/jbrawley/Desktop/rockbox-photo-cf-support/build/lib/libtlsf.a(tlsf.o)
                0x0000000001b22ee0                add_new_area
 .text.malloc_ex
                0x0000000001b2304c      0x260 /home/jbrawley/Desktop/rockbox-photo-cf-support/build/lib/libtlsf.a(tlsf.o)
                0x0000000001b2304c                malloc_ex
 .text.tlsf_malloc
                0x0000000001b232ac       0x60 /home/jbrawley/Desktop/rockbox-photo-cf-support/build/lib/libtlsf.a(tlsf.o)
                0x0000000001b232ac                tlsf_malloc
 .text.tlsf_free
                0x0000000001b2330c       0x10 /home/jbrawley/Desktop/rockbox-photo-cf-support/build/lib/libtlsf.a(tlsf.o)
                0x0000000001b2330c                tlsf_free
 .text.realloc_ex
                0x0000000001b2331c      0x3a8 /home/jbrawley/Desktop/rockbox-photo-cf-support/build/lib/libtlsf.a(tlsf.o)
                0x0000000001b2331c                realloc_ex
 .text.tlsf_realloc
                0x0000000001b236c4       0x1c /home/jbrawley/Desktop/rockbox-photo-cf-support/build/lib/libtlsf.a(tlsf.o)
                0x0000000001b236c4                tlsf_realloc
 .text.calloc_ex
                0x0000000001b236e0       0x4c /home/jbrawley/Desktop/rockbox-photo-cf-support/build/lib/libtlsf.a(tlsf.o)
                0x0000000001b236e0                calloc_ex
 .text.tlsf_calloc
                0x0000000001b2372c       0x10 /home/jbrawley/Desktop/rockbox-photo-cf-support/build/lib/libtlsf.a(tlsf.o)
                0x0000000001b2372c                tlsf_calloc
 .text.memcpy   0x0000000001b2373c       0x14 /home/jbrawley/Desktop/rockbox-photo-cf-support/build/apps/plugins/libplugin.a(gcc-support.o)
                0x0000000001b2373c                memcpy
 .text.memset   0x0000000001b23750       0x14 /home/jbrawley/Desktop/rockbox-photo-cf-support/build/apps/plugins/libplugin.a(gcc-support.o)
                0x0000000001b23750                memset
 .text.memcmp   0x0000000001b23764       0x14 /home/jbrawley/Desktop/rockbox-photo-cf-support/build/apps/plugins/libplugin.a(gcc-support.o)
                0x0000000001b23764                memcmp
 .text.backlight_ignore_timeout
                0x0000000001b23778       0x58 /home/jbrawley/Desktop/rockbox-photo-cf-support/build/apps/plugins/libplugin.a(helper.o)
                0x0000000001b23778                backlight_ignore_timeout
 .text.backlight_use_settings
                0x0000000001b237d0       0x3c /home/jbrawley/Desktop/rockbox-photo-cf-support/build/apps/plugins/libplugin.a(helper.o)
                0x0000000001b237d0                backlight_use_settings
 .text.strncpy  0x0000000001b2380c       0x38 /home/jbrawley/Desktop/rockbox-photo-cf-support/build/apps/plugins/libplugin.a(strncpy.o)
                0x0000000001b2380c                strncpy
 .text._fopen_  0x0000000001b23844       0xe8 /home/jbrawley/Desktop/rockbox-photo-cf-support/build/apps/plugins/libplugin.a(stdio_compat.o)
                0x0000000001b23844                _fopen_
 .text._fread_  0x0000000001b2392c       0x54 /home/jbrawley/Desktop/rockbox-photo-cf-support/build/apps/plugins/libplugin.a(stdio_compat.o)
                0x0000000001b2392c                _fread_
 .text._fwrite_
                0x0000000001b23980       0x5c /home/jbrawley/Desktop/rockbox-photo-cf-support/build/apps/plugins/libplugin.a(stdio_compat.o)
                0x0000000001b23980                _fwrite_
 .text._fseek_  0x0000000001b239dc       0x70 /home/jbrawley/Desktop/rockbox-photo-cf-support/build/apps/plugins/libplugin.a(stdio_compat.o)
                0x0000000001b239dc                _fseek_
 .text._ftell_  0x0000000001b23a4c       0x20 /home/jbrawley/Desktop/rockbox-photo-cf-support/build/apps/plugins/libplugin.a(stdio_compat.o)
                0x0000000001b23a4c                _ftell_
 .text._fclose_
                0x0000000001b23a6c       0x54 /home/jbrawley/Desktop/rockbox-photo-cf-support/build/apps/plugins/libplugin.a(stdio_compat.o)
                0x0000000001b23a6c                _fclose_
 .text._fgetc_  0x0000000001b23ac0       0x58 /home/jbrawley/Desktop/rockbox-photo-cf-support/build/apps/plugins/libplugin.a(stdio_compat.o)
                0x0000000001b23ac0                _fgetc_
 .text._fgets_  0x0000000001b23b18       0x88 /home/jbrawley/Desktop/rockbox-photo-cf-support/build/apps/plugins/libplugin.a(stdio_compat.o)
                0x0000000001b23b18                _fgets_
 .text._ferror_
                0x0000000001b23ba0       0x10 /home/jbrawley/Desktop/rockbox-photo-cf-support/build/apps/plugins/libplugin.a(stdio_compat.o)
                0x0000000001b23ba0                _ferror_
 .text._fprintf_
                0x0000000001b23bb0       0x60 /home/jbrawley/Desktop/rockbox-photo-cf-support/build/apps/plugins/libplugin.a(stdio_compat.o)
                0x0000000001b23bb0                _fprintf_
 .text.simple_resize_bitmap
                0x0000000001b23c10       0xc0 /home/jbrawley/Desktop/rockbox-photo-cf-support/build/apps/plugins/libplugin.a(pluginlib_bmp.o)
                0x0000000001b23c10                simple_resize_bitmap
 .text          0x0000000001b23cd0       0x1c /home/jbrawley/Desktop/rockbox-photo-cf-support/build/lib/libsetjmp.a(setjmp.o)
                0x0000000001b23cd0                setjmp
                0x0000000001b23cdc                longjmp
 .text.fp_sincos
                0x0000000001b23cec       0x8c /home/jbrawley/Desktop/rockbox-photo-cf-support/build/lib/libfixedpoint.a(fixedpoint.o)
                0x0000000001b23cec                fp_sincos
 .text          0x0000000001b23d78      0x114 /usr/local/lib/gcc/arm-elf-eabi/4.9.4/libgcc.a(_udivsi3.o)
                0x0000000001b23d78                __udivsi3
                0x0000000001b23d78                __aeabi_uidiv
                0x0000000001b23e6c                __aeabi_uidivmod
 .text          0x0000000001b23e8c      0x148 /usr/local/lib/gcc/arm-elf-eabi/4.9.4/libgcc.a(_divsi3.o)
                0x0000000001b23e8c                __aeabi_idiv
                0x0000000001b23e8c                __divsi3
                0x0000000001b23fb4                __aeabi_idivmod
 .text          0x0000000001b23fd4        0x4 /usr/local/lib/gcc/arm-elf-eabi/4.9.4/libgcc.a(_dvmd_tls.o)
                0x0000000001b23fd4                __aeabi_ldiv0
                0x0000000001b23fd4                __aeabi_idiv0
 .text          0x0000000001b23fd8      0x41c /usr/local/lib/gcc/arm-elf-eabi/4.9.4/libgcc.a(_arm_addsubdf3.o)
                0x0000000001b23fd8                __aeabi_drsub
                0x0000000001b23fe0                __aeabi_dsub
                0x0000000001b23fe0                __subdf3
                0x0000000001b23fe4                __adddf3
                0x0000000001b23fe4                __aeabi_dadd
                0x0000000001b242f4                __aeabi_ui2d
                0x0000000001b242f4                __floatunsidf
                0x0000000001b24318                __floatsidf
                0x0000000001b24318                __aeabi_i2d
                0x0000000001b24340                __extendsfdf2
                0x0000000001b24340                __aeabi_f2d
                0x0000000001b24380                __aeabi_ul2d
                0x0000000001b24380                __floatundidf
                0x0000000001b24394                __floatdidf
                0x0000000001b24394                __aeabi_l2d
 .text          0x0000000001b243f4      0x49c /usr/local/lib/gcc/arm-elf-eabi/4.9.4/libgcc.a(_arm_muldivdf3.o)
                0x0000000001b243f4                __aeabi_dmul
                0x0000000001b243f4                __muldf3
                0x0000000001b24684                __aeabi_ddiv
                0x0000000001b24684                __divdf3
 .text          0x0000000001b24890      0x144 /usr/local/lib/gcc/arm-elf-eabi/4.9.4/libgcc.a(_arm_cmpdf2.o)
                0x0000000001b24890                __gtdf2
                0x0000000001b24890                __gedf2
                0x0000000001b24898                __ltdf2
                0x0000000001b24898                __ledf2
                0x0000000001b248a0                __cmpdf2
                0x0000000001b248a0                __eqdf2
                0x0000000001b248a0                __nedf2
                0x0000000001b24928                __aeabi_cdrcmple
                0x0000000001b24944                __aeabi_cdcmple
                0x0000000001b24944                __aeabi_cdcmpeq
                0x0000000001b2495c                __aeabi_dcmpeq
                0x0000000001b24974                __aeabi_dcmplt
                0x0000000001b2498c                __aeabi_dcmple
                0x0000000001b249a4                __aeabi_dcmpge
                0x0000000001b249bc                __aeabi_dcmpgt
 .text          0x0000000001b249d4       0x5c /usr/local/lib/gcc/arm-elf-eabi/4.9.4/libgcc.a(_arm_fixdfsi.o)
                0x0000000001b249d4                __fixdfsi
                0x0000000001b249d4                __aeabi_d2iz
 .text          0x0000000001b24a30       0x54 /usr/local/lib/gcc/arm-elf-eabi/4.9.4/libgcc.a(_arm_fixunsdfsi.o)
                0x0000000001b24a30                __fixunsdfsi
                0x0000000001b24a30                __aeabi_d2uiz
 .text          0x0000000001b24a84       0xa0 /usr/local/lib/gcc/arm-elf-eabi/4.9.4/libgcc.a(_arm_truncdfsf2.o)
                0x0000000001b24a84                __aeabi_d2f
                0x0000000001b24a84                __truncdfsf2
 .text          0x0000000001b24b24      0x2ac /usr/local/lib/gcc/arm-elf-eabi/4.9.4/libgcc.a(_arm_addsubsf3.o)
                0x0000000001b24b24                __aeabi_frsub
                0x0000000001b24b2c                __subsf3
                0x0000000001b24b2c                __aeabi_fsub
                0x0000000001b24b30                __aeabi_fadd
                0x0000000001b24b30                __addsf3
                0x0000000001b24cec                __aeabi_ui2f
                0x0000000001b24cec                __floatunsisf
                0x0000000001b24cf4                __aeabi_i2f
                0x0000000001b24cf4                __floatsisf
                0x0000000001b24d14                __floatundisf
                0x0000000001b24d14                __aeabi_ul2f
                0x0000000001b24d24                __floatdisf
                0x0000000001b24d24                __aeabi_l2f
 .text          0x0000000001b24dd0      0x2f8 /usr/local/lib/gcc/arm-elf-eabi/4.9.4/libgcc.a(_arm_muldivsf3.o)
                0x0000000001b24dd0                __mulsf3
                0x0000000001b24dd0                __aeabi_fmul
                0x0000000001b24f68                __divsf3
                0x0000000001b24f68                __aeabi_fdiv
 .text          0x0000000001b250c8      0x114 /usr/local/lib/gcc/arm-elf-eabi/4.9.4/libgcc.a(_arm_cmpsf2.o)
                0x0000000001b250c8                __gtsf2
                0x0000000001b250c8                __gesf2
                0x0000000001b250d0                __lesf2
                0x0000000001b250d0                __ltsf2
                0x0000000001b250d8                __nesf2
                0x0000000001b250d8                __eqsf2
                0x0000000001b250d8                __cmpsf2
                0x0000000001b2513c                __aeabi_cfrcmple
                0x0000000001b2514c                __aeabi_cfcmple
                0x0000000001b2514c                __aeabi_cfcmpeq
                0x0000000001b25164                __aeabi_fcmpeq
                0x0000000001b2517c                __aeabi_fcmplt
                0x0000000001b25194                __aeabi_fcmple
                0x0000000001b251ac                __aeabi_fcmpge
                0x0000000001b251c4                __aeabi_fcmpgt
 .text          0x0000000001b251dc       0x5c /usr/local/lib/gcc/arm-elf-eabi/4.9.4/libgcc.a(_arm_fixsfsi.o)
                0x0000000001b251dc                __fixsfsi
                0x0000000001b251dc                __aeabi_f2iz
 .text          0x0000000001b25238       0x54 /usr/local/lib/gcc/arm-elf-eabi/4.9.4/libgcc.a(_arm_fixunssfsi.o)
                0x0000000001b25238                __aeabi_f2uiz
                0x0000000001b25238                __fixunssfsi
 .text          0x0000000001b2528c       0x48 /usr/local/lib/gcc/arm-elf-eabi/4.9.4/libgcc.a(_clzsi2.o)
                0x0000000001b2528c                __clzsi2
 .text          0x0000000001b252d4       0x48 /usr/local/lib/gcc/arm-elf-eabi/4.9.4/libgcc.a(_aeabi_ldivmod.o)
                0x0000000001b252d4                __aeabi_ldivmod
 .text          0x0000000001b2531c       0x3c /usr/local/lib/gcc/arm-elf-eabi/4.9.4/libgcc.a(_aeabi_uldivmod.o)
                0x0000000001b2531c                __aeabi_uldivmod
 .text          0x0000000001b25358       0x84 /usr/local/lib/gcc/arm-elf-eabi/4.9.4/libgcc.a(bpabi.o)
                0x0000000001b25358                __gnu_ldivmod_helper
                0x0000000001b2539c                __gnu_uldivmod_helper
 .text          0x0000000001b253dc      0x178 /usr/local/lib/gcc/arm-elf-eabi/4.9.4/libgcc.a(_divdi3.o)
                0x0000000001b253dc                __divdi3
 .text          0x0000000001b25554      0x120 /usr/local/lib/gcc/arm-elf-eabi/4.9.4/libgcc.a(_udivdi3.o)
                0x0000000001b25554                __udivdi3
 .text          0x0000000001b25674       0x28 /usr/local/lib/gcc/arm-elf-eabi/4.9.4/libgcc.a(_clzdi2.o)
                0x0000000001b25674                __clzdi2
 *(.glue_7)
 .glue_7        0x0000000001b2569c        0x0 linker stubs
 *(.glue_7t)
 .glue_7t       0x0000000001b2569c        0x0 linker stubs

.vfp11_veneer   0x0000000001b2569c        0x0
 .vfp11_veneer  0x0000000001b2569c        0x0 linker stubs

.v4_bx          0x0000000001b2569c        0x0
 .v4_bx         0x0000000001b2569c        0x0 linker stubs

.iplt           0x0000000001b2569c        0x0
 .iplt          0x0000000001b2569c        0x0 /home/jbrawley/Desktop/rockbox-photo-cf-support/build/apps/plugins/sdl/main.o

.rodata         0x0000000001b256a0     0xd2d0
 *(.rodata*)
 .rodata.str1.4
                0x0000000001b256a0       0x49 /home/jbrawley/Desktop/rockbox-photo-cf-support/build/apps/plugins/sdl/main.o
 *fill*         0x0000000001b256e9        0x7 
 .rodata        0x0000000001b256f0      0xe00 /home/jbrawley/Desktop/rockbox-photo-cf-support/build/apps/plugins/sdl/wrappers.o
                0x0000000001b25710                __exp_deltatable
                0x0000000001b259d8                __exp_atable
 .rodata.str1.4
                0x0000000001b264f0        0x6 /home/jbrawley/Desktop/rockbox-photo-cf-support/build/apps/plugins/sdl/wrappers.o
                                          0xb (size before relaxing)
 *fill*         0x0000000001b264f6        0x2 
 .rodata.str1.4
                0x0000000001b264f8       0x65 /home/jbrawley/Desktop/rockbox-photo-cf-support/build/apps/plugins/sdl/src/SDL.o
 *fill*         0x0000000001b2655d        0x3 
 .rodata.str1.4
                0x0000000001b26560       0x82 /home/jbrawley/Desktop/rockbox-photo-cf-support/build/apps/plugins/sdl/src/SDL_error.o
 *fill*         0x0000000001b265e2        0x2 
 .rodata        0x0000000001b265e4       0x48 /home/jbrawley/Desktop/rockbox-photo-cf-support/build/apps/plugins/sdl/src/audio/SDL_audio.o
 .rodata.str1.4
                0x0000000001b2662c      0x126 /home/jbrawley/Desktop/rockbox-photo-cf-support/build/apps/plugins/sdl/src/audio/SDL_audio.o
 *fill*         0x0000000001b26752        0x2 
 .rodata.str1.4
                0x0000000001b26754       0x23 /home/jbrawley/Desktop/rockbox-photo-cf-support/build/apps/plugins/sdl/src/audio/SDL_audiocvt.o
 *fill*         0x0000000001b26777        0x1 
 .rodata        0x0000000001b26778      0x200 /home/jbrawley/Desktop/rockbox-photo-cf-support/build/apps/plugins/sdl/src/audio/SDL_mixer.o
 .rodata.str1.4
                0x0000000001b26978       0x25 /home/jbrawley/Desktop/rockbox-photo-cf-support/build/apps/plugins/sdl/src/audio/SDL_mixer.o
 *fill*         0x0000000001b2699d        0x3 
 .rodata        0x0000000001b269a0      0x1e4 /home/jbrawley/Desktop/rockbox-photo-cf-support/build/apps/plugins/sdl/src/audio/SDL_wave.o
 .rodata.str1.4
                0x0000000001b26b84      0x102 /home/jbrawley/Desktop/rockbox-photo-cf-support/build/apps/plugins/sdl/src/audio/SDL_wave.o
 *fill*         0x0000000001b26c86        0x2 
 .rodata.str1.4
                0x0000000001b26c88       0x4e /home/jbrawley/Desktop/rockbox-photo-cf-support/build/apps/plugins/sdl/src/audio/rockbox/SDL_rockboxaudio.o
 *fill*         0x0000000001b26cd6        0x2 
 .rodata.str1.4
                0x0000000001b26cd8       0x1a /home/jbrawley/Desktop/rockbox-photo-cf-support/build/apps/plugins/sdl/src/events/SDL_events.o
 *fill*         0x0000000001b26cf2        0x2 
 .rodata.str1.4
                0x0000000001b26cf4      0x6f9 /home/jbrawley/Desktop/rockbox-photo-cf-support/build/apps/plugins/sdl/src/events/SDL_keyboard.o
                                        0x799 (size before relaxing)
 *fill*         0x0000000001b273ed        0x3 
 .rodata.str1.4
                0x0000000001b273f0       0x9d /home/jbrawley/Desktop/rockbox-photo-cf-support/build/apps/plugins/sdl/src/file/SDL_rwops.o
 *fill*         0x0000000001b2748d        0x3 
 .rodata        0x0000000001b27490        0x5 /home/jbrawley/Desktop/rockbox-photo-cf-support/build/apps/plugins/sdl/src/joystick/SDL_joystick.o
 *fill*         0x0000000001b27495        0x3 
 .rodata.str1.4
                0x0000000001b27498       0xb5 /home/jbrawley/Desktop/rockbox-photo-cf-support/build/apps/plugins/sdl/src/joystick/SDL_joystick.o
 *fill*         0x0000000001b2754d        0x3 
 .rodata.str1.4
                0x0000000001b27550       0x24 /home/jbrawley/Desktop/rockbox-photo-cf-support/build/apps/plugins/sdl/src/joystick/dummy/SDL_sysjoystick.o
 .rodata        0x0000000001b27574       0x24 /home/jbrawley/Desktop/rockbox-photo-cf-support/build/apps/plugins/sdl/src/stdlib/SDL_string.o
 .rodata.str1.4
                0x0000000001b27598        0x8 /home/jbrawley/Desktop/rockbox-photo-cf-support/build/apps/plugins/sdl/src/stdlib/SDL_string.o
 .rodata.str1.4
                0x0000000001b275a0       0x33 /home/jbrawley/Desktop/rockbox-photo-cf-support/build/apps/plugins/sdl/src/thread/rockbox/SDL_sysmutex.o
 *fill*         0x0000000001b275d3        0x1 
 .rodata.str1.4
                0x0000000001b275d4       0x18 /home/jbrawley/Desktop/rockbox-photo-cf-support/build/apps/plugins/sdl/src/thread/rockbox/SDL_syssem.o
 .rodata.str1.4
                0x0000000001b275ec        0x7 /home/jbrawley/Desktop/rockbox-photo-cf-support/build/apps/plugins/sdl/src/thread/rockbox/SDL_systhread.o
 *fill*         0x0000000001b275f3        0x1 
 .rodata.str1.4
                0x0000000001b275f4       0xa5 /home/jbrawley/Desktop/rockbox-photo-cf-support/build/apps/plugins/sdl/src/timer/SDL_timer.o
 *fill*         0x0000000001b27699        0x3 
 .rodata.str1.4
                0x0000000001b2769c       0x2c /home/jbrawley/Desktop/rockbox-photo-cf-support/build/apps/plugins/sdl/src/timer/rockbox/SDL_systimer.o
 .rodata        0x0000000001b276c8       0x10 /home/jbrawley/Desktop/rockbox-photo-cf-support/build/apps/plugins/sdl/src/video/SDL_RLEaccel.o
 .rodata.str1.4
                0x0000000001b276d8       0x1f /home/jbrawley/Desktop/rockbox-photo-cf-support/build/apps/plugins/sdl/src/video/SDL_blit.o
 *fill*         0x0000000001b276f7        0x1 
 .rodata        0x0000000001b276f8       0x28 /home/jbrawley/Desktop/rockbox-photo-cf-support/build/apps/plugins/sdl/src/video/SDL_blit_0.o
 .rodata        0x0000000001b27720       0x28 /home/jbrawley/Desktop/rockbox-photo-cf-support/build/apps/plugins/sdl/src/video/SDL_blit_1.o
 .rodata        0x0000000001b27748     0x21c8 /home/jbrawley/Desktop/rockbox-photo-cf-support/build/apps/plugins/sdl/src/video/SDL_blit_N.o
 .rodata        0x0000000001b29910        0x2 /home/jbrawley/Desktop/rockbox-photo-cf-support/build/apps/plugins/sdl/src/video/SDL_bmp.o
 *fill*         0x0000000001b29912        0x2 
 .rodata.str1.4
                0x0000000001b29914       0xa1 /home/jbrawley/Desktop/rockbox-photo-cf-support/build/apps/plugins/sdl/src/video/SDL_bmp.o
                                         0xa5 (size before relaxing)
 *fill*         0x0000000001b299b5        0x3 
 .rodata.str1.4
                0x0000000001b299b8       0x5a /home/jbrawley/Desktop/rockbox-photo-cf-support/build/apps/plugins/sdl/src/video/SDL_cursor.o
 *fill*         0x0000000001b29a12        0x2 
 .rodata.str1.4
                0x0000000001b29a14      0x122 /home/jbrawley/Desktop/rockbox-photo-cf-support/build/apps/plugins/sdl/src/video/SDL_surface.o
 *fill*         0x0000000001b29b36        0x2 
 .rodata.str1.4
                0x0000000001b29b38      0x227 /home/jbrawley/Desktop/rockbox-photo-cf-support/build/apps/plugins/sdl/src/video/SDL_video.o
 *fill*         0x0000000001b29d5f        0x1 
 .rodata.str1.4
                0x0000000001b29d60       0xb1 /home/jbrawley/Desktop/rockbox-photo-cf-support/build/apps/plugins/sdl/src/video/rockbox/SDL_rockboxvideo.o
                                         0xb9 (size before relaxing)
 *fill*         0x0000000001b29e11        0x3 
 .rodata.str1.4
                0x0000000001b29e14       0x19 /home/jbrawley/Desktop/rockbox-photo-cf-support/build/apps/plugins/sdl/SDL_mixer/effect_position.o
                                         0x29 (size before relaxing)
 *fill*         0x0000000001b29e2d        0x3 
 .rodata.str1.4
                0x0000000001b29e30       0x14 /home/jbrawley/Desktop/rockbox-photo-cf-support/build/apps/plugins/sdl/SDL_mixer/effects_internal.o
 .rodata.str1.4
                0x0000000001b29e44       0xee /home/jbrawley/Desktop/rockbox-photo-cf-support/build/apps/plugins/sdl/SDL_mixer/load_aiff.o
                                         0xfe (size before relaxing)
 *fill*         0x0000000001b29f32        0x2 
 .rodata.str1.4
                0x0000000001b29f34      0x10b /home/jbrawley/Desktop/rockbox-photo-cf-support/build/apps/plugins/sdl/SDL_mixer/load_voc.o
 *fill*         0x0000000001b2a03f        0x1 
 .rodata.str1.4
                0x0000000001b2a040      0x1f2 /home/jbrawley/Desktop/rockbox-photo-cf-support/build/apps/plugins/sdl/SDL_mixer/mixer.o
                                        0x202 (size before relaxing)
 *fill*         0x0000000001b2a232        0x2 
 .rodata.str1.4
                0x0000000001b2a234      0x1f3 /home/jbrawley/Desktop/rockbox-photo-cf-support/build/apps/plugins/sdl/SDL_mixer/music.o
                                        0x233 (size before relaxing)
 *fill*         0x0000000001b2a427        0x1 
 .rodata.str1.4
                0x0000000001b2a428      0x10b /home/jbrawley/Desktop/rockbox-photo-cf-support/build/apps/plugins/sdl/SDL_mixer/timidity/common.o
                                        0x11b (size before relaxing)
 *fill*         0x0000000001b2a533        0x1 
 .rodata.str1.4
                0x0000000001b2a534       0x4d /home/jbrawley/Desktop/rockbox-photo-cf-support/build/apps/plugins/sdl/SDL_mixer/timidity/filter.o
 *fill*         0x0000000001b2a581        0x3 
 .rodata        0x0000000001b2a584       0x2e /home/jbrawley/Desktop/rockbox-photo-cf-support/build/apps/plugins/sdl/SDL_mixer/timidity/instrum.o
 *fill*         0x0000000001b2a5b2        0x2 
 .rodata.str1.4
                0x0000000001b2a5b4      0x3b1 /home/jbrawley/Desktop/rockbox-photo-cf-support/build/apps/plugins/sdl/SDL_mixer/timidity/instrum.o
                                        0x3b9 (size before relaxing)
 *fill*         0x0000000001b2a965        0x3 
 .rodata        0x0000000001b2a968      0x400 /home/jbrawley/Desktop/rockbox-photo-cf-support/build/apps/plugins/sdl/SDL_mixer/timidity/playmidi.o
 .rodata.str1.4
                0x0000000001b2ad68       0xa0 /home/jbrawley/Desktop/rockbox-photo-cf-support/build/apps/plugins/sdl/SDL_mixer/timidity/playmidi.o
 .rodata        0x0000000001b2ae08       0x20 /home/jbrawley/Desktop/rockbox-photo-cf-support/build/apps/plugins/sdl/SDL_mixer/timidity/readmidi.o
 .rodata.str1.4
                0x0000000001b2ae28      0x3b0 /home/jbrawley/Desktop/rockbox-photo-cf-support/build/apps/plugins/sdl/SDL_mixer/timidity/readmidi.o
                                        0x3c8 (size before relaxing)
 .rodata        0x0000000001b2b1d8       0x24 /home/jbrawley/Desktop/rockbox-photo-cf-support/build/apps/plugins/sdl/SDL_mixer/timidity/resample.o
 .rodata.str1.4
                0x0000000001b2b1fc       0x25 /home/jbrawley/Desktop/rockbox-photo-cf-support/build/apps/plugins/sdl/SDL_mixer/timidity/resample.o
 *fill*         0x0000000001b2b221        0x3 
 .rodata.str1.4
                0x0000000001b2b224        0xa /home/jbrawley/Desktop/rockbox-photo-cf-support/build/apps/plugins/sdl/SDL_mixer/timidity/sdl_a.o
 *fill*         0x0000000001b2b22e        0x2 
 .rodata.str1.4
                0x0000000001b2b230        0xe /home/jbrawley/Desktop/rockbox-photo-cf-support/build/apps/plugins/sdl/SDL_mixer/timidity/sdl_c.o
 *fill*         0x0000000001b2b23e        0x2 
 .rodata.str1.4
                0x0000000001b2b240      0x3de /home/jbrawley/Desktop/rockbox-photo-cf-support/build/apps/plugins/sdl/SDL_mixer/timidity/timidity.o
                                        0x40a (size before relaxing)
 *fill*         0x0000000001b2b61e        0x2 
 .rodata.str1.4
                0x0000000001b2b620      0x1bb /home/jbrawley/Desktop/rockbox-photo-cf-support/build/apps/plugins/sdl/progs/duke3d/Engine/src/cache.o
                                        0x1cb (size before relaxing)
 *fill*         0x0000000001b2b7db        0x1 
 .rodata        0x0000000001b2b7dc       0x28 /home/jbrawley/Desktop/rockbox-photo-cf-support/build/apps/plugins/sdl/progs/duke3d/Engine/src/display.o
 .rodata.str1.4
                0x0000000001b2b804      0x894 /home/jbrawley/Desktop/rockbox-photo-cf-support/build/apps/plugins/sdl/progs/duke3d/Engine/src/display.o
                                        0x8bc (size before relaxing)
 .rodata        0x0000000001b2c098        0x8 /home/jbrawley/Desktop/rockbox-photo-cf-support/build/apps/plugins/sdl/progs/duke3d/Engine/src/engine.o
 .rodata.str1.4
                0x0000000001b2c0a0       0x98 /home/jbrawley/Desktop/rockbox-photo-cf-support/build/apps/plugins/sdl/progs/duke3d/Engine/src/engine.o
 .rodata        0x0000000001b2c138      0x200 /home/jbrawley/Desktop/rockbox-photo-cf-support/build/apps/plugins/sdl/progs/duke3d/Engine/src/filesystem.o
 .rodata.str1.4
                0x0000000001b2c338      0x156 /home/jbrawley/Desktop/rockbox-photo-cf-support/build/apps/plugins/sdl/progs/duke3d/Engine/src/filesystem.o
                                        0x16d (size before relaxing)
 *fill*         0x0000000001b2c48e        0x2 
 .rodata        0x0000000001b2c490       0x20 /home/jbrawley/Desktop/rockbox-photo-cf-support/build/apps/plugins/sdl/progs/duke3d/Engine/src/fixedPoint_math.o
 .rodata.str1.4
                0x0000000001b2c4b0       0x3a /home/jbrawley/Desktop/rockbox-photo-cf-support/build/apps/plugins/sdl/progs/duke3d/Engine/src/tiles.o
 *fill*         0x0000000001b2c4ea        0x2 
 .rodata.str1.4
                0x0000000001b2c4ec       0xcf /home/jbrawley/Desktop/rockbox-photo-cf-support/build/apps/plugins/sdl/progs/duke3d/Game/src/audiolib/fx_man.o
 *fill*         0x0000000001b2c5bb        0x1 
 .rodata.str1.4
                0x0000000001b2c5bc       0x91 /home/jbrawley/Desktop/rockbox-photo-cf-support/build/apps/plugins/sdl/progs/duke3d/Game/src/audiolib/dsl.o
 *fill*         0x0000000001b2c64d        0x3 
 .rodata        0x0000000001b2c650        0x4 /home/jbrawley/Desktop/rockbox-photo-cf-support/build/apps/plugins/sdl/progs/duke3d/Game/src/audiolib/multivoc.o
                0x0000000001b2c650                MV_MaxVolume
 .rodata.str1.4
                0x0000000001b2c654      0x370 /home/jbrawley/Desktop/rockbox-photo-cf-support/build/apps/plugins/sdl/progs/duke3d/Game/src/audiolib/multivoc.o
                                        0x388 (size before relaxing)
 .rodata.str1.4
                0x0000000001b2c9c4       0x83 /home/jbrawley/Desktop/rockbox-photo-cf-support/build/apps/plugins/sdl/progs/duke3d/Game/src/audiolib/mvreverb.o
 *fill*         0x0000000001b2ca47        0x1 
 .rodata        0x0000000001b2ca48       0x18 /home/jbrawley/Desktop/rockbox-photo-cf-support/build/apps/plugins/sdl/progs/duke3d/Game/src/actors.o
 .rodata.str1.4
                0x0000000001b2ca60       0x42 /home/jbrawley/Desktop/rockbox-photo-cf-support/build/apps/plugins/sdl/progs/duke3d/Game/src/actors.o
 *fill*         0x0000000001b2caa2        0x2 
 .rodata.str1.4
                0x0000000001b2caa4       0x7f /home/jbrawley/Desktop/rockbox-photo-cf-support/build/apps/plugins/sdl/progs/duke3d/Game/src/animlib.o
 *fill*         0x0000000001b2cb23        0x1 
 .rodata.str1.4
                0x0000000001b2cb24      0x9fc /home/jbrawley/Desktop/rockbox-photo-cf-support/build/apps/plugins/sdl/progs/duke3d/Game/src/config.o
                                        0xa50 (size before relaxing)
 .rodata.str1.4
                0x0000000001b2d520       0x5c /home/jbrawley/Desktop/rockbox-photo-cf-support/build/apps/plugins/sdl/progs/duke3d/Game/src/console.o
                                         0x6c (size before relaxing)
 .rodata.str1.4
                0x0000000001b2d57c       0x29 /home/jbrawley/Desktop/rockbox-photo-cf-support/build/apps/plugins/sdl/progs/duke3d/Game/src/control.o
 *fill*         0x0000000001b2d5a5        0x3 
 .rodata.str1.4
                0x0000000001b2d5a8      0x411 /home/jbrawley/Desktop/rockbox-photo-cf-support/build/apps/plugins/sdl/progs/duke3d/Game/src/cvar_defs.o
                                        0x415 (size before relaxing)
 *fill*         0x0000000001b2d9b9        0x3 
 .rodata        0x0000000001b2d9bc       0xec /home/jbrawley/Desktop/rockbox-photo-cf-support/build/apps/plugins/sdl/progs/duke3d/Game/src/game.o
                0x0000000001b2daa4                baseDir
 .rodata.str1.4
                0x0000000001b2daa8     0x1992 /home/jbrawley/Desktop/rockbox-photo-cf-support/build/apps/plugins/sdl/progs/duke3d/Game/src/game.o
                                       0x19fe (size before relaxing)
 *fill*         0x0000000001b2f43a        0x2 
 .rodata.str1.4
                0x0000000001b2f43c     0x1083 /home/jbrawley/Desktop/rockbox-photo-cf-support/build/apps/plugins/sdl/progs/duke3d/Game/src/gamedef.o
                                       0x10bf (size before relaxing)
 *fill*         0x0000000001b304bf        0x1 
 .rodata.str1.4
                0x0000000001b304c0      0x1ef /home/jbrawley/Desktop/rockbox-photo-cf-support/build/apps/plugins/sdl/progs/duke3d/Game/src/global.o
                                        0x207 (size before relaxing)
 *fill*         0x0000000001b306af        0x1 
 .rodata        0x0000000001b306b0      0x338 /home/jbrawley/Desktop/rockbox-photo-cf-support/build/apps/plugins/sdl/progs/duke3d/Game/src/keyboard.o
 .rodata.str1.4
                0x0000000001b309e8      0x16f /home/jbrawley/Desktop/rockbox-photo-cf-support/build/apps/plugins/sdl/progs/duke3d/Game/src/keyboard.o
                                        0x233 (size before relaxing)
 *fill*         0x0000000001b30b57        0x1 
 .rodata.str1.4
                0x0000000001b30b58      0xf57 /home/jbrawley/Desktop/rockbox-photo-cf-support/build/apps/plugins/sdl/progs/duke3d/Game/src/menues.o
                                        0xfc7 (size before relaxing)
 *fill*         0x0000000001b31aaf        0x1 
 .rodata.str1.4
                0x0000000001b31ab0       0xb4 /home/jbrawley/Desktop/rockbox-photo-cf-support/build/apps/plugins/sdl/progs/duke3d/Game/src/midi/sdl_midi.o
                                         0xb8 (size before relaxing)
 .rodata        0x0000000001b31b64      0x2e4 /home/jbrawley/Desktop/rockbox-photo-cf-support/build/apps/plugins/sdl/progs/duke3d/Game/src/player.o
 .rodata.str1.4
                0x0000000001b31e48       0x73 /home/jbrawley/Desktop/rockbox-photo-cf-support/build/apps/plugins/sdl/progs/duke3d/Game/src/player.o
                                         0x83 (size before relaxing)
 *fill*         0x0000000001b31ebb        0x1 
 .rodata        0x0000000001b31ebc       0x50 /home/jbrawley/Desktop/rockbox-photo-cf-support/build/apps/plugins/sdl/progs/duke3d/Game/src/premap.o
 .rodata.str1.4
                0x0000000001b31f0c      0x2db /home/jbrawley/Desktop/rockbox-photo-cf-support/build/apps/plugins/sdl/progs/duke3d/Game/src/premap.o
                                        0x2f3 (size before relaxing)
 *fill*         0x0000000001b321e7        0x1 
 .rodata.str1.4
                0x0000000001b321e8       0xe8 /home/jbrawley/Desktop/rockbox-photo-cf-support/build/apps/plugins/sdl/progs/duke3d/Game/src/rts.o
 .rodata.str1.4
                0x0000000001b322d0       0xbf /home/jbrawley/Desktop/rockbox-photo-cf-support/build/apps/plugins/sdl/progs/duke3d/Game/src/scriplib.o
                                         0xed (size before relaxing)
 *fill*         0x0000000001b3238f        0x1 
 .rodata        0x0000000001b32390       0x22 /home/jbrawley/Desktop/rockbox-photo-cf-support/build/apps/plugins/sdl/progs/duke3d/Game/src/sounds.o
 *fill*         0x0000000001b323b2        0x2 
 .rodata.str1.4
                0x0000000001b323b4       0x70 /home/jbrawley/Desktop/rockbox-photo-cf-support/build/apps/plugins/sdl/progs/duke3d/Game/src/sounds.o
                                         0x79 (size before relaxing)
 .rodata        0x0000000001b32424      0x400 /home/jbrawley/Desktop/rockbox-photo-cf-support/build/lib/libtlsf.a(tlsf.o)
 .rodata.str1.1
                0x0000000001b32824       0xa2 /home/jbrawley/Desktop/rockbox-photo-cf-support/build/lib/libtlsf.a(tlsf.o)
 .rodata.str1.1
                0x0000000001b328c6       0x27 /home/jbrawley/Desktop/rockbox-photo-cf-support/build/apps/plugins/libplugin.a(stdio_compat.o)
 *fill*         0x0000000001b328ed        0x3 
 .rodata.atan_table
                0x0000000001b328f0       0x80 /home/jbrawley/Desktop/rockbox-photo-cf-support/build/lib/libfixedpoint.a(fixedpoint.o)

.ARM.exidx      0x0000000001b32970        0x8
 .ARM.exidx     0x0000000001b32970        0x8 /usr/local/lib/gcc/arm-elf-eabi/4.9.4/libgcc.a(_divdi3.o)
 .ARM.exidx     0x0000000001b32978        0x0 /usr/local/lib/gcc/arm-elf-eabi/4.9.4/libgcc.a(_udivdi3.o)
                                          0x8 (size before relaxing)

.rel.dyn        0x0000000001b32978        0x0
 .rel.iplt      0x0000000001b32978        0x0 /home/jbrawley/Desktop/rockbox-photo-cf-support/build/apps/plugins/sdl/main.o

.data           0x0000000001b32978     0x9d98
 *(.data*)
 .data          0x0000000001b32978        0x1 /home/jbrawley/Desktop/rockbox-photo-cf-support/build/apps/plugins/sdl/main.o
                0x0000000001b32978                printf_enabled
 *fill*         0x0000000001b32979        0x3 
 .data          0x0000000001b3297c        0xc /home/jbrawley/Desktop/rockbox-photo-cf-support/build/apps/plugins/sdl/wrappers.o
 .data          0x0000000001b32988        0x3 /home/jbrawley/Desktop/rockbox-photo-cf-support/build/apps/plugins/sdl/src/SDL.o
 *fill*         0x0000000001b3298b        0x1 
 .data          0x0000000001b3298c       0x10 /home/jbrawley/Desktop/rockbox-photo-cf-support/build/apps/plugins/sdl/src/audio/rockbox/SDL_rockboxaudio.o
                0x0000000001b3298c                ROCKBOXAUD_bootstrap
 .data          0x0000000001b3299c        0x4 /home/jbrawley/Desktop/rockbox-photo-cf-support/build/apps/plugins/sdl/src/cpuinfo/SDL_cpuinfo.o
 .data          0x0000000001b329a0       0x48 /home/jbrawley/Desktop/rockbox-photo-cf-support/build/apps/plugins/sdl/src/video/SDL_cursor.o
                0x0000000001b329a4                rb_SDL_cursorstate
 .data          0x0000000001b329e8       0x20 /home/jbrawley/Desktop/rockbox-photo-cf-support/build/apps/plugins/sdl/src/video/SDL_video.o
 .data          0x0000000001b32a08       0x18 /home/jbrawley/Desktop/rockbox-photo-cf-support/build/apps/plugins/sdl/src/video/rockbox/SDL_rockboxvideo.o
                0x0000000001b32a10                ROCKBOX_bootstrap
 .data          0x0000000001b32a20        0x4 /home/jbrawley/Desktop/rockbox-photo-cf-support/build/apps/plugins/sdl/SDL_mixer/mixer.o
 .data          0x0000000001b32a24        0x8 /home/jbrawley/Desktop/rockbox-photo-cf-support/build/apps/plugins/sdl/SDL_mixer/music.o
                0x0000000001b32a28                music_active
 .data          0x0000000001b32a2c        0xc /home/jbrawley/Desktop/rockbox-photo-cf-support/build/apps/plugins/sdl/SDL_mixer/timidity/ctrlmode.o
                0x0000000001b32a2c                ctl
                0x0000000001b32a30                ctl_list
 .data          0x0000000001b32a38      0x414 /home/jbrawley/Desktop/rockbox-photo-cf-support/build/apps/plugins/sdl/SDL_mixer/timidity/instrum.o
                0x0000000001b32a38                max_patch_memory
                0x0000000001b32a3c                tonebank
                0x0000000001b32c44                drumset
 .data          0x0000000001b32e4c        0xc /home/jbrawley/Desktop/rockbox-photo-cf-support/build/apps/plugins/sdl/SDL_mixer/timidity/output.o
                0x0000000001b32e4c                play_mode
                0x0000000001b32e50                play_mode_list
 .data          0x0000000001b32e58        0xc /home/jbrawley/Desktop/rockbox-photo-cf-support/build/apps/plugins/sdl/SDL_mixer/timidity/playmidi.o
                0x0000000001b32e58                amplification
                0x0000000001b32e5c                voices
                0x0000000001b32e60                drumchannels
 .data          0x0000000001b32e64        0xc /home/jbrawley/Desktop/rockbox-photo-cf-support/build/apps/plugins/sdl/SDL_mixer/timidity/sdl_a.o
                0x0000000001b32e64                sdl_play_mode
 .data          0x0000000001b32e70       0x5c /home/jbrawley/Desktop/rockbox-photo-cf-support/build/apps/plugins/sdl/SDL_mixer/timidity/sdl_c.o
                0x0000000001b32e70                sdl_control_mode
 *fill*         0x0000000001b32ecc        0x4 
 .data          0x0000000001b32ed0     0x7488 /home/jbrawley/Desktop/rockbox-photo-cf-support/build/apps/plugins/sdl/SDL_mixer/timidity/tables.o
                0x0000000001b32ed0                xmap
                0x0000000001b36d50                _l2u
                0x0000000001b36d54                _l2u_
                0x0000000001b38d58                bend_coarse
                0x0000000001b39158                bend_fine
                0x0000000001b39958                expr_table
                0x0000000001b39d58                vol_table
                0x0000000001b3a158                freq_table
 .data          0x0000000001b3a358      0x200 /home/jbrawley/Desktop/rockbox-photo-cf-support/build/apps/plugins/sdl/progs/duke3d/Engine/src/cache.o
                0x0000000001b3a358                game_dir
 .data          0x0000000001b3a558        0x8 /home/jbrawley/Desktop/rockbox-photo-cf-support/build/apps/plugins/sdl/progs/duke3d/Engine/src/display.o
                0x0000000001b3a55c                total_render_time
 .data          0x0000000001b3a560        0x8 /home/jbrawley/Desktop/rockbox-photo-cf-support/build/apps/plugins/sdl/progs/duke3d/Engine/src/draw.o
                0x0000000001b3a560                pixelsAllowed
 .data          0x0000000001b3a568        0x2 /home/jbrawley/Desktop/rockbox-photo-cf-support/build/apps/plugins/sdl/progs/duke3d/Engine/src/dummy_multi.o
                0x0000000001b3a568                numplayers
 *fill*         0x0000000001b3a56a        0x2 
 .data          0x0000000001b3a56c       0xc4 /home/jbrawley/Desktop/rockbox-photo-cf-support/build/apps/plugins/sdl/progs/duke3d/Engine/src/engine.o
                0x0000000001b3a56c                xdimen
                0x0000000001b3a570                pow2char
                0x0000000001b3a578                pow2long
                0x0000000001b3a5fc                searchx
                0x0000000001b3a600                permanentlock
                0x0000000001b3a604                artfil
                0x0000000001b3a608                beforedrawrooms
                0x0000000001b3a60c                stereopixelwidth
                0x0000000001b3a610                ostereopixelwidth
                0x0000000001b3a614                clipmoveboxtracenum
                0x0000000001b3a618                stereowidth
                0x0000000001b3a61c                oxyaspect
                0x0000000001b3a620                oxdimen
                0x0000000001b3a624                oviewingrange
                0x0000000001b3a628                hitscangoalx
                0x0000000001b3a62c                hitscangoaly
 .data          0x0000000001b3a630      0x83b /home/jbrawley/Desktop/rockbox-photo-cf-support/build/apps/plugins/sdl/progs/duke3d/Engine/src/icon.o
                0x0000000001b3a630                iconBMP_size
                0x0000000001b3a634                iconBMP
 *fill*         0x0000000001b3ae6b        0x1 
 .data          0x0000000001b3ae6c        0x4 /home/jbrawley/Desktop/rockbox-photo-cf-support/build/apps/plugins/sdl/progs/duke3d/Game/src/audiolib/fx_man.o
                0x0000000001b3ae6c                FX_SoundDevice
 .data          0x0000000001b3ae70       0x2c /home/jbrawley/Desktop/rockbox-photo-cf-support/build/apps/plugins/sdl/progs/duke3d/Game/src/audiolib/multivoc.o
                0x0000000001b3ae70                MV_Channels
                0x0000000001b3ae78                MV_BufferSize
                0x0000000001b3ae7c                MV_SampleSize
 .data          0x0000000001b3ae9c      0x4b0 /home/jbrawley/Desktop/rockbox-photo-cf-support/build/apps/plugins/sdl/progs/duke3d/Game/src/audiolib/pitch.o
 .data          0x0000000001b3b34c      0x57c /home/jbrawley/Desktop/rockbox-photo-cf-support/build/apps/plugins/sdl/progs/duke3d/Game/src/config.o
                0x0000000001b3b54c                gamefunctions
                0x0000000001b3b628                keydefaults
                0x0000000001b3b8bc                ScreenWidth
                0x0000000001b3b8c0                ScreenHeight
                0x0000000001b3b8c4                ScreenMode
 .data          0x0000000001b3b8c8      0x200 /home/jbrawley/Desktop/rockbox-photo-cf-support/build/apps/plugins/sdl/progs/duke3d/Game/src/game.o
                0x0000000001b3b8c8                g_iTickRate
                0x0000000001b3b8d0                sendmessagecommand
                0x0000000001b3b8d8                cheatquotes
                0x0000000001b3ba44                confilename
                0x0000000001b3bac4                g_iTicksPerFrame
 .data          0x0000000001b3bac8      0x1cc /home/jbrawley/Desktop/rockbox-photo-cf-support/build/apps/plugins/sdl/progs/duke3d/Game/src/gamedef.o
                0x0000000001b3bac8                keyw
                0x0000000001b3bc88                defaultcons
 .data          0x0000000001b3bc94      0x9c8 /home/jbrawley/Desktop/rockbox-photo-cf-support/build/apps/plugins/sdl/progs/duke3d/Game/src/global.o
                0x0000000001b3bc94                bufferjitter
                0x0000000001b3bc98                numfreezebounces
                0x0000000001b3bc9c                movesperpacket
                0x0000000001b3bc9d                networkmode
                0x0000000001b3bca0                myname
                0x0000000001b3c4a0                dukefriction
                0x0000000001b3c4a4                weaponsandammosprites
                0x0000000001b3c4c4                respawnitemtime
                0x0000000001b3c4c8                respawnactortime
                0x0000000001b3c4cc                skill_names
                0x0000000001b3c574                volume_names
                0x0000000001b3c5f8                spriteqamount
                0x0000000001b3c5fc                BYTEVERSION
                0x0000000001b3c600                BYTEVERSION_1_3
                0x0000000001b3c604                BYTEVERSION_118
                0x0000000001b3c608                BYTEVERSION_29
                0x0000000001b3c60c                BYTEVERSION_117
                0x0000000001b3c610                BYTEVERSION_28
                0x0000000001b3c614                BYTEVERSION_116
                0x0000000001b3c618                BYTEVERSION_27
                0x0000000001b3c61c                conVersion
                0x0000000001b3c620                crc32lookup
 .data          0x0000000001b3c65c        0xd /home/jbrawley/Desktop/rockbox-photo-cf-support/build/apps/plugins/sdl/progs/duke3d/Game/src/menues.o
                0x0000000001b3c664                lastsavedpos
                0x0000000001b3c666                globalskillsound
 *fill*         0x0000000001b3c669        0x3 
 .data          0x0000000001b3c66c       0x18 /home/jbrawley/Desktop/rockbox-photo-cf-support/build/apps/plugins/sdl/progs/duke3d/Game/src/player.o
                0x0000000001b3c66c                weapon_sprites
 .data          0x0000000001b3c684        0x2 /home/jbrawley/Desktop/rockbox-photo-cf-support/build/apps/plugins/sdl/progs/duke3d/Game/src/premap.o
                0x0000000001b3c684                which_palookup
 *fill*         0x0000000001b3c686        0x2 
 .data          0x0000000001b3c688        0x4 /home/jbrawley/Desktop/rockbox-photo-cf-support/build/apps/plugins/plugin_crt0.o
                0x0000000001b3c688                rb
 .data.__file__
                0x0000000001b3c68c       0x84 /home/jbrawley/Desktop/rockbox-photo-cf-support/build/apps/plugins/libplugin.a(stdio_compat.o)

.igot.plt       0x0000000001b3c710        0x0
 .igot.plt      0x0000000001b3c710        0x0 /home/jbrawley/Desktop/rockbox-photo-cf-support/build/apps/plugins/sdl/main.o

.ncdata         0x0000000011b3c710        0x0 load address 0x0000000001b3c710
                0x0000000011b3c710                . = ALIGN (0x10)
 *fill*         0x0000000011b3c710        0x0 
 *(.ncdata*)
                0x0000000011b3c710                . = ALIGN (0x10)
                0x0000000001b3c710                bssaddr = (. - 0x10000000)
                0x0000000001b3c710                iramcopy = (. - 0x10000000)

/DISCARD/
 *(.eh_frame)

.bss            0x0000000001b3c710   0x3434e8
                0x0000000001b3c710                plugin_bss_start = .
                0x0000000001b3c710                _plugin_bss_start = .
 *(.bss*)
 .bss           0x0000000001b3c710   0x100008 /home/jbrawley/Desktop/rockbox-photo-cf-support/build/apps/plugins/sdl/main.o
                0x0000000001b3c714                audiobuf
 .bss           0x0000000001c3c718       0x2c /home/jbrawley/Desktop/rockbox-photo-cf-support/build/apps/plugins/sdl/wrappers.o
 .bss           0x0000000001c3c744        0x8 /home/jbrawley/Desktop/rockbox-photo-cf-support/build/apps/plugins/sdl/src/SDL.o
 .bss           0x0000000001c3c74c      0x400 /home/jbrawley/Desktop/rockbox-photo-cf-support/build/apps/plugins/sdl/src/SDL_error.o
 .bss           0x0000000001c3cb4c        0xc /home/jbrawley/Desktop/rockbox-photo-cf-support/build/apps/plugins/sdl/src/audio/SDL_audio.o
                0x0000000001c3cb4c                current_audio
 .bss           0x0000000001c3cb58       0x64 /home/jbrawley/Desktop/rockbox-photo-cf-support/build/apps/plugins/sdl/src/audio/SDL_wave.o
 .bss           0x0000000001c3cbbc      0x804 /home/jbrawley/Desktop/rockbox-photo-cf-support/build/apps/plugins/sdl/src/audio/rockbox/SDL_rockboxaudio.o
                0x0000000001c3d3bc                current_dev
 .bss           0x0000000001c3d3c0        0x1 /home/jbrawley/Desktop/rockbox-photo-cf-support/build/apps/plugins/sdl/src/events/SDL_active.o
 *fill*         0x0000000001c3d3c1        0x3 
 .bss           0x0000000001c3d3c4      0xc2c /home/jbrawley/Desktop/rockbox-photo-cf-support/build/apps/plugins/sdl/src/events/SDL_events.o
                0x0000000001c3dfe8                rb_SDL_EventOK
 .bss           0x0000000001c3dff0      0x658 /home/jbrawley/Desktop/rockbox-photo-cf-support/build/apps/plugins/sdl/src/events/SDL_keyboard.o
                0x0000000001c3dff0                rb_SDL_TranslateUNICODE
 .bss           0x0000000001c3e648        0xd /home/jbrawley/Desktop/rockbox-photo-cf-support/build/apps/plugins/sdl/src/events/SDL_mouse.o
 *fill*         0x0000000001c3e655        0x3 
 .bss           0x0000000001c3e658        0x8 /home/jbrawley/Desktop/rockbox-photo-cf-support/build/apps/plugins/sdl/src/events/SDL_resize.o
 .bss           0x0000000001c3e660        0xc /home/jbrawley/Desktop/rockbox-photo-cf-support/build/apps/plugins/sdl/src/joystick/SDL_joystick.o
                0x0000000001c3e660                rb_SDL_numjoysticks
                0x0000000001c3e664                rb_SDL_allocatedjoysticks
                0x0000000001c3e668                rb_SDL_joysticks
 .bss           0x0000000001c3e66c        0x4 /home/jbrawley/Desktop/rockbox-photo-cf-support/build/apps/plugins/sdl/src/stdlib/SDL_getenv.o
 .bss           0x0000000001c3e670      0x31c /home/jbrawley/Desktop/rockbox-photo-cf-support/build/apps/plugins/sdl/src/thread/SDL_thread.o
 .bss           0x0000000001c3e98c     0x4048 /home/jbrawley/Desktop/rockbox-photo-cf-support/build/apps/plugins/sdl/src/thread/rockbox/SDL_systhread.o
 .bss           0x0000000001c429d4       0x1c /home/jbrawley/Desktop/rockbox-photo-cf-support/build/apps/plugins/sdl/src/timer/SDL_timer.o
                0x0000000001c429d4                rb_SDL_timer_started
                0x0000000001c429e0                rb_SDL_timer_running
                0x0000000001c429ec                rb_SDL_alarm_interval
 .bss           0x0000000001c429f0        0xc /home/jbrawley/Desktop/rockbox-photo-cf-support/build/apps/plugins/sdl/src/timer/rockbox/SDL_systimer.o
 .bss           0x0000000001c429fc       0x10 /home/jbrawley/Desktop/rockbox-photo-cf-support/build/apps/plugins/sdl/src/video/SDL_cursor.o
                0x0000000001c429fc                rb_SDL_cursor
                0x0000000001c42a04                rb_SDL_cursorlock
 .bss           0x0000000001c42a0c        0x4 /home/jbrawley/Desktop/rockbox-photo-cf-support/build/apps/plugins/sdl/src/video/SDL_pixels.o
 .bss           0x0000000001c42a10        0x4 /home/jbrawley/Desktop/rockbox-photo-cf-support/build/apps/plugins/sdl/src/video/SDL_video.o
                0x0000000001c42a10                current_video
 .bss           0x0000000001c42a14        0x9 /home/jbrawley/Desktop/rockbox-photo-cf-support/build/apps/plugins/sdl/src/video/rockbox/SDL_rockboxvideo.o
 *fill*         0x0000000001c42a1d        0x3 
 .bss           0x0000000001c42a20       0x12 /home/jbrawley/Desktop/rockbox-photo-cf-support/build/apps/plugins/sdl/SDL_mixer/effect_position.o
 *fill*         0x0000000001c42a32        0x2 
 .bss           0x0000000001c42a34        0x8 /home/jbrawley/Desktop/rockbox-photo-cf-support/build/apps/plugins/sdl/SDL_mixer/effects_internal.o
                0x0000000001c42a34                _Mix_effects_max_speed
                0x0000000001c42a38                _Eff_volume_table
 .bss           0x0000000001c42a3c       0x4c /home/jbrawley/Desktop/rockbox-photo-cf-support/build/apps/plugins/sdl/SDL_mixer/mixer.o
 .bss           0x0000000001c42a88       0x2c /home/jbrawley/Desktop/rockbox-photo-cf-support/build/apps/plugins/sdl/SDL_mixer/music.o
                0x0000000001c42ab0                soundfont_paths
 .bss           0x0000000001c42ab4        0x4 /home/jbrawley/Desktop/rockbox-photo-cf-support/build/apps/plugins/sdl/SDL_mixer/timidity/common.o
 .bss           0x0000000001c42ab8     0x3024 /home/jbrawley/Desktop/rockbox-photo-cf-support/build/apps/plugins/sdl/SDL_mixer/timidity/instrum.o
                0x0000000001c42ab8                current_patch_memory
                0x0000000001c42abc                last_tune_purged
                0x0000000001c42ac0                current_tune_number
                0x0000000001c42ac4                fast_decay
                0x0000000001c42ac8                antialiasing_allowed
                0x0000000001c45ad4                default_instrument
                0x0000000001c45ad8                default_program
 .bss           0x0000000001c45adc       0x38 /home/jbrawley/Desktop/rockbox-photo-cf-support/build/apps/plugins/sdl/SDL_mixer/timidity/playmidi.o
                0x0000000001c45af0                XG_System_On
                0x0000000001c45b04                adjust_panning_immediately
                0x0000000001c45b08                GS_System_On
                0x0000000001c45b0c                GM_System_On
                0x0000000001c45b10                control_ratio
 .bss           0x0000000001c45b14       0xd0 /home/jbrawley/Desktop/rockbox-photo-cf-support/build/apps/plugins/sdl/SDL_mixer/timidity/readmidi.o
                0x0000000001c45b24                quietchannels
 .bss           0x0000000001c45be4      0x510 /home/jbrawley/Desktop/rockbox-photo-cf-support/build/apps/plugins/sdl/SDL_mixer/timidity/timidity.o
                0x0000000001c45ce8                resample_buffer
                0x0000000001c45cec                common_buffer
                0x0000000001c45cf0                timidity_error
                0x0000000001c460f0                free_instruments_afterwards
 .bss           0x0000000001c460f4       0x18 /home/jbrawley/Desktop/rockbox-photo-cf-support/build/apps/plugins/sdl/progs/duke3d/Engine/src/cache.o
                0x0000000001c460f4                cachestart
                0x0000000001c460fc                zerochar
                0x0000000001c46100                cacnum
                0x0000000001c46104                agecount
                0x0000000001c46108                cachecount
 *fill*         0x0000000001c4610c        0x4 
 .bss           0x0000000001c46110      0x555 /home/jbrawley/Desktop/rockbox-photo-cf-support/build/apps/plugins/sdl/progs/duke3d/Engine/src/display.o
                0x0000000001c46110                surface
                0x0000000001c46650                total_rendered_frames
                0x0000000001c46664                permanentupdate
 *fill*         0x0000000001c46665        0x3 
 .bss           0x0000000001c46668       0xac /home/jbrawley/Desktop/rockbox-photo-cf-support/build/apps/plugins/sdl/progs/duke3d/Engine/src/draw.o
                0x0000000001c466a4                transluc
 .bss           0x0000000001c46714        0x2 /home/jbrawley/Desktop/rockbox-photo-cf-support/build/apps/plugins/sdl/progs/duke3d/Engine/src/dummy_multi.o
                0x0000000001c46714                myconnectindex
 *fill*         0x0000000001c46716        0x2 
 .bss           0x0000000001c46718    0x3f638 /home/jbrawley/Desktop/rockbox-photo-cf-support/build/apps/plugins/sdl/progs/duke3d/Engine/src/engine.o
                0x0000000001c4dbec                horizlookup2
                0x0000000001c4dbf0                globvis
                0x0000000001c4dbf4                transarea
                0x0000000001c4dbf8                horizlookup
                0x0000000001c69180                stereomode
                0x0000000001c7ae20                paletteloaded
                0x0000000001c7bd04                qsetmode
                0x0000000001c81914                moustat
                0x0000000001c81916                editstatus
                0x0000000001c81918                curbrightness
                0x0000000001c8191c                setviewcnt
                0x0000000001c85d44                pixelRenderable
                0x0000000001c85d48                cachesize
                0x0000000001c85d4c                artsize
 .bss           0x0000000001c85d50      0x598 /home/jbrawley/Desktop/rockbox-photo-cf-support/build/apps/plugins/sdl/progs/duke3d/Engine/src/filesystem.o
 .bss           0x0000000001c862e8     0x8388 /home/jbrawley/Desktop/rockbox-photo-cf-support/build/apps/plugins/sdl/progs/duke3d/Engine/src/mmulti.o
                0x0000000001c8e66a                syncstate
                0x0000000001c8e66c                itmp
 .bss           0x0000000001c8e670        0x4 /home/jbrawley/Desktop/rockbox-photo-cf-support/build/apps/plugins/sdl/progs/duke3d/Engine/src/network.o
                0x0000000001c8e670                nNetMode
 .bss           0x0000000001c8e674        0x4 /home/jbrawley/Desktop/rockbox-photo-cf-support/build/apps/plugins/sdl/progs/duke3d/Engine/src/tiles.o
                0x0000000001c8e674                pic
 .bss           0x0000000001c8e678        0xc /home/jbrawley/Desktop/rockbox-photo-cf-support/build/apps/plugins/sdl/progs/duke3d/Game/src/audiolib/fx_man.o
                0x0000000001c8e678                FX_ErrorCode
                0x0000000001c8e67c                FX_Installed
 .bss           0x0000000001c8e684       0x28 /home/jbrawley/Desktop/rockbox-photo-cf-support/build/apps/plugins/sdl/progs/duke3d/Game/src/audiolib/dsl.o
 .bss           0x0000000001c8e6ac     0x1184 /home/jbrawley/Desktop/rockbox-photo-cf-support/build/apps/plugins/sdl/progs/duke3d/Game/src/audiolib/multivoc.o
                0x0000000001c8e6ac                MV_FooBuffer
                0x0000000001c8e6b0                MV_MixPage
                0x0000000001c8e7f8                MV_ErrorCode
 .bss           0x0000000001c8f830       0x10 /home/jbrawley/Desktop/rockbox-photo-cf-support/build/apps/plugins/sdl/progs/duke3d/Game/src/audiolib/mv_mix.o
                0x0000000001c8f830                fp_calls
 .bss           0x0000000001c8f840       0x6c /home/jbrawley/Desktop/rockbox-photo-cf-support/build/apps/plugins/sdl/progs/duke3d/Game/src/audiolib/mvreverb.o
 .bss           0x0000000001c8f8ac        0x8 /home/jbrawley/Desktop/rockbox-photo-cf-support/build/apps/plugins/sdl/progs/duke3d/Game/src/animlib.o
                0x0000000001c8f8b0                anim
 .bss           0x0000000001c8f8b4       0x10 /home/jbrawley/Desktop/rockbox-photo-cf-support/build/apps/plugins/sdl/progs/duke3d/Game/src/config.o
                0x0000000001c8f8b8                MouseAiming
                0x0000000001c8f8c0                BFullScreen
 .bss           0x0000000001c8f8c4       0x1c /home/jbrawley/Desktop/rockbox-photo-cf-support/build/apps/plugins/sdl/progs/duke3d/Game/src/console.o
                0x0000000001c8f8c4                console_buffer
                0x0000000001c8f8c8                p_console_current_view
                0x0000000001c8f8cc                console_used_command_list
                0x0000000001c8f8d0                console_used_command_list_current
                0x0000000001c8f8d4                nConsole_Active
                0x0000000001c8f8d8                console_cursor_pos
                0x0000000001c8f8dc                console_num_spaces
 .bss           0x0000000001c8f8e0      0x1b8 /home/jbrawley/Desktop/rockbox-photo-cf-support/build/apps/plugins/sdl/progs/duke3d/Game/src/control.o
 .bss           0x0000000001c8fa98        0x4 /home/jbrawley/Desktop/rockbox-photo-cf-support/build/apps/plugins/sdl/progs/duke3d/Game/src/cvars.o
                0x0000000001c8fa98                num_cvar_bindings
 .bss           0x0000000001c8fa9c      0x142 /home/jbrawley/Desktop/rockbox-photo-cf-support/build/apps/plugins/sdl/progs/duke3d/Game/src/game.o
                0x0000000001c8fa9c                boardfilename
                0x0000000001c8fb68                inputloc
                0x0000000001c8fb6c                cameradist
                0x0000000001c8fb70                cameraclock
                0x0000000001c8fb74                actor_tog
                0x0000000001c8fb75                debug_on
                0x0000000001c8fb76                g_bStun
                0x0000000001c8fb78                nHostForceDisableAutoaim
                0x0000000001c8fb79                eightytwofifty
                0x0000000001c8fb7c                CommandSoundToggleOff
                0x0000000001c8fb80                CommandMusicToggleOff
                0x0000000001c8fb84                memorycheckoveride
                0x0000000001c8fb88                firstdemofile
                0x0000000001c8fbd8                frecfilep
                0x0000000001c8fbdc                in_menu
                0x0000000001c8fbdd                which_demo
 *fill*         0x0000000001c8fbde        0x2 
 .bss           0x0000000001c8fbe0       0x20 /home/jbrawley/Desktop/rockbox-photo-cf-support/build/apps/plugins/sdl/progs/duke3d/Game/src/gamedef.o
 .bss           0x0000000001c8fc00       0x17 /home/jbrawley/Desktop/rockbox-photo-cf-support/build/apps/plugins/sdl/progs/duke3d/Game/src/global.o
                0x0000000001c8fc04                startofdynamicinterpolations
                0x0000000001c8fc08                numinterpolations
                0x0000000001c8fc0c                totalmemory
                0x0000000001c8fc10                cloudtotalclock
                0x0000000001c8fc14                gamequit
                0x0000000001c8fc15                freezerhurtowner
                0x0000000001c8fc16                grpVersion
 *fill*         0x0000000001c8fc17        0x1 
 .bss           0x0000000001c8fc18      0x188 /home/jbrawley/Desktop/rockbox-photo-cf-support/build/apps/plugins/sdl/progs/duke3d/Game/src/keyboard.o
 .bss           0x0000000001c8fda0     0x152c /home/jbrawley/Desktop/rockbox-photo-cf-support/build/apps/plugins/sdl/progs/duke3d/Game/src/menues.o
                0x0000000001c8fda0                probey
                0x0000000001c8fda2                last_threehundred
                0x0000000001c8fda4                lastprobey
                0x0000000001c90eb8                quittimer
                0x0000000001c90ec8                lastanimhack
                0x0000000001c90ecc                szCurrentDirectory
 .bss           0x0000000001c912cc      0x218 /home/jbrawley/Desktop/rockbox-photo-cf-support/build/apps/plugins/sdl/progs/duke3d/Game/src/player.o
                0x0000000001c912cc                myaimmode
                0x0000000001c912d0                omyaimstat
                0x0000000001c912d4                myaimstat
 .bss           0x0000000001c914e4        0x9 /home/jbrawley/Desktop/rockbox-photo-cf-support/build/apps/plugins/sdl/progs/duke3d/Game/src/rts.o
 *fill*         0x0000000001c914ed        0x3 
 .bss           0x0000000001c914f0       0x1c /home/jbrawley/Desktop/rockbox-photo-cf-support/build/apps/plugins/sdl/progs/duke3d/Game/src/scriplib.o
 .bss           0x0000000001c9150c        0x1 /home/jbrawley/Desktop/rockbox-photo-cf-support/build/apps/plugins/sdl/progs/duke3d/Game/src/sounds.o
                0x0000000001c9150c                menunum
 *fill*         0x0000000001c9150d        0x3 
 .bss           0x0000000001c91510       0x60 /home/jbrawley/Desktop/rockbox-photo-cf-support/build/apps/plugins/plugin_crt0.o
 .bss           0x0000000001c91570        0x4 /home/jbrawley/Desktop/rockbox-photo-cf-support/build/lib/libtlsf.a(tlsf.o)
 .bss._stderr_  0x0000000001c91574        0x4 /home/jbrawley/Desktop/rockbox-photo-cf-support/build/apps/plugins/libplugin.a(stdio_compat.o)
                0x0000000001c91574                _stderr_
 *(COMMON)
 COMMON         0x0000000001c91578       0x10 /home/jbrawley/Desktop/rockbox-photo-cf-support/build/apps/plugins/sdl/main.o
                0x0000000001c91578                sdl_thread_id
                0x0000000001c9157c                main_thread_id
                0x0000000001c91580                prog_idx
                0x0000000001c91584                main_fn
 COMMON         0x0000000001c91588        0x4 /home/jbrawley/Desktop/rockbox-photo-cf-support/build/apps/plugins/sdl/src/audio/rockbox/SDL_rockboxaudio.o
                0x0000000001c91588                rbaud_underruns
 COMMON         0x0000000001c9158c       0x20 /home/jbrawley/Desktop/rockbox-photo-cf-support/build/apps/plugins/sdl/src/events/SDL_events.o
                0x0000000001c9158c                rb_SDL_ProcessEvents
 COMMON         0x0000000001c915ac       0x20 /home/jbrawley/Desktop/rockbox-photo-cf-support/build/apps/plugins/sdl/src/events/SDL_keyboard.o
                0x0000000001c915ac                rb_SDL_KeyRepeat
 COMMON         0x0000000001c915cc        0x4 /home/jbrawley/Desktop/rockbox-photo-cf-support/build/apps/plugins/sdl/src/timer/SDL_timer.o
                0x0000000001c915cc                rb_SDL_alarm_callback
 COMMON         0x0000000001c915d0       0x58 /home/jbrawley/Desktop/rockbox-photo-cf-support/build/apps/plugins/sdl/src/video/rockbox/SDL_rockboxvideo.o
                0x0000000001c915d0                rb_keymap
 COMMON         0x0000000001c91628      0x400 /home/jbrawley/Desktop/rockbox-photo-cf-support/build/apps/plugins/sdl/SDL_mixer/timidity/common.o
                0x0000000001c91628                current_filename
 COMMON         0x0000000001c91a28    0x1ed98 /home/jbrawley/Desktop/rockbox-photo-cf-support/build/apps/plugins/sdl/SDL_mixer/timidity/playmidi.o
                0x0000000001c91a28                drumvolume
                0x0000000001c92228                master_volume
                0x0000000001c92230                voice
                0x0000000001caea30                XG_System_chorus_type
                0x0000000001caea34                drumreverberation
                0x0000000001caf234                drumchorusdepth
                0x0000000001cafa38                channel
                0x0000000001caffb8                drumpanpot
                0x0000000001cb07b8                XG_System_variation_type
                0x0000000001cb07bc                XG_System_reverb_type
 COMMON         0x0000000001cb07c0      0x105 /home/jbrawley/Desktop/rockbox-photo-cf-support/build/apps/plugins/sdl/SDL_mixer/timidity/readmidi.o
                0x0000000001cb07c0                midi_name
 *fill*         0x0000000001cb08c5        0x3 
 COMMON         0x0000000001cb08c8        0xc /home/jbrawley/Desktop/rockbox-photo-cf-support/build/apps/plugins/sdl/SDL_mixer/timidity/timidity.o
                0x0000000001cb08c8                AUDIO_BUFFER_SIZE
                0x0000000001cb08cc                num_ochannels
                0x0000000001cb08d0                s32tobuf
 COMMON         0x0000000001cb08d4    0x1b354 /home/jbrawley/Desktop/rockbox-photo-cf-support/build/apps/plugins/sdl/progs/duke3d/Engine/src/cache.o
                0x0000000001cb08d4                _argv
                0x0000000001cb08d8                sounddebugAllocateSoundCalls
                0x0000000001cb08dc                cac
                0x0000000001ccb8dc                g_CV_TransConsole
                0x0000000001ccb8e0                g_CV_classic
                0x0000000001ccb8e4                lockrecip
                0x0000000001ccbc04                sounddebugActiveSounds
                0x0000000001ccbc08                g_CV_num_console_lines
                0x0000000001ccbc0c                sounddebugDeallocateSoundCalls
                0x0000000001ccbc10                g_CV_DebugFileAccess
                0x0000000001ccbc14                g_CV_DebugJoystick
                0x0000000001ccbc18                g_CV_DebugSound
                0x0000000001ccbc1c                _argc
                0x0000000001ccbc20                g_CV_CubicInterpolation
                0x0000000001ccbc24                g_CV_console_text_color
 COMMON         0x0000000001ccbc28      0x334 /home/jbrawley/Desktop/rockbox-photo-cf-support/build/apps/plugins/sdl/progs/duke3d/Engine/src/display.o
                0x0000000001ccbc28                linearmode
                0x0000000001ccbc2c                yres
                0x0000000001ccbc30                screen
                0x0000000001ccbc34                frameplace
                0x0000000001ccbc38                imageSize
                0x0000000001ccbc3c                lastPalette
                0x0000000001ccbf3c                xres
                0x0000000001ccbf40                maxpages
                0x0000000001ccbf44                vesachecked
                0x0000000001ccbf48                buffermode
                0x0000000001ccbf4c                bytesperline
                0x0000000001ccbf50                vgacompatible
                0x0000000001ccbf54                origbuffermode
                0x0000000001ccbf58                frameoffset
 COMMON         0x0000000001ccbf5c       0x14 /home/jbrawley/Desktop/rockbox-photo-cf-support/build/apps/plugins/sdl/progs/duke3d/Engine/src/draw.o
                0x0000000001ccbf5c                tsmach_eax1
                0x0000000001ccbf60                tsmach_eax3
                0x0000000001ccbf64                tsmach_ecx
                0x0000000001ccbf68                tspal
                0x0000000001ccbf6c                adder
 COMMON         0x0000000001ccbf70       0x22 /home/jbrawley/Desktop/rockbox-photo-cf-support/build/apps/plugins/sdl/progs/duke3d/Engine/src/dummy_multi.o
                0x0000000001ccbf70                connectpoint2
                0x0000000001ccbf90                connecthead
 *fill*         0x0000000001ccbf92        0x2 
 COMMON         0x0000000001ccbf94    0xc67e8 /home/jbrawley/Desktop/rockbox-photo-cf-support/build/apps/plugins/sdl/progs/duke3d/Engine/src/engine.o
                0x0000000001ccbf94                globalyscale
                0x0000000001ccbf98                asm3
                0x0000000001ccbf9c                mapCRC
                0x0000000001ccbfa0                viewingrangerecip
                0x0000000001ccbfa4                headspritesect
                0x0000000001ccc7a8                bakvidoption
                0x0000000001ccc7b8                britable
                0x0000000001cccbb8                globalx
                0x0000000001cccbbc                linehighlight
                0x0000000001cccbc0                ydim
                0x0000000001cccbc4                windowx2
                0x0000000001cccbc8                artfilnum
                0x0000000001cccbcc                picsiz
                0x0000000001ccefcc                globalang
                0x0000000001ccefce                numwalls
                0x0000000001ccefd0                startumost
                0x0000000001ccfc50                bakwindowy2
                0x0000000001ccfc60                numframes
                0x0000000001ccfc64                globalypanning
                0x0000000001ccfc68                palette
                0x0000000001ccff68                globalpicnum
                0x0000000001ccff6c                uplc
                0x0000000001cd0bf0                bakysiz
                0x0000000001cd0c00                globaly1
                0x0000000001cd0c04                wx1
                0x0000000001cd0c08                vidoption
                0x0000000001cd0c0a                numscans
                0x0000000001cd0c0c                tsprite
                0x0000000001cdbc0c                dmost
                0x0000000001cdc890                fpuasm
                0x0000000001cdc894                ortca
                0x0000000001cdc896                searchit
                0x0000000001cdc898                globalpalwritten
                0x0000000001cdc89c                globalx3
                0x0000000001cdc8a0                asm1
                0x0000000001cdc8a4                prevspritestat
                0x0000000001cde8a4                lastageclock
                0x0000000001cde8a8                wy2
                0x0000000001cde8ac                cosglobalang
                0x0000000001cde8b0                startposx
                0x0000000001cde8b4                startsectnum
                0x0000000001cde8b6                showinvisibility
                0x0000000001cde8b8                nextspritesect
                0x0000000001ce08b8                globalbufplc
                0x0000000001ce08bc                show2dwall
                0x0000000001ce0cbc                headspritestat
                0x0000000001ce14c0                bufplce
                0x0000000001ce14d0                viewoffset
                0x0000000001ce14d4                palookupoffse
                0x0000000001ce14e4                globaly3
                0x0000000001ce14e8                numsectors
                0x0000000001ce14ec                parallaxvisibility
                0x0000000001ce14f0                randomseed
                0x0000000001ce14f4                vplce
                0x0000000001ce1504                sprite
                0x0000000001d0d504                ortcb
                0x0000000001d0d505                globalxshift
                0x0000000001d0d508                globalorientation
                0x0000000001d0d50c                globaldclip
                0x0000000001d0d510                xdim
                0x0000000001d0d514                wx2
                0x0000000001d0d518                artfilplc
                0x0000000001d0d51c                globalshiftval
                0x0000000001d0d520                xdimenscale
                0x0000000001d0d524                windowx1
                0x0000000001d0d528                validmodecnt
                0x0000000001d0d52c                sinviewingrangeglobalang
                0x0000000001d0d530                show2dsector
                0x0000000001d0d5b0                startdmost
                0x0000000001d0e230                globalpal
                0x0000000001d0e234                numtilefiles
                0x0000000001d0e238                ylookup
                0x0000000001d0f4fc                parallaxtype
                0x0000000001d0f500                activepage
                0x0000000001d0f504                smalltextfont
                0x0000000001d0f904                prevspritesect
                0x0000000001d11904                parallaxyscale
                0x0000000001d11908                globalzd
                0x0000000001d1190c                sector
                0x0000000001d1b90c                nextspritestat
                0x0000000001d1d90c                globalyshift
                0x0000000001d1d910                visibility
                0x0000000001d1d914                spritesortcnt
                0x0000000001d1d918                dplc
                0x0000000001d1e59c                globalvisibility
                0x0000000001d1e5a0                globaly
                0x0000000001d1e5a4                show2dsprite
                0x0000000001d1e7a4                blackband
                0x0000000001d1e7a8                bakumost
                0x0000000001d1f42c                globalx1
                0x0000000001d1f430                globalposz
                0x0000000001d1f434                numbunches
                0x0000000001d1f438                startposz
                0x0000000001d1f43c                startposy
                0x0000000001d1f440                numpages
                0x0000000001d1f444                halfxdimen
                0x0000000001d1f448                reciptable
                0x0000000001d21448                globalzx
                0x0000000001d2144c                pskyoff
                0x0000000001d2164c                ydim16
                0x0000000001d21650                umost
                0x0000000001d222d2                searchwall
                0x0000000001d222d4                totalclock
                0x0000000001d222d8                globalpisibility
                0x0000000001d222dc                searchsector
                0x0000000001d222e0                parallaxyoffs
                0x0000000001d222e4                whiteband
                0x0000000001d222e8                highlightcnt
                0x0000000001d222ea                startang
                0x0000000001d222ec                validmodeydim
                0x0000000001d226ec                automapping
                0x0000000001d226f0                pageoffset
                0x0000000001d226f4                asm4
                0x0000000001d226f8                windowy2
                0x0000000001d226fc                searchstat
                0x0000000001d22700                singlobalang
                0x0000000001d22704                globalposx
                0x0000000001d22708                numpalookups
                0x0000000001d2270c                globalxpanning
                0x0000000001d22710                bakwindowx1
                0x0000000001d22720                sintable
                0x0000000001d23720                oa1
                0x0000000001d23721                overtbits
                0x0000000001d23722                o3c2
                0x0000000001d23724                xyaspect
                0x0000000001d23728                globalz
                0x0000000001d2372c                bakxsiz
                0x0000000001d2373c                globparaceilclip
                0x0000000001d23740                visualpage
                0x0000000001d23744                ebpbak
                0x0000000001d23748                mapversion
                0x0000000001d2374c                wall
                0x0000000001d6374c                totalclocklock
                0x0000000001d63750                viewingrange
                0x0000000001d63754                numhits
                0x0000000001d63758                wy1
                0x0000000001d6375c                globparaflorclip
                0x0000000001d63760                bakwindowx2
                0x0000000001d63770                bakdmost
                0x0000000001d643f4                globalhoriz
                0x0000000001d643f8                pointhighlight
                0x0000000001d643fc                bakwindowy1
                0x0000000001d6440c                globaluclip
                0x0000000001d64410                xdimscale
                0x0000000001d64414                tilefileoffs
                0x0000000001d6d414                vince
                0x0000000001d6d424                ydimen
                0x0000000001d6d428                xdimenrecip
                0x0000000001d6d42c                horizycent
                0x0000000001d6d430                asm2
                0x0000000001d6d434                globalposy
                0x0000000001d6d438                visitedSectors
                0x0000000001d6d4b8                bakframeplace
                0x0000000001d6d4c8                slopalookup
                0x0000000001d7d4c8                globalhisibility
                0x0000000001d7d4cc                tilefilenum
                0x0000000001d7f8cc                validmode
                0x0000000001d7facc                laststereoint
                0x0000000001d7fad0                espbak
                0x0000000001d7fad4                globalx2
                0x0000000001d7fad8                pskybits
                0x0000000001d7fadc                textfont
                0x0000000001d7fedc                globalshade
                0x0000000001d7fee0                kensmessage
                0x0000000001d7ff60                yxaspect
                0x0000000001d7ff64                cosviewingrangeglobalang
                0x0000000001d7ff68                validmodexdim
                0x0000000001d80368                globaly2
                0x0000000001d8036c                windowy1
                0x0000000001d80370                globalcursectnum
                0x0000000001d80374                palookup
                0x0000000001d80774                pvWalls
                0x0000000001d92774                globalcisibility
                0x0000000001d92778                searchy
 COMMON         0x0000000001d9277c       0x10 /home/jbrawley/Desktop/rockbox-photo-cf-support/build/apps/plugins/sdl/progs/duke3d/Engine/src/filesystem.o
                0x0000000001d9277c                groupefil_crc32
 COMMON         0x0000000001d9278c    0x2449c /home/jbrawley/Desktop/rockbox-photo-cf-support/build/apps/plugins/sdl/progs/duke3d/Engine/src/tiles.o
                0x0000000001d9278c                artfilename
                0x0000000001d927a0                gotpic
                0x0000000001d92c20                artversion
                0x0000000001d92c24                numTiles
                0x0000000001d92c28                tiles
 COMMON         0x0000000001db6c28        0x4 /home/jbrawley/Desktop/rockbox-photo-cf-support/build/apps/plugins/sdl/progs/duke3d/Game/src/audiolib/fx_man.o
                0x0000000001db6c28                reverbMutex
 COMMON         0x0000000001db6c2c      0x190 /home/jbrawley/Desktop/rockbox-photo-cf-support/build/apps/plugins/sdl/progs/duke3d/Game/src/audiolib/multivoc.o
                0x0000000001db6c2c                MV_GLast
                0x0000000001db6c30                MouseDigitalAxeMapping
                0x0000000001db6c40                MV_MixRate
                0x0000000001db6c44                MV_GVal
                0x0000000001db6c48                MV_LeftScale
                0x0000000001db6c4c                MV_RightChannelOffset
                0x0000000001db6c50                mymembuf
                0x0000000001db6c54                typebuf
                0x0000000001db6c80                MV_MixPosition
                0x0000000001db6c84                MV_ReverbDelay
                0x0000000001db6c88                MV_MixBuffer
                0x0000000001db6ccc                KeyMapping
                0x0000000001db6d8c                MV_RightVolume
                0x0000000001db6d90                MV_MixDestination
                0x0000000001db6d94                MouseMapping
                0x0000000001db6db0                MV_LeftVolume
                0x0000000001db6db4                MV_RightScale
                0x0000000001db6db8                MV_GPos
 COMMON         0x0000000001db6dbc        0x2 /home/jbrawley/Desktop/rockbox-photo-cf-support/build/apps/plugins/sdl/progs/duke3d/Game/src/actors.o
                0x0000000001db6dbc                otherp
 *fill*         0x0000000001db6dbe        0x2 
 COMMON         0x0000000001db6dc0       0x64 /home/jbrawley/Desktop/rockbox-photo-cf-support/build/apps/plugins/sdl/progs/duke3d/Game/src/config.o
                0x0000000001db6dc0                FXVolume
                0x0000000001db6dc4                MusicToggle
                0x0000000001db6dc8                SoundToggle
                0x0000000001db6dcc                NumBits
                0x0000000001db6dd0                BlasterConfig
                0x0000000001db6dec                NumVoices
                0x0000000001db6df0                MixRate
                0x0000000001db6df4                mouseSensitivity_X
                0x0000000001db6df8                MusicDevice
                0x0000000001db6dfc                MusicVolume
                0x0000000001db6e00                AmbienceToggle
                0x0000000001db6e04                VoiceToggle
                0x0000000001db6e08                ControllerType
                0x0000000001db6e0c                FXDevice
                0x0000000001db6e10                mouseSensitivity_Y
                0x0000000001db6e14                NumChannels
                0x0000000001db6e18                OpponentSoundToggle
                0x0000000001db6e1c                ReverseStereo
                0x0000000001db6e20                MidiPort
 COMMON         0x0000000001db6e24      0x306 /home/jbrawley/Desktop/rockbox-photo-cf-support/build/apps/plugins/sdl/progs/duke3d/Game/src/console.o
                0x0000000001db6e24                argv
                0x0000000001db70e0                argc
                0x0000000001db70e4                dirty_buffer
 *fill*         0x0000000001db712a        0x2 
 COMMON         0x0000000001db712c       0x38 /home/jbrawley/Desktop/rockbox-photo-cf-support/build/apps/plugins/sdl/progs/duke3d/Game/src/control.o
                0x0000000001db712c                CONTROL_MouseButtonState2
                0x0000000001db7130                CONTROL_MouseEnabled
                0x0000000001db7134                CONTROL_JoyHatState2
                0x0000000001db7138                CONTROL_MouseDigitalAxisState1
                0x0000000001db713c                CONTROL_MousePresent
                0x0000000001db7140                CONTROL_RudderEnabled
                0x0000000001db7144                CONTROL_JoystickPort
                0x0000000001db7148                CONTROL_JoyButtonState2
                0x0000000001db714c                CONTROL_MouseDigitalAxisState2
                0x0000000001db7150                CONTROL_JoystickEnabled
                0x0000000001db7154                CONTROL_JoyButtonState1
                0x0000000001db7158                CONTROL_MouseButtonState1
                0x0000000001db715c                CONTROL_JoysPresent
                0x0000000001db7160                CONTROL_JoyHatState1
 COMMON         0x0000000001db7164     0x1100 /home/jbrawley/Desktop/rockbox-photo-cf-support/build/apps/plugins/sdl/progs/duke3d/Game/src/cvars.o
                0x0000000001db7164                cvar_binding_list
 COMMON         0x0000000001db8264     0x3198 /home/jbrawley/Desktop/rockbox-photo-cf-support/build/apps/plugins/sdl/progs/duke3d/Game/src/game.o
                0x0000000001db8264                cp
                0x0000000001db8268                endingpal
                0x0000000001db8568                cheatbuf
                0x0000000001db8574                recbuf
                0x0000000001db85c4                playerswhenstarted
                0x0000000001db85c8                user_quote_time
                0x0000000001db85d0                waterpal
                0x0000000001db88d0                nonsharedtimer
                0x0000000001db88d4                tempsectorz
                0x0000000001db98d4                cheatbuflen
                0x0000000001db98d8                slimepal
                0x0000000001db9bd8                rtsptr
                0x0000000001db9bdc                quotebotgoal
                0x0000000001db9be0                recfilep
                0x0000000001db9be4                qe
                0x0000000001db9be8                totalreccnt
                0x0000000001db9bec                drealms
                0x0000000001db9eec                user_quote
                0x0000000001dba0ec                nomorelogohack
                0x0000000001dba0f0                tempwallptr
                0x0000000001dba0f4                quotebot
                0x0000000001dba0f8                restorepalette
                0x0000000001dba0f9                screencapt
                0x0000000001dba0fc                tempsectorpicnum
                0x0000000001dbb0fc                titlepal
 COMMON         0x0000000001dbb3fc        0x4 /home/jbrawley/Desktop/rockbox-photo-cf-support/build/apps/plugins/sdl/progs/duke3d/Game/src/gamedef.o
                0x0000000001dbb3fc                last_used_text
 COMMON         0x0000000001dbb400    0xaa68b /home/jbrawley/Desktop/rockbox-photo-cf-support/build/apps/plugins/sdl/progs/duke3d/Game/src/global.o
                0x0000000001dbb400                rpgblastradius
                0x0000000001dbb404                tripbombblastradius
                0x0000000001dbb408                mirrorsector
                0x0000000001dbb488                typebuflen
                0x0000000001dbb48a                numclouds
                0x0000000001dbb48c                myangbak
                0x0000000001dbb68c                earthquaketime
                0x0000000001dbb690                syncval
                0x0000000001dbc690                soundvo
                0x0000000001dbca14                animatesect
                0x0000000001dbca94                animatevel
                0x0000000001dbcb94                avgsvel
                0x0000000001dbcb98                msy
                0x0000000001dbeb98                Sound
                0x0000000001dc07b8                syncvaltottail
                0x0000000001dc07bc                multiwhat
                0x0000000001dc07be                title_zoom
                0x0000000001dc07c0                oldipos
                0x0000000001dc27c0                numanimwalls
                0x0000000001dc27c4                syncvaltail
                0x0000000001dc27c8                ps
                0x0000000001dc6208                label
                0x0000000001dc620c                myzvel
                0x0000000001dc6210                bakipos
                0x0000000001dc8210                curipos
                0x0000000001dca210                multiflag
                0x0000000001dca214                fricyv
                0x0000000001dca218                groupfile
                0x0000000001dca21c                parsing_actor
                0x0000000001dca220                fakemovefifoplc
                0x0000000001dca224                music_select
                0x0000000001dca228                actortype
                0x0000000001dcc628                animwall
                0x0000000001dcd628                music_pointer
                0x0000000001dcd62c                actorscrptr
                0x0000000001dd662c                screenpeek
                0x0000000001dd6630                morterblastradius
                0x0000000001dd6634                rtsplaying
                0x0000000001dd6635                syncstat
                0x0000000001dd6638                textptr
                0x0000000001dd663c                myybak
                0x0000000001dd6a3c                level_names
                0x0000000001dd6fe8                myz
                0x0000000001dd6fec                spriteq
                0x0000000001dd77ec                angvel
                0x0000000001dd77f0                display_mirror
                0x0000000001dd77f4                cyclers
                0x0000000001dd83f4                playerreadyflag
                0x0000000001dd8404                avghorz
                0x0000000001dd8408                pub
                0x0000000001dd840a                spriteqloc
                0x0000000001dd840c                current_menu
                0x0000000001dd8410                playerquitflag
                0x0000000001dd8420                impact_damage
                0x0000000001dd8424                soundpe
                0x0000000001dd87a8                vel
                0x0000000001dd87ac                mycursectnum
                0x0000000001dd87ae                camsprite
                0x0000000001dd87b0                everyothertime
                0x0000000001dd87b2                myhorizoff
                0x0000000001dd87b4                clouds
                0x0000000001dd88b4                seenineblastradius
                0x0000000001dd88b8                show_shareware
                0x0000000001dd88bc                lasermode
                0x0000000001dd88c0                shrinkerblastradius
                0x0000000001dd88c4                mirrorcnt
                0x0000000001dd88c6                neartagsprite
                0x0000000001dd88c8                mymaxlag
                0x0000000001dd88cc                designertime
                0x0000000001dd897c                script
                0x0000000001dec92c                frags
                0x0000000001decb2c                syncvalhead
                0x0000000001decb6c                omyx
                0x0000000001decb70                numplayersprites
                0x0000000001decb74                horiz
                0x0000000001decb78                avgfvel
                0x0000000001decb7c                avgbits
                0x0000000001decb80                movefifosendplc
                0x0000000001decb84                sbar
                0x0000000001decbec                music_fn
                0x0000000001dece28                ready2send
                0x0000000001dece2c                scriptptr
                0x0000000001dece30                fta_quotes
                0x0000000001defe30                max_ammo_amount
                0x0000000001defe60                camerashitable
                0x0000000001defe64                myxbak
                0x0000000001df0264                po
                0x0000000001df0364                omyz
                0x0000000001df0368                myreturntocenter
                0x0000000001df036c                cloudx
                0x0000000001df046c                bouncemineblastradius
                0x0000000001df0470                betaname
                0x0000000001df04c0                packbuf
                0x0000000001df0700                pus
                0x0000000001df0702                global_random
                0x0000000001df0704                animatecnt
                0x0000000001df0708                sounds
                0x0000000001df1fa4                neartagsector
                0x0000000001df1fa6                omyhorizoff
                0x0000000001df1fa8                labelcode
                0x0000000001df1fac                avgavel
                0x0000000001df1fb0                ApogeePath
                0x0000000001df20b0                myyvel
                0x0000000001df20b4                soundpr
                0x0000000001df2278                svel
                0x0000000001df227c                env_music_fn
                0x0000000001df22b0                duke_sync
                0x0000000001df2350                loc
                0x0000000001df235a                numcyclers
                0x0000000001df235c                neartagwall
                0x0000000001df2360                labelcnt
                0x0000000001df2364                ud
                0x0000000001df2ed8                myonground
                0x0000000001df2edc                MusicPtr
                0x0000000001e0481c                insptr
                0x0000000001e04820                tempbuf
                0x0000000001e05020                fricxv
                0x0000000001e05024                lockclock
                0x0000000001e05028                mirrorwall
                0x0000000001e050a8                killit_flag
                0x0000000001e050ac                hittype
                0x0000000001e4d0ac                animategoal
                0x0000000001e4d1ac                neartaghitdist
                0x0000000001e4d1b0                myy
                0x0000000001e4d1b4                omyhoriz
                0x0000000001e4d1b8                ototalclock
                0x0000000001e4d1bc                error
                0x0000000001e4d1c0                partime
                0x0000000001e4d270                omyy
                0x0000000001e4d274                buf
                0x0000000001e4d2c4                multipos
                0x0000000001e4d2c8                movefifoplc
                0x0000000001e4d2cc                myhardlanding
                0x0000000001e4d2cd                myjumpingtoggle
                0x0000000001e4d2ce                myhoriz
                0x0000000001e4d2d0                max_armour_amount
                0x0000000001e4d2d4                myminlag
                0x0000000001e4d314                warning
                0x0000000001e4d318                cloudy
                0x0000000001e4d418                pipebombblastradius
                0x0000000001e4d41c                otherminlag
                0x0000000001e4d420                max_player_health
                0x0000000001e4d424                soundps
                0x0000000001e4d7a8                checksume
                0x0000000001e4d7ac                myang
                0x0000000001e4d7b0                msx
                0x0000000001e4f7b0                animateptr
                0x0000000001e4f8b0                SoundOwner
                0x0000000001e530f0                recsync
                0x0000000001e59360                myxvel
                0x0000000001e59364                level_file_names
                0x0000000001e5a964                device
                0x0000000001e5a970                soundm
                0x0000000001e5ab34                myx
                0x0000000001e5ab38                gc
                0x0000000001e5ab3c                myhorizbak
                0x0000000001e5af3c                myjumpingcounter
                0x0000000001e5af40                movefifoend
                0x0000000001e5af80                myzbak
                0x0000000001e5b380                soundsiz
                0x0000000001e5ba88                inputfifo
                0x0000000001e65a88                omyang
                0x0000000001e65a8a                multiwho
 *fill*         0x0000000001e65a8b        0x1 
 COMMON         0x0000000001e65a8c       0x84 /home/jbrawley/Desktop/rockbox-photo-cf-support/build/apps/plugins/sdl/progs/duke3d/Game/src/keyboard.o
                0x0000000001e65a8c                KB_LastScan
                0x0000000001e65a90                KB_KeyDown
 COMMON         0x0000000001e65b10       0x3e /home/jbrawley/Desktop/rockbox-photo-cf-support/build/apps/plugins/sdl/progs/duke3d/Game/src/menues.o
                0x0000000001e65b10                onbar
                0x0000000001e65b12                sh
                0x0000000001e65b14                m_Files
                0x0000000001e65b18                buttonstat
                0x0000000001e65b1c                volnum
                0x0000000001e65b20                numplr
                0x0000000001e65b24                levnum
                0x0000000001e65b28                last_zero
                0x0000000001e65b2c                minfo
                0x0000000001e65b44                last_fifty
                0x0000000001e65b46                deletespot
                0x0000000001e65b48                plrskl
                0x0000000001e65b4c                last_menu
 *fill*         0x0000000001e65b4e        0x2 
 COMMON         0x0000000001e65b50    0x19000 /home/jbrawley/Desktop/rockbox-photo-cf-support/build/apps/plugins/sdl/progs/duke3d/Game/src/midi/sdl_midi.o
                0x0000000001e65b50                musicDataBuffer
 COMMON         0x0000000001e7eb50     0x1090 /home/jbrawley/Desktop/rockbox-photo-cf-support/build/apps/plugins/sdl/progs/duke3d/Game/src/player.o
                0x0000000001e7eb50                fistsign
                0x0000000001e7eb54                searchparent
                0x0000000001e7f354                searchsect
                0x0000000001e7fb54                lastvisinc
                0x0000000001e7fb58                turnheldtime
                0x0000000001e7fb5c                lastcontroltime
                0x0000000001e7fb60                dashow2dsector
 COMMON         0x0000000001e7fbe0        0xf /home/jbrawley/Desktop/rockbox-photo-cf-support/build/apps/plugins/sdl/progs/duke3d/Game/src/rts.o
                0x0000000001e7fbe0                numlumps
                0x0000000001e7fbe4                lumplockbyte
 COMMON         0x0000000001e7fbef        0x1 /home/jbrawley/Desktop/rockbox-photo-cf-support/build/apps/plugins/sdl/progs/duke3d/Game/src/sector.o
                0x0000000001e7fbef                haltsoundhack
 COMMON         0x0000000001e7fbf0        0x8 /home/jbrawley/Desktop/rockbox-photo-cf-support/build/apps/plugins/sdl/progs/duke3d/Game/src/sounds.o
                0x0000000001e7fbf0                numenvsnds
                0x0000000001e7fbf4                backflag
                0x0000000001e7fbf8                . = ALIGN (0x4)

.ncbss          0x0000000011e7fbf8        0x8 load address 0x0000000001e7fbf8
                0x0000000011e7fc00                . = ALIGN (0x10)
 *fill*         0x0000000011e7fbf8        0x8 
 *(.ncbss*)
                0x0000000011e7fc00                . = ALIGN (0x10)
                0x0000000001e7fc00                pluginendaddr = (. - 0x10000000)

.pluginend      0x0000000001e7fc00        0x0
                0x0000000001e7fc00                _plugin_end_addr = .
                0x0000000001e7fc00                plugin_end_addr = .

.iram           0x000000004000c000        0x0 load address 0x0000000001b3c710
                0x000000004000c000                iramstart = .
 *(.icode)
 *(.irodata)
 *(.idata)
                0x000000004000c000                iramend = .

.ibss           0x000000004000c000        0x0
                0x000000004000c000                iedata = .
 *(.ibss)
                0x000000004000c000                . = ALIGN (0x4)
                0x000000004000c000                iend = .
                0x0000000001e7fc00                loadendaddr = MAX (plugin_end_addr, (LOADADDR (.iram) + SIZEOF (.iram)))

.pluginloadend  0x0000000001e7fc00        0x0
                0x0000000001e7fc00                _plugin_load_end_addr = .
                0x0000000001e7fc00                plugin_load_end_addr = .

.comment        0x0000000000000000       0x11
 *(.comment)
 .comment       0x0000000000000000       0x11 /home/jbrawley/Desktop/rockbox-photo-cf-support/build/apps/plugins/sdl/main.o
                                         0x12 (size before relaxing)
 .comment       0x0000000000000011       0x12 /home/jbrawley/Desktop/rockbox-photo-cf-support/build/apps/plugins/sdl/wrappers.o
 .comment       0x0000000000000011       0x12 /home/jbrawley/Desktop/rockbox-photo-cf-support/build/apps/plugins/sdl/src/SDL.o
 .comment       0x0000000000000011       0x12 /home/jbrawley/Desktop/rockbox-photo-cf-support/build/apps/plugins/sdl/src/SDL_error.o
 .comment       0x0000000000000011       0x12 /home/jbrawley/Desktop/rockbox-photo-cf-support/build/apps/plugins/sdl/src/SDL_fatal.o
 .comment       0x0000000000000011       0x12 /home/jbrawley/Desktop/rockbox-photo-cf-support/build/apps/plugins/sdl/src/audio/SDL_audio.o
 .comment       0x0000000000000011       0x12 /home/jbrawley/Desktop/rockbox-photo-cf-support/build/apps/plugins/sdl/src/audio/SDL_audiocvt.o
 .comment       0x0000000000000011       0x12 /home/jbrawley/Desktop/rockbox-photo-cf-support/build/apps/plugins/sdl/src/audio/SDL_audiodev.o
 .comment       0x0000000000000011       0x12 /home/jbrawley/Desktop/rockbox-photo-cf-support/build/apps/plugins/sdl/src/audio/SDL_mixer.o
 .comment       0x0000000000000011       0x12 /home/jbrawley/Desktop/rockbox-photo-cf-support/build/apps/plugins/sdl/src/audio/SDL_mixer_MMX.o
 .comment       0x0000000000000011       0x12 /home/jbrawley/Desktop/rockbox-photo-cf-support/build/apps/plugins/sdl/src/audio/SDL_mixer_MMX_VC.o
 .comment       0x0000000000000011       0x12 /home/jbrawley/Desktop/rockbox-photo-cf-support/build/apps/plugins/sdl/src/audio/SDL_mixer_m68k.o
 .comment       0x0000000000000011       0x12 /home/jbrawley/Desktop/rockbox-photo-cf-support/build/apps/plugins/sdl/src/audio/SDL_wave.o
 .comment       0x0000000000000011       0x12 /home/jbrawley/Desktop/rockbox-photo-cf-support/build/apps/plugins/sdl/src/audio/rockbox/SDL_rockboxaudio.o
 .comment       0x0000000000000011       0x12 /home/jbrawley/Desktop/rockbox-photo-cf-support/build/apps/plugins/sdl/src/cdrom/SDL_cdrom.o
 .comment       0x0000000000000011       0x12 /home/jbrawley/Desktop/rockbox-photo-cf-support/build/apps/plugins/sdl/src/cdrom/dummy/SDL_syscdrom.o
 .comment       0x0000000000000011       0x12 /home/jbrawley/Desktop/rockbox-photo-cf-support/build/apps/plugins/sdl/src/cpuinfo/SDL_cpuinfo.o
 .comment       0x0000000000000011       0x12 /home/jbrawley/Desktop/rockbox-photo-cf-support/build/apps/plugins/sdl/src/events/SDL_active.o
 .comment       0x0000000000000011       0x12 /home/jbrawley/Desktop/rockbox-photo-cf-support/build/apps/plugins/sdl/src/events/SDL_events.o
 .comment       0x0000000000000011       0x12 /home/jbrawley/Desktop/rockbox-photo-cf-support/build/apps/plugins/sdl/src/events/SDL_expose.o
 .comment       0x0000000000000011       0x12 /home/jbrawley/Desktop/rockbox-photo-cf-support/build/apps/plugins/sdl/src/events/SDL_keyboard.o
 .comment       0x0000000000000011       0x12 /home/jbrawley/Desktop/rockbox-photo-cf-support/build/apps/plugins/sdl/src/events/SDL_mouse.o
 .comment       0x0000000000000011       0x12 /home/jbrawley/Desktop/rockbox-photo-cf-support/build/apps/plugins/sdl/src/events/SDL_quit.o
 .comment       0x0000000000000011       0x12 /home/jbrawley/Desktop/rockbox-photo-cf-support/build/apps/plugins/sdl/src/events/SDL_resize.o
 .comment       0x0000000000000011       0x12 /home/jbrawley/Desktop/rockbox-photo-cf-support/build/apps/plugins/sdl/src/file/SDL_rwops.o
 .comment       0x0000000000000011       0x12 /home/jbrawley/Desktop/rockbox-photo-cf-support/build/apps/plugins/sdl/src/joystick/SDL_joystick.o
 .comment       0x0000000000000011       0x12 /home/jbrawley/Desktop/rockbox-photo-cf-support/build/apps/plugins/sdl/src/joystick/dummy/SDL_sysjoystick.o
 .comment       0x0000000000000011       0x12 /home/jbrawley/Desktop/rockbox-photo-cf-support/build/apps/plugins/sdl/src/loadso/dummy/SDL_sysloadso.o
 .comment       0x0000000000000011       0x12 /home/jbrawley/Desktop/rockbox-photo-cf-support/build/apps/plugins/sdl/src/stdlib/SDL_getenv.o
 .comment       0x0000000000000011       0x12 /home/jbrawley/Desktop/rockbox-photo-cf-support/build/apps/plugins/sdl/src/stdlib/SDL_iconv.o
 .comment       0x0000000000000011       0x12 /home/jbrawley/Desktop/rockbox-photo-cf-support/build/apps/plugins/sdl/src/stdlib/SDL_malloc.o
 .comment       0x0000000000000011       0x12 /home/jbrawley/Desktop/rockbox-photo-cf-support/build/apps/plugins/sdl/src/stdlib/SDL_qsort.o
 .comment       0x0000000000000011       0x12 /home/jbrawley/Desktop/rockbox-photo-cf-support/build/apps/plugins/sdl/src/stdlib/SDL_stdlib.o
 .comment       0x0000000000000011       0x12 /home/jbrawley/Desktop/rockbox-photo-cf-support/build/apps/plugins/sdl/src/stdlib/SDL_string.o
 .comment       0x0000000000000011       0x12 /home/jbrawley/Desktop/rockbox-photo-cf-support/build/apps/plugins/sdl/src/thread/SDL_thread.o
 .comment       0x0000000000000011       0x12 /home/jbrawley/Desktop/rockbox-photo-cf-support/build/apps/plugins/sdl/src/thread/rockbox/SDL_syscond.o
 .comment       0x0000000000000011       0x12 /home/jbrawley/Desktop/rockbox-photo-cf-support/build/apps/plugins/sdl/src/thread/rockbox/SDL_sysmutex.o
 .comment       0x0000000000000011       0x12 /home/jbrawley/Desktop/rockbox-photo-cf-support/build/apps/plugins/sdl/src/thread/rockbox/SDL_syssem.o
 .comment       0x0000000000000011       0x12 /home/jbrawley/Desktop/rockbox-photo-cf-support/build/apps/plugins/sdl/src/thread/rockbox/SDL_systhread.o
 .comment       0x0000000000000011       0x12 /home/jbrawley/Desktop/rockbox-photo-cf-support/build/apps/plugins/sdl/src/timer/SDL_timer.o
 .comment       0x0000000000000011       0x12 /home/jbrawley/Desktop/rockbox-photo-cf-support/build/apps/plugins/sdl/src/timer/rockbox/SDL_systimer.o
 .comment       0x0000000000000011       0x12 /home/jbrawley/Desktop/rockbox-photo-cf-support/build/apps/plugins/sdl/src/video/SDL_RLEaccel.o
 .comment       0x0000000000000011       0x12 /home/jbrawley/Desktop/rockbox-photo-cf-support/build/apps/plugins/sdl/src/video/SDL_blit.o
 .comment       0x0000000000000011       0x12 /home/jbrawley/Desktop/rockbox-photo-cf-support/build/apps/plugins/sdl/src/video/SDL_blit_0.o
 .comment       0x0000000000000011       0x12 /home/jbrawley/Desktop/rockbox-photo-cf-support/build/apps/plugins/sdl/src/video/SDL_blit_1.o
 .comment       0x0000000000000011       0x12 /home/jbrawley/Desktop/rockbox-photo-cf-support/build/apps/plugins/sdl/src/video/SDL_blit_A.o
 .comment       0x0000000000000011       0x12 /home/jbrawley/Desktop/rockbox-photo-cf-support/build/apps/plugins/sdl/src/video/SDL_blit_N.o
 .comment       0x0000000000000011       0x12 /home/jbrawley/Desktop/rockbox-photo-cf-support/build/apps/plugins/sdl/src/video/SDL_bmp.o
 .comment       0x0000000000000011       0x12 /home/jbrawley/Desktop/rockbox-photo-cf-support/build/apps/plugins/sdl/src/video/SDL_cursor.o
 .comment       0x0000000000000011       0x12 /home/jbrawley/Desktop/rockbox-photo-cf-support/build/apps/plugins/sdl/src/video/SDL_gamma.o
 .comment       0x0000000000000011       0x12 /home/jbrawley/Desktop/rockbox-photo-cf-support/build/apps/plugins/sdl/src/video/SDL_pixels.o
 .comment       0x0000000000000011       0x12 /home/jbrawley/Desktop/rockbox-photo-cf-support/build/apps/plugins/sdl/src/video/SDL_stretch.o
 .comment       0x0000000000000011       0x12 /home/jbrawley/Desktop/rockbox-photo-cf-support/build/apps/plugins/sdl/src/video/SDL_surface.o
 .comment       0x0000000000000011       0x12 /home/jbrawley/Desktop/rockbox-photo-cf-support/build/apps/plugins/sdl/src/video/SDL_video.o
 .comment       0x0000000000000011       0x12 /home/jbrawley/Desktop/rockbox-photo-cf-support/build/apps/plugins/sdl/src/video/SDL_yuv.o
 .comment       0x0000000000000011       0x12 /home/jbrawley/Desktop/rockbox-photo-cf-support/build/apps/plugins/sdl/src/video/SDL_yuv_mmx.o
 .comment       0x0000000000000011       0x12 /home/jbrawley/Desktop/rockbox-photo-cf-support/build/apps/plugins/sdl/src/video/SDL_yuv_sw.o
 .comment       0x0000000000000011       0x12 /home/jbrawley/Desktop/rockbox-photo-cf-support/build/apps/plugins/sdl/src/video/dummy/SDL_nullevents.o
 .comment       0x0000000000000011       0x12 /home/jbrawley/Desktop/rockbox-photo-cf-support/build/apps/plugins/sdl/src/video/dummy/SDL_nullmouse.o
 .comment       0x0000000000000011       0x12 /home/jbrawley/Desktop/rockbox-photo-cf-support/build/apps/plugins/sdl/src/video/dummy/SDL_nullvideo.o
 .comment       0x0000000000000011       0x12 /home/jbrawley/Desktop/rockbox-photo-cf-support/build/apps/plugins/sdl/src/video/rockbox/SDL_rockboxvideo.o
 .comment       0x0000000000000011       0x12 /home/jbrawley/Desktop/rockbox-photo-cf-support/build/apps/plugins/sdl/SDL_image/IMG_bmp.o
 .comment       0x0000000000000011       0x12 /home/jbrawley/Desktop/rockbox-photo-cf-support/build/apps/plugins/sdl/SDL_image/IMG.o
 .comment       0x0000000000000011       0x12 /home/jbrawley/Desktop/rockbox-photo-cf-support/build/apps/plugins/sdl/SDL_image/IMG_gif.o
 .comment       0x0000000000000011       0x12 /home/jbrawley/Desktop/rockbox-photo-cf-support/build/apps/plugins/sdl/SDL_image/IMG_jpg.o
 .comment       0x0000000000000011       0x12 /home/jbrawley/Desktop/rockbox-photo-cf-support/build/apps/plugins/sdl/SDL_image/IMG_lbm.o
 .comment       0x0000000000000011       0x12 /home/jbrawley/Desktop/rockbox-photo-cf-support/build/apps/plugins/sdl/SDL_image/IMG_pcx.o
 .comment       0x0000000000000011       0x12 /home/jbrawley/Desktop/rockbox-photo-cf-support/build/apps/plugins/sdl/SDL_image/IMG_png.o
 .comment       0x0000000000000011       0x12 /home/jbrawley/Desktop/rockbox-photo-cf-support/build/apps/plugins/sdl/SDL_image/IMG_pnm.o
 .comment       0x0000000000000011       0x12 /home/jbrawley/Desktop/rockbox-photo-cf-support/build/apps/plugins/sdl/SDL_image/IMG_tga.o
 .comment       0x0000000000000011       0x12 /home/jbrawley/Desktop/rockbox-photo-cf-support/build/apps/plugins/sdl/SDL_image/IMG_tif.o
 .comment       0x0000000000000011       0x12 /home/jbrawley/Desktop/rockbox-photo-cf-support/build/apps/plugins/sdl/SDL_image/IMG_webp.o
 .comment       0x0000000000000011       0x12 /home/jbrawley/Desktop/rockbox-photo-cf-support/build/apps/plugins/sdl/SDL_image/IMG_xcf.o
 .comment       0x0000000000000011       0x12 /home/jbrawley/Desktop/rockbox-photo-cf-support/build/apps/plugins/sdl/SDL_image/IMG_xpm.o
 .comment       0x0000000000000011       0x12 /home/jbrawley/Desktop/rockbox-photo-cf-support/build/apps/plugins/sdl/SDL_image/IMG_xv.o
 .comment       0x0000000000000011       0x12 /home/jbrawley/Desktop/rockbox-photo-cf-support/build/apps/plugins/sdl/SDL_image/IMG_xxx.o
 .comment       0x0000000000000011       0x12 /home/jbrawley/Desktop/rockbox-photo-cf-support/build/apps/plugins/sdl/SDL_mixer/dynamic_flac.o
 .comment       0x0000000000000011       0x12 /home/jbrawley/Desktop/rockbox-photo-cf-support/build/apps/plugins/sdl/SDL_mixer/dynamic_fluidsynth.o
 .comment       0x0000000000000011       0x12 /home/jbrawley/Desktop/rockbox-photo-cf-support/build/apps/plugins/sdl/SDL_mixer/dynamic_mod.o
 .comment       0x0000000000000011       0x12 /home/jbrawley/Desktop/rockbox-photo-cf-support/build/apps/plugins/sdl/SDL_mixer/dynamic_mp3.o
 .comment       0x0000000000000011       0x12 /home/jbrawley/Desktop/rockbox-photo-cf-support/build/apps/plugins/sdl/SDL_mixer/dynamic_ogg.o
 .comment       0x0000000000000011       0x12 /home/jbrawley/Desktop/rockbox-photo-cf-support/build/apps/plugins/sdl/SDL_mixer/effect_position.o
 .comment       0x0000000000000011       0x12 /home/jbrawley/Desktop/rockbox-photo-cf-support/build/apps/plugins/sdl/SDL_mixer/effects_internal.o
 .comment       0x0000000000000011       0x12 /home/jbrawley/Desktop/rockbox-photo-cf-support/build/apps/plugins/sdl/SDL_mixer/effect_stereoreverse.o
 .comment       0x0000000000000011       0x12 /home/jbrawley/Desktop/rockbox-photo-cf-support/build/apps/plugins/sdl/SDL_mixer/fluidsynth.o
 .comment       0x0000000000000011       0x12 /home/jbrawley/Desktop/rockbox-photo-cf-support/build/apps/plugins/sdl/SDL_mixer/load_aiff.o
 .comment       0x0000000000000011       0x12 /home/jbrawley/Desktop/rockbox-photo-cf-support/build/apps/plugins/sdl/SDL_mixer/load_flac.o
 .comment       0x0000000000000011       0x12 /home/jbrawley/Desktop/rockbox-photo-cf-support/build/apps/plugins/sdl/SDL_mixer/load_ogg.o
 .comment       0x0000000000000011       0x12 /home/jbrawley/Desktop/rockbox-photo-cf-support/build/apps/plugins/sdl/SDL_mixer/load_voc.o
 .comment       0x0000000000000011       0x12 /home/jbrawley/Desktop/rockbox-photo-cf-support/build/apps/plugins/sdl/SDL_mixer/mixer.o
 .comment       0x0000000000000011       0x12 /home/jbrawley/Desktop/rockbox-photo-cf-support/build/apps/plugins/sdl/SDL_mixer/music.o
 .comment       0x0000000000000011       0x12 /home/jbrawley/Desktop/rockbox-photo-cf-support/build/apps/plugins/sdl/SDL_mixer/music_cmd.o
 .comment       0x0000000000000011       0x12 /home/jbrawley/Desktop/rockbox-photo-cf-support/build/apps/plugins/sdl/SDL_mixer/music_flac.o
 .comment       0x0000000000000011       0x12 /home/jbrawley/Desktop/rockbox-photo-cf-support/build/apps/plugins/sdl/SDL_mixer/music_mad.o
 .comment       0x0000000000000011       0x12 /home/jbrawley/Desktop/rockbox-photo-cf-support/build/apps/plugins/sdl/SDL_mixer/music_mod.o
 .comment       0x0000000000000011       0x12 /home/jbrawley/Desktop/rockbox-photo-cf-support/build/apps/plugins/sdl/SDL_mixer/music_modplug.o
 .comment       0x0000000000000011       0x12 /home/jbrawley/Desktop/rockbox-photo-cf-support/build/apps/plugins/sdl/SDL_mixer/music_ogg.o
 .comment       0x0000000000000011       0x12 /home/jbrawley/Desktop/rockbox-photo-cf-support/build/apps/plugins/sdl/SDL_mixer/wavestream.o
 .comment       0x0000000000000011       0x12 /home/jbrawley/Desktop/rockbox-photo-cf-support/build/apps/plugins/sdl/SDL_mixer/timidity/common.o
 .comment       0x0000000000000011       0x12 /home/jbrawley/Desktop/rockbox-photo-cf-support/build/apps/plugins/sdl/SDL_mixer/timidity/ctrlmode.o
 .comment       0x0000000000000011       0x12 /home/jbrawley/Desktop/rockbox-photo-cf-support/build/apps/plugins/sdl/SDL_mixer/timidity/filter.o
 .comment       0x0000000000000011       0x12 /home/jbrawley/Desktop/rockbox-photo-cf-support/build/apps/plugins/sdl/SDL_mixer/timidity/instrum.o
 .comment       0x0000000000000011       0x12 /home/jbrawley/Desktop/rockbox-photo-cf-support/build/apps/plugins/sdl/SDL_mixer/timidity/mix.o
 .comment       0x0000000000000011       0x12 /home/jbrawley/Desktop/rockbox-photo-cf-support/build/apps/plugins/sdl/SDL_mixer/timidity/output.o
 .comment       0x0000000000000011       0x12 /home/jbrawley/Desktop/rockbox-photo-cf-support/build/apps/plugins/sdl/SDL_mixer/timidity/playmidi.o
 .comment       0x0000000000000011       0x12 /home/jbrawley/Desktop/rockbox-photo-cf-support/build/apps/plugins/sdl/SDL_mixer/timidity/readmidi.o
 .comment       0x0000000000000011       0x12 /home/jbrawley/Desktop/rockbox-photo-cf-support/build/apps/plugins/sdl/SDL_mixer/timidity/resample.o
 .comment       0x0000000000000011       0x12 /home/jbrawley/Desktop/rockbox-photo-cf-support/build/apps/plugins/sdl/SDL_mixer/timidity/sdl_a.o
 .comment       0x0000000000000011       0x12 /home/jbrawley/Desktop/rockbox-photo-cf-support/build/apps/plugins/sdl/SDL_mixer/timidity/sdl_c.o
 .comment       0x0000000000000011       0x12 /home/jbrawley/Desktop/rockbox-photo-cf-support/build/apps/plugins/sdl/SDL_mixer/timidity/tables.o
 .comment       0x0000000000000011       0x12 /home/jbrawley/Desktop/rockbox-photo-cf-support/build/apps/plugins/sdl/SDL_mixer/timidity/timidity.o
 .comment       0x0000000000000011       0x12 /home/jbrawley/Desktop/rockbox-photo-cf-support/build/apps/plugins/sdl/progs/duke3d/Engine/src/cache.o
 .comment       0x0000000000000011       0x12 /home/jbrawley/Desktop/rockbox-photo-cf-support/build/apps/plugins/sdl/progs/duke3d/Engine/src/display.o
 .comment       0x0000000000000011       0x12 /home/jbrawley/Desktop/rockbox-photo-cf-support/build/apps/plugins/sdl/progs/duke3d/Engine/src/draw.o
 .comment       0x0000000000000011       0x12 /home/jbrawley/Desktop/rockbox-photo-cf-support/build/apps/plugins/sdl/progs/duke3d/Engine/src/dummy_multi.o
 .comment       0x0000000000000011       0x12 /home/jbrawley/Desktop/rockbox-photo-cf-support/build/apps/plugins/sdl/progs/duke3d/Engine/src/engine.o
 .comment       0x0000000000000011       0x12 /home/jbrawley/Desktop/rockbox-photo-cf-support/build/apps/plugins/sdl/progs/duke3d/Engine/src/filesystem.o
 .comment       0x0000000000000011       0x12 /home/jbrawley/Desktop/rockbox-photo-cf-support/build/apps/plugins/sdl/progs/duke3d/Engine/src/fixedPoint_math.o
 .comment       0x0000000000000011       0x12 /home/jbrawley/Desktop/rockbox-photo-cf-support/build/apps/plugins/sdl/progs/duke3d/Engine/src/icon.o
 .comment       0x0000000000000011       0x12 /home/jbrawley/Desktop/rockbox-photo-cf-support/build/apps/plugins/sdl/progs/duke3d/Engine/src/mmulti.o
 .comment       0x0000000000000011       0x12 /home/jbrawley/Desktop/rockbox-photo-cf-support/build/apps/plugins/sdl/progs/duke3d/Engine/src/network.o
 .comment       0x0000000000000011       0x12 /home/jbrawley/Desktop/rockbox-photo-cf-support/build/apps/plugins/sdl/progs/duke3d/Engine/src/tiles.o
 .comment       0x0000000000000011       0x12 /home/jbrawley/Desktop/rockbox-photo-cf-support/build/apps/plugins/sdl/progs/duke3d/Game/src/audiolib/fx_man.o
 .comment       0x0000000000000011       0x12 /home/jbrawley/Desktop/rockbox-photo-cf-support/build/apps/plugins/sdl/progs/duke3d/Game/src/audiolib/dsl.o
 .comment       0x0000000000000011       0x12 /home/jbrawley/Desktop/rockbox-photo-cf-support/build/apps/plugins/sdl/progs/duke3d/Game/src/audiolib/ll_man.o
 .comment       0x0000000000000011       0x12 /home/jbrawley/Desktop/rockbox-photo-cf-support/build/apps/plugins/sdl/progs/duke3d/Game/src/audiolib/multivoc.o
 .comment       0x0000000000000011       0x12 /home/jbrawley/Desktop/rockbox-photo-cf-support/build/apps/plugins/sdl/progs/duke3d/Game/src/audiolib/mv_mix.o
 .comment       0x0000000000000011       0x12 /home/jbrawley/Desktop/rockbox-photo-cf-support/build/apps/plugins/sdl/progs/duke3d/Game/src/audiolib/mvreverb.o
 .comment       0x0000000000000011       0x12 /home/jbrawley/Desktop/rockbox-photo-cf-support/build/apps/plugins/sdl/progs/duke3d/Game/src/audiolib/nodpmi.o
 .comment       0x0000000000000011       0x12 /home/jbrawley/Desktop/rockbox-photo-cf-support/build/apps/plugins/sdl/progs/duke3d/Game/src/audiolib/pitch.o
 .comment       0x0000000000000011       0x12 /home/jbrawley/Desktop/rockbox-photo-cf-support/build/apps/plugins/sdl/progs/duke3d/Game/src/audiolib/user.o
 .comment       0x0000000000000011       0x12 /home/jbrawley/Desktop/rockbox-photo-cf-support/build/apps/plugins/sdl/progs/duke3d/Game/src/audiolib/usrhooks.o
 .comment       0x0000000000000011       0x12 /home/jbrawley/Desktop/rockbox-photo-cf-support/build/apps/plugins/sdl/progs/duke3d/Game/src/actors.o
 .comment       0x0000000000000011       0x12 /home/jbrawley/Desktop/rockbox-photo-cf-support/build/apps/plugins/sdl/progs/duke3d/Game/src/animlib.o
 .comment       0x0000000000000011       0x12 /home/jbrawley/Desktop/rockbox-photo-cf-support/build/apps/plugins/sdl/progs/duke3d/Game/src/config.o
 .comment       0x0000000000000011       0x12 /home/jbrawley/Desktop/rockbox-photo-cf-support/build/apps/plugins/sdl/progs/duke3d/Game/src/console.o
 .comment       0x0000000000000011       0x12 /home/jbrawley/Desktop/rockbox-photo-cf-support/build/apps/plugins/sdl/progs/duke3d/Game/src/control.o
 .comment       0x0000000000000011       0x12 /home/jbrawley/Desktop/rockbox-photo-cf-support/build/apps/plugins/sdl/progs/duke3d/Game/src/cvar_defs.o
 .comment       0x0000000000000011       0x12 /home/jbrawley/Desktop/rockbox-photo-cf-support/build/apps/plugins/sdl/progs/duke3d/Game/src/cvars.o
 .comment       0x0000000000000011       0x12 /home/jbrawley/Desktop/rockbox-photo-cf-support/build/apps/plugins/sdl/progs/duke3d/Game/src/dummy_audiolib.o
 .comment       0x0000000000000011       0x12 /home/jbrawley/Desktop/rockbox-photo-cf-support/build/apps/plugins/sdl/progs/duke3d/Game/src/game.o
 .comment       0x0000000000000011       0x12 /home/jbrawley/Desktop/rockbox-photo-cf-support/build/apps/plugins/sdl/progs/duke3d/Game/src/gamedef.o
 .comment       0x0000000000000011       0x12 /home/jbrawley/Desktop/rockbox-photo-cf-support/build/apps/plugins/sdl/progs/duke3d/Game/src/global.o
 .comment       0x0000000000000011       0x12 /home/jbrawley/Desktop/rockbox-photo-cf-support/build/apps/plugins/sdl/progs/duke3d/Game/src/keyboard.o
 .comment       0x0000000000000011       0x12 /home/jbrawley/Desktop/rockbox-photo-cf-support/build/apps/plugins/sdl/progs/duke3d/Game/src/menues.o
 .comment       0x0000000000000011       0x12 /home/jbrawley/Desktop/rockbox-photo-cf-support/build/apps/plugins/sdl/progs/duke3d/Game/src/midi/sdl_midi.o
 .comment       0x0000000000000011       0x12 /home/jbrawley/Desktop/rockbox-photo-cf-support/build/apps/plugins/sdl/progs/duke3d/Game/src/player.o
 .comment       0x0000000000000011       0x12 /home/jbrawley/Desktop/rockbox-photo-cf-support/build/apps/plugins/sdl/progs/duke3d/Game/src/premap.o
 .comment       0x0000000000000011       0x12 /home/jbrawley/Desktop/rockbox-photo-cf-support/build/apps/plugins/sdl/progs/duke3d/Game/src/rts.o
 .comment       0x0000000000000011       0x12 /home/jbrawley/Desktop/rockbox-photo-cf-support/build/apps/plugins/sdl/progs/duke3d/Game/src/scriplib.o
 .comment       0x0000000000000011       0x12 /home/jbrawley/Desktop/rockbox-photo-cf-support/build/apps/plugins/sdl/progs/duke3d/Game/src/sector.o
 .comment       0x0000000000000011       0x12 /home/jbrawley/Desktop/rockbox-photo-cf-support/build/apps/plugins/sdl/progs/duke3d/Game/src/sounds.o
 .comment       0x0000000000000011       0x12 /home/jbrawley/Desktop/rockbox-photo-cf-support/build/apps/plugins/plugin_crt0.o
 .comment       0x0000000000000011       0x12 /home/jbrawley/Desktop/rockbox-photo-cf-support/build/lib/libtlsf.a(tlsf.o)
 .comment       0x0000000000000011       0x12 /home/jbrawley/Desktop/rockbox-photo-cf-support/build/apps/plugins/libplugin.a(gcc-support.o)
 .comment       0x0000000000000011       0x12 /home/jbrawley/Desktop/rockbox-photo-cf-support/build/apps/plugins/libplugin.a(helper.o)
 .comment       0x0000000000000011       0x12 /home/jbrawley/Desktop/rockbox-photo-cf-support/build/apps/plugins/libplugin.a(strncpy.o)
 .comment       0x0000000000000011       0x12 /home/jbrawley/Desktop/rockbox-photo-cf-support/build/apps/plugins/libplugin.a(stdio_compat.o)
 .comment       0x0000000000000011       0x12 /home/jbrawley/Desktop/rockbox-photo-cf-support/build/apps/plugins/libplugin.a(pluginlib_bmp.o)
 .comment       0x0000000000000011       0x12 /home/jbrawley/Desktop/rockbox-photo-cf-support/build/apps/plugins/libplugin.a(pluginlib_resize.o)
 .comment       0x0000000000000011       0x12 /home/jbrawley/Desktop/rockbox-photo-cf-support/build/lib/libfixedpoint.a(fixedpoint.o)
 .comment       0x0000000000000011       0x12 /usr/local/lib/gcc/arm-elf-eabi/4.9.4/libgcc.a(bpabi.o)
 .comment       0x0000000000000011       0x12 /usr/local/lib/gcc/arm-elf-eabi/4.9.4/libgcc.a(_divdi3.o)
 .comment       0x0000000000000011       0x12 /usr/local/lib/gcc/arm-elf-eabi/4.9.4/libgcc.a(_udivdi3.o)
OUTPUT(/home/jbrawley/Desktop/rockbox-photo-cf-support/build/apps/plugins/sdl/duke3d.elf elf32-littlearm)

.ARM.attributes
                0x0000000000000000       0x2e
 .ARM.attributes
                0x0000000000000000       0x2c /home/jbrawley/Desktop/rockbox-photo-cf-support/build/apps/plugins/sdl/main.o
 .ARM.attributes
                0x000000000000002c       0x2c /home/jbrawley/Desktop/rockbox-photo-cf-support/build/apps/plugins/sdl/wrappers.o
 .ARM.attributes
                0x0000000000000058       0x2c /home/jbrawley/Desktop/rockbox-photo-cf-support/build/apps/plugins/sdl/src/SDL.o
 .ARM.attributes
                0x0000000000000084       0x2c /home/jbrawley/Desktop/rockbox-photo-cf-support/build/apps/plugins/sdl/src/SDL_error.o
 .ARM.attributes
                0x00000000000000b0       0x2c /home/jbrawley/Desktop/rockbox-photo-cf-support/build/apps/plugins/sdl/src/SDL_fatal.o
 .ARM.attributes
                0x00000000000000dc       0x2c /home/jbrawley/Desktop/rockbox-photo-cf-support/build/apps/plugins/sdl/src/audio/SDL_audio.o
 .ARM.attributes
                0x0000000000000108       0x2c /home/jbrawley/Desktop/rockbox-photo-cf-support/build/apps/plugins/sdl/src/audio/SDL_audiocvt.o
 .ARM.attributes
                0x0000000000000134       0x2c /home/jbrawley/Desktop/rockbox-photo-cf-support/build/apps/plugins/sdl/src/audio/SDL_audiodev.o
 .ARM.attributes
                0x0000000000000160       0x2c /home/jbrawley/Desktop/rockbox-photo-cf-support/build/apps/plugins/sdl/src/audio/SDL_mixer.o
 .ARM.attributes
                0x000000000000018c       0x2c /home/jbrawley/Desktop/rockbox-photo-cf-support/build/apps/plugins/sdl/src/audio/SDL_mixer_MMX.o
 .ARM.attributes
                0x00000000000001b8       0x2c /home/jbrawley/Desktop/rockbox-photo-cf-support/build/apps/plugins/sdl/src/audio/SDL_mixer_MMX_VC.o
 .ARM.attributes
                0x00000000000001e4       0x2c /home/jbrawley/Desktop/rockbox-photo-cf-support/build/apps/plugins/sdl/src/audio/SDL_mixer_m68k.o
 .ARM.attributes
                0x0000000000000210       0x2c /home/jbrawley/Desktop/rockbox-photo-cf-support/build/apps/plugins/sdl/src/audio/SDL_wave.o
 .ARM.attributes
                0x000000000000023c       0x2c /home/jbrawley/Desktop/rockbox-photo-cf-support/build/apps/plugins/sdl/src/audio/rockbox/SDL_rockboxaudio.o
 .ARM.attributes
                0x0000000000000268       0x2c /home/jbrawley/Desktop/rockbox-photo-cf-support/build/apps/plugins/sdl/src/cdrom/SDL_cdrom.o
 .ARM.attributes
                0x0000000000000294       0x2c /home/jbrawley/Desktop/rockbox-photo-cf-support/build/apps/plugins/sdl/src/cdrom/dummy/SDL_syscdrom.o
 .ARM.attributes
                0x00000000000002c0       0x2c /home/jbrawley/Desktop/rockbox-photo-cf-support/build/apps/plugins/sdl/src/cpuinfo/SDL_cpuinfo.o
 .ARM.attributes
                0x00000000000002ec       0x2c /home/jbrawley/Desktop/rockbox-photo-cf-support/build/apps/plugins/sdl/src/events/SDL_active.o
 .ARM.attributes
                0x0000000000000318       0x2c /home/jbrawley/Desktop/rockbox-photo-cf-support/build/apps/plugins/sdl/src/events/SDL_events.o
 .ARM.attributes
                0x0000000000000344       0x2c /home/jbrawley/Desktop/rockbox-photo-cf-support/build/apps/plugins/sdl/src/events/SDL_expose.o
 .ARM.attributes
                0x0000000000000370       0x2c /home/jbrawley/Desktop/rockbox-photo-cf-support/build/apps/plugins/sdl/src/events/SDL_keyboard.o
 .ARM.attributes
                0x000000000000039c       0x2c /home/jbrawley/Desktop/rockbox-photo-cf-support/build/apps/plugins/sdl/src/events/SDL_mouse.o
 .ARM.attributes
                0x00000000000003c8       0x2c /home/jbrawley/Desktop/rockbox-photo-cf-support/build/apps/plugins/sdl/src/events/SDL_quit.o
 .ARM.attributes
                0x00000000000003f4       0x2c /home/jbrawley/Desktop/rockbox-photo-cf-support/build/apps/plugins/sdl/src/events/SDL_resize.o
 .ARM.attributes
                0x0000000000000420       0x2c /home/jbrawley/Desktop/rockbox-photo-cf-support/build/apps/plugins/sdl/src/file/SDL_rwops.o
 .ARM.attributes
                0x000000000000044c       0x2c /home/jbrawley/Desktop/rockbox-photo-cf-support/build/apps/plugins/sdl/src/joystick/SDL_joystick.o
 .ARM.attributes
                0x0000000000000478       0x2c /home/jbrawley/Desktop/rockbox-photo-cf-support/build/apps/plugins/sdl/src/joystick/dummy/SDL_sysjoystick.o
 .ARM.attributes
                0x00000000000004a4       0x2c /home/jbrawley/Desktop/rockbox-photo-cf-support/build/apps/plugins/sdl/src/loadso/dummy/SDL_sysloadso.o
 .ARM.attributes
                0x00000000000004d0       0x2c /home/jbrawley/Desktop/rockbox-photo-cf-support/build/apps/plugins/sdl/src/stdlib/SDL_getenv.o
 .ARM.attributes
                0x00000000000004fc       0x2c /home/jbrawley/Desktop/rockbox-photo-cf-support/build/apps/plugins/sdl/src/stdlib/SDL_iconv.o
 .ARM.attributes
                0x0000000000000528       0x2c /home/jbrawley/Desktop/rockbox-photo-cf-support/build/apps/plugins/sdl/src/stdlib/SDL_malloc.o
 .ARM.attributes
                0x0000000000000554       0x2c /home/jbrawley/Desktop/rockbox-photo-cf-support/build/apps/plugins/sdl/src/stdlib/SDL_qsort.o
 .ARM.attributes
                0x0000000000000580       0x2c /home/jbrawley/Desktop/rockbox-photo-cf-support/build/apps/plugins/sdl/src/stdlib/SDL_stdlib.o
 .ARM.attributes
                0x00000000000005ac       0x2c /home/jbrawley/Desktop/rockbox-photo-cf-support/build/apps/plugins/sdl/src/stdlib/SDL_string.o
 .ARM.attributes
                0x00000000000005d8       0x2c /home/jbrawley/Desktop/rockbox-photo-cf-support/build/apps/plugins/sdl/src/thread/SDL_thread.o
 .ARM.attributes
                0x0000000000000604       0x2c /home/jbrawley/Desktop/rockbox-photo-cf-support/build/apps/plugins/sdl/src/thread/rockbox/SDL_syscond.o
 .ARM.attributes
                0x0000000000000630       0x2c /home/jbrawley/Desktop/rockbox-photo-cf-support/build/apps/plugins/sdl/src/thread/rockbox/SDL_sysmutex.o
 .ARM.attributes
                0x000000000000065c       0x2c /home/jbrawley/Desktop/rockbox-photo-cf-support/build/apps/plugins/sdl/src/thread/rockbox/SDL_syssem.o
 .ARM.attributes
                0x0000000000000688       0x2c /home/jbrawley/Desktop/rockbox-photo-cf-support/build/apps/plugins/sdl/src/thread/rockbox/SDL_systhread.o
 .ARM.attributes
                0x00000000000006b4       0x2c /home/jbrawley/Desktop/rockbox-photo-cf-support/build/apps/plugins/sdl/src/timer/SDL_timer.o
 .ARM.attributes
                0x00000000000006e0       0x2c /home/jbrawley/Desktop/rockbox-photo-cf-support/build/apps/plugins/sdl/src/timer/rockbox/SDL_systimer.o
 .ARM.attributes
                0x000000000000070c       0x2c /home/jbrawley/Desktop/rockbox-photo-cf-support/build/apps/plugins/sdl/src/video/SDL_RLEaccel.o
 .ARM.attributes
                0x0000000000000738       0x2c /home/jbrawley/Desktop/rockbox-photo-cf-support/build/apps/plugins/sdl/src/video/SDL_blit.o
 .ARM.attributes
                0x0000000000000764       0x2c /home/jbrawley/Desktop/rockbox-photo-cf-support/build/apps/plugins/sdl/src/video/SDL_blit_0.o
 .ARM.attributes
                0x0000000000000790       0x2c /home/jbrawley/Desktop/rockbox-photo-cf-support/build/apps/plugins/sdl/src/video/SDL_blit_1.o
 .ARM.attributes
                0x00000000000007bc       0x2c /home/jbrawley/Desktop/rockbox-photo-cf-support/build/apps/plugins/sdl/src/video/SDL_blit_A.o
 .ARM.attributes
                0x00000000000007e8       0x2c /home/jbrawley/Desktop/rockbox-photo-cf-support/build/apps/plugins/sdl/src/video/SDL_blit_N.o
 .ARM.attributes
                0x0000000000000814       0x2c /home/jbrawley/Desktop/rockbox-photo-cf-support/build/apps/plugins/sdl/src/video/SDL_bmp.o
 .ARM.attributes
                0x0000000000000840       0x2c /home/jbrawley/Desktop/rockbox-photo-cf-support/build/apps/plugins/sdl/src/video/SDL_cursor.o
 .ARM.attributes
                0x000000000000086c       0x2c /home/jbrawley/Desktop/rockbox-photo-cf-support/build/apps/plugins/sdl/src/video/SDL_gamma.o
 .ARM.attributes
                0x0000000000000898       0x2c /home/jbrawley/Desktop/rockbox-photo-cf-support/build/apps/plugins/sdl/src/video/SDL_pixels.o
 .ARM.attributes
                0x00000000000008c4       0x2c /home/jbrawley/Desktop/rockbox-photo-cf-support/build/apps/plugins/sdl/src/video/SDL_stretch.o
 .ARM.attributes
                0x00000000000008f0       0x2c /home/jbrawley/Desktop/rockbox-photo-cf-support/build/apps/plugins/sdl/src/video/SDL_surface.o
 .ARM.attributes
                0x000000000000091c       0x2c /home/jbrawley/Desktop/rockbox-photo-cf-support/build/apps/plugins/sdl/src/video/SDL_video.o
 .ARM.attributes
                0x0000000000000948       0x2c /home/jbrawley/Desktop/rockbox-photo-cf-support/build/apps/plugins/sdl/src/video/SDL_yuv.o
 .ARM.attributes
                0x0000000000000974       0x2c /home/jbrawley/Desktop/rockbox-photo-cf-support/build/apps/plugins/sdl/src/video/SDL_yuv_mmx.o
 .ARM.attributes
                0x00000000000009a0       0x2c /home/jbrawley/Desktop/rockbox-photo-cf-support/build/apps/plugins/sdl/src/video/SDL_yuv_sw.o
 .ARM.attributes
                0x00000000000009cc       0x2c /home/jbrawley/Desktop/rockbox-photo-cf-support/build/apps/plugins/sdl/src/video/dummy/SDL_nullevents.o
 .ARM.attributes
                0x00000000000009f8       0x2c /home/jbrawley/Desktop/rockbox-photo-cf-support/build/apps/plugins/sdl/src/video/dummy/SDL_nullmouse.o
 .ARM.attributes
                0x0000000000000a24       0x2c /home/jbrawley/Desktop/rockbox-photo-cf-support/build/apps/plugins/sdl/src/video/dummy/SDL_nullvideo.o
 .ARM.attributes
                0x0000000000000a50       0x2c /home/jbrawley/Desktop/rockbox-photo-cf-support/build/apps/plugins/sdl/src/video/rockbox/SDL_rockboxvideo.o
 .ARM.attributes
                0x0000000000000a7c       0x2c /home/jbrawley/Desktop/rockbox-photo-cf-support/build/apps/plugins/sdl/SDL_image/IMG_bmp.o
 .ARM.attributes
                0x0000000000000aa8       0x2c /home/jbrawley/Desktop/rockbox-photo-cf-support/build/apps/plugins/sdl/SDL_image/IMG.o
 .ARM.attributes
                0x0000000000000ad4       0x2c /home/jbrawley/Desktop/rockbox-photo-cf-support/build/apps/plugins/sdl/SDL_image/IMG_gif.o
 .ARM.attributes
                0x0000000000000b00       0x2c /home/jbrawley/Desktop/rockbox-photo-cf-support/build/apps/plugins/sdl/SDL_image/IMG_jpg.o
 .ARM.attributes
                0x0000000000000b2c       0x2c /home/jbrawley/Desktop/rockbox-photo-cf-support/build/apps/plugins/sdl/SDL_image/IMG_lbm.o
 .ARM.attributes
                0x0000000000000b58       0x2c /home/jbrawley/Desktop/rockbox-photo-cf-support/build/apps/plugins/sdl/SDL_image/IMG_pcx.o
 .ARM.attributes
                0x0000000000000b84       0x2c /home/jbrawley/Desktop/rockbox-photo-cf-support/build/apps/plugins/sdl/SDL_image/IMG_png.o
 .ARM.attributes
                0x0000000000000bb0       0x2c /home/jbrawley/Desktop/rockbox-photo-cf-support/build/apps/plugins/sdl/SDL_image/IMG_pnm.o
 .ARM.attributes
                0x0000000000000bdc       0x2c /home/jbrawley/Desktop/rockbox-photo-cf-support/build/apps/plugins/sdl/SDL_image/IMG_tga.o
 .ARM.attributes
                0x0000000000000c08       0x2c /home/jbrawley/Desktop/rockbox-photo-cf-support/build/apps/plugins/sdl/SDL_image/IMG_tif.o
 .ARM.attributes
                0x0000000000000c34       0x2c /home/jbrawley/Desktop/rockbox-photo-cf-support/build/apps/plugins/sdl/SDL_image/IMG_webp.o
 .ARM.attributes
                0x0000000000000c60       0x2c /home/jbrawley/Desktop/rockbox-photo-cf-support/build/apps/plugins/sdl/SDL_image/IMG_xcf.o
 .ARM.attributes
                0x0000000000000c8c       0x2c /home/jbrawley/Desktop/rockbox-photo-cf-support/build/apps/plugins/sdl/SDL_image/IMG_xpm.o
 .ARM.attributes
                0x0000000000000cb8       0x2c /home/jbrawley/Desktop/rockbox-photo-cf-support/build/apps/plugins/sdl/SDL_image/IMG_xv.o
 .ARM.attributes
                0x0000000000000ce4       0x2c /home/jbrawley/Desktop/rockbox-photo-cf-support/build/apps/plugins/sdl/SDL_image/IMG_xxx.o
 .ARM.attributes
                0x0000000000000d10       0x2c /home/jbrawley/Desktop/rockbox-photo-cf-support/build/apps/plugins/sdl/SDL_mixer/dynamic_flac.o
 .ARM.attributes
                0x0000000000000d3c       0x2c /home/jbrawley/Desktop/rockbox-photo-cf-support/build/apps/plugins/sdl/SDL_mixer/dynamic_fluidsynth.o
 .ARM.attributes
                0x0000000000000d68       0x2c /home/jbrawley/Desktop/rockbox-photo-cf-support/build/apps/plugins/sdl/SDL_mixer/dynamic_mod.o
 .ARM.attributes
                0x0000000000000d94       0x2c /home/jbrawley/Desktop/rockbox-photo-cf-support/build/apps/plugins/sdl/SDL_mixer/dynamic_mp3.o
 .ARM.attributes
                0x0000000000000dc0       0x2c /home/jbrawley/Desktop/rockbox-photo-cf-support/build/apps/plugins/sdl/SDL_mixer/dynamic_ogg.o
 .ARM.attributes
                0x0000000000000dec       0x2c /home/jbrawley/Desktop/rockbox-photo-cf-support/build/apps/plugins/sdl/SDL_mixer/effect_position.o
 .ARM.attributes
                0x0000000000000e18       0x2c /home/jbrawley/Desktop/rockbox-photo-cf-support/build/apps/plugins/sdl/SDL_mixer/effects_internal.o
 .ARM.attributes
                0x0000000000000e44       0x2c /home/jbrawley/Desktop/rockbox-photo-cf-support/build/apps/plugins/sdl/SDL_mixer/effect_stereoreverse.o
 .ARM.attributes
                0x0000000000000e70       0x2c /home/jbrawley/Desktop/rockbox-photo-cf-support/build/apps/plugins/sdl/SDL_mixer/fluidsynth.o
 .ARM.attributes
                0x0000000000000e9c       0x2c /home/jbrawley/Desktop/rockbox-photo-cf-support/build/apps/plugins/sdl/SDL_mixer/load_aiff.o
 .ARM.attributes
                0x0000000000000ec8       0x2c /home/jbrawley/Desktop/rockbox-photo-cf-support/build/apps/plugins/sdl/SDL_mixer/load_flac.o
 .ARM.attributes
                0x0000000000000ef4       0x2c /home/jbrawley/Desktop/rockbox-photo-cf-support/build/apps/plugins/sdl/SDL_mixer/load_ogg.o
 .ARM.attributes
                0x0000000000000f20       0x2c /home/jbrawley/Desktop/rockbox-photo-cf-support/build/apps/plugins/sdl/SDL_mixer/load_voc.o
 .ARM.attributes
                0x0000000000000f4c       0x2c /home/jbrawley/Desktop/rockbox-photo-cf-support/build/apps/plugins/sdl/SDL_mixer/mixer.o
 .ARM.attributes
                0x0000000000000f78       0x2c /home/jbrawley/Desktop/rockbox-photo-cf-support/build/apps/plugins/sdl/SDL_mixer/music.o
 .ARM.attributes
                0x0000000000000fa4       0x2c /home/jbrawley/Desktop/rockbox-photo-cf-support/build/apps/plugins/sdl/SDL_mixer/music_cmd.o
 .ARM.attributes
                0x0000000000000fd0       0x2c /home/jbrawley/Desktop/rockbox-photo-cf-support/build/apps/plugins/sdl/SDL_mixer/music_flac.o
 .ARM.attributes
                0x0000000000000ffc       0x2c /home/jbrawley/Desktop/rockbox-photo-cf-support/build/apps/plugins/sdl/SDL_mixer/music_mad.o
 .ARM.attributes
                0x0000000000001028       0x2c /home/jbrawley/Desktop/rockbox-photo-cf-support/build/apps/plugins/sdl/SDL_mixer/music_mod.o
 .ARM.attributes
                0x0000000000001054       0x2c /home/jbrawley/Desktop/rockbox-photo-cf-support/build/apps/plugins/sdl/SDL_mixer/music_modplug.o
 .ARM.attributes
                0x0000000000001080       0x2c /home/jbrawley/Desktop/rockbox-photo-cf-support/build/apps/plugins/sdl/SDL_mixer/music_ogg.o
 .ARM.attributes
                0x00000000000010ac       0x2c /home/jbrawley/Desktop/rockbox-photo-cf-support/build/apps/plugins/sdl/SDL_mixer/wavestream.o
 .ARM.attributes
                0x00000000000010d8       0x2c /home/jbrawley/Desktop/rockbox-photo-cf-support/build/apps/plugins/sdl/SDL_mixer/timidity/common.o
 .ARM.attributes
                0x0000000000001104       0x2c /home/jbrawley/Desktop/rockbox-photo-cf-support/build/apps/plugins/sdl/SDL_mixer/timidity/ctrlmode.o
 .ARM.attributes
                0x0000000000001130       0x2c /home/jbrawley/Desktop/rockbox-photo-cf-support/build/apps/plugins/sdl/SDL_mixer/timidity/filter.o
 .ARM.attributes
                0x000000000000115c       0x2c /home/jbrawley/Desktop/rockbox-photo-cf-support/build/apps/plugins/sdl/SDL_mixer/timidity/instrum.o
 .ARM.attributes
                0x0000000000001188       0x2c /home/jbrawley/Desktop/rockbox-photo-cf-support/build/apps/plugins/sdl/SDL_mixer/timidity/mix.o
 .ARM.attributes
                0x00000000000011b4       0x2c /home/jbrawley/Desktop/rockbox-photo-cf-support/build/apps/plugins/sdl/SDL_mixer/timidity/output.o
 .ARM.attributes
                0x00000000000011e0       0x2c /home/jbrawley/Desktop/rockbox-photo-cf-support/build/apps/plugins/sdl/SDL_mixer/timidity/playmidi.o
 .ARM.attributes
                0x000000000000120c       0x2c /home/jbrawley/Desktop/rockbox-photo-cf-support/build/apps/plugins/sdl/SDL_mixer/timidity/readmidi.o
 .ARM.attributes
                0x0000000000001238       0x2c /home/jbrawley/Desktop/rockbox-photo-cf-support/build/apps/plugins/sdl/SDL_mixer/timidity/resample.o
 .ARM.attributes
                0x0000000000001264       0x2c /home/jbrawley/Desktop/rockbox-photo-cf-support/build/apps/plugins/sdl/SDL_mixer/timidity/sdl_a.o
 .ARM.attributes
                0x0000000000001290       0x2c /home/jbrawley/Desktop/rockbox-photo-cf-support/build/apps/plugins/sdl/SDL_mixer/timidity/sdl_c.o
 .ARM.attributes
                0x00000000000012bc       0x2c /home/jbrawley/Desktop/rockbox-photo-cf-support/build/apps/plugins/sdl/SDL_mixer/timidity/tables.o
 .ARM.attributes
                0x00000000000012e8       0x2c /home/jbrawley/Desktop/rockbox-photo-cf-support/build/apps/plugins/sdl/SDL_mixer/timidity/timidity.o
 .ARM.attributes
                0x0000000000001314       0x2c /home/jbrawley/Desktop/rockbox-photo-cf-support/build/apps/plugins/sdl/progs/duke3d/Engine/src/cache.o
 .ARM.attributes
                0x0000000000001340       0x2c /home/jbrawley/Desktop/rockbox-photo-cf-support/build/apps/plugins/sdl/progs/duke3d/Engine/src/display.o
 .ARM.attributes
                0x000000000000136c       0x2c /home/jbrawley/Desktop/rockbox-photo-cf-support/build/apps/plugins/sdl/progs/duke3d/Engine/src/draw.o
 .ARM.attributes
                0x0000000000001398       0x2c /home/jbrawley/Desktop/rockbox-photo-cf-support/build/apps/plugins/sdl/progs/duke3d/Engine/src/dummy_multi.o
 .ARM.attributes
                0x00000000000013c4       0x2c /home/jbrawley/Desktop/rockbox-photo-cf-support/build/apps/plugins/sdl/progs/duke3d/Engine/src/engine.o
 .ARM.attributes
                0x00000000000013f0       0x2c /home/jbrawley/Desktop/rockbox-photo-cf-support/build/apps/plugins/sdl/progs/duke3d/Engine/src/filesystem.o
 .ARM.attributes
                0x000000000000141c       0x2c /home/jbrawley/Desktop/rockbox-photo-cf-support/build/apps/plugins/sdl/progs/duke3d/Engine/src/fixedPoint_math.o
 .ARM.attributes
                0x0000000000001448       0x2c /home/jbrawley/Desktop/rockbox-photo-cf-support/build/apps/plugins/sdl/progs/duke3d/Engine/src/icon.o
 .ARM.attributes
                0x0000000000001474       0x2c /home/jbrawley/Desktop/rockbox-photo-cf-support/build/apps/plugins/sdl/progs/duke3d/Engine/src/mmulti.o
 .ARM.attributes
                0x00000000000014a0       0x2c /home/jbrawley/Desktop/rockbox-photo-cf-support/build/apps/plugins/sdl/progs/duke3d/Engine/src/network.o
 .ARM.attributes
                0x00000000000014cc       0x2c /home/jbrawley/Desktop/rockbox-photo-cf-support/build/apps/plugins/sdl/progs/duke3d/Engine/src/tiles.o
 .ARM.attributes
                0x00000000000014f8       0x2c /home/jbrawley/Desktop/rockbox-photo-cf-support/build/apps/plugins/sdl/progs/duke3d/Game/src/audiolib/fx_man.o
 .ARM.attributes
                0x0000000000001524       0x2c /home/jbrawley/Desktop/rockbox-photo-cf-support/build/apps/plugins/sdl/progs/duke3d/Game/src/audiolib/dsl.o
 .ARM.attributes
                0x0000000000001550       0x2c /home/jbrawley/Desktop/rockbox-photo-cf-support/build/apps/plugins/sdl/progs/duke3d/Game/src/audiolib/ll_man.o
 .ARM.attributes
                0x000000000000157c       0x2c /home/jbrawley/Desktop/rockbox-photo-cf-support/build/apps/plugins/sdl/progs/duke3d/Game/src/audiolib/multivoc.o
 .ARM.attributes
                0x00000000000015a8       0x2c /home/jbrawley/Desktop/rockbox-photo-cf-support/build/apps/plugins/sdl/progs/duke3d/Game/src/audiolib/mv_mix.o
 .ARM.attributes
                0x00000000000015d4       0x2c /home/jbrawley/Desktop/rockbox-photo-cf-support/build/apps/plugins/sdl/progs/duke3d/Game/src/audiolib/mvreverb.o
 .ARM.attributes
                0x0000000000001600       0x2c /home/jbrawley/Desktop/rockbox-photo-cf-support/build/apps/plugins/sdl/progs/duke3d/Game/src/audiolib/nodpmi.o
 .ARM.attributes
                0x000000000000162c       0x2c /home/jbrawley/Desktop/rockbox-photo-cf-support/build/apps/plugins/sdl/progs/duke3d/Game/src/audiolib/pitch.o
 .ARM.attributes
                0x0000000000001658       0x2c /home/jbrawley/Desktop/rockbox-photo-cf-support/build/apps/plugins/sdl/progs/duke3d/Game/src/audiolib/user.o
 .ARM.attributes
                0x0000000000001684       0x2c /home/jbrawley/Desktop/rockbox-photo-cf-support/build/apps/plugins/sdl/progs/duke3d/Game/src/audiolib/usrhooks.o
 .ARM.attributes
                0x00000000000016b0       0x2c /home/jbrawley/Desktop/rockbox-photo-cf-support/build/apps/plugins/sdl/progs/duke3d/Game/src/actors.o
 .ARM.attributes
                0x00000000000016dc       0x2c /home/jbrawley/Desktop/rockbox-photo-cf-support/build/apps/plugins/sdl/progs/duke3d/Game/src/animlib.o
 .ARM.attributes
                0x0000000000001708       0x2c /home/jbrawley/Desktop/rockbox-photo-cf-support/build/apps/plugins/sdl/progs/duke3d/Game/src/config.o
 .ARM.attributes
                0x0000000000001734       0x2c /home/jbrawley/Desktop/rockbox-photo-cf-support/build/apps/plugins/sdl/progs/duke3d/Game/src/console.o
 .ARM.attributes
                0x0000000000001760       0x2c /home/jbrawley/Desktop/rockbox-photo-cf-support/build/apps/plugins/sdl/progs/duke3d/Game/src/control.o
 .ARM.attributes
                0x000000000000178c       0x2c /home/jbrawley/Desktop/rockbox-photo-cf-support/build/apps/plugins/sdl/progs/duke3d/Game/src/cvar_defs.o
 .ARM.attributes
                0x00000000000017b8       0x2c /home/jbrawley/Desktop/rockbox-photo-cf-support/build/apps/plugins/sdl/progs/duke3d/Game/src/cvars.o
 .ARM.attributes
                0x00000000000017e4       0x2c /home/jbrawley/Desktop/rockbox-photo-cf-support/build/apps/plugins/sdl/progs/duke3d/Game/src/dummy_audiolib.o
 .ARM.attributes
                0x0000000000001810       0x2c /home/jbrawley/Desktop/rockbox-photo-cf-support/build/apps/plugins/sdl/progs/duke3d/Game/src/game.o
 .ARM.attributes
                0x000000000000183c       0x2c /home/jbrawley/Desktop/rockbox-photo-cf-support/build/apps/plugins/sdl/progs/duke3d/Game/src/gamedef.o
 .ARM.attributes
                0x0000000000001868       0x2c /home/jbrawley/Desktop/rockbox-photo-cf-support/build/apps/plugins/sdl/progs/duke3d/Game/src/global.o
 .ARM.attributes
                0x0000000000001894       0x2c /home/jbrawley/Desktop/rockbox-photo-cf-support/build/apps/plugins/sdl/progs/duke3d/Game/src/keyboard.o
 .ARM.attributes
                0x00000000000018c0       0x2c /home/jbrawley/Desktop/rockbox-photo-cf-support/build/apps/plugins/sdl/progs/duke3d/Game/src/menues.o
 .ARM.attributes
                0x00000000000018ec       0x2c /home/jbrawley/Desktop/rockbox-photo-cf-support/build/apps/plugins/sdl/progs/duke3d/Game/src/midi/sdl_midi.o
 .ARM.attributes
                0x0000000000001918       0x2c /home/jbrawley/Desktop/rockbox-photo-cf-support/build/apps/plugins/sdl/progs/duke3d/Game/src/player.o
 .ARM.attributes
                0x0000000000001944       0x2c /home/jbrawley/Desktop/rockbox-photo-cf-support/build/apps/plugins/sdl/progs/duke3d/Game/src/premap.o
 .ARM.attributes
                0x0000000000001970       0x2c /home/jbrawley/Desktop/rockbox-photo-cf-support/build/apps/plugins/sdl/progs/duke3d/Game/src/rts.o
 .ARM.attributes
                0x000000000000199c       0x2c /home/jbrawley/Desktop/rockbox-photo-cf-support/build/apps/plugins/sdl/progs/duke3d/Game/src/scriplib.o
 .ARM.attributes
                0x00000000000019c8       0x2c /home/jbrawley/Desktop/rockbox-photo-cf-support/build/apps/plugins/sdl/progs/duke3d/Game/src/sector.o
 .ARM.attributes
                0x00000000000019f4       0x2c /home/jbrawley/Desktop/rockbox-photo-cf-support/build/apps/plugins/sdl/progs/duke3d/Game/src/sounds.o
 .ARM.attributes
                0x0000000000001a20       0x30 /home/jbrawley/Desktop/rockbox-photo-cf-support/build/apps/plugins/plugin_crt0.o
 .ARM.attributes
                0x0000000000001a50       0x30 /home/jbrawley/Desktop/rockbox-photo-cf-support/build/lib/libtlsf.a(tlsf.o)
 .ARM.attributes
                0x0000000000001a80       0x30 /home/jbrawley/Desktop/rockbox-photo-cf-support/build/apps/plugins/libplugin.a(gcc-support.o)
 .ARM.attributes
                0x0000000000001ab0       0x30 /home/jbrawley/Desktop/rockbox-photo-cf-support/build/apps/plugins/libplugin.a(helper.o)
 .ARM.attributes
                0x0000000000001ae0       0x30 /home/jbrawley/Desktop/rockbox-photo-cf-support/build/apps/plugins/libplugin.a(strncpy.o)
 .ARM.attributes
                0x0000000000001b10       0x30 /home/jbrawley/Desktop/rockbox-photo-cf-support/build/apps/plugins/libplugin.a(stdio_compat.o)
 .ARM.attributes
                0x0000000000001b40       0x30 /home/jbrawley/Desktop/rockbox-photo-cf-support/build/apps/plugins/libplugin.a(pluginlib_bmp.o)
 .ARM.attributes
                0x0000000000001b70       0x30 /home/jbrawley/Desktop/rockbox-photo-cf-support/build/apps/plugins/libplugin.a(pluginlib_resize.o)
 .ARM.attributes
                0x0000000000001ba0       0x20 /home/jbrawley/Desktop/rockbox-photo-cf-support/build/lib/libsetjmp.a(setjmp.o)
 .ARM.attributes
                0x0000000000001bc0       0x30 /home/jbrawley/Desktop/rockbox-photo-cf-support/build/lib/libfixedpoint.a(fixedpoint.o)
 .ARM.attributes
                0x0000000000001bf0       0x18 /usr/local/lib/gcc/arm-elf-eabi/4.9.4/libgcc.a(_udivsi3.o)
 .ARM.attributes
                0x0000000000001c08       0x18 /usr/local/lib/gcc/arm-elf-eabi/4.9.4/libgcc.a(_divsi3.o)
 .ARM.attributes
                0x0000000000001c20       0x18 /usr/local/lib/gcc/arm-elf-eabi/4.9.4/libgcc.a(_dvmd_tls.o)
 .ARM.attributes
                0x0000000000001c38       0x18 /usr/local/lib/gcc/arm-elf-eabi/4.9.4/libgcc.a(_arm_addsubdf3.o)
 .ARM.attributes
                0x0000000000001c50       0x18 /usr/local/lib/gcc/arm-elf-eabi/4.9.4/libgcc.a(_arm_muldivdf3.o)
 .ARM.attributes
                0x0000000000001c68       0x18 /usr/local/lib/gcc/arm-elf-eabi/4.9.4/libgcc.a(_arm_cmpdf2.o)
 .ARM.attributes
                0x0000000000001c80       0x18 /usr/local/lib/gcc/arm-elf-eabi/4.9.4/libgcc.a(_arm_fixdfsi.o)
 .ARM.attributes
                0x0000000000001c98       0x18 /usr/local/lib/gcc/arm-elf-eabi/4.9.4/libgcc.a(_arm_fixunsdfsi.o)
 .ARM.attributes
                0x0000000000001cb0       0x18 /usr/local/lib/gcc/arm-elf-eabi/4.9.4/libgcc.a(_arm_truncdfsf2.o)
 .ARM.attributes
                0x0000000000001cc8       0x18 /usr/local/lib/gcc/arm-elf-eabi/4.9.4/libgcc.a(_arm_addsubsf3.o)
 .ARM.attributes
                0x0000000000001ce0       0x18 /usr/local/lib/gcc/arm-elf-eabi/4.9.4/libgcc.a(_arm_muldivsf3.o)
 .ARM.attributes
                0x0000000000001cf8       0x18 /usr/local/lib/gcc/arm-elf-eabi/4.9.4/libgcc.a(_arm_cmpsf2.o)
 .ARM.attributes
                0x0000000000001d10       0x18 /usr/local/lib/gcc/arm-elf-eabi/4.9.4/libgcc.a(_arm_fixsfsi.o)
 .ARM.attributes
                0x0000000000001d28       0x18 /usr/local/lib/gcc/arm-elf-eabi/4.9.4/libgcc.a(_arm_fixunssfsi.o)
 .ARM.attributes
                0x0000000000001d40       0x18 /usr/local/lib/gcc/arm-elf-eabi/4.9.4/libgcc.a(_clzsi2.o)
 .ARM.attributes
                0x0000000000001d58       0x18 /usr/local/lib/gcc/arm-elf-eabi/4.9.4/libgcc.a(_aeabi_ldivmod.o)
 .ARM.attributes
                0x0000000000001d70       0x18 /usr/local/lib/gcc/arm-elf-eabi/4.9.4/libgcc.a(_aeabi_uldivmod.o)
 .ARM.attributes
                0x0000000000001d88       0x30 /usr/local/lib/gcc/arm-elf-eabi/4.9.4/libgcc.a(bpabi.o)
 .ARM.attributes
                0x0000000000001db8       0x30 /usr/local/lib/gcc/arm-elf-eabi/4.9.4/libgcc.a(_divdi3.o)
 .ARM.attributes
                0x0000000000001de8       0x30 /usr/local/lib/gcc/arm-elf-eabi/4.9.4/libgcc.a(_udivdi3.o)
 .ARM.attributes
                0x0000000000001e18       0x18 /usr/local/lib/gcc/arm-elf-eabi/4.9.4/libgcc.a(_clzdi2.o)

.debug_frame    0x0000000000000000      0x180
 .debug_frame   0x0000000000000000       0x20 /usr/local/lib/gcc/arm-elf-eabi/4.9.4/libgcc.a(_udivsi3.o)
 .debug_frame   0x0000000000000020       0x20 /usr/local/lib/gcc/arm-elf-eabi/4.9.4/libgcc.a(_divsi3.o)
 .debug_frame   0x0000000000000040       0x28 /usr/local/lib/gcc/arm-elf-eabi/4.9.4/libgcc.a(_aeabi_ldivmod.o)
 .debug_frame   0x0000000000000068       0x28 /usr/local/lib/gcc/arm-elf-eabi/4.9.4/libgcc.a(_aeabi_uldivmod.o)
 .debug_frame   0x0000000000000090       0x68 /usr/local/lib/gcc/arm-elf-eabi/4.9.4/libgcc.a(bpabi.o)
 .debug_frame   0x00000000000000f8       0x48 /usr/local/lib/gcc/arm-elf-eabi/4.9.4/libgcc.a(_divdi3.o)
 .debug_frame   0x0000000000000140       0x40 /usr/local/lib/gcc/arm-elf-eabi/4.9.4/libgcc.a(_udivdi3.o)

.debug_line     0x0000000000000000      0xd79
 .debug_line    0x0000000000000000       0x7e /usr/local/lib/gcc/arm-elf-eabi/4.9.4/libgcc.a(_udivsi3.o)
 .debug_line    0x000000000000007e       0x8a /usr/local/lib/gcc/arm-elf-eabi/4.9.4/libgcc.a(_divsi3.o)
 .debug_line    0x0000000000000108       0x61 /usr/local/lib/gcc/arm-elf-eabi/4.9.4/libgcc.a(_dvmd_tls.o)
 .debug_line    0x0000000000000169      0x164 /usr/local/lib/gcc/arm-elf-eabi/4.9.4/libgcc.a(_arm_addsubdf3.o)
 .debug_line    0x00000000000002cd      0x180 /usr/local/lib/gcc/arm-elf-eabi/4.9.4/libgcc.a(_arm_muldivdf3.o)
 .debug_line    0x000000000000044d       0xae /usr/local/lib/gcc/arm-elf-eabi/4.9.4/libgcc.a(_arm_cmpdf2.o)
 .debug_line    0x00000000000004fb       0x78 /usr/local/lib/gcc/arm-elf-eabi/4.9.4/libgcc.a(_arm_fixdfsi.o)
 .debug_line    0x0000000000000573       0x76 /usr/local/lib/gcc/arm-elf-eabi/4.9.4/libgcc.a(_arm_fixunsdfsi.o)
 .debug_line    0x00000000000005e9       0x89 /usr/local/lib/gcc/arm-elf-eabi/4.9.4/libgcc.a(_arm_truncdfsf2.o)
 .debug_line    0x0000000000000672      0x117 /usr/local/lib/gcc/arm-elf-eabi/4.9.4/libgcc.a(_arm_addsubsf3.o)
 .debug_line    0x0000000000000789      0x123 /usr/local/lib/gcc/arm-elf-eabi/4.9.4/libgcc.a(_arm_muldivsf3.o)
 .debug_line    0x00000000000008ac       0xa2 /usr/local/lib/gcc/arm-elf-eabi/4.9.4/libgcc.a(_arm_cmpsf2.o)
 .debug_line    0x000000000000094e       0x78 /usr/local/lib/gcc/arm-elf-eabi/4.9.4/libgcc.a(_arm_fixsfsi.o)
 .debug_line    0x00000000000009c6       0x76 /usr/local/lib/gcc/arm-elf-eabi/4.9.4/libgcc.a(_arm_fixunssfsi.o)
 .debug_line    0x0000000000000a3c       0x6e /usr/local/lib/gcc/arm-elf-eabi/4.9.4/libgcc.a(_clzsi2.o)
 .debug_line    0x0000000000000aaa       0x65 /usr/local/lib/gcc/arm-elf-eabi/4.9.4/libgcc.a(_aeabi_ldivmod.o)
 .debug_line    0x0000000000000b0f       0x64 /usr/local/lib/gcc/arm-elf-eabi/4.9.4/libgcc.a(_aeabi_uldivmod.o)
 .debug_line    0x0000000000000b73       0x65 /usr/local/lib/gcc/arm-elf-eabi/4.9.4/libgcc.a(bpabi.o)
 .debug_line    0x0000000000000bd8       0x9e /usr/local/lib/gcc/arm-elf-eabi/4.9.4/libgcc.a(_divdi3.o)
 .debug_line    0x0000000000000c76       0x98 /usr/local/lib/gcc/arm-elf-eabi/4.9.4/libgcc.a(_udivdi3.o)
 .debug_line    0x0000000000000d0e       0x6b /usr/local/lib/gcc/arm-elf-eabi/4.9.4/libgcc.a(_clzdi2.o)

.debug_info     0x0000000000000000      0xf27
 .debug_info    0x0000000000000000       0x88 /usr/local/lib/gcc/arm-elf-eabi/4.9.4/libgcc.a(_udivsi3.o)
 .debug_info    0x0000000000000088       0x88 /usr/local/lib/gcc/arm-elf-eabi/4.9.4/libgcc.a(_divsi3.o)
 .debug_info    0x0000000000000110       0x88 /usr/local/lib/gcc/arm-elf-eabi/4.9.4/libgcc.a(_dvmd_tls.o)
 .debug_info    0x0000000000000198       0x89 /usr/local/lib/gcc/arm-elf-eabi/4.9.4/libgcc.a(_arm_addsubdf3.o)
 .debug_info    0x0000000000000221       0x89 /usr/local/lib/gcc/arm-elf-eabi/4.9.4/libgcc.a(_arm_muldivdf3.o)
 .debug_info    0x00000000000002aa       0x89 /usr/local/lib/gcc/arm-elf-eabi/4.9.4/libgcc.a(_arm_cmpdf2.o)
 .debug_info    0x0000000000000333       0x89 /usr/local/lib/gcc/arm-elf-eabi/4.9.4/libgcc.a(_arm_fixdfsi.o)
 .debug_info    0x00000000000003bc       0x89 /usr/local/lib/gcc/arm-elf-eabi/4.9.4/libgcc.a(_arm_fixunsdfsi.o)
 .debug_info    0x0000000000000445       0x89 /usr/local/lib/gcc/arm-elf-eabi/4.9.4/libgcc.a(_arm_truncdfsf2.o)
 .debug_info    0x00000000000004ce       0x89 /usr/local/lib/gcc/arm-elf-eabi/4.9.4/libgcc.a(_arm_addsubsf3.o)
 .debug_info    0x0000000000000557       0x89 /usr/local/lib/gcc/arm-elf-eabi/4.9.4/libgcc.a(_arm_muldivsf3.o)
 .debug_info    0x00000000000005e0       0x89 /usr/local/lib/gcc/arm-elf-eabi/4.9.4/libgcc.a(_arm_cmpsf2.o)
 .debug_info    0x0000000000000669       0x89 /usr/local/lib/gcc/arm-elf-eabi/4.9.4/libgcc.a(_arm_fixsfsi.o)
 .debug_info    0x00000000000006f2       0x89 /usr/local/lib/gcc/arm-elf-eabi/4.9.4/libgcc.a(_arm_fixunssfsi.o)
 .debug_info    0x000000000000077b       0x88 /usr/local/lib/gcc/arm-elf-eabi/4.9.4/libgcc.a(_clzsi2.o)
 .debug_info    0x0000000000000803       0x84 /usr/local/lib/gcc/arm-elf-eabi/4.9.4/libgcc.a(_aeabi_ldivmod.o)
 .debug_info    0x0000000000000887       0x84 /usr/local/lib/gcc/arm-elf-eabi/4.9.4/libgcc.a(_aeabi_uldivmod.o)
 .debug_info    0x000000000000090b      0x164 /usr/local/lib/gcc/arm-elf-eabi/4.9.4/libgcc.a(bpabi.o)
 .debug_info    0x0000000000000a6f      0x269 /usr/local/lib/gcc/arm-elf-eabi/4.9.4/libgcc.a(_divdi3.o)
 .debug_info    0x0000000000000cd8      0x1c7 /usr/local/lib/gcc/arm-elf-eabi/4.9.4/libgcc.a(_udivdi3.o)
 .debug_info    0x0000000000000e9f       0x88 /usr/local/lib/gcc/arm-elf-eabi/4.9.4/libgcc.a(_clzdi2.o)

.debug_abbrev   0x0000000000000000      0x409
 .debug_abbrev  0x0000000000000000       0x14 /usr/local/lib/gcc/arm-elf-eabi/4.9.4/libgcc.a(_udivsi3.o)
 .debug_abbrev  0x0000000000000014       0x14 /usr/local/lib/gcc/arm-elf-eabi/4.9.4/libgcc.a(_divsi3.o)
 .debug_abbrev  0x0000000000000028       0x14 /usr/local/lib/gcc/arm-elf-eabi/4.9.4/libgcc.a(_dvmd_tls.o)
 .debug_abbrev  0x000000000000003c       0x14 /usr/local/lib/gcc/arm-elf-eabi/4.9.4/libgcc.a(_arm_addsubdf3.o)
 .debug_abbrev  0x0000000000000050       0x14 /usr/local/lib/gcc/arm-elf-eabi/4.9.4/libgcc.a(_arm_muldivdf3.o)
 .debug_abbrev  0x0000000000000064       0x14 /usr/local/lib/gcc/arm-elf-eabi/4.9.4/libgcc.a(_arm_cmpdf2.o)
 .debug_abbrev  0x0000000000000078       0x14 /usr/local/lib/gcc/arm-elf-eabi/4.9.4/libgcc.a(_arm_fixdfsi.o)
 .debug_abbrev  0x000000000000008c       0x14 /usr/local/lib/gcc/arm-elf-eabi/4.9.4/libgcc.a(_arm_fixunsdfsi.o)
 .debug_abbrev  0x00000000000000a0       0x14 /usr/local/lib/gcc/arm-elf-eabi/4.9.4/libgcc.a(_arm_truncdfsf2.o)
 .debug_abbrev  0x00000000000000b4       0x14 /usr/local/lib/gcc/arm-elf-eabi/4.9.4/libgcc.a(_arm_addsubsf3.o)
 .debug_abbrev  0x00000000000000c8       0x14 /usr/local/lib/gcc/arm-elf-eabi/4.9.4/libgcc.a(_arm_muldivsf3.o)
 .debug_abbrev  0x00000000000000dc       0x14 /usr/local/lib/gcc/arm-elf-eabi/4.9.4/libgcc.a(_arm_cmpsf2.o)
 .debug_abbrev  0x00000000000000f0       0x14 /usr/local/lib/gcc/arm-elf-eabi/4.9.4/libgcc.a(_arm_fixsfsi.o)
 .debug_abbrev  0x0000000000000104       0x14 /usr/local/lib/gcc/arm-elf-eabi/4.9.4/libgcc.a(_arm_fixunssfsi.o)
 .debug_abbrev  0x0000000000000118       0x14 /usr/local/lib/gcc/arm-elf-eabi/4.9.4/libgcc.a(_clzsi2.o)
 .debug_abbrev  0x000000000000012c       0x14 /usr/local/lib/gcc/arm-elf-eabi/4.9.4/libgcc.a(_aeabi_ldivmod.o)
 .debug_abbrev  0x0000000000000140       0x14 /usr/local/lib/gcc/arm-elf-eabi/4.9.4/libgcc.a(_aeabi_uldivmod.o)
 .debug_abbrev  0x0000000000000154       0xb7 /usr/local/lib/gcc/arm-elf-eabi/4.9.4/libgcc.a(bpabi.o)
 .debug_abbrev  0x000000000000020b      0x123 /usr/local/lib/gcc/arm-elf-eabi/4.9.4/libgcc.a(_divdi3.o)
 .debug_abbrev  0x000000000000032e       0xc7 /usr/local/lib/gcc/arm-elf-eabi/4.9.4/libgcc.a(_udivdi3.o)
 .debug_abbrev  0x00000000000003f5       0x14 /usr/local/lib/gcc/arm-elf-eabi/4.9.4/libgcc.a(_clzdi2.o)

.debug_aranges  0x0000000000000000      0x2a0
 .debug_aranges
                0x0000000000000000       0x20 /usr/local/lib/gcc/arm-elf-eabi/4.9.4/libgcc.a(_udivsi3.o)
 .debug_aranges
                0x0000000000000020       0x20 /usr/local/lib/gcc/arm-elf-eabi/4.9.4/libgcc.a(_divsi3.o)
 .debug_aranges
                0x0000000000000040       0x20 /usr/local/lib/gcc/arm-elf-eabi/4.9.4/libgcc.a(_dvmd_tls.o)
 .debug_aranges
                0x0000000000000060       0x20 /usr/local/lib/gcc/arm-elf-eabi/4.9.4/libgcc.a(_arm_addsubdf3.o)
 .debug_aranges
                0x0000000000000080       0x20 /usr/local/lib/gcc/arm-elf-eabi/4.9.4/libgcc.a(_arm_muldivdf3.o)
 .debug_aranges
                0x00000000000000a0       0x20 /usr/local/lib/gcc/arm-elf-eabi/4.9.4/libgcc.a(_arm_cmpdf2.o)
 .debug_aranges
                0x00000000000000c0       0x20 /usr/local/lib/gcc/arm-elf-eabi/4.9.4/libgcc.a(_arm_fixdfsi.o)
 .debug_aranges
                0x00000000000000e0       0x20 /usr/local/lib/gcc/arm-elf-eabi/4.9.4/libgcc.a(_arm_fixunsdfsi.o)
 .debug_aranges
                0x0000000000000100       0x20 /usr/local/lib/gcc/arm-elf-eabi/4.9.4/libgcc.a(_arm_truncdfsf2.o)
 .debug_aranges
                0x0000000000000120       0x20 /usr/local/lib/gcc/arm-elf-eabi/4.9.4/libgcc.a(_arm_addsubsf3.o)
 .debug_aranges
                0x0000000000000140       0x20 /usr/local/lib/gcc/arm-elf-eabi/4.9.4/libgcc.a(_arm_muldivsf3.o)
 .debug_aranges
                0x0000000000000160       0x20 /usr/local/lib/gcc/arm-elf-eabi/4.9.4/libgcc.a(_arm_cmpsf2.o)
 .debug_aranges
                0x0000000000000180       0x20 /usr/local/lib/gcc/arm-elf-eabi/4.9.4/libgcc.a(_arm_fixsfsi.o)
 .debug_aranges
                0x00000000000001a0       0x20 /usr/local/lib/gcc/arm-elf-eabi/4.9.4/libgcc.a(_arm_fixunssfsi.o)
 .debug_aranges
                0x00000000000001c0       0x20 /usr/local/lib/gcc/arm-elf-eabi/4.9.4/libgcc.a(_clzsi2.o)
 .debug_aranges
                0x00000000000001e0       0x20 /usr/local/lib/gcc/arm-elf-eabi/4.9.4/libgcc.a(_aeabi_ldivmod.o)
 .debug_aranges
                0x0000000000000200       0x20 /usr/local/lib/gcc/arm-elf-eabi/4.9.4/libgcc.a(_aeabi_uldivmod.o)
 .debug_aranges
                0x0000000000000220       0x20 /usr/local/lib/gcc/arm-elf-eabi/4.9.4/libgcc.a(bpabi.o)
 .debug_aranges
                0x0000000000000240       0x20 /usr/local/lib/gcc/arm-elf-eabi/4.9.4/libgcc.a(_divdi3.o)
 .debug_aranges
                0x0000000000000260       0x20 /usr/local/lib/gcc/arm-elf-eabi/4.9.4/libgcc.a(_udivdi3.o)
 .debug_aranges
                0x0000000000000280       0x20 /usr/local/lib/gcc/arm-elf-eabi/4.9.4/libgcc.a(_clzdi2.o)

.debug_loc      0x0000000000000000      0x500
 .debug_loc     0x0000000000000000       0xa0 /usr/local/lib/gcc/arm-elf-eabi/4.9.4/libgcc.a(bpabi.o)
 .debug_loc     0x00000000000000a0      0x27d /usr/local/lib/gcc/arm-elf-eabi/4.9.4/libgcc.a(_divdi3.o)
 .debug_loc     0x000000000000031d      0x1e3 /usr/local/lib/gcc/arm-elf-eabi/4.9.4/libgcc.a(_udivdi3.o)

.debug_str      0x0000000000000000      0x287
 .debug_str     0x0000000000000000      0x152 /usr/local/lib/gcc/arm-elf-eabi/4.9.4/libgcc.a(bpabi.o)
 .debug_str     0x0000000000000152      0x135 /usr/local/lib/gcc/arm-elf-eabi/4.9.4/libgcc.a(_divdi3.o)
                                        0x1dd (size before relaxing)
 .debug_str     0x0000000000000287      0x1ba /usr/local/lib/gcc/arm-elf-eabi/4.9.4/libgcc.a(_udivdi3.o)

.debug_ranges   0x0000000000000000       0x18
 .debug_ranges  0x0000000000000000       0x18 /usr/local/lib/gcc/arm-elf-eabi/4.9.4/libgcc.a(_udivdi3.o)
