Archive member included to satisfy reference by file (symbol)

/home/jbrawley/Desktop/rockbox-photo-cf-support/build/lib/libtlsf.a(tlsf.o)
                              /home/jbrawley/Desktop/rockbox-photo-cf-support/build/apps/plugins/sdl/main.o (init_memory_pool)
/home/jbrawley/Desktop/rockbox-photo-cf-support/build/apps/plugins/libplugin.a(gcc-support.o)
                              /home/jbrawley/Desktop/rockbox-photo-cf-support/build/apps/plugins/sdl/src/audio/SDL_audio.o (memcpy)
/home/jbrawley/Desktop/rockbox-photo-cf-support/build/apps/plugins/libplugin.a(helper.o)
                              /home/jbrawley/Desktop/rockbox-photo-cf-support/build/apps/plugins/sdl/main.o (backlight_ignore_timeout)
/home/jbrawley/Desktop/rockbox-photo-cf-support/build/apps/plugins/libplugin.a(strncpy.o)
                              /home/jbrawley/Desktop/rockbox-photo-cf-support/build/apps/plugins/sdl/SDL_mixer/timidity/common.o (strncpy)
/home/jbrawley/Desktop/rockbox-photo-cf-support/build/apps/plugins/libplugin.a(stdio_compat.o)
                              /home/jbrawley/Desktop/rockbox-photo-cf-support/build/apps/plugins/sdl/src/file/SDL_rwops.o (_fopen_)
/home/jbrawley/Desktop/rockbox-photo-cf-support/build/apps/plugins/libplugin.a(pluginlib_bmp.o)
                              /home/jbrawley/Desktop/rockbox-photo-cf-support/build/apps/plugins/sdl/src/video/rockbox/SDL_rockboxvideo.o (simple_resize_bitmap)
/home/jbrawley/Desktop/rockbox-photo-cf-support/build/apps/plugins/libplugin.a(pluginlib_resize.o)
                              /home/jbrawley/Desktop/rockbox-photo-cf-support/build/apps/plugins/libplugin.a(pluginlib_bmp.o) (recalc_dimension)
/home/jbrawley/Desktop/rockbox-photo-cf-support/build/lib/libsetjmp.a(setjmp.o)
                              /home/jbrawley/Desktop/rockbox-photo-cf-support/build/apps/plugins/plugin_crt0.o (setjmp)
/home/jbrawley/Desktop/rockbox-photo-cf-support/build/lib/libfixedpoint.a(fixedpoint.o)
                              /home/jbrawley/Desktop/rockbox-photo-cf-support/build/apps/plugins/sdl/wrappers.o (fp_sincos)
/usr/local/lib/gcc/arm-elf-eabi/4.9.4/libgcc.a(_udivsi3.o)
                              /home/jbrawley/Desktop/rockbox-photo-cf-support/build/apps/plugins/sdl/src/file/SDL_rwops.o (__aeabi_uidiv)
/usr/local/lib/gcc/arm-elf-eabi/4.9.4/libgcc.a(_divsi3.o)
                              /home/jbrawley/Desktop/rockbox-photo-cf-support/build/apps/plugins/sdl/src/audio/SDL_audio.o (__aeabi_idiv)
/usr/local/lib/gcc/arm-elf-eabi/4.9.4/libgcc.a(_dvmd_tls.o)
                              /usr/local/lib/gcc/arm-elf-eabi/4.9.4/libgcc.a(_udivsi3.o) (__aeabi_idiv0)
/usr/local/lib/gcc/arm-elf-eabi/4.9.4/libgcc.a(_ashrdi3.o)
                              /home/jbrawley/Desktop/rockbox-photo-cf-support/build/lib/libfixedpoint.a(fixedpoint.o) (__aeabi_lasr)
/usr/local/lib/gcc/arm-elf-eabi/4.9.4/libgcc.a(_ashldi3.o)
                              /home/jbrawley/Desktop/rockbox-photo-cf-support/build/lib/libfixedpoint.a(fixedpoint.o) (__aeabi_llsl)
/usr/local/lib/gcc/arm-elf-eabi/4.9.4/libgcc.a(_arm_addsubdf3.o)
                              /home/jbrawley/Desktop/rockbox-photo-cf-support/build/apps/plugins/sdl/wrappers.o (__aeabi_dsub)
/usr/local/lib/gcc/arm-elf-eabi/4.9.4/libgcc.a(_arm_muldivdf3.o)
                              /home/jbrawley/Desktop/rockbox-photo-cf-support/build/apps/plugins/sdl/wrappers.o (__aeabi_dmul)
/usr/local/lib/gcc/arm-elf-eabi/4.9.4/libgcc.a(_arm_cmpdf2.o)
                              /home/jbrawley/Desktop/rockbox-photo-cf-support/build/apps/plugins/sdl/wrappers.o (__aeabi_dcmpeq)
/usr/local/lib/gcc/arm-elf-eabi/4.9.4/libgcc.a(_arm_fixdfsi.o)
                              /home/jbrawley/Desktop/rockbox-photo-cf-support/build/apps/plugins/sdl/wrappers.o (__aeabi_d2iz)
/usr/local/lib/gcc/arm-elf-eabi/4.9.4/libgcc.a(_arm_fixunsdfsi.o)
                              /home/jbrawley/Desktop/rockbox-photo-cf-support/build/apps/plugins/sdl/wrappers.o (__aeabi_d2uiz)
/usr/local/lib/gcc/arm-elf-eabi/4.9.4/libgcc.a(_arm_truncdfsf2.o)
                              /home/jbrawley/Desktop/rockbox-photo-cf-support/build/apps/plugins/sdl/wrappers.o (__aeabi_d2f)
/usr/local/lib/gcc/arm-elf-eabi/4.9.4/libgcc.a(_arm_addsubsf3.o)
                              /home/jbrawley/Desktop/rockbox-photo-cf-support/build/apps/plugins/sdl/wrappers.o (__aeabi_fsub)
/usr/local/lib/gcc/arm-elf-eabi/4.9.4/libgcc.a(_arm_muldivsf3.o)
                              /home/jbrawley/Desktop/rockbox-photo-cf-support/build/apps/plugins/sdl/wrappers.o (__aeabi_fmul)
/usr/local/lib/gcc/arm-elf-eabi/4.9.4/libgcc.a(_arm_cmpsf2.o)
                              /home/jbrawley/Desktop/rockbox-photo-cf-support/build/apps/plugins/sdl/wrappers.o (__aeabi_fcmpeq)
/usr/local/lib/gcc/arm-elf-eabi/4.9.4/libgcc.a(_arm_fixsfsi.o)
                              /home/jbrawley/Desktop/rockbox-photo-cf-support/build/apps/plugins/sdl/wrappers.o (__aeabi_f2iz)
/usr/local/lib/gcc/arm-elf-eabi/4.9.4/libgcc.a(_arm_fixunssfsi.o)
                              /home/jbrawley/Desktop/rockbox-photo-cf-support/build/apps/plugins/sdl/SDL_mixer/effect_position.o (__aeabi_f2uiz)
/usr/local/lib/gcc/arm-elf-eabi/4.9.4/libgcc.a(_clzsi2.o)
                              /home/jbrawley/Desktop/rockbox-photo-cf-support/build/lib/libfixedpoint.a(fixedpoint.o) (__clzsi2)
/usr/local/lib/gcc/arm-elf-eabi/4.9.4/libgcc.a(_aeabi_ldivmod.o)
                              /home/jbrawley/Desktop/rockbox-photo-cf-support/build/apps/plugins/sdl/src/stdlib/SDL_string.o (__aeabi_ldivmod)
/usr/local/lib/gcc/arm-elf-eabi/4.9.4/libgcc.a(_aeabi_uldivmod.o)
                              /home/jbrawley/Desktop/rockbox-photo-cf-support/build/apps/plugins/sdl/src/stdlib/SDL_string.o (__aeabi_uldivmod)
/usr/local/lib/gcc/arm-elf-eabi/4.9.4/libgcc.a(bpabi.o)
                              /usr/local/lib/gcc/arm-elf-eabi/4.9.4/libgcc.a(_aeabi_ldivmod.o) (__gnu_ldivmod_helper)
/usr/local/lib/gcc/arm-elf-eabi/4.9.4/libgcc.a(_divdi3.o)
                              /usr/local/lib/gcc/arm-elf-eabi/4.9.4/libgcc.a(bpabi.o) (__divdi3)
/usr/local/lib/gcc/arm-elf-eabi/4.9.4/libgcc.a(_udivdi3.o)
                              /usr/local/lib/gcc/arm-elf-eabi/4.9.4/libgcc.a(bpabi.o) (__udivdi3)
/usr/local/lib/gcc/arm-elf-eabi/4.9.4/libgcc.a(_clzdi2.o)
                              /usr/local/lib/gcc/arm-elf-eabi/4.9.4/libgcc.a(_divdi3.o) (__clzdi2)

Allocating common symbols
Common symbol       size              file

godmode             0x4               /home/jbrawley/Desktop/rockbox-photo-cf-support/build/apps/plugins/sdl/progs/wolf3d/wl_play.o
sdl_thread_id       0x4               /home/jbrawley/Desktop/rockbox-photo-cf-support/build/apps/plugins/sdl/main.o
AdLibPresent        0x1               /home/jbrawley/Desktop/rockbox-photo-cf-support/build/apps/plugins/sdl/progs/wolf3d/id_sd.o
joystickenabled     0x1               /home/jbrawley/Desktop/rockbox-photo-cf-support/build/apps/plugins/sdl/progs/wolf3d/wl_play.o
ChunksInFile        0x4               /home/jbrawley/Desktop/rockbox-photo-cf-support/build/apps/plugins/sdl/progs/wolf3d/id_pm.o
pixelangle          0x4               /home/jbrawley/Desktop/rockbox-photo-cf-support/build/apps/plugins/sdl/progs/wolf3d/wl_draw.o
farthest            0x4               /home/jbrawley/Desktop/rockbox-photo-cf-support/build/apps/plugins/sdl/progs/wolf3d/wl_draw.o
ytilestep           0x2               /home/jbrawley/Desktop/rockbox-photo-cf-support/build/apps/plugins/sdl/progs/wolf3d/wl_draw.o
ypartialdown        0x4               /home/jbrawley/Desktop/rockbox-photo-cf-support/build/apps/plugins/sdl/progs/wolf3d/wl_draw.o
redshifts           0x1800            /home/jbrawley/Desktop/rockbox-photo-cf-support/build/apps/plugins/sdl/progs/wolf3d/wl_play.o
viewcos             0x4               /home/jbrawley/Desktop/rockbox-photo-cf-support/build/apps/plugins/sdl/progs/wolf3d/wl_draw.o
plux                0x2               /home/jbrawley/Desktop/rockbox-photo-cf-support/build/apps/plugins/sdl/progs/wolf3d/wl_agent.o
fontcolor           0x1               /home/jbrawley/Desktop/rockbox-photo-cf-support/build/apps/plugins/sdl/progs/wolf3d/id_vh.o
audioext            0x5               /home/jbrawley/Desktop/rockbox-photo-cf-support/build/apps/plugins/sdl/progs/wolf3d/id_ca.o
objfreelist         0x4               /home/jbrawley/Desktop/rockbox-photo-cf-support/build/apps/plugins/sdl/progs/wolf3d/wl_play.o
lasttexture         0x4               /home/jbrawley/Desktop/rockbox-photo-cf-support/build/apps/plugins/sdl/progs/wolf3d/wl_draw.o
drumvolume          0x800             /home/jbrawley/Desktop/rockbox-photo-cf-support/build/apps/plugins/sdl/SDL_mixer/timidity/playmidi.o
palette1            0x400             /home/jbrawley/Desktop/rockbox-photo-cf-support/build/apps/plugins/sdl/progs/wolf3d/id_vl.o
btnstate            0x12              /home/jbrawley/Desktop/rockbox-photo-cf-support/build/apps/plugins/sdl/progs/wolf3d/id_in.o
postwidth           0x4               /home/jbrawley/Desktop/rockbox-photo-cf-support/build/apps/plugins/sdl/progs/wolf3d/wl_draw.o
shootdelta          0x4               /home/jbrawley/Desktop/rockbox-photo-cf-support/build/apps/plugins/sdl/progs/wolf3d/wl_main.o
master_volume       0x8               /home/jbrawley/Desktop/rockbox-photo-cf-support/build/apps/plugins/sdl/SDL_mixer/timidity/playmidi.o
vertwall            0x80              /home/jbrawley/Desktop/rockbox-photo-cf-support/build/apps/plugins/sdl/progs/wolf3d/wl_draw.o
ingame              0x1               /home/jbrawley/Desktop/rockbox-photo-cf-support/build/apps/plugins/sdl/progs/wolf3d/wl_game.o
Keyboard            0x143             /home/jbrawley/Desktop/rockbox-photo-cf-support/build/apps/plugins/sdl/progs/wolf3d/id_in.o
tilemap             0x1000            /home/jbrawley/Desktop/rockbox-photo-cf-support/build/apps/plugins/sdl/progs/wolf3d/wl_play.o
startgame           0x1               /home/jbrawley/Desktop/rockbox-photo-cf-support/build/apps/plugins/sdl/progs/wolf3d/wl_main.o
damagecount         0x4               /home/jbrawley/Desktop/rockbox-photo-cf-support/build/apps/plugins/sdl/progs/wolf3d/wl_play.o
grhuffman           0x3fc             /home/jbrawley/Desktop/rockbox-photo-cf-support/build/apps/plugins/sdl/progs/wolf3d/id_ca.o
controlx            0x4               /home/jbrawley/Desktop/rockbox-photo-cf-support/build/apps/plugins/sdl/progs/wolf3d/wl_play.o
pwalltile           0x1               /home/jbrawley/Desktop/rockbox-photo-cf-support/build/apps/plugins/sdl/progs/wolf3d/wl_act1.o
viewy               0x4               /home/jbrawley/Desktop/rockbox-photo-cf-support/build/apps/plugins/sdl/progs/wolf3d/wl_draw.o
voice               0x1c800           /home/jbrawley/Desktop/rockbox-photo-cf-support/build/apps/plugins/sdl/SDL_mixer/timidity/playmidi.o
killerobj           0x4               /home/jbrawley/Desktop/rockbox-photo-cf-support/build/apps/plugins/sdl/progs/wolf3d/wl_play.o
PMPageDataSize      0x4               /home/jbrawley/Desktop/rockbox-photo-cf-support/build/apps/plugins/sdl/progs/wolf3d/id_pm.o
areaconnect         0x559             /home/jbrawley/Desktop/rockbox-photo-cf-support/build/apps/plugins/sdl/progs/wolf3d/wl_act1.o
leftchannel         0x4               /home/jbrawley/Desktop/rockbox-photo-cf-support/build/apps/plugins/sdl/progs/wolf3d/wl_game.o
player              0x4               /home/jbrawley/Desktop/rockbox-photo-cf-support/build/apps/plugins/sdl/progs/wolf3d/wl_play.o
demorecord          0x1               /home/jbrawley/Desktop/rockbox-photo-cf-support/build/apps/plugins/sdl/progs/wolf3d/wl_play.o
PrintX              0x2               /home/jbrawley/Desktop/rockbox-photo-cf-support/build/apps/plugins/sdl/progs/wolf3d/id_us_1.o
WindowH             0x2               /home/jbrawley/Desktop/rockbox-photo-cf-support/build/apps/plugins/sdl/progs/wolf3d/id_us_1.o
MusicMode           0x1               /home/jbrawley/Desktop/rockbox-photo-cf-support/build/apps/plugins/sdl/progs/wolf3d/id_sd.o
py                  0x4               /home/jbrawley/Desktop/rockbox-photo-cf-support/build/apps/plugins/sdl/progs/wolf3d/id_vh.o
lastobj             0x4               /home/jbrawley/Desktop/rockbox-photo-cf-support/build/apps/plugins/sdl/progs/wolf3d/wl_play.o
focalty             0x2               /home/jbrawley/Desktop/rockbox-photo-cf-support/build/apps/plugins/sdl/progs/wolf3d/wl_draw.o
rb_SDL_alarm_callback
                    0x4               /home/jbrawley/Desktop/rockbox-photo-cf-support/build/apps/plugins/sdl/src/timer/SDL_timer.o
postsource          0x4               /home/jbrawley/Desktop/rockbox-photo-cf-support/build/apps/plugins/sdl/progs/wolf3d/wl_draw.o
buttonstate         0x12              /home/jbrawley/Desktop/rockbox-photo-cf-support/build/apps/plugins/sdl/progs/wolf3d/wl_play.o
mapsegs             0x8               /home/jbrawley/Desktop/rockbox-photo-cf-support/build/apps/plugins/sdl/progs/wolf3d/id_ca.o
XG_System_chorus_type
                    0x4               /home/jbrawley/Desktop/rockbox-photo-cf-support/build/apps/plugins/sdl/SDL_mixer/timidity/playmidi.o
oldsoundmode        0x1               /home/jbrawley/Desktop/rockbox-photo-cf-support/build/apps/plugins/sdl/progs/wolf3d/id_ca.o
doornum             0x2               /home/jbrawley/Desktop/rockbox-photo-cf-support/build/apps/plugins/sdl/progs/wolf3d/wl_act1.o
WindowY             0x2               /home/jbrawley/Desktop/rockbox-photo-cf-support/build/apps/plugins/sdl/progs/wolf3d/id_us_1.o
pluy                0x2               /home/jbrawley/Desktop/rockbox-photo-cf-support/build/apps/plugins/sdl/progs/wolf3d/wl_agent.o
scaleFactor         0x4               /home/jbrawley/Desktop/rockbox-photo-cf-support/build/apps/plugins/sdl/progs/wolf3d/id_vl.o
LastAttacker        0x4               /home/jbrawley/Desktop/rockbox-photo-cf-support/build/apps/plugins/sdl/progs/wolf3d/wl_agent.o
tilehit             0x2               /home/jbrawley/Desktop/rockbox-photo-cf-support/build/apps/plugins/sdl/progs/wolf3d/wl_draw.o
demobuffer          0x4               /home/jbrawley/Desktop/rockbox-photo-cf-support/build/apps/plugins/sdl/progs/wolf3d/wl_play.o
viewwidth           0x4               /home/jbrawley/Desktop/rockbox-photo-cf-support/build/apps/plugins/sdl/progs/wolf3d/wl_main.o
main_thread_id      0x4               /home/jbrawley/Desktop/rockbox-photo-cf-support/build/apps/plugins/sdl/main.o
lastdemoptr         0x4               /home/jbrawley/Desktop/rockbox-photo-cf-support/build/apps/plugins/sdl/progs/wolf3d/wl_play.o
viewsize            0x4               /home/jbrawley/Desktop/rockbox-photo-cf-support/build/apps/plugins/sdl/progs/wolf3d/wl_play.o
ytile               0x2               /home/jbrawley/Desktop/rockbox-photo-cf-support/build/apps/plugins/sdl/progs/wolf3d/wl_draw.o
PMPageData          0x4               /home/jbrawley/Desktop/rockbox-photo-cf-support/build/apps/plugins/sdl/progs/wolf3d/id_pm.o
min_wallheight      0x4               /home/jbrawley/Desktop/rockbox-photo-cf-support/build/apps/plugins/sdl/progs/wolf3d/wl_draw.o
bordercolor         0x4               /home/jbrawley/Desktop/rockbox-photo-cf-support/build/apps/plugins/sdl/progs/wolf3d/id_vl.o
xtilestep           0x2               /home/jbrawley/Desktop/rockbox-photo-cf-support/build/apps/plugins/sdl/progs/wolf3d/wl_draw.o
WindowX             0x2               /home/jbrawley/Desktop/rockbox-photo-cf-support/build/apps/plugins/sdl/progs/wolf3d/id_us_1.o
audiosegs           0x480             /home/jbrawley/Desktop/rockbox-photo-cf-support/build/apps/plugins/sdl/progs/wolf3d/id_ca.o
screenPitch         0x4               /home/jbrawley/Desktop/rockbox-photo-cf-support/build/apps/plugins/sdl/progs/wolf3d/id_vl.o
viewty              0x2               /home/jbrawley/Desktop/rockbox-photo-cf-support/build/apps/plugins/sdl/progs/wolf3d/wl_draw.o
midi_name           0x105             /home/jbrawley/Desktop/rockbox-photo-cf-support/build/apps/plugins/sdl/SDL_mixer/timidity/readmidi.o
visstep             0x4               /home/jbrawley/Desktop/rockbox-photo-cf-support/build/apps/plugins/sdl/progs/wolf3d/wl_draw.o
drumreverberation   0x800             /home/jbrawley/Desktop/rockbox-photo-cf-support/build/apps/plugins/sdl/SDL_mixer/timidity/playmidi.o
MousePresent        0x1               /home/jbrawley/Desktop/rockbox-photo-cf-support/build/apps/plugins/sdl/progs/wolf3d/id_in.o
pixx                0x4               /home/jbrawley/Desktop/rockbox-photo-cf-support/build/apps/plugins/sdl/progs/wolf3d/wl_draw.o
pwallpos            0x2               /home/jbrawley/Desktop/rockbox-photo-cf-support/build/apps/plugins/sdl/progs/wolf3d/wl_act1.o
palette2            0x400             /home/jbrawley/Desktop/rockbox-photo-cf-support/build/apps/plugins/sdl/progs/wolf3d/id_vl.o
mouseadjustment     0x4               /home/jbrawley/Desktop/rockbox-photo-cf-support/build/apps/plugins/sdl/progs/wolf3d/wl_main.o
playstate           0x1               /home/jbrawley/Desktop/rockbox-photo-cf-support/build/apps/plugins/sdl/progs/wolf3d/wl_play.o
horizwall           0x80              /home/jbrawley/Desktop/rockbox-photo-cf-support/build/apps/plugins/sdl/progs/wolf3d/wl_draw.o
xtile               0x2               /home/jbrawley/Desktop/rockbox-photo-cf-support/build/apps/plugins/sdl/progs/wolf3d/wl_draw.o
objcount            0x4               /home/jbrawley/Desktop/rockbox-photo-cf-support/build/apps/plugins/sdl/progs/wolf3d/wl_play.o
whiteshifts         0xc00             /home/jbrawley/Desktop/rockbox-photo-cf-support/build/apps/plugins/sdl/progs/wolf3d/wl_play.o
madenoise           0x1               /home/jbrawley/Desktop/rockbox-photo-cf-support/build/apps/plugins/sdl/progs/wolf3d/wl_play.o
xspot               0x2               /home/jbrawley/Desktop/rockbox-photo-cf-support/build/apps/plugins/sdl/progs/wolf3d/wl_draw.o
curPitch            0x4               /home/jbrawley/Desktop/rockbox-photo-cf-support/build/apps/plugins/sdl/progs/wolf3d/id_vl.o
fizzlein            0x1               /home/jbrawley/Desktop/rockbox-photo-cf-support/build/apps/plugins/sdl/progs/wolf3d/wl_game.o
gamestate           0x3e              /home/jbrawley/Desktop/rockbox-photo-cf-support/build/apps/plugins/sdl/progs/wolf3d/wl_game.o
dummyobj            0x40              /home/jbrawley/Desktop/rockbox-photo-cf-support/build/apps/plugins/sdl/progs/wolf3d/wl_play.o
xstep               0x2               /home/jbrawley/Desktop/rockbox-photo-cf-support/build/apps/plugins/sdl/progs/wolf3d/wl_draw.o
vislist             0x7d0             /home/jbrawley/Desktop/rockbox-photo-cf-support/build/apps/plugins/sdl/progs/wolf3d/wl_draw.o
obj                 0x4               /home/jbrawley/Desktop/rockbox-photo-cf-support/build/apps/plugins/sdl/progs/wolf3d/wl_play.o
SoundPositioned     0x1               /home/jbrawley/Desktop/rockbox-photo-cf-support/build/apps/plugins/sdl/progs/wolf3d/id_sd.o
rb_SDL_ProcessEvents
                    0x20              /home/jbrawley/Desktop/rockbox-photo-cf-support/build/apps/plugins/sdl/src/events/SDL_events.o
viewsin             0x4               /home/jbrawley/Desktop/rockbox-photo-cf-support/build/apps/plugins/sdl/progs/wolf3d/wl_draw.o
centerx             0x2               /home/jbrawley/Desktop/rockbox-photo-cf-support/build/apps/plugins/sdl/progs/wolf3d/wl_main.o
maporgx             0x4               /home/jbrawley/Desktop/rockbox-photo-cf-support/build/apps/plugins/sdl/progs/wolf3d/wl_debug.o
doorposition        0x80              /home/jbrawley/Desktop/rockbox-photo-cf-support/build/apps/plugins/sdl/progs/wolf3d/wl_act1.o
heightnumerator     0x4               /home/jbrawley/Desktop/rockbox-photo-cf-support/build/apps/plugins/sdl/progs/wolf3d/wl_main.o
midangle            0x2               /home/jbrawley/Desktop/rockbox-photo-cf-support/build/apps/plugins/sdl/progs/wolf3d/wl_draw.o
laststatobj         0x4               /home/jbrawley/Desktop/rockbox-photo-cf-support/build/apps/plugins/sdl/progs/wolf3d/wl_act1.o
viewscreenx         0x4               /home/jbrawley/Desktop/rockbox-photo-cf-support/build/apps/plugins/sdl/progs/wolf3d/wl_main.o
current_filename    0x400             /home/jbrawley/Desktop/rockbox-photo-cf-support/build/apps/plugins/sdl/SDL_mixer/timidity/common.o
viewtx              0x2               /home/jbrawley/Desktop/rockbox-photo-cf-support/build/apps/plugins/sdl/progs/wolf3d/wl_draw.o
lasttimecount       0x4               /home/jbrawley/Desktop/rockbox-photo-cf-support/build/apps/plugins/sdl/progs/wolf3d/wl_draw.o
focallength         0x4               /home/jbrawley/Desktop/rockbox-photo-cf-support/build/apps/plugins/sdl/progs/wolf3d/wl_main.o
chunkexplen         0x4               /home/jbrawley/Desktop/rockbox-photo-cf-support/build/apps/plugins/sdl/progs/wolf3d/id_ca.o
screenofs           0x4               /home/jbrawley/Desktop/rockbox-photo-cf-support/build/apps/plugins/sdl/progs/wolf3d/wl_main.o
lastside            0x4               /home/jbrawley/Desktop/rockbox-photo-cf-support/build/apps/plugins/sdl/progs/wolf3d/wl_draw.o
DigiMode            0x1               /home/jbrawley/Desktop/rockbox-photo-cf-support/build/apps/plugins/sdl/progs/wolf3d/id_sd.o
LastASCII           0x1               /home/jbrawley/Desktop/rockbox-photo-cf-support/build/apps/plugins/sdl/progs/wolf3d/id_in.o
DigiMap             0x15c             /home/jbrawley/Desktop/rockbox-photo-cf-support/build/apps/plugins/sdl/progs/wolf3d/id_sd.o
LastScan            0x4               /home/jbrawley/Desktop/rockbox-photo-cf-support/build/apps/plugins/sdl/progs/wolf3d/id_in.o
pwally              0x2               /home/jbrawley/Desktop/rockbox-photo-cf-support/build/apps/plugins/sdl/progs/wolf3d/wl_act1.o
xpartialup          0x4               /home/jbrawley/Desktop/rockbox-photo-cf-support/build/apps/plugins/sdl/progs/wolf3d/wl_draw.o
fpscounter          0x1               /home/jbrawley/Desktop/rockbox-photo-cf-support/build/apps/plugins/sdl/progs/wolf3d/wl_draw.o
angle               0x2               /home/jbrawley/Desktop/rockbox-photo-cf-support/build/apps/plugins/sdl/progs/wolf3d/wl_draw.o
SoundMode           0x1               /home/jbrawley/Desktop/rockbox-photo-cf-support/build/apps/plugins/sdl/progs/wolf3d/id_sd.o
texdelta            0x4               /home/jbrawley/Desktop/rockbox-photo-cf-support/build/apps/plugins/sdl/progs/wolf3d/wl_draw.o
drumchorusdepth     0x800             /home/jbrawley/Desktop/rockbox-photo-cf-support/build/apps/plugins/sdl/SDL_mixer/timidity/playmidi.o
demoplayback        0x1               /home/jbrawley/Desktop/rockbox-photo-cf-support/build/apps/plugins/sdl/progs/wolf3d/wl_play.o
channel             0x580             /home/jbrawley/Desktop/rockbox-photo-cf-support/build/apps/plugins/sdl/SDL_mixer/timidity/playmidi.o
prog_idx            0x4               /home/jbrawley/Desktop/rockbox-photo-cf-support/build/apps/plugins/sdl/main.o
pwalldir            0x1               /home/jbrawley/Desktop/rockbox-photo-cf-support/build/apps/plugins/sdl/progs/wolf3d/wl_act1.o
lasttilehit         0x4               /home/jbrawley/Desktop/rockbox-photo-cf-support/build/apps/plugins/sdl/progs/wolf3d/wl_draw.o
demoptr             0x4               /home/jbrawley/Desktop/rockbox-photo-cf-support/build/apps/plugins/sdl/progs/wolf3d/wl_play.o
LevelRatios         0x80              /home/jbrawley/Desktop/rockbox-photo-cf-support/build/apps/plugins/sdl/progs/wolf3d/wl_inter.o
singlestep          0x4               /home/jbrawley/Desktop/rockbox-photo-cf-support/build/apps/plugins/sdl/progs/wolf3d/wl_play.o
latchpics           0x190             /home/jbrawley/Desktop/rockbox-photo-cf-support/build/apps/plugins/sdl/progs/wolf3d/id_vh.o
backcolor           0x1               /home/jbrawley/Desktop/rockbox-photo-cf-support/build/apps/plugins/sdl/progs/wolf3d/id_vh.o
NumDigi             0x2               /home/jbrawley/Desktop/rockbox-photo-cf-support/build/apps/plugins/sdl/progs/wolf3d/id_sd.o
screenfaded         0x1               /home/jbrawley/Desktop/rockbox-photo-cf-support/build/apps/plugins/sdl/progs/wolf3d/id_vl.o
AUDIO_BUFFER_SIZE   0x4               /home/jbrawley/Desktop/rockbox-photo-cf-support/build/apps/plugins/sdl/SDL_mixer/timidity/timidity.o
fontnumber          0x4               /home/jbrawley/Desktop/rockbox-photo-cf-support/build/apps/plugins/sdl/progs/wolf3d/id_vh.o
newobj              0x4               /home/jbrawley/Desktop/rockbox-photo-cf-support/build/apps/plugins/sdl/progs/wolf3d/wl_play.o
PMSpriteStart       0x4               /home/jbrawley/Desktop/rockbox-photo-cf-support/build/apps/plugins/sdl/progs/wolf3d/id_pm.o
buttonheld          0x12              /home/jbrawley/Desktop/rockbox-photo-cf-support/build/apps/plugins/sdl/progs/wolf3d/wl_play.o
viewtype            0x1               /home/jbrawley/Desktop/rockbox-photo-cf-support/build/apps/plugins/sdl/progs/wolf3d/wl_debug.o
objlist             0x2580            /home/jbrawley/Desktop/rockbox-photo-cf-support/build/apps/plugins/sdl/progs/wolf3d/wl_play.o
bonuscount          0x4               /home/jbrawley/Desktop/rockbox-photo-cf-support/build/apps/plugins/sdl/progs/wolf3d/wl_play.o
curpal              0x400             /home/jbrawley/Desktop/rockbox-photo-cf-support/build/apps/plugins/sdl/progs/wolf3d/id_vl.o
grsegs              0x284             /home/jbrawley/Desktop/rockbox-photo-cf-support/build/apps/plugins/sdl/progs/wolf3d/id_ca.o
viewheight          0x4               /home/jbrawley/Desktop/rockbox-photo-cf-support/build/apps/plugins/sdl/progs/wolf3d/wl_main.o
rb_SDL_numcds       0x4               /home/jbrawley/Desktop/rockbox-photo-cf-support/build/apps/plugins/sdl/src/cdrom/SDL_cdrom.o
JoyNumButtons       0x4               /home/jbrawley/Desktop/rockbox-photo-cf-support/build/apps/plugins/sdl/progs/wolf3d/id_in.o
maporgy             0x4               /home/jbrawley/Desktop/rockbox-photo-cf-support/build/apps/plugins/sdl/progs/wolf3d/wl_debug.o
drumpanpot          0x800             /home/jbrawley/Desktop/rockbox-photo-cf-support/build/apps/plugins/sdl/SDL_mixer/timidity/playmidi.o
ypartialup          0x4               /home/jbrawley/Desktop/rockbox-photo-cf-support/build/apps/plugins/sdl/progs/wolf3d/wl_draw.o
num_ochannels       0x4               /home/jbrawley/Desktop/rockbox-photo-cf-support/build/apps/plugins/sdl/SDL_mixer/timidity/timidity.o
wallheight          0x4               /home/jbrawley/Desktop/rockbox-photo-cf-support/build/apps/plugins/sdl/progs/wolf3d/wl_draw.o
Paused              0x1               /home/jbrawley/Desktop/rockbox-photo-cf-support/build/apps/plugins/sdl/progs/wolf3d/id_in.o
mapon               0x4               /home/jbrawley/Desktop/rockbox-photo-cf-support/build/apps/plugins/sdl/progs/wolf3d/id_ca.o
DigiChannel         0x15c             /home/jbrawley/Desktop/rockbox-photo-cf-support/build/apps/plugins/sdl/progs/wolf3d/id_sd.o
XG_System_variation_type
                    0x4               /home/jbrawley/Desktop/rockbox-photo-cf-support/build/apps/plugins/sdl/SDL_mixer/timidity/playmidi.o
ystep               0x2               /home/jbrawley/Desktop/rockbox-photo-cf-support/build/apps/plugins/sdl/progs/wolf3d/wl_draw.o
sintable            0x708             /home/jbrawley/Desktop/rockbox-photo-cf-support/build/apps/plugins/sdl/progs/wolf3d/wl_draw.o
PMSoundStart        0x4               /home/jbrawley/Desktop/rockbox-photo-cf-support/build/apps/plugins/sdl/progs/wolf3d/id_pm.o
XG_System_reverb_type
                    0x4               /home/jbrawley/Desktop/rockbox-photo-cf-support/build/apps/plugins/sdl/SDL_mixer/timidity/playmidi.o
controly            0x4               /home/jbrawley/Desktop/rockbox-photo-cf-support/build/apps/plugins/sdl/progs/wolf3d/wl_play.o
graphext            0x5               /home/jbrawley/Desktop/rockbox-photo-cf-support/build/apps/plugins/sdl/progs/wolf3d/id_ca.o
finetangent         0xe10             /home/jbrawley/Desktop/rockbox-photo-cf-support/build/apps/plugins/sdl/progs/wolf3d/wl_draw.o
PrintY              0x2               /home/jbrawley/Desktop/rockbox-photo-cf-support/build/apps/plugins/sdl/progs/wolf3d/id_us_1.o
mouseenabled        0x1               /home/jbrawley/Desktop/rockbox-photo-cf-support/build/apps/plugins/sdl/progs/wolf3d/wl_play.o
Games               0xfc              /home/jbrawley/Desktop/rockbox-photo-cf-support/build/apps/plugins/sdl/progs/wolf3d/id_us_1.o
loadedgame          0x1               /home/jbrawley/Desktop/rockbox-photo-cf-support/build/apps/plugins/sdl/progs/wolf3d/wl_main.o
channelSoundPos     0x60              /home/jbrawley/Desktop/rockbox-photo-cf-support/build/apps/plugins/sdl/progs/wolf3d/id_sd.o
WindowW             0x2               /home/jbrawley/Desktop/rockbox-photo-cf-support/build/apps/plugins/sdl/progs/wolf3d/id_us_1.o
pictable            0x4               /home/jbrawley/Desktop/rockbox-photo-cf-support/build/apps/plugins/sdl/progs/wolf3d/id_vh.o
funnyticount        0x4               /home/jbrawley/Desktop/rockbox-photo-cf-support/build/apps/plugins/sdl/progs/wolf3d/wl_play.o
px                  0x4               /home/jbrawley/Desktop/rockbox-photo-cf-support/build/apps/plugins/sdl/progs/wolf3d/id_vh.o
lastintercept       0x4               /home/jbrawley/Desktop/rockbox-photo-cf-support/build/apps/plugins/sdl/progs/wolf3d/wl_draw.o
statobjlist         0x1450            /home/jbrawley/Desktop/rockbox-photo-cf-support/build/apps/plugins/sdl/progs/wolf3d/wl_act1.o
ammocheat           0x1               /home/jbrawley/Desktop/rockbox-photo-cf-support/build/apps/plugins/sdl/progs/wolf3d/wl_play.o
forcegrabmouse      0x1               /home/jbrawley/Desktop/rockbox-photo-cf-support/build/apps/plugins/sdl/progs/wolf3d/id_in.o
yspot               0x2               /home/jbrawley/Desktop/rockbox-photo-cf-support/build/apps/plugins/sdl/progs/wolf3d/wl_draw.o
s32tobuf            0x4               /home/jbrawley/Desktop/rockbox-photo-cf-support/build/apps/plugins/sdl/SDL_mixer/timidity/timidity.o
str                 0x50              /home/jbrawley/Desktop/rockbox-photo-cf-support/build/apps/plugins/sdl/progs/wolf3d/wl_main.o
doorobjlist         0x1c0             /home/jbrawley/Desktop/rockbox-photo-cf-support/build/apps/plugins/sdl/progs/wolf3d/wl_act1.o
viewangle           0x2               /home/jbrawley/Desktop/rockbox-photo-cf-support/build/apps/plugins/sdl/progs/wolf3d/wl_draw.o
bufferPitch         0x4               /home/jbrawley/Desktop/rockbox-photo-cf-support/build/apps/plugins/sdl/progs/wolf3d/id_vl.o
samplesPerMusicTick
                    0x4               /home/jbrawley/Desktop/rockbox-photo-cf-support/build/apps/plugins/sdl/progs/wolf3d/id_sd.o
thrustspeed         0x4               /home/jbrawley/Desktop/rockbox-photo-cf-support/build/apps/plugins/sdl/progs/wolf3d/wl_agent.o
noclip              0x1               /home/jbrawley/Desktop/rockbox-photo-cf-support/build/apps/plugins/sdl/progs/wolf3d/wl_play.o
SBProPresent        0x1               /home/jbrawley/Desktop/rockbox-photo-cf-support/build/apps/plugins/sdl/progs/wolf3d/id_sd.o
viewx               0x4               /home/jbrawley/Desktop/rockbox-photo-cf-support/build/apps/plugins/sdl/progs/wolf3d/wl_draw.o
pwallstate          0x2               /home/jbrawley/Desktop/rockbox-photo-cf-support/build/apps/plugins/sdl/progs/wolf3d/wl_act1.o
frameon             0x4               /home/jbrawley/Desktop/rockbox-photo-cf-support/build/apps/plugins/sdl/progs/wolf3d/wl_draw.o
rightchannel        0x4               /home/jbrawley/Desktop/rockbox-photo-cf-support/build/apps/plugins/sdl/progs/wolf3d/wl_game.o
lastdoorobj         0x4               /home/jbrawley/Desktop/rockbox-photo-cf-support/build/apps/plugins/sdl/progs/wolf3d/wl_act1.o
SoundBlasterPresent
                    0x1               /home/jbrawley/Desktop/rockbox-photo-cf-support/build/apps/plugins/sdl/progs/wolf3d/id_sd.o
xintercept          0x4               /home/jbrawley/Desktop/rockbox-photo-cf-support/build/apps/plugins/sdl/progs/wolf3d/wl_draw.o
RLEWtag             0x2               /home/jbrawley/Desktop/rockbox-photo-cf-support/build/apps/plugins/sdl/progs/wolf3d/id_ca.o
PMPages             0x4               /home/jbrawley/Desktop/rockbox-photo-cf-support/build/apps/plugins/sdl/progs/wolf3d/id_pm.o
visptr              0x4               /home/jbrawley/Desktop/rockbox-photo-cf-support/build/apps/plugins/sdl/progs/wolf3d/wl_draw.o
anglefrac           0x2               /home/jbrawley/Desktop/rockbox-photo-cf-support/build/apps/plugins/sdl/progs/wolf3d/wl_agent.o
spotvis             0x1000            /home/jbrawley/Desktop/rockbox-photo-cf-support/build/apps/plugins/sdl/progs/wolf3d/wl_play.o
scale               0x4               /home/jbrawley/Desktop/rockbox-photo-cf-support/build/apps/plugins/sdl/progs/wolf3d/wl_main.o
rbaud_underruns     0x4               /home/jbrawley/Desktop/rockbox-photo-cf-support/build/apps/plugins/sdl/src/audio/rockbox/SDL_rockboxaudio.o
postx               0x4               /home/jbrawley/Desktop/rockbox-photo-cf-support/build/apps/plugins/sdl/progs/wolf3d/wl_draw.o
focaltx             0x2               /home/jbrawley/Desktop/rockbox-photo-cf-support/build/apps/plugins/sdl/progs/wolf3d/wl_draw.o
extension           0x5               /home/jbrawley/Desktop/rockbox-photo-cf-support/build/apps/plugins/sdl/progs/wolf3d/id_ca.o
rb_keymap           0x58              /home/jbrawley/Desktop/rockbox-photo-cf-support/build/apps/plugins/sdl/src/video/rockbox/SDL_rockboxvideo.o
yintercept          0x4               /home/jbrawley/Desktop/rockbox-photo-cf-support/build/apps/plugins/sdl/progs/wolf3d/wl_draw.o
palshifted          0x1               /home/jbrawley/Desktop/rockbox-photo-cf-support/build/apps/plugins/sdl/progs/wolf3d/wl_play.o
actorat             0x4000            /home/jbrawley/Desktop/rockbox-photo-cf-support/build/apps/plugins/sdl/progs/wolf3d/wl_play.o
main_fn             0x4               /home/jbrawley/Desktop/rockbox-photo-cf-support/build/apps/plugins/sdl/main.o
areabyplayer        0x25              /home/jbrawley/Desktop/rockbox-photo-cf-support/build/apps/plugins/sdl/progs/wolf3d/wl_act1.o
chunkcomplen        0x4               /home/jbrawley/Desktop/rockbox-photo-cf-support/build/apps/plugins/sdl/progs/wolf3d/id_ca.o
xpartialdown        0x4               /home/jbrawley/Desktop/rockbox-photo-cf-support/build/apps/plugins/sdl/progs/wolf3d/wl_draw.o
viewscreeny         0x4               /home/jbrawley/Desktop/rockbox-photo-cf-support/build/apps/plugins/sdl/progs/wolf3d/wl_main.o
tics                0x4               /home/jbrawley/Desktop/rockbox-photo-cf-support/build/apps/plugins/sdl/progs/wolf3d/wl_play.o
pwallx              0x2               /home/jbrawley/Desktop/rockbox-photo-cf-support/build/apps/plugins/sdl/progs/wolf3d/wl_act1.o
rb_SDL_KeyRepeat    0x20              /home/jbrawley/Desktop/rockbox-photo-cf-support/build/apps/plugins/sdl/src/events/SDL_keyboard.o

Discarded input sections

 .data          0x0000000000000000        0x0 /home/jbrawley/Desktop/rockbox-photo-cf-support/build/apps/plugins/sdl/src/SDL_error.o
 .data          0x0000000000000000        0x0 /home/jbrawley/Desktop/rockbox-photo-cf-support/build/apps/plugins/sdl/src/SDL_fatal.o
 .bss           0x0000000000000000        0x0 /home/jbrawley/Desktop/rockbox-photo-cf-support/build/apps/plugins/sdl/src/SDL_fatal.o
 .data          0x0000000000000000        0x0 /home/jbrawley/Desktop/rockbox-photo-cf-support/build/apps/plugins/sdl/src/audio/SDL_audio.o
 .data          0x0000000000000000        0x0 /home/jbrawley/Desktop/rockbox-photo-cf-support/build/apps/plugins/sdl/src/audio/SDL_audiocvt.o
 .bss           0x0000000000000000        0x0 /home/jbrawley/Desktop/rockbox-photo-cf-support/build/apps/plugins/sdl/src/audio/SDL_audiocvt.o
 .text          0x0000000000000000        0x0 /home/jbrawley/Desktop/rockbox-photo-cf-support/build/apps/plugins/sdl/src/audio/SDL_audiodev.o
 .data          0x0000000000000000        0x0 /home/jbrawley/Desktop/rockbox-photo-cf-support/build/apps/plugins/sdl/src/audio/SDL_audiodev.o
 .bss           0x0000000000000000        0x0 /home/jbrawley/Desktop/rockbox-photo-cf-support/build/apps/plugins/sdl/src/audio/SDL_audiodev.o
 .data          0x0000000000000000        0x0 /home/jbrawley/Desktop/rockbox-photo-cf-support/build/apps/plugins/sdl/src/audio/SDL_mixer.o
 .bss           0x0000000000000000        0x0 /home/jbrawley/Desktop/rockbox-photo-cf-support/build/apps/plugins/sdl/src/audio/SDL_mixer.o
 .text          0x0000000000000000        0x0 /home/jbrawley/Desktop/rockbox-photo-cf-support/build/apps/plugins/sdl/src/audio/SDL_mixer_MMX.o
 .data          0x0000000000000000        0x0 /home/jbrawley/Desktop/rockbox-photo-cf-support/build/apps/plugins/sdl/src/audio/SDL_mixer_MMX.o
 .bss           0x0000000000000000        0x0 /home/jbrawley/Desktop/rockbox-photo-cf-support/build/apps/plugins/sdl/src/audio/SDL_mixer_MMX.o
 .text          0x0000000000000000        0x0 /home/jbrawley/Desktop/rockbox-photo-cf-support/build/apps/plugins/sdl/src/audio/SDL_mixer_MMX_VC.o
 .data          0x0000000000000000        0x0 /home/jbrawley/Desktop/rockbox-photo-cf-support/build/apps/plugins/sdl/src/audio/SDL_mixer_MMX_VC.o
 .bss           0x0000000000000000        0x0 /home/jbrawley/Desktop/rockbox-photo-cf-support/build/apps/plugins/sdl/src/audio/SDL_mixer_MMX_VC.o
 .text          0x0000000000000000        0x0 /home/jbrawley/Desktop/rockbox-photo-cf-support/build/apps/plugins/sdl/src/audio/SDL_mixer_m68k.o
 .data          0x0000000000000000        0x0 /home/jbrawley/Desktop/rockbox-photo-cf-support/build/apps/plugins/sdl/src/audio/SDL_mixer_m68k.o
 .bss           0x0000000000000000        0x0 /home/jbrawley/Desktop/rockbox-photo-cf-support/build/apps/plugins/sdl/src/audio/SDL_mixer_m68k.o
 .data          0x0000000000000000        0x0 /home/jbrawley/Desktop/rockbox-photo-cf-support/build/apps/plugins/sdl/src/audio/SDL_wave.o
 .text          0x0000000000000000      0xab0 /home/jbrawley/Desktop/rockbox-photo-cf-support/build/apps/plugins/sdl/src/cdrom/SDL_cdrom.o
 .data          0x0000000000000000        0x0 /home/jbrawley/Desktop/rockbox-photo-cf-support/build/apps/plugins/sdl/src/cdrom/SDL_cdrom.o
 .bss           0x0000000000000000       0x30 /home/jbrawley/Desktop/rockbox-photo-cf-support/build/apps/plugins/sdl/src/cdrom/SDL_cdrom.o
 .rodata.str1.4
                0x0000000000000000       0xca /home/jbrawley/Desktop/rockbox-photo-cf-support/build/apps/plugins/sdl/src/cdrom/SDL_cdrom.o
 COMMON         0x0000000000000000        0x4 /home/jbrawley/Desktop/rockbox-photo-cf-support/build/apps/plugins/sdl/src/cdrom/SDL_cdrom.o
 .text          0x0000000000000000        0xc /home/jbrawley/Desktop/rockbox-photo-cf-support/build/apps/plugins/sdl/src/cdrom/dummy/SDL_syscdrom.o
 .data          0x0000000000000000        0x0 /home/jbrawley/Desktop/rockbox-photo-cf-support/build/apps/plugins/sdl/src/cdrom/dummy/SDL_syscdrom.o
 .bss           0x0000000000000000        0x0 /home/jbrawley/Desktop/rockbox-photo-cf-support/build/apps/plugins/sdl/src/cdrom/dummy/SDL_syscdrom.o
 .bss           0x0000000000000000        0x0 /home/jbrawley/Desktop/rockbox-photo-cf-support/build/apps/plugins/sdl/src/cpuinfo/SDL_cpuinfo.o
 .data          0x0000000000000000        0x0 /home/jbrawley/Desktop/rockbox-photo-cf-support/build/apps/plugins/sdl/src/events/SDL_active.o
 .data          0x0000000000000000        0x0 /home/jbrawley/Desktop/rockbox-photo-cf-support/build/apps/plugins/sdl/src/events/SDL_events.o
 .text          0x0000000000000000       0x8c /home/jbrawley/Desktop/rockbox-photo-cf-support/build/apps/plugins/sdl/src/events/SDL_expose.o
 .data          0x0000000000000000        0x0 /home/jbrawley/Desktop/rockbox-photo-cf-support/build/apps/plugins/sdl/src/events/SDL_expose.o
 .bss           0x0000000000000000        0x0 /home/jbrawley/Desktop/rockbox-photo-cf-support/build/apps/plugins/sdl/src/events/SDL_expose.o
 .data          0x0000000000000000        0x0 /home/jbrawley/Desktop/rockbox-photo-cf-support/build/apps/plugins/sdl/src/events/SDL_keyboard.o
 .data          0x0000000000000000        0x0 /home/jbrawley/Desktop/rockbox-photo-cf-support/build/apps/plugins/sdl/src/events/SDL_mouse.o
 .data          0x0000000000000000        0x0 /home/jbrawley/Desktop/rockbox-photo-cf-support/build/apps/plugins/sdl/src/events/SDL_quit.o
 .bss           0x0000000000000000        0x0 /home/jbrawley/Desktop/rockbox-photo-cf-support/build/apps/plugins/sdl/src/events/SDL_quit.o
 .data          0x0000000000000000        0x0 /home/jbrawley/Desktop/rockbox-photo-cf-support/build/apps/plugins/sdl/src/events/SDL_resize.o
 .data          0x0000000000000000        0x0 /home/jbrawley/Desktop/rockbox-photo-cf-support/build/apps/plugins/sdl/src/file/SDL_rwops.o
 .bss           0x0000000000000000        0x0 /home/jbrawley/Desktop/rockbox-photo-cf-support/build/apps/plugins/sdl/src/file/SDL_rwops.o
 .data          0x0000000000000000        0x0 /home/jbrawley/Desktop/rockbox-photo-cf-support/build/apps/plugins/sdl/src/joystick/SDL_joystick.o
 .data          0x0000000000000000        0x0 /home/jbrawley/Desktop/rockbox-photo-cf-support/build/apps/plugins/sdl/src/joystick/dummy/SDL_sysjoystick.o
 .bss           0x0000000000000000        0x0 /home/jbrawley/Desktop/rockbox-photo-cf-support/build/apps/plugins/sdl/src/joystick/dummy/SDL_sysjoystick.o
 .text          0x0000000000000000       0x50 /home/jbrawley/Desktop/rockbox-photo-cf-support/build/apps/plugins/sdl/src/loadso/dummy/SDL_sysloadso.o
 .data          0x0000000000000000        0x0 /home/jbrawley/Desktop/rockbox-photo-cf-support/build/apps/plugins/sdl/src/loadso/dummy/SDL_sysloadso.o
 .bss           0x0000000000000000        0x0 /home/jbrawley/Desktop/rockbox-photo-cf-support/build/apps/plugins/sdl/src/loadso/dummy/SDL_sysloadso.o
 .rodata.str1.4
                0x0000000000000000       0x5f /home/jbrawley/Desktop/rockbox-photo-cf-support/build/apps/plugins/sdl/src/loadso/dummy/SDL_sysloadso.o
 .data          0x0000000000000000        0x0 /home/jbrawley/Desktop/rockbox-photo-cf-support/build/apps/plugins/sdl/src/stdlib/SDL_getenv.o
 .text          0x0000000000000000     0x2864 /home/jbrawley/Desktop/rockbox-photo-cf-support/build/apps/plugins/sdl/src/stdlib/SDL_iconv.o
 .data          0x0000000000000000        0x0 /home/jbrawley/Desktop/rockbox-photo-cf-support/build/apps/plugins/sdl/src/stdlib/SDL_iconv.o
 .bss           0x0000000000000000        0x0 /home/jbrawley/Desktop/rockbox-photo-cf-support/build/apps/plugins/sdl/src/stdlib/SDL_iconv.o
 .rodata        0x0000000000000000       0xb0 /home/jbrawley/Desktop/rockbox-photo-cf-support/build/apps/plugins/sdl/src/stdlib/SDL_iconv.o
 .rodata.str1.4
                0x0000000000000000       0xf2 /home/jbrawley/Desktop/rockbox-photo-cf-support/build/apps/plugins/sdl/src/stdlib/SDL_iconv.o
 .text          0x0000000000000000        0x0 /home/jbrawley/Desktop/rockbox-photo-cf-support/build/apps/plugins/sdl/src/stdlib/SDL_malloc.o
 .data          0x0000000000000000        0x0 /home/jbrawley/Desktop/rockbox-photo-cf-support/build/apps/plugins/sdl/src/stdlib/SDL_malloc.o
 .bss           0x0000000000000000        0x0 /home/jbrawley/Desktop/rockbox-photo-cf-support/build/apps/plugins/sdl/src/stdlib/SDL_malloc.o
 .text          0x0000000000000000        0x0 /home/jbrawley/Desktop/rockbox-photo-cf-support/build/apps/plugins/sdl/src/stdlib/SDL_qsort.o
 .data          0x0000000000000000        0x0 /home/jbrawley/Desktop/rockbox-photo-cf-support/build/apps/plugins/sdl/src/stdlib/SDL_qsort.o
 .bss           0x0000000000000000        0x0 /home/jbrawley/Desktop/rockbox-photo-cf-support/build/apps/plugins/sdl/src/stdlib/SDL_qsort.o
 .text          0x0000000000000000        0x0 /home/jbrawley/Desktop/rockbox-photo-cf-support/build/apps/plugins/sdl/src/stdlib/SDL_stdlib.o
 .data          0x0000000000000000        0x0 /home/jbrawley/Desktop/rockbox-photo-cf-support/build/apps/plugins/sdl/src/stdlib/SDL_stdlib.o
 .bss           0x0000000000000000        0x0 /home/jbrawley/Desktop/rockbox-photo-cf-support/build/apps/plugins/sdl/src/stdlib/SDL_stdlib.o
 .data          0x0000000000000000        0x0 /home/jbrawley/Desktop/rockbox-photo-cf-support/build/apps/plugins/sdl/src/stdlib/SDL_string.o
 .bss           0x0000000000000000        0x0 /home/jbrawley/Desktop/rockbox-photo-cf-support/build/apps/plugins/sdl/src/stdlib/SDL_string.o
 .data          0x0000000000000000        0x0 /home/jbrawley/Desktop/rockbox-photo-cf-support/build/apps/plugins/sdl/src/thread/SDL_thread.o
 .text          0x0000000000000000      0x544 /home/jbrawley/Desktop/rockbox-photo-cf-support/build/apps/plugins/sdl/src/thread/rockbox/SDL_syscond.o
 .data          0x0000000000000000        0x0 /home/jbrawley/Desktop/rockbox-photo-cf-support/build/apps/plugins/sdl/src/thread/rockbox/SDL_syscond.o
 .bss           0x0000000000000000        0x0 /home/jbrawley/Desktop/rockbox-photo-cf-support/build/apps/plugins/sdl/src/thread/rockbox/SDL_syscond.o
 .rodata.str1.4
                0x0000000000000000       0x21 /home/jbrawley/Desktop/rockbox-photo-cf-support/build/apps/plugins/sdl/src/thread/rockbox/SDL_syscond.o
 .data          0x0000000000000000        0x0 /home/jbrawley/Desktop/rockbox-photo-cf-support/build/apps/plugins/sdl/src/thread/rockbox/SDL_sysmutex.o
 .bss           0x0000000000000000        0x0 /home/jbrawley/Desktop/rockbox-photo-cf-support/build/apps/plugins/sdl/src/thread/rockbox/SDL_sysmutex.o
 .data          0x0000000000000000        0x0 /home/jbrawley/Desktop/rockbox-photo-cf-support/build/apps/plugins/sdl/src/thread/rockbox/SDL_syssem.o
 .bss           0x0000000000000000        0x0 /home/jbrawley/Desktop/rockbox-photo-cf-support/build/apps/plugins/sdl/src/thread/rockbox/SDL_syssem.o
 .data          0x0000000000000000        0x0 /home/jbrawley/Desktop/rockbox-photo-cf-support/build/apps/plugins/sdl/src/thread/rockbox/SDL_systhread.o
 .data          0x0000000000000000        0x0 /home/jbrawley/Desktop/rockbox-photo-cf-support/build/apps/plugins/sdl/src/timer/SDL_timer.o
 .data          0x0000000000000000        0x0 /home/jbrawley/Desktop/rockbox-photo-cf-support/build/apps/plugins/sdl/src/timer/rockbox/SDL_systimer.o
 .data          0x0000000000000000        0x0 /home/jbrawley/Desktop/rockbox-photo-cf-support/build/apps/plugins/sdl/src/video/SDL_RLEaccel.o
 .bss           0x0000000000000000        0x0 /home/jbrawley/Desktop/rockbox-photo-cf-support/build/apps/plugins/sdl/src/video/SDL_RLEaccel.o
 .data          0x0000000000000000        0x0 /home/jbrawley/Desktop/rockbox-photo-cf-support/build/apps/plugins/sdl/src/video/SDL_blit.o
 .bss           0x0000000000000000        0x0 /home/jbrawley/Desktop/rockbox-photo-cf-support/build/apps/plugins/sdl/src/video/SDL_blit.o
 .data          0x0000000000000000        0x0 /home/jbrawley/Desktop/rockbox-photo-cf-support/build/apps/plugins/sdl/src/video/SDL_blit_0.o
 .bss           0x0000000000000000        0x0 /home/jbrawley/Desktop/rockbox-photo-cf-support/build/apps/plugins/sdl/src/video/SDL_blit_0.o
 .data          0x0000000000000000        0x0 /home/jbrawley/Desktop/rockbox-photo-cf-support/build/apps/plugins/sdl/src/video/SDL_blit_1.o
 .bss           0x0000000000000000        0x0 /home/jbrawley/Desktop/rockbox-photo-cf-support/build/apps/plugins/sdl/src/video/SDL_blit_1.o
 .data          0x0000000000000000        0x0 /home/jbrawley/Desktop/rockbox-photo-cf-support/build/apps/plugins/sdl/src/video/SDL_blit_A.o
 .bss           0x0000000000000000        0x0 /home/jbrawley/Desktop/rockbox-photo-cf-support/build/apps/plugins/sdl/src/video/SDL_blit_A.o
 .data          0x0000000000000000        0x0 /home/jbrawley/Desktop/rockbox-photo-cf-support/build/apps/plugins/sdl/src/video/SDL_blit_N.o
 .bss           0x0000000000000000        0x0 /home/jbrawley/Desktop/rockbox-photo-cf-support/build/apps/plugins/sdl/src/video/SDL_blit_N.o
 .data          0x0000000000000000        0x0 /home/jbrawley/Desktop/rockbox-photo-cf-support/build/apps/plugins/sdl/src/video/SDL_bmp.o
 .bss           0x0000000000000000        0x0 /home/jbrawley/Desktop/rockbox-photo-cf-support/build/apps/plugins/sdl/src/video/SDL_bmp.o
 .text          0x0000000000000000     0x1e70 /home/jbrawley/Desktop/rockbox-photo-cf-support/build/apps/plugins/sdl/src/video/SDL_gamma.o
 .data          0x0000000000000000        0x0 /home/jbrawley/Desktop/rockbox-photo-cf-support/build/apps/plugins/sdl/src/video/SDL_gamma.o
 .bss           0x0000000000000000        0x0 /home/jbrawley/Desktop/rockbox-photo-cf-support/build/apps/plugins/sdl/src/video/SDL_gamma.o
 .rodata.str1.4
                0x0000000000000000       0x42 /home/jbrawley/Desktop/rockbox-photo-cf-support/build/apps/plugins/sdl/src/video/SDL_gamma.o
 .data          0x0000000000000000        0x0 /home/jbrawley/Desktop/rockbox-photo-cf-support/build/apps/plugins/sdl/src/video/SDL_pixels.o
 .text          0x0000000000000000      0xc10 /home/jbrawley/Desktop/rockbox-photo-cf-support/build/apps/plugins/sdl/src/video/SDL_stretch.o
 .data          0x0000000000000000        0x0 /home/jbrawley/Desktop/rockbox-photo-cf-support/build/apps/plugins/sdl/src/video/SDL_stretch.o
 .bss           0x0000000000000000        0x0 /home/jbrawley/Desktop/rockbox-photo-cf-support/build/apps/plugins/sdl/src/video/SDL_stretch.o
 .rodata.str1.4
                0x0000000000000000       0xae /home/jbrawley/Desktop/rockbox-photo-cf-support/build/apps/plugins/sdl/src/video/SDL_stretch.o
 .data          0x0000000000000000        0x0 /home/jbrawley/Desktop/rockbox-photo-cf-support/build/apps/plugins/sdl/src/video/SDL_surface.o
 .bss           0x0000000000000000        0x0 /home/jbrawley/Desktop/rockbox-photo-cf-support/build/apps/plugins/sdl/src/video/SDL_surface.o
 .text          0x0000000000000000      0x398 /home/jbrawley/Desktop/rockbox-photo-cf-support/build/apps/plugins/sdl/src/video/SDL_yuv.o
 .data          0x0000000000000000        0x0 /home/jbrawley/Desktop/rockbox-photo-cf-support/build/apps/plugins/sdl/src/video/SDL_yuv.o
 .bss           0x0000000000000000        0x0 /home/jbrawley/Desktop/rockbox-photo-cf-support/build/apps/plugins/sdl/src/video/SDL_yuv.o
 .rodata.str1.4
                0x0000000000000000       0x93 /home/jbrawley/Desktop/rockbox-photo-cf-support/build/apps/plugins/sdl/src/video/SDL_yuv.o
 .text          0x0000000000000000        0x0 /home/jbrawley/Desktop/rockbox-photo-cf-support/build/apps/plugins/sdl/src/video/SDL_yuv_mmx.o
 .data          0x0000000000000000        0x0 /home/jbrawley/Desktop/rockbox-photo-cf-support/build/apps/plugins/sdl/src/video/SDL_yuv_mmx.o
 .bss           0x0000000000000000        0x0 /home/jbrawley/Desktop/rockbox-photo-cf-support/build/apps/plugins/sdl/src/video/SDL_yuv_mmx.o
 .text          0x0000000000000000     0x2a28 /home/jbrawley/Desktop/rockbox-photo-cf-support/build/apps/plugins/sdl/src/video/SDL_yuv_sw.o
 .data          0x0000000000000000       0x10 /home/jbrawley/Desktop/rockbox-photo-cf-support/build/apps/plugins/sdl/src/video/SDL_yuv_sw.o
 .bss           0x0000000000000000        0x0 /home/jbrawley/Desktop/rockbox-photo-cf-support/build/apps/plugins/sdl/src/video/SDL_yuv_sw.o
 .rodata.str1.4
                0x0000000000000000       0x67 /home/jbrawley/Desktop/rockbox-photo-cf-support/build/apps/plugins/sdl/src/video/SDL_yuv_sw.o
 .text          0x0000000000000000        0x8 /home/jbrawley/Desktop/rockbox-photo-cf-support/build/apps/plugins/sdl/src/video/dummy/SDL_nullevents.o
 .data          0x0000000000000000        0x0 /home/jbrawley/Desktop/rockbox-photo-cf-support/build/apps/plugins/sdl/src/video/dummy/SDL_nullevents.o
 .bss           0x0000000000000000        0x0 /home/jbrawley/Desktop/rockbox-photo-cf-support/build/apps/plugins/sdl/src/video/dummy/SDL_nullevents.o
 .text          0x0000000000000000        0x0 /home/jbrawley/Desktop/rockbox-photo-cf-support/build/apps/plugins/sdl/src/video/dummy/SDL_nullmouse.o
 .data          0x0000000000000000        0x0 /home/jbrawley/Desktop/rockbox-photo-cf-support/build/apps/plugins/sdl/src/video/dummy/SDL_nullmouse.o
 .bss           0x0000000000000000        0x0 /home/jbrawley/Desktop/rockbox-photo-cf-support/build/apps/plugins/sdl/src/video/dummy/SDL_nullmouse.o
 .text          0x0000000000000000      0x340 /home/jbrawley/Desktop/rockbox-photo-cf-support/build/apps/plugins/sdl/src/video/dummy/SDL_nullvideo.o
 .data          0x0000000000000000       0x10 /home/jbrawley/Desktop/rockbox-photo-cf-support/build/apps/plugins/sdl/src/video/dummy/SDL_nullvideo.o
 .bss           0x0000000000000000        0x0 /home/jbrawley/Desktop/rockbox-photo-cf-support/build/apps/plugins/sdl/src/video/dummy/SDL_nullvideo.o
 .rodata.str1.4
                0x0000000000000000       0x93 /home/jbrawley/Desktop/rockbox-photo-cf-support/build/apps/plugins/sdl/src/video/dummy/SDL_nullvideo.o
 .text          0x0000000000000000       0x30 /home/jbrawley/Desktop/rockbox-photo-cf-support/build/apps/plugins/sdl/SDL_image/IMG_bmp.o
 .data          0x0000000000000000        0x0 /home/jbrawley/Desktop/rockbox-photo-cf-support/build/apps/plugins/sdl/SDL_image/IMG_bmp.o
 .bss           0x0000000000000000        0x0 /home/jbrawley/Desktop/rockbox-photo-cf-support/build/apps/plugins/sdl/SDL_image/IMG_bmp.o
 .text          0x0000000000000000      0x4b0 /home/jbrawley/Desktop/rockbox-photo-cf-support/build/apps/plugins/sdl/SDL_image/IMG.o
 .data          0x0000000000000000        0x0 /home/jbrawley/Desktop/rockbox-photo-cf-support/build/apps/plugins/sdl/SDL_image/IMG.o
 .bss           0x0000000000000000        0x8 /home/jbrawley/Desktop/rockbox-photo-cf-support/build/apps/plugins/sdl/SDL_image/IMG.o
 .rodata        0x0000000000000000       0xb4 /home/jbrawley/Desktop/rockbox-photo-cf-support/build/apps/plugins/sdl/SDL_image/IMG.o
 .rodata.str1.4
                0x0000000000000000       0x99 /home/jbrawley/Desktop/rockbox-photo-cf-support/build/apps/plugins/sdl/SDL_image/IMG.o
 .text          0x0000000000000000       0x10 /home/jbrawley/Desktop/rockbox-photo-cf-support/build/apps/plugins/sdl/SDL_image/IMG_gif.o
 .data          0x0000000000000000        0x0 /home/jbrawley/Desktop/rockbox-photo-cf-support/build/apps/plugins/sdl/SDL_image/IMG_gif.o
 .bss           0x0000000000000000        0x0 /home/jbrawley/Desktop/rockbox-photo-cf-support/build/apps/plugins/sdl/SDL_image/IMG_gif.o
 .text          0x0000000000000000       0x30 /home/jbrawley/Desktop/rockbox-photo-cf-support/build/apps/plugins/sdl/SDL_image/IMG_jpg.o
 .data          0x0000000000000000        0x0 /home/jbrawley/Desktop/rockbox-photo-cf-support/build/apps/plugins/sdl/SDL_image/IMG_jpg.o
 .bss           0x0000000000000000        0x0 /home/jbrawley/Desktop/rockbox-photo-cf-support/build/apps/plugins/sdl/SDL_image/IMG_jpg.o
 .rodata.str1.4
                0x0000000000000000       0x1e /home/jbrawley/Desktop/rockbox-photo-cf-support/build/apps/plugins/sdl/SDL_image/IMG_jpg.o
 .text          0x0000000000000000       0x10 /home/jbrawley/Desktop/rockbox-photo-cf-support/build/apps/plugins/sdl/SDL_image/IMG_lbm.o
 .data          0x0000000000000000        0x0 /home/jbrawley/Desktop/rockbox-photo-cf-support/build/apps/plugins/sdl/SDL_image/IMG_lbm.o
 .bss           0x0000000000000000        0x0 /home/jbrawley/Desktop/rockbox-photo-cf-support/build/apps/plugins/sdl/SDL_image/IMG_lbm.o
 .text          0x0000000000000000       0x10 /home/jbrawley/Desktop/rockbox-photo-cf-support/build/apps/plugins/sdl/SDL_image/IMG_pcx.o
 .data          0x0000000000000000        0x0 /home/jbrawley/Desktop/rockbox-photo-cf-support/build/apps/plugins/sdl/SDL_image/IMG_pcx.o
 .bss           0x0000000000000000        0x0 /home/jbrawley/Desktop/rockbox-photo-cf-support/build/apps/plugins/sdl/SDL_image/IMG_pcx.o
 .text          0x0000000000000000       0x30 /home/jbrawley/Desktop/rockbox-photo-cf-support/build/apps/plugins/sdl/SDL_image/IMG_png.o
 .data          0x0000000000000000        0x0 /home/jbrawley/Desktop/rockbox-photo-cf-support/build/apps/plugins/sdl/SDL_image/IMG_png.o
 .bss           0x0000000000000000        0x0 /home/jbrawley/Desktop/rockbox-photo-cf-support/build/apps/plugins/sdl/SDL_image/IMG_png.o
 .rodata.str1.4
                0x0000000000000000       0x1d /home/jbrawley/Desktop/rockbox-photo-cf-support/build/apps/plugins/sdl/SDL_image/IMG_png.o
 .text          0x0000000000000000       0x10 /home/jbrawley/Desktop/rockbox-photo-cf-support/build/apps/plugins/sdl/SDL_image/IMG_pnm.o
 .data          0x0000000000000000        0x0 /home/jbrawley/Desktop/rockbox-photo-cf-support/build/apps/plugins/sdl/SDL_image/IMG_pnm.o
 .bss           0x0000000000000000        0x0 /home/jbrawley/Desktop/rockbox-photo-cf-support/build/apps/plugins/sdl/SDL_image/IMG_pnm.o
 .text          0x0000000000000000        0x8 /home/jbrawley/Desktop/rockbox-photo-cf-support/build/apps/plugins/sdl/SDL_image/IMG_tga.o
 .data          0x0000000000000000        0x0 /home/jbrawley/Desktop/rockbox-photo-cf-support/build/apps/plugins/sdl/SDL_image/IMG_tga.o
 .bss           0x0000000000000000        0x0 /home/jbrawley/Desktop/rockbox-photo-cf-support/build/apps/plugins/sdl/SDL_image/IMG_tga.o
 .text          0x0000000000000000       0x30 /home/jbrawley/Desktop/rockbox-photo-cf-support/build/apps/plugins/sdl/SDL_image/IMG_tif.o
 .data          0x0000000000000000        0x0 /home/jbrawley/Desktop/rockbox-photo-cf-support/build/apps/plugins/sdl/SDL_image/IMG_tif.o
 .bss           0x0000000000000000        0x0 /home/jbrawley/Desktop/rockbox-photo-cf-support/build/apps/plugins/sdl/SDL_image/IMG_tif.o
 .rodata.str1.4
                0x0000000000000000       0x1e /home/jbrawley/Desktop/rockbox-photo-cf-support/build/apps/plugins/sdl/SDL_image/IMG_tif.o
 .text          0x0000000000000000       0x30 /home/jbrawley/Desktop/rockbox-photo-cf-support/build/apps/plugins/sdl/SDL_image/IMG_webp.o
 .data          0x0000000000000000        0x0 /home/jbrawley/Desktop/rockbox-photo-cf-support/build/apps/plugins/sdl/SDL_image/IMG_webp.o
 .bss           0x0000000000000000        0x0 /home/jbrawley/Desktop/rockbox-photo-cf-support/build/apps/plugins/sdl/SDL_image/IMG_webp.o
 .rodata.str1.4
                0x0000000000000000       0x1e /home/jbrawley/Desktop/rockbox-photo-cf-support/build/apps/plugins/sdl/SDL_image/IMG_webp.o
 .text          0x0000000000000000       0x10 /home/jbrawley/Desktop/rockbox-photo-cf-support/build/apps/plugins/sdl/SDL_image/IMG_xcf.o
 .data          0x0000000000000000        0x0 /home/jbrawley/Desktop/rockbox-photo-cf-support/build/apps/plugins/sdl/SDL_image/IMG_xcf.o
 .bss           0x0000000000000000        0x0 /home/jbrawley/Desktop/rockbox-photo-cf-support/build/apps/plugins/sdl/SDL_image/IMG_xcf.o
 .text          0x0000000000000000     0x1000 /home/jbrawley/Desktop/rockbox-photo-cf-support/build/apps/plugins/sdl/SDL_image/IMG_xpm.o
 .data          0x0000000000000000        0x0 /home/jbrawley/Desktop/rockbox-photo-cf-support/build/apps/plugins/sdl/SDL_image/IMG_xpm.o
 .bss           0x0000000000000000        0xc /home/jbrawley/Desktop/rockbox-photo-cf-support/build/apps/plugins/sdl/SDL_image/IMG_xpm.o
 .rodata        0x0000000000000000       0x30 /home/jbrawley/Desktop/rockbox-photo-cf-support/build/apps/plugins/sdl/SDL_image/IMG_xpm.o
 .rodata.str1.4
                0x0000000000000000       0x99 /home/jbrawley/Desktop/rockbox-photo-cf-support/build/apps/plugins/sdl/SDL_image/IMG_xpm.o
 .text          0x0000000000000000       0x10 /home/jbrawley/Desktop/rockbox-photo-cf-support/build/apps/plugins/sdl/SDL_image/IMG_xv.o
 .data          0x0000000000000000        0x0 /home/jbrawley/Desktop/rockbox-photo-cf-support/build/apps/plugins/sdl/SDL_image/IMG_xv.o
 .bss           0x0000000000000000        0x0 /home/jbrawley/Desktop/rockbox-photo-cf-support/build/apps/plugins/sdl/SDL_image/IMG_xv.o
 .text          0x0000000000000000       0x10 /home/jbrawley/Desktop/rockbox-photo-cf-support/build/apps/plugins/sdl/SDL_image/IMG_xxx.o
 .data          0x0000000000000000        0x0 /home/jbrawley/Desktop/rockbox-photo-cf-support/build/apps/plugins/sdl/SDL_image/IMG_xxx.o
 .bss           0x0000000000000000        0x0 /home/jbrawley/Desktop/rockbox-photo-cf-support/build/apps/plugins/sdl/SDL_image/IMG_xxx.o
 .text          0x0000000000000000        0x0 /home/jbrawley/Desktop/rockbox-photo-cf-support/build/apps/plugins/sdl/SDL_mixer/dynamic_flac.o
 .data          0x0000000000000000        0x0 /home/jbrawley/Desktop/rockbox-photo-cf-support/build/apps/plugins/sdl/SDL_mixer/dynamic_flac.o
 .bss           0x0000000000000000        0x0 /home/jbrawley/Desktop/rockbox-photo-cf-support/build/apps/plugins/sdl/SDL_mixer/dynamic_flac.o
 .text          0x0000000000000000        0x0 /home/jbrawley/Desktop/rockbox-photo-cf-support/build/apps/plugins/sdl/SDL_mixer/dynamic_fluidsynth.o
 .data          0x0000000000000000        0x0 /home/jbrawley/Desktop/rockbox-photo-cf-support/build/apps/plugins/sdl/SDL_mixer/dynamic_fluidsynth.o
 .bss           0x0000000000000000        0x0 /home/jbrawley/Desktop/rockbox-photo-cf-support/build/apps/plugins/sdl/SDL_mixer/dynamic_fluidsynth.o
 .text          0x0000000000000000        0x0 /home/jbrawley/Desktop/rockbox-photo-cf-support/build/apps/plugins/sdl/SDL_mixer/dynamic_mod.o
 .data          0x0000000000000000        0x0 /home/jbrawley/Desktop/rockbox-photo-cf-support/build/apps/plugins/sdl/SDL_mixer/dynamic_mod.o
 .bss           0x0000000000000000        0x0 /home/jbrawley/Desktop/rockbox-photo-cf-support/build/apps/plugins/sdl/SDL_mixer/dynamic_mod.o
 .text          0x0000000000000000        0x0 /home/jbrawley/Desktop/rockbox-photo-cf-support/build/apps/plugins/sdl/SDL_mixer/dynamic_mp3.o
 .data          0x0000000000000000        0x0 /home/jbrawley/Desktop/rockbox-photo-cf-support/build/apps/plugins/sdl/SDL_mixer/dynamic_mp3.o
 .bss           0x0000000000000000        0x0 /home/jbrawley/Desktop/rockbox-photo-cf-support/build/apps/plugins/sdl/SDL_mixer/dynamic_mp3.o
 .text          0x0000000000000000        0x0 /home/jbrawley/Desktop/rockbox-photo-cf-support/build/apps/plugins/sdl/SDL_mixer/dynamic_ogg.o
 .data          0x0000000000000000        0x0 /home/jbrawley/Desktop/rockbox-photo-cf-support/build/apps/plugins/sdl/SDL_mixer/dynamic_ogg.o
 .bss           0x0000000000000000        0x0 /home/jbrawley/Desktop/rockbox-photo-cf-support/build/apps/plugins/sdl/SDL_mixer/dynamic_ogg.o
 .data          0x0000000000000000        0x0 /home/jbrawley/Desktop/rockbox-photo-cf-support/build/apps/plugins/sdl/SDL_mixer/effect_position.o
 .data          0x0000000000000000        0x0 /home/jbrawley/Desktop/rockbox-photo-cf-support/build/apps/plugins/sdl/SDL_mixer/effects_internal.o
 .text          0x0000000000000000      0x3dc /home/jbrawley/Desktop/rockbox-photo-cf-support/build/apps/plugins/sdl/SDL_mixer/effect_stereoreverse.o
 .data          0x0000000000000000        0x0 /home/jbrawley/Desktop/rockbox-photo-cf-support/build/apps/plugins/sdl/SDL_mixer/effect_stereoreverse.o
 .bss           0x0000000000000000        0x0 /home/jbrawley/Desktop/rockbox-photo-cf-support/build/apps/plugins/sdl/SDL_mixer/effect_stereoreverse.o
 .rodata.str1.4
                0x0000000000000000       0x19 /home/jbrawley/Desktop/rockbox-photo-cf-support/build/apps/plugins/sdl/SDL_mixer/effect_stereoreverse.o
 .text          0x0000000000000000        0x0 /home/jbrawley/Desktop/rockbox-photo-cf-support/build/apps/plugins/sdl/SDL_mixer/fluidsynth.o
 .data          0x0000000000000000        0x0 /home/jbrawley/Desktop/rockbox-photo-cf-support/build/apps/plugins/sdl/SDL_mixer/fluidsynth.o
 .bss           0x0000000000000000        0x0 /home/jbrawley/Desktop/rockbox-photo-cf-support/build/apps/plugins/sdl/SDL_mixer/fluidsynth.o
 .data          0x0000000000000000        0x0 /home/jbrawley/Desktop/rockbox-photo-cf-support/build/apps/plugins/sdl/SDL_mixer/load_aiff.o
 .bss           0x0000000000000000        0x0 /home/jbrawley/Desktop/rockbox-photo-cf-support/build/apps/plugins/sdl/SDL_mixer/load_aiff.o
 .text          0x0000000000000000        0x0 /home/jbrawley/Desktop/rockbox-photo-cf-support/build/apps/plugins/sdl/SDL_mixer/load_flac.o
 .data          0x0000000000000000        0x0 /home/jbrawley/Desktop/rockbox-photo-cf-support/build/apps/plugins/sdl/SDL_mixer/load_flac.o
 .bss           0x0000000000000000        0x0 /home/jbrawley/Desktop/rockbox-photo-cf-support/build/apps/plugins/sdl/SDL_mixer/load_flac.o
 .text          0x0000000000000000        0x0 /home/jbrawley/Desktop/rockbox-photo-cf-support/build/apps/plugins/sdl/SDL_mixer/load_ogg.o
 .data          0x0000000000000000        0x0 /home/jbrawley/Desktop/rockbox-photo-cf-support/build/apps/plugins/sdl/SDL_mixer/load_ogg.o
 .bss           0x0000000000000000        0x0 /home/jbrawley/Desktop/rockbox-photo-cf-support/build/apps/plugins/sdl/SDL_mixer/load_ogg.o
 .data          0x0000000000000000        0x0 /home/jbrawley/Desktop/rockbox-photo-cf-support/build/apps/plugins/sdl/SDL_mixer/load_voc.o
 .bss           0x0000000000000000        0x0 /home/jbrawley/Desktop/rockbox-photo-cf-support/build/apps/plugins/sdl/SDL_mixer/load_voc.o
 .text          0x0000000000000000        0x0 /home/jbrawley/Desktop/rockbox-photo-cf-support/build/apps/plugins/sdl/SDL_mixer/music_cmd.o
 .data          0x0000000000000000        0x0 /home/jbrawley/Desktop/rockbox-photo-cf-support/build/apps/plugins/sdl/SDL_mixer/music_cmd.o
 .bss           0x0000000000000000        0x0 /home/jbrawley/Desktop/rockbox-photo-cf-support/build/apps/plugins/sdl/SDL_mixer/music_cmd.o
 .text          0x0000000000000000        0x0 /home/jbrawley/Desktop/rockbox-photo-cf-support/build/apps/plugins/sdl/SDL_mixer/music_flac.o
 .data          0x0000000000000000        0x0 /home/jbrawley/Desktop/rockbox-photo-cf-support/build/apps/plugins/sdl/SDL_mixer/music_flac.o
 .bss           0x0000000000000000        0x0 /home/jbrawley/Desktop/rockbox-photo-cf-support/build/apps/plugins/sdl/SDL_mixer/music_flac.o
 .text          0x0000000000000000        0x0 /home/jbrawley/Desktop/rockbox-photo-cf-support/build/apps/plugins/sdl/SDL_mixer/music_mad.o
 .data          0x0000000000000000        0x0 /home/jbrawley/Desktop/rockbox-photo-cf-support/build/apps/plugins/sdl/SDL_mixer/music_mad.o
 .bss           0x0000000000000000        0x0 /home/jbrawley/Desktop/rockbox-photo-cf-support/build/apps/plugins/sdl/SDL_mixer/music_mad.o
 .text          0x0000000000000000        0x0 /home/jbrawley/Desktop/rockbox-photo-cf-support/build/apps/plugins/sdl/SDL_mixer/music_mod.o
 .data          0x0000000000000000        0x0 /home/jbrawley/Desktop/rockbox-photo-cf-support/build/apps/plugins/sdl/SDL_mixer/music_mod.o
 .bss           0x0000000000000000        0x0 /home/jbrawley/Desktop/rockbox-photo-cf-support/build/apps/plugins/sdl/SDL_mixer/music_mod.o
 .text          0x0000000000000000        0x0 /home/jbrawley/Desktop/rockbox-photo-cf-support/build/apps/plugins/sdl/SDL_mixer/music_modplug.o
 .data          0x0000000000000000        0x0 /home/jbrawley/Desktop/rockbox-photo-cf-support/build/apps/plugins/sdl/SDL_mixer/music_modplug.o
 .bss           0x0000000000000000        0x0 /home/jbrawley/Desktop/rockbox-photo-cf-support/build/apps/plugins/sdl/SDL_mixer/music_modplug.o
 .text          0x0000000000000000        0x0 /home/jbrawley/Desktop/rockbox-photo-cf-support/build/apps/plugins/sdl/SDL_mixer/music_ogg.o
 .data          0x0000000000000000        0x0 /home/jbrawley/Desktop/rockbox-photo-cf-support/build/apps/plugins/sdl/SDL_mixer/music_ogg.o
 .bss           0x0000000000000000        0x0 /home/jbrawley/Desktop/rockbox-photo-cf-support/build/apps/plugins/sdl/SDL_mixer/music_ogg.o
 .text          0x0000000000000000      0x9a4 /home/jbrawley/Desktop/rockbox-photo-cf-support/build/apps/plugins/sdl/SDL_mixer/wavestream.o
 .data          0x0000000000000000        0x4 /home/jbrawley/Desktop/rockbox-photo-cf-support/build/apps/plugins/sdl/SDL_mixer/wavestream.o
 .bss           0x0000000000000000       0x1c /home/jbrawley/Desktop/rockbox-photo-cf-support/build/apps/plugins/sdl/SDL_mixer/wavestream.o
 .rodata.str1.4
                0x0000000000000000      0x16c /home/jbrawley/Desktop/rockbox-photo-cf-support/build/apps/plugins/sdl/SDL_mixer/wavestream.o
 .data          0x0000000000000000        0x0 /home/jbrawley/Desktop/rockbox-photo-cf-support/build/apps/plugins/sdl/SDL_mixer/timidity/common.o
 .text          0x0000000000000000        0x0 /home/jbrawley/Desktop/rockbox-photo-cf-support/build/apps/plugins/sdl/SDL_mixer/timidity/ctrlmode.o
 .bss           0x0000000000000000        0x0 /home/jbrawley/Desktop/rockbox-photo-cf-support/build/apps/plugins/sdl/SDL_mixer/timidity/ctrlmode.o
 .data          0x0000000000000000        0x0 /home/jbrawley/Desktop/rockbox-photo-cf-support/build/apps/plugins/sdl/SDL_mixer/timidity/filter.o
 .bss           0x0000000000000000        0x0 /home/jbrawley/Desktop/rockbox-photo-cf-support/build/apps/plugins/sdl/SDL_mixer/timidity/filter.o
 .data          0x0000000000000000        0x0 /home/jbrawley/Desktop/rockbox-photo-cf-support/build/apps/plugins/sdl/SDL_mixer/timidity/mix.o
 .bss           0x0000000000000000        0x0 /home/jbrawley/Desktop/rockbox-photo-cf-support/build/apps/plugins/sdl/SDL_mixer/timidity/mix.o
 .bss           0x0000000000000000        0x0 /home/jbrawley/Desktop/rockbox-photo-cf-support/build/apps/plugins/sdl/SDL_mixer/timidity/output.o
 .data          0x0000000000000000        0x0 /home/jbrawley/Desktop/rockbox-photo-cf-support/build/apps/plugins/sdl/SDL_mixer/timidity/readmidi.o
 .data          0x0000000000000000        0x0 /home/jbrawley/Desktop/rockbox-photo-cf-support/build/apps/plugins/sdl/SDL_mixer/timidity/resample.o
 .bss           0x0000000000000000        0x0 /home/jbrawley/Desktop/rockbox-photo-cf-support/build/apps/plugins/sdl/SDL_mixer/timidity/resample.o
 .text          0x0000000000000000        0x0 /home/jbrawley/Desktop/rockbox-photo-cf-support/build/apps/plugins/sdl/SDL_mixer/timidity/sdl_a.o
 .bss           0x0000000000000000        0x0 /home/jbrawley/Desktop/rockbox-photo-cf-support/build/apps/plugins/sdl/SDL_mixer/timidity/sdl_a.o
 .bss           0x0000000000000000        0x0 /home/jbrawley/Desktop/rockbox-photo-cf-support/build/apps/plugins/sdl/SDL_mixer/timidity/sdl_c.o
 .bss           0x0000000000000000        0x0 /home/jbrawley/Desktop/rockbox-photo-cf-support/build/apps/plugins/sdl/SDL_mixer/timidity/tables.o
 .data          0x0000000000000000        0x0 /home/jbrawley/Desktop/rockbox-photo-cf-support/build/apps/plugins/sdl/SDL_mixer/timidity/timidity.o
 .data          0x0000000000000000        0x0 /home/jbrawley/Desktop/rockbox-photo-cf-support/build/apps/plugins/sdl/progs/wolf3d/fmopl_gpl.o
 .data          0x0000000000000000        0x0 /home/jbrawley/Desktop/rockbox-photo-cf-support/build/apps/plugins/sdl/progs/wolf3d/id_pm.o
 .data          0x0000000000000000        0x0 /home/jbrawley/Desktop/rockbox-photo-cf-support/build/apps/plugins/sdl/progs/wolf3d/id_vh.o
 .text          0x0000000000000000        0x0 /home/jbrawley/Desktop/rockbox-photo-cf-support/build/apps/plugins/sdl/progs/wolf3d/signon.o
 .bss           0x0000000000000000        0x0 /home/jbrawley/Desktop/rockbox-photo-cf-support/build/apps/plugins/sdl/progs/wolf3d/signon.o
 .bss           0x0000000000000000        0x0 /home/jbrawley/Desktop/rockbox-photo-cf-support/build/apps/plugins/sdl/progs/wolf3d/wl_act1.o
 .text          0x0000000000000000        0x0 /home/jbrawley/Desktop/rockbox-photo-cf-support/build/apps/plugins/sdl/progs/wolf3d/wl_atmos.o
 .data          0x0000000000000000        0x0 /home/jbrawley/Desktop/rockbox-photo-cf-support/build/apps/plugins/sdl/progs/wolf3d/wl_atmos.o
 .bss           0x0000000000000000        0x0 /home/jbrawley/Desktop/rockbox-photo-cf-support/build/apps/plugins/sdl/progs/wolf3d/wl_atmos.o
 .text          0x0000000000000000        0x0 /home/jbrawley/Desktop/rockbox-photo-cf-support/build/apps/plugins/sdl/progs/wolf3d/wl_cloudsky.o
 .data          0x0000000000000000        0x0 /home/jbrawley/Desktop/rockbox-photo-cf-support/build/apps/plugins/sdl/progs/wolf3d/wl_cloudsky.o
 .bss           0x0000000000000000        0x0 /home/jbrawley/Desktop/rockbox-photo-cf-support/build/apps/plugins/sdl/progs/wolf3d/wl_cloudsky.o
 .bss           0x0000000000000000        0x0 /home/jbrawley/Desktop/rockbox-photo-cf-support/build/apps/plugins/sdl/progs/wolf3d/wl_debug.o
 COMMON         0x0000000000000000        0xc /home/jbrawley/Desktop/rockbox-photo-cf-support/build/apps/plugins/sdl/progs/wolf3d/wl_debug.o
 .text          0x0000000000000000        0x0 /home/jbrawley/Desktop/rockbox-photo-cf-support/build/apps/plugins/sdl/progs/wolf3d/wl_dir3dspr.o
 .data          0x0000000000000000        0x0 /home/jbrawley/Desktop/rockbox-photo-cf-support/build/apps/plugins/sdl/progs/wolf3d/wl_dir3dspr.o
 .bss           0x0000000000000000        0x0 /home/jbrawley/Desktop/rockbox-photo-cf-support/build/apps/plugins/sdl/progs/wolf3d/wl_dir3dspr.o
 .text          0x0000000000000000        0x0 /home/jbrawley/Desktop/rockbox-photo-cf-support/build/apps/plugins/sdl/progs/wolf3d/wl_floorceiling.o
 .data          0x0000000000000000        0x0 /home/jbrawley/Desktop/rockbox-photo-cf-support/build/apps/plugins/sdl/progs/wolf3d/wl_floorceiling.o
 .bss           0x0000000000000000        0x0 /home/jbrawley/Desktop/rockbox-photo-cf-support/build/apps/plugins/sdl/progs/wolf3d/wl_floorceiling.o
 .bss           0x0000000000000000        0x0 /home/jbrawley/Desktop/rockbox-photo-cf-support/build/apps/plugins/sdl/progs/wolf3d/wl_game.o
 .text          0x0000000000000000        0x0 /home/jbrawley/Desktop/rockbox-photo-cf-support/build/apps/plugins/sdl/progs/wolf3d/wl_parallax.o
 .data          0x0000000000000000        0x0 /home/jbrawley/Desktop/rockbox-photo-cf-support/build/apps/plugins/sdl/progs/wolf3d/wl_parallax.o
 .bss           0x0000000000000000        0x0 /home/jbrawley/Desktop/rockbox-photo-cf-support/build/apps/plugins/sdl/progs/wolf3d/wl_parallax.o
 .text          0x0000000000000000        0x0 /home/jbrawley/Desktop/rockbox-photo-cf-support/build/apps/plugins/sdl/progs/wolf3d/wl_shade.o
 .data          0x0000000000000000        0x0 /home/jbrawley/Desktop/rockbox-photo-cf-support/build/apps/plugins/sdl/progs/wolf3d/wl_shade.o
 .bss           0x0000000000000000        0x0 /home/jbrawley/Desktop/rockbox-photo-cf-support/build/apps/plugins/sdl/progs/wolf3d/wl_shade.o
 .data          0x0000000000000000        0x0 /home/jbrawley/Desktop/rockbox-photo-cf-support/build/apps/plugins/sdl/progs/wolf3d/wl_state.o
 .bss           0x0000000000000000        0x0 /home/jbrawley/Desktop/rockbox-photo-cf-support/build/apps/plugins/sdl/progs/wolf3d/wl_state.o
 .text          0x0000000000000000        0x0 /home/jbrawley/Desktop/rockbox-photo-cf-support/build/lib/libtlsf.a(tlsf.o)
 .data          0x0000000000000000        0x0 /home/jbrawley/Desktop/rockbox-photo-cf-support/build/lib/libtlsf.a(tlsf.o)
 .text.get_used_size
                0x0000000000000000        0x8 /home/jbrawley/Desktop/rockbox-photo-cf-support/build/lib/libtlsf.a(tlsf.o)
 .text.get_max_size
                0x0000000000000000        0x8 /home/jbrawley/Desktop/rockbox-photo-cf-support/build/lib/libtlsf.a(tlsf.o)
 .text.destroy_memory_pool
                0x0000000000000000        0xc /home/jbrawley/Desktop/rockbox-photo-cf-support/build/lib/libtlsf.a(tlsf.o)
 .text          0x0000000000000000        0x0 /home/jbrawley/Desktop/rockbox-photo-cf-support/build/apps/plugins/libplugin.a(gcc-support.o)
 .data          0x0000000000000000        0x0 /home/jbrawley/Desktop/rockbox-photo-cf-support/build/apps/plugins/libplugin.a(gcc-support.o)
 .bss           0x0000000000000000        0x0 /home/jbrawley/Desktop/rockbox-photo-cf-support/build/apps/plugins/libplugin.a(gcc-support.o)
 .text.__div0   0x0000000000000000       0x14 /home/jbrawley/Desktop/rockbox-photo-cf-support/build/apps/plugins/libplugin.a(gcc-support.o)
 .text.memmove  0x0000000000000000       0x14 /home/jbrawley/Desktop/rockbox-photo-cf-support/build/apps/plugins/libplugin.a(gcc-support.o)
 .text          0x0000000000000000        0x0 /home/jbrawley/Desktop/rockbox-photo-cf-support/build/apps/plugins/libplugin.a(helper.o)
 .data          0x0000000000000000        0x0 /home/jbrawley/Desktop/rockbox-photo-cf-support/build/apps/plugins/libplugin.a(helper.o)
 .bss           0x0000000000000000        0x0 /home/jbrawley/Desktop/rockbox-photo-cf-support/build/apps/plugins/libplugin.a(helper.o)
 .text.talk_val
                0x0000000000000000       0x1c /home/jbrawley/Desktop/rockbox-photo-cf-support/build/apps/plugins/libplugin.a(helper.o)
 .text.backlight_force_on
                0x0000000000000000       0x34 /home/jbrawley/Desktop/rockbox-photo-cf-support/build/apps/plugins/libplugin.a(helper.o)
 .text.sw_poweroff_disable
                0x0000000000000000       0x3c /home/jbrawley/Desktop/rockbox-photo-cf-support/build/apps/plugins/libplugin.a(helper.o)
 .text.sw_poweroff_restore
                0x0000000000000000       0x20 /home/jbrawley/Desktop/rockbox-photo-cf-support/build/apps/plugins/libplugin.a(helper.o)
 .text.remote_backlight_force_on
                0x0000000000000000        0x4 /home/jbrawley/Desktop/rockbox-photo-cf-support/build/apps/plugins/libplugin.a(helper.o)
 .text.remote_backlight_ignore_timeout
                0x0000000000000000        0x4 /home/jbrawley/Desktop/rockbox-photo-cf-support/build/apps/plugins/libplugin.a(helper.o)
 .text.remote_backlight_use_settings
                0x0000000000000000        0x4 /home/jbrawley/Desktop/rockbox-photo-cf-support/build/apps/plugins/libplugin.a(helper.o)
 .text.buttonlight_force_on
                0x0000000000000000        0x4 /home/jbrawley/Desktop/rockbox-photo-cf-support/build/apps/plugins/libplugin.a(helper.o)
 .text.buttonlight_force_off
                0x0000000000000000        0x4 /home/jbrawley/Desktop/rockbox-photo-cf-support/build/apps/plugins/libplugin.a(helper.o)
 .text.buttonlight_ignore_timeout
                0x0000000000000000        0x4 /home/jbrawley/Desktop/rockbox-photo-cf-support/build/apps/plugins/libplugin.a(helper.o)
 .text.buttonlight_use_settings
                0x0000000000000000        0x4 /home/jbrawley/Desktop/rockbox-photo-cf-support/build/apps/plugins/libplugin.a(helper.o)
 .text.backlight_brightness_set
                0x0000000000000000       0x14 /home/jbrawley/Desktop/rockbox-photo-cf-support/build/apps/plugins/libplugin.a(helper.o)
 .text.backlight_brightness_use_setting
                0x0000000000000000       0x1c /home/jbrawley/Desktop/rockbox-photo-cf-support/build/apps/plugins/libplugin.a(helper.o)
 .text.buttonlight_brightness_set
                0x0000000000000000        0x4 /home/jbrawley/Desktop/rockbox-photo-cf-support/build/apps/plugins/libplugin.a(helper.o)
 .text.buttonlight_brightness_use_setting
                0x0000000000000000        0x4 /home/jbrawley/Desktop/rockbox-photo-cf-support/build/apps/plugins/libplugin.a(helper.o)
 .data.original_sw_poweroff_state
                0x0000000000000000        0x1 /home/jbrawley/Desktop/rockbox-photo-cf-support/build/apps/plugins/libplugin.a(helper.o)
 .text          0x0000000000000000        0x0 /home/jbrawley/Desktop/rockbox-photo-cf-support/build/apps/plugins/libplugin.a(strncpy.o)
 .data          0x0000000000000000        0x0 /home/jbrawley/Desktop/rockbox-photo-cf-support/build/apps/plugins/libplugin.a(strncpy.o)
 .bss           0x0000000000000000        0x0 /home/jbrawley/Desktop/rockbox-photo-cf-support/build/apps/plugins/libplugin.a(strncpy.o)
 .text          0x0000000000000000        0x0 /home/jbrawley/Desktop/rockbox-photo-cf-support/build/apps/plugins/libplugin.a(stdio_compat.o)
 .data          0x0000000000000000        0x0 /home/jbrawley/Desktop/rockbox-photo-cf-support/build/apps/plugins/libplugin.a(stdio_compat.o)
 .bss           0x0000000000000000        0x0 /home/jbrawley/Desktop/rockbox-photo-cf-support/build/apps/plugins/libplugin.a(stdio_compat.o)
 .text._fflush_
                0x0000000000000000        0x8 /home/jbrawley/Desktop/rockbox-photo-cf-support/build/apps/plugins/libplugin.a(stdio_compat.o)
 .text._ungetc_
                0x0000000000000000        0x8 /home/jbrawley/Desktop/rockbox-photo-cf-support/build/apps/plugins/libplugin.a(stdio_compat.o)
 .text._fputc_  0x0000000000000000       0x48 /home/jbrawley/Desktop/rockbox-photo-cf-support/build/apps/plugins/libplugin.a(stdio_compat.o)
 .text._clearerr_
                0x0000000000000000       0x10 /home/jbrawley/Desktop/rockbox-photo-cf-support/build/apps/plugins/libplugin.a(stdio_compat.o)
 .text._feof_   0x0000000000000000       0x20 /home/jbrawley/Desktop/rockbox-photo-cf-support/build/apps/plugins/libplugin.a(stdio_compat.o)
 .text._fprintf_
                0x0000000000000000       0x60 /home/jbrawley/Desktop/rockbox-photo-cf-support/build/apps/plugins/libplugin.a(stdio_compat.o)
 .bss._stderr_  0x0000000000000000        0x4 /home/jbrawley/Desktop/rockbox-photo-cf-support/build/apps/plugins/libplugin.a(stdio_compat.o)
 .bss._stdout_  0x0000000000000000        0x4 /home/jbrawley/Desktop/rockbox-photo-cf-support/build/apps/plugins/libplugin.a(stdio_compat.o)
 .text          0x0000000000000000        0x0 /home/jbrawley/Desktop/rockbox-photo-cf-support/build/apps/plugins/libplugin.a(pluginlib_bmp.o)
 .data          0x0000000000000000        0x0 /home/jbrawley/Desktop/rockbox-photo-cf-support/build/apps/plugins/libplugin.a(pluginlib_bmp.o)
 .bss           0x0000000000000000        0x0 /home/jbrawley/Desktop/rockbox-photo-cf-support/build/apps/plugins/libplugin.a(pluginlib_bmp.o)
 .text.read_part_line
                0x0000000000000000      0x360 /home/jbrawley/Desktop/rockbox-photo-cf-support/build/apps/plugins/libplugin.a(pluginlib_bmp.o)
 .text.store_part_bmp
                0x0000000000000000       0x24 /home/jbrawley/Desktop/rockbox-photo-cf-support/build/apps/plugins/libplugin.a(pluginlib_bmp.o)
 .text.output_row_8_native
                0x0000000000000000      0x130 /home/jbrawley/Desktop/rockbox-photo-cf-support/build/apps/plugins/libplugin.a(pluginlib_bmp.o)
 .text.save_bmp_file
                0x0000000000000000      0x2c8 /home/jbrawley/Desktop/rockbox-photo-cf-support/build/apps/plugins/libplugin.a(pluginlib_bmp.o)
 .text.read_bmp_fd
                0x0000000000000000      0x744 /home/jbrawley/Desktop/rockbox-photo-cf-support/build/apps/plugins/libplugin.a(pluginlib_bmp.o)
 .text.read_bmp_file
                0x0000000000000000       0x80 /home/jbrawley/Desktop/rockbox-photo-cf-support/build/apps/plugins/libplugin.a(pluginlib_bmp.o)
 .rodata.dither_table
                0x0000000000000000       0x10 /home/jbrawley/Desktop/rockbox-photo-cf-support/build/apps/plugins/libplugin.a(pluginlib_bmp.o)
 .rodata.bitfields
                0x0000000000000000       0x40 /home/jbrawley/Desktop/rockbox-photo-cf-support/build/apps/plugins/libplugin.a(pluginlib_bmp.o)
 .text          0x0000000000000000        0x0 /home/jbrawley/Desktop/rockbox-photo-cf-support/build/apps/plugins/libplugin.a(pluginlib_resize.o)
 .data          0x0000000000000000        0x0 /home/jbrawley/Desktop/rockbox-photo-cf-support/build/apps/plugins/libplugin.a(pluginlib_resize.o)
 .bss           0x0000000000000000        0x0 /home/jbrawley/Desktop/rockbox-photo-cf-support/build/apps/plugins/libplugin.a(pluginlib_resize.o)
 .text.scale_h_area
                0x0000000000000000      0x278 /home/jbrawley/Desktop/rockbox-photo-cf-support/build/apps/plugins/libplugin.a(pluginlib_resize.o)
 .text.output_row_32_native
                0x0000000000000000      0x150 /home/jbrawley/Desktop/rockbox-photo-cf-support/build/apps/plugins/libplugin.a(pluginlib_resize.o)
 .text.get_size_native
                0x0000000000000000       0x14 /home/jbrawley/Desktop/rockbox-photo-cf-support/build/apps/plugins/libplugin.a(pluginlib_resize.o)
 .text.scale_h_linear
                0x0000000000000000      0x28c /home/jbrawley/Desktop/rockbox-photo-cf-support/build/apps/plugins/libplugin.a(pluginlib_resize.o)
 .text.output_row_32_native_fromyuv
                0x0000000000000000      0x174 /home/jbrawley/Desktop/rockbox-photo-cf-support/build/apps/plugins/libplugin.a(pluginlib_resize.o)
 .text.recalc_dimension
                0x0000000000000000       0x9c /home/jbrawley/Desktop/rockbox-photo-cf-support/build/apps/plugins/libplugin.a(pluginlib_resize.o)
 .text.resize_on_load
                0x0000000000000000      0x470 /home/jbrawley/Desktop/rockbox-photo-cf-support/build/apps/plugins/libplugin.a(pluginlib_resize.o)
 .rodata.format_native
                0x0000000000000000       0x10 /home/jbrawley/Desktop/rockbox-photo-cf-support/build/apps/plugins/libplugin.a(pluginlib_resize.o)
 .data          0x0000000000000000        0x0 /home/jbrawley/Desktop/rockbox-photo-cf-support/build/lib/libsetjmp.a(setjmp.o)
 .bss           0x0000000000000000        0x0 /home/jbrawley/Desktop/rockbox-photo-cf-support/build/lib/libsetjmp.a(setjmp.o)
 .text          0x0000000000000000        0x0 /home/jbrawley/Desktop/rockbox-photo-cf-support/build/lib/libfixedpoint.a(fixedpoint.o)
 .data          0x0000000000000000        0x0 /home/jbrawley/Desktop/rockbox-photo-cf-support/build/lib/libfixedpoint.a(fixedpoint.o)
 .bss           0x0000000000000000        0x0 /home/jbrawley/Desktop/rockbox-photo-cf-support/build/lib/libfixedpoint.a(fixedpoint.o)
 .text.fp_sqrt  0x0000000000000000       0xc4 /home/jbrawley/Desktop/rockbox-photo-cf-support/build/lib/libfixedpoint.a(fixedpoint.o)
 .text.ipow     0x0000000000000000       0x48 /home/jbrawley/Desktop/rockbox-photo-cf-support/build/lib/libfixedpoint.a(fixedpoint.o)
 .text.fp14_sin
                0x0000000000000000       0x5c /home/jbrawley/Desktop/rockbox-photo-cf-support/build/lib/libfixedpoint.a(fixedpoint.o)
 .text.fp14_cos
                0x0000000000000000       0x7c /home/jbrawley/Desktop/rockbox-photo-cf-support/build/lib/libfixedpoint.a(fixedpoint.o)
 .text.fp16_log
                0x0000000000000000       0xd4 /home/jbrawley/Desktop/rockbox-photo-cf-support/build/lib/libfixedpoint.a(fixedpoint.o)
 .text.fp16_exp
                0x0000000000000000       0xf8 /home/jbrawley/Desktop/rockbox-photo-cf-support/build/lib/libfixedpoint.a(fixedpoint.o)
 .text.fp_exp10
                0x0000000000000000      0x1a0 /home/jbrawley/Desktop/rockbox-photo-cf-support/build/lib/libfixedpoint.a(fixedpoint.o)
 .text.fp_log10
                0x0000000000000000       0xb0 /home/jbrawley/Desktop/rockbox-photo-cf-support/build/lib/libfixedpoint.a(fixedpoint.o)
 .text.fp_decibels
                0x0000000000000000       0x2c /home/jbrawley/Desktop/rockbox-photo-cf-support/build/lib/libfixedpoint.a(fixedpoint.o)
 .text.fp_factor
                0x0000000000000000       0x30 /home/jbrawley/Desktop/rockbox-photo-cf-support/build/lib/libfixedpoint.a(fixedpoint.o)
 .rodata.sin_table
                0x0000000000000000       0xb6 /home/jbrawley/Desktop/rockbox-photo-cf-support/build/lib/libfixedpoint.a(fixedpoint.o)
 .data          0x0000000000000000        0x0 /usr/local/lib/gcc/arm-elf-eabi/4.9.4/libgcc.a(_udivsi3.o)
 .bss           0x0000000000000000        0x0 /usr/local/lib/gcc/arm-elf-eabi/4.9.4/libgcc.a(_udivsi3.o)
 .data          0x0000000000000000        0x0 /usr/local/lib/gcc/arm-elf-eabi/4.9.4/libgcc.a(_divsi3.o)
 .bss           0x0000000000000000        0x0 /usr/local/lib/gcc/arm-elf-eabi/4.9.4/libgcc.a(_divsi3.o)
 .data          0x0000000000000000        0x0 /usr/local/lib/gcc/arm-elf-eabi/4.9.4/libgcc.a(_dvmd_tls.o)
 .bss           0x0000000000000000        0x0 /usr/local/lib/gcc/arm-elf-eabi/4.9.4/libgcc.a(_dvmd_tls.o)
 .text          0x0000000000000000       0x1c /usr/local/lib/gcc/arm-elf-eabi/4.9.4/libgcc.a(_ashrdi3.o)
 .data          0x0000000000000000        0x0 /usr/local/lib/gcc/arm-elf-eabi/4.9.4/libgcc.a(_ashrdi3.o)
 .bss           0x0000000000000000        0x0 /usr/local/lib/gcc/arm-elf-eabi/4.9.4/libgcc.a(_ashrdi3.o)
 .debug_line    0x0000000000000000       0x67 /usr/local/lib/gcc/arm-elf-eabi/4.9.4/libgcc.a(_ashrdi3.o)
 .debug_info    0x0000000000000000       0x88 /usr/local/lib/gcc/arm-elf-eabi/4.9.4/libgcc.a(_ashrdi3.o)
 .debug_abbrev  0x0000000000000000       0x14 /usr/local/lib/gcc/arm-elf-eabi/4.9.4/libgcc.a(_ashrdi3.o)
 .debug_aranges
                0x0000000000000000       0x20 /usr/local/lib/gcc/arm-elf-eabi/4.9.4/libgcc.a(_ashrdi3.o)
 .ARM.attributes
                0x0000000000000000       0x18 /usr/local/lib/gcc/arm-elf-eabi/4.9.4/libgcc.a(_ashrdi3.o)
 .text          0x0000000000000000       0x1c /usr/local/lib/gcc/arm-elf-eabi/4.9.4/libgcc.a(_ashldi3.o)
 .data          0x0000000000000000        0x0 /usr/local/lib/gcc/arm-elf-eabi/4.9.4/libgcc.a(_ashldi3.o)
 .bss           0x0000000000000000        0x0 /usr/local/lib/gcc/arm-elf-eabi/4.9.4/libgcc.a(_ashldi3.o)
 .debug_line    0x0000000000000000       0x67 /usr/local/lib/gcc/arm-elf-eabi/4.9.4/libgcc.a(_ashldi3.o)
 .debug_info    0x0000000000000000       0x88 /usr/local/lib/gcc/arm-elf-eabi/4.9.4/libgcc.a(_ashldi3.o)
 .debug_abbrev  0x0000000000000000       0x14 /usr/local/lib/gcc/arm-elf-eabi/4.9.4/libgcc.a(_ashldi3.o)
 .debug_aranges
                0x0000000000000000       0x20 /usr/local/lib/gcc/arm-elf-eabi/4.9.4/libgcc.a(_ashldi3.o)
 .ARM.attributes
                0x0000000000000000       0x18 /usr/local/lib/gcc/arm-elf-eabi/4.9.4/libgcc.a(_ashldi3.o)
 .data          0x0000000000000000        0x0 /usr/local/lib/gcc/arm-elf-eabi/4.9.4/libgcc.a(_arm_addsubdf3.o)
 .bss           0x0000000000000000        0x0 /usr/local/lib/gcc/arm-elf-eabi/4.9.4/libgcc.a(_arm_addsubdf3.o)
 .data          0x0000000000000000        0x0 /usr/local/lib/gcc/arm-elf-eabi/4.9.4/libgcc.a(_arm_muldivdf3.o)
 .bss           0x0000000000000000        0x0 /usr/local/lib/gcc/arm-elf-eabi/4.9.4/libgcc.a(_arm_muldivdf3.o)
 .data          0x0000000000000000        0x0 /usr/local/lib/gcc/arm-elf-eabi/4.9.4/libgcc.a(_arm_cmpdf2.o)
 .bss           0x0000000000000000        0x0 /usr/local/lib/gcc/arm-elf-eabi/4.9.4/libgcc.a(_arm_cmpdf2.o)
 .data          0x0000000000000000        0x0 /usr/local/lib/gcc/arm-elf-eabi/4.9.4/libgcc.a(_arm_fixdfsi.o)
 .bss           0x0000000000000000        0x0 /usr/local/lib/gcc/arm-elf-eabi/4.9.4/libgcc.a(_arm_fixdfsi.o)
 .data          0x0000000000000000        0x0 /usr/local/lib/gcc/arm-elf-eabi/4.9.4/libgcc.a(_arm_fixunsdfsi.o)
 .bss           0x0000000000000000        0x0 /usr/local/lib/gcc/arm-elf-eabi/4.9.4/libgcc.a(_arm_fixunsdfsi.o)
 .data          0x0000000000000000        0x0 /usr/local/lib/gcc/arm-elf-eabi/4.9.4/libgcc.a(_arm_truncdfsf2.o)
 .bss           0x0000000000000000        0x0 /usr/local/lib/gcc/arm-elf-eabi/4.9.4/libgcc.a(_arm_truncdfsf2.o)
 .data          0x0000000000000000        0x0 /usr/local/lib/gcc/arm-elf-eabi/4.9.4/libgcc.a(_arm_addsubsf3.o)
 .bss           0x0000000000000000        0x0 /usr/local/lib/gcc/arm-elf-eabi/4.9.4/libgcc.a(_arm_addsubsf3.o)
 .data          0x0000000000000000        0x0 /usr/local/lib/gcc/arm-elf-eabi/4.9.4/libgcc.a(_arm_muldivsf3.o)
 .bss           0x0000000000000000        0x0 /usr/local/lib/gcc/arm-elf-eabi/4.9.4/libgcc.a(_arm_muldivsf3.o)
 .data          0x0000000000000000        0x0 /usr/local/lib/gcc/arm-elf-eabi/4.9.4/libgcc.a(_arm_cmpsf2.o)
 .bss           0x0000000000000000        0x0 /usr/local/lib/gcc/arm-elf-eabi/4.9.4/libgcc.a(_arm_cmpsf2.o)
 .data          0x0000000000000000        0x0 /usr/local/lib/gcc/arm-elf-eabi/4.9.4/libgcc.a(_arm_fixsfsi.o)
 .bss           0x0000000000000000        0x0 /usr/local/lib/gcc/arm-elf-eabi/4.9.4/libgcc.a(_arm_fixsfsi.o)
 .data          0x0000000000000000        0x0 /usr/local/lib/gcc/arm-elf-eabi/4.9.4/libgcc.a(_arm_fixunssfsi.o)
 .bss           0x0000000000000000        0x0 /usr/local/lib/gcc/arm-elf-eabi/4.9.4/libgcc.a(_arm_fixunssfsi.o)
 .data          0x0000000000000000        0x0 /usr/local/lib/gcc/arm-elf-eabi/4.9.4/libgcc.a(_clzsi2.o)
 .bss           0x0000000000000000        0x0 /usr/local/lib/gcc/arm-elf-eabi/4.9.4/libgcc.a(_clzsi2.o)
 .data          0x0000000000000000        0x0 /usr/local/lib/gcc/arm-elf-eabi/4.9.4/libgcc.a(_aeabi_ldivmod.o)
 .bss           0x0000000000000000        0x0 /usr/local/lib/gcc/arm-elf-eabi/4.9.4/libgcc.a(_aeabi_ldivmod.o)
 .data          0x0000000000000000        0x0 /usr/local/lib/gcc/arm-elf-eabi/4.9.4/libgcc.a(_aeabi_uldivmod.o)
 .bss           0x0000000000000000        0x0 /usr/local/lib/gcc/arm-elf-eabi/4.9.4/libgcc.a(_aeabi_uldivmod.o)
 .data          0x0000000000000000        0x0 /usr/local/lib/gcc/arm-elf-eabi/4.9.4/libgcc.a(bpabi.o)
 .bss           0x0000000000000000        0x0 /usr/local/lib/gcc/arm-elf-eabi/4.9.4/libgcc.a(bpabi.o)
 .data          0x0000000000000000        0x0 /usr/local/lib/gcc/arm-elf-eabi/4.9.4/libgcc.a(_divdi3.o)
 .bss           0x0000000000000000        0x0 /usr/local/lib/gcc/arm-elf-eabi/4.9.4/libgcc.a(_divdi3.o)
 .ARM.extab     0x0000000000000000        0x0 /usr/local/lib/gcc/arm-elf-eabi/4.9.4/libgcc.a(_divdi3.o)
 .data          0x0000000000000000        0x0 /usr/local/lib/gcc/arm-elf-eabi/4.9.4/libgcc.a(_udivdi3.o)
 .bss           0x0000000000000000        0x0 /usr/local/lib/gcc/arm-elf-eabi/4.9.4/libgcc.a(_udivdi3.o)
 .ARM.extab     0x0000000000000000        0x0 /usr/local/lib/gcc/arm-elf-eabi/4.9.4/libgcc.a(_udivdi3.o)
 .data          0x0000000000000000        0x0 /usr/local/lib/gcc/arm-elf-eabi/4.9.4/libgcc.a(_clzdi2.o)
 .bss           0x0000000000000000        0x0 /usr/local/lib/gcc/arm-elf-eabi/4.9.4/libgcc.a(_clzdi2.o)

Memory Configuration

Name             Origin             Length             Attributes
PLUGIN_RAM       0x0000000001c71270 0x000000000020ed90
PLUGIN_IRAM      0x000000004000c000 0x000000000000c000
*default*        0x0000000000000000 0xffffffffffffffff

Linker script and memory map

LOAD /home/jbrawley/Desktop/rockbox-photo-cf-support/build/apps/plugins/sdl/main.o
LOAD /home/jbrawley/Desktop/rockbox-photo-cf-support/build/apps/plugins/sdl/wrappers.o
LOAD /home/jbrawley/Desktop/rockbox-photo-cf-support/build/apps/plugins/sdl/src/SDL.o
LOAD /home/jbrawley/Desktop/rockbox-photo-cf-support/build/apps/plugins/sdl/src/SDL_error.o
LOAD /home/jbrawley/Desktop/rockbox-photo-cf-support/build/apps/plugins/sdl/src/SDL_fatal.o
LOAD /home/jbrawley/Desktop/rockbox-photo-cf-support/build/apps/plugins/sdl/src/audio/SDL_audio.o
LOAD /home/jbrawley/Desktop/rockbox-photo-cf-support/build/apps/plugins/sdl/src/audio/SDL_audiocvt.o
LOAD /home/jbrawley/Desktop/rockbox-photo-cf-support/build/apps/plugins/sdl/src/audio/SDL_audiodev.o
LOAD /home/jbrawley/Desktop/rockbox-photo-cf-support/build/apps/plugins/sdl/src/audio/SDL_mixer.o
LOAD /home/jbrawley/Desktop/rockbox-photo-cf-support/build/apps/plugins/sdl/src/audio/SDL_mixer_MMX.o
LOAD /home/jbrawley/Desktop/rockbox-photo-cf-support/build/apps/plugins/sdl/src/audio/SDL_mixer_MMX_VC.o
LOAD /home/jbrawley/Desktop/rockbox-photo-cf-support/build/apps/plugins/sdl/src/audio/SDL_mixer_m68k.o
LOAD /home/jbrawley/Desktop/rockbox-photo-cf-support/build/apps/plugins/sdl/src/audio/SDL_wave.o
LOAD /home/jbrawley/Desktop/rockbox-photo-cf-support/build/apps/plugins/sdl/src/audio/rockbox/SDL_rockboxaudio.o
LOAD /home/jbrawley/Desktop/rockbox-photo-cf-support/build/apps/plugins/sdl/src/cdrom/SDL_cdrom.o
LOAD /home/jbrawley/Desktop/rockbox-photo-cf-support/build/apps/plugins/sdl/src/cdrom/dummy/SDL_syscdrom.o
LOAD /home/jbrawley/Desktop/rockbox-photo-cf-support/build/apps/plugins/sdl/src/cpuinfo/SDL_cpuinfo.o
LOAD /home/jbrawley/Desktop/rockbox-photo-cf-support/build/apps/plugins/sdl/src/events/SDL_active.o
LOAD /home/jbrawley/Desktop/rockbox-photo-cf-support/build/apps/plugins/sdl/src/events/SDL_events.o
LOAD /home/jbrawley/Desktop/rockbox-photo-cf-support/build/apps/plugins/sdl/src/events/SDL_expose.o
LOAD /home/jbrawley/Desktop/rockbox-photo-cf-support/build/apps/plugins/sdl/src/events/SDL_keyboard.o
LOAD /home/jbrawley/Desktop/rockbox-photo-cf-support/build/apps/plugins/sdl/src/events/SDL_mouse.o
LOAD /home/jbrawley/Desktop/rockbox-photo-cf-support/build/apps/plugins/sdl/src/events/SDL_quit.o
LOAD /home/jbrawley/Desktop/rockbox-photo-cf-support/build/apps/plugins/sdl/src/events/SDL_resize.o
LOAD /home/jbrawley/Desktop/rockbox-photo-cf-support/build/apps/plugins/sdl/src/file/SDL_rwops.o
LOAD /home/jbrawley/Desktop/rockbox-photo-cf-support/build/apps/plugins/sdl/src/joystick/SDL_joystick.o
LOAD /home/jbrawley/Desktop/rockbox-photo-cf-support/build/apps/plugins/sdl/src/joystick/dummy/SDL_sysjoystick.o
LOAD /home/jbrawley/Desktop/rockbox-photo-cf-support/build/apps/plugins/sdl/src/loadso/dummy/SDL_sysloadso.o
LOAD /home/jbrawley/Desktop/rockbox-photo-cf-support/build/apps/plugins/sdl/src/stdlib/SDL_getenv.o
LOAD /home/jbrawley/Desktop/rockbox-photo-cf-support/build/apps/plugins/sdl/src/stdlib/SDL_iconv.o
LOAD /home/jbrawley/Desktop/rockbox-photo-cf-support/build/apps/plugins/sdl/src/stdlib/SDL_malloc.o
LOAD /home/jbrawley/Desktop/rockbox-photo-cf-support/build/apps/plugins/sdl/src/stdlib/SDL_qsort.o
LOAD /home/jbrawley/Desktop/rockbox-photo-cf-support/build/apps/plugins/sdl/src/stdlib/SDL_stdlib.o
LOAD /home/jbrawley/Desktop/rockbox-photo-cf-support/build/apps/plugins/sdl/src/stdlib/SDL_string.o
LOAD /home/jbrawley/Desktop/rockbox-photo-cf-support/build/apps/plugins/sdl/src/thread/SDL_thread.o
LOAD /home/jbrawley/Desktop/rockbox-photo-cf-support/build/apps/plugins/sdl/src/thread/rockbox/SDL_syscond.o
LOAD /home/jbrawley/Desktop/rockbox-photo-cf-support/build/apps/plugins/sdl/src/thread/rockbox/SDL_sysmutex.o
LOAD /home/jbrawley/Desktop/rockbox-photo-cf-support/build/apps/plugins/sdl/src/thread/rockbox/SDL_syssem.o
LOAD /home/jbrawley/Desktop/rockbox-photo-cf-support/build/apps/plugins/sdl/src/thread/rockbox/SDL_systhread.o
LOAD /home/jbrawley/Desktop/rockbox-photo-cf-support/build/apps/plugins/sdl/src/timer/SDL_timer.o
LOAD /home/jbrawley/Desktop/rockbox-photo-cf-support/build/apps/plugins/sdl/src/timer/rockbox/SDL_systimer.o
LOAD /home/jbrawley/Desktop/rockbox-photo-cf-support/build/apps/plugins/sdl/src/video/SDL_RLEaccel.o
LOAD /home/jbrawley/Desktop/rockbox-photo-cf-support/build/apps/plugins/sdl/src/video/SDL_blit.o
LOAD /home/jbrawley/Desktop/rockbox-photo-cf-support/build/apps/plugins/sdl/src/video/SDL_blit_0.o
LOAD /home/jbrawley/Desktop/rockbox-photo-cf-support/build/apps/plugins/sdl/src/video/SDL_blit_1.o
LOAD /home/jbrawley/Desktop/rockbox-photo-cf-support/build/apps/plugins/sdl/src/video/SDL_blit_A.o
LOAD /home/jbrawley/Desktop/rockbox-photo-cf-support/build/apps/plugins/sdl/src/video/SDL_blit_N.o
LOAD /home/jbrawley/Desktop/rockbox-photo-cf-support/build/apps/plugins/sdl/src/video/SDL_bmp.o
LOAD /home/jbrawley/Desktop/rockbox-photo-cf-support/build/apps/plugins/sdl/src/video/SDL_cursor.o
LOAD /home/jbrawley/Desktop/rockbox-photo-cf-support/build/apps/plugins/sdl/src/video/SDL_gamma.o
LOAD /home/jbrawley/Desktop/rockbox-photo-cf-support/build/apps/plugins/sdl/src/video/SDL_pixels.o
LOAD /home/jbrawley/Desktop/rockbox-photo-cf-support/build/apps/plugins/sdl/src/video/SDL_stretch.o
LOAD /home/jbrawley/Desktop/rockbox-photo-cf-support/build/apps/plugins/sdl/src/video/SDL_surface.o
LOAD /home/jbrawley/Desktop/rockbox-photo-cf-support/build/apps/plugins/sdl/src/video/SDL_video.o
LOAD /home/jbrawley/Desktop/rockbox-photo-cf-support/build/apps/plugins/sdl/src/video/SDL_yuv.o
LOAD /home/jbrawley/Desktop/rockbox-photo-cf-support/build/apps/plugins/sdl/src/video/SDL_yuv_mmx.o
LOAD /home/jbrawley/Desktop/rockbox-photo-cf-support/build/apps/plugins/sdl/src/video/SDL_yuv_sw.o
LOAD /home/jbrawley/Desktop/rockbox-photo-cf-support/build/apps/plugins/sdl/src/video/dummy/SDL_nullevents.o
LOAD /home/jbrawley/Desktop/rockbox-photo-cf-support/build/apps/plugins/sdl/src/video/dummy/SDL_nullmouse.o
LOAD /home/jbrawley/Desktop/rockbox-photo-cf-support/build/apps/plugins/sdl/src/video/dummy/SDL_nullvideo.o
LOAD /home/jbrawley/Desktop/rockbox-photo-cf-support/build/apps/plugins/sdl/src/video/rockbox/SDL_rockboxvideo.o
LOAD /home/jbrawley/Desktop/rockbox-photo-cf-support/build/apps/plugins/sdl/SDL_image/IMG_bmp.o
LOAD /home/jbrawley/Desktop/rockbox-photo-cf-support/build/apps/plugins/sdl/SDL_image/IMG.o
LOAD /home/jbrawley/Desktop/rockbox-photo-cf-support/build/apps/plugins/sdl/SDL_image/IMG_gif.o
LOAD /home/jbrawley/Desktop/rockbox-photo-cf-support/build/apps/plugins/sdl/SDL_image/IMG_jpg.o
LOAD /home/jbrawley/Desktop/rockbox-photo-cf-support/build/apps/plugins/sdl/SDL_image/IMG_lbm.o
LOAD /home/jbrawley/Desktop/rockbox-photo-cf-support/build/apps/plugins/sdl/SDL_image/IMG_pcx.o
LOAD /home/jbrawley/Desktop/rockbox-photo-cf-support/build/apps/plugins/sdl/SDL_image/IMG_png.o
LOAD /home/jbrawley/Desktop/rockbox-photo-cf-support/build/apps/plugins/sdl/SDL_image/IMG_pnm.o
LOAD /home/jbrawley/Desktop/rockbox-photo-cf-support/build/apps/plugins/sdl/SDL_image/IMG_tga.o
LOAD /home/jbrawley/Desktop/rockbox-photo-cf-support/build/apps/plugins/sdl/SDL_image/IMG_tif.o
LOAD /home/jbrawley/Desktop/rockbox-photo-cf-support/build/apps/plugins/sdl/SDL_image/IMG_webp.o
LOAD /home/jbrawley/Desktop/rockbox-photo-cf-support/build/apps/plugins/sdl/SDL_image/IMG_xcf.o
LOAD /home/jbrawley/Desktop/rockbox-photo-cf-support/build/apps/plugins/sdl/SDL_image/IMG_xpm.o
LOAD /home/jbrawley/Desktop/rockbox-photo-cf-support/build/apps/plugins/sdl/SDL_image/IMG_xv.o
LOAD /home/jbrawley/Desktop/rockbox-photo-cf-support/build/apps/plugins/sdl/SDL_image/IMG_xxx.o
LOAD /home/jbrawley/Desktop/rockbox-photo-cf-support/build/apps/plugins/sdl/SDL_mixer/dynamic_flac.o
LOAD /home/jbrawley/Desktop/rockbox-photo-cf-support/build/apps/plugins/sdl/SDL_mixer/dynamic_fluidsynth.o
LOAD /home/jbrawley/Desktop/rockbox-photo-cf-support/build/apps/plugins/sdl/SDL_mixer/dynamic_mod.o
LOAD /home/jbrawley/Desktop/rockbox-photo-cf-support/build/apps/plugins/sdl/SDL_mixer/dynamic_mp3.o
LOAD /home/jbrawley/Desktop/rockbox-photo-cf-support/build/apps/plugins/sdl/SDL_mixer/dynamic_ogg.o
LOAD /home/jbrawley/Desktop/rockbox-photo-cf-support/build/apps/plugins/sdl/SDL_mixer/effect_position.o
LOAD /home/jbrawley/Desktop/rockbox-photo-cf-support/build/apps/plugins/sdl/SDL_mixer/effects_internal.o
LOAD /home/jbrawley/Desktop/rockbox-photo-cf-support/build/apps/plugins/sdl/SDL_mixer/effect_stereoreverse.o
LOAD /home/jbrawley/Desktop/rockbox-photo-cf-support/build/apps/plugins/sdl/SDL_mixer/fluidsynth.o
LOAD /home/jbrawley/Desktop/rockbox-photo-cf-support/build/apps/plugins/sdl/SDL_mixer/load_aiff.o
LOAD /home/jbrawley/Desktop/rockbox-photo-cf-support/build/apps/plugins/sdl/SDL_mixer/load_flac.o
LOAD /home/jbrawley/Desktop/rockbox-photo-cf-support/build/apps/plugins/sdl/SDL_mixer/load_ogg.o
LOAD /home/jbrawley/Desktop/rockbox-photo-cf-support/build/apps/plugins/sdl/SDL_mixer/load_voc.o
LOAD /home/jbrawley/Desktop/rockbox-photo-cf-support/build/apps/plugins/sdl/SDL_mixer/mixer.o
LOAD /home/jbrawley/Desktop/rockbox-photo-cf-support/build/apps/plugins/sdl/SDL_mixer/music.o
LOAD /home/jbrawley/Desktop/rockbox-photo-cf-support/build/apps/plugins/sdl/SDL_mixer/music_cmd.o
LOAD /home/jbrawley/Desktop/rockbox-photo-cf-support/build/apps/plugins/sdl/SDL_mixer/music_flac.o
LOAD /home/jbrawley/Desktop/rockbox-photo-cf-support/build/apps/plugins/sdl/SDL_mixer/music_mad.o
LOAD /home/jbrawley/Desktop/rockbox-photo-cf-support/build/apps/plugins/sdl/SDL_mixer/music_mod.o
LOAD /home/jbrawley/Desktop/rockbox-photo-cf-support/build/apps/plugins/sdl/SDL_mixer/music_modplug.o
LOAD /home/jbrawley/Desktop/rockbox-photo-cf-support/build/apps/plugins/sdl/SDL_mixer/music_ogg.o
LOAD /home/jbrawley/Desktop/rockbox-photo-cf-support/build/apps/plugins/sdl/SDL_mixer/wavestream.o
LOAD /home/jbrawley/Desktop/rockbox-photo-cf-support/build/apps/plugins/sdl/SDL_mixer/timidity/common.o
LOAD /home/jbrawley/Desktop/rockbox-photo-cf-support/build/apps/plugins/sdl/SDL_mixer/timidity/ctrlmode.o
LOAD /home/jbrawley/Desktop/rockbox-photo-cf-support/build/apps/plugins/sdl/SDL_mixer/timidity/filter.o
LOAD /home/jbrawley/Desktop/rockbox-photo-cf-support/build/apps/plugins/sdl/SDL_mixer/timidity/instrum.o
LOAD /home/jbrawley/Desktop/rockbox-photo-cf-support/build/apps/plugins/sdl/SDL_mixer/timidity/mix.o
LOAD /home/jbrawley/Desktop/rockbox-photo-cf-support/build/apps/plugins/sdl/SDL_mixer/timidity/output.o
LOAD /home/jbrawley/Desktop/rockbox-photo-cf-support/build/apps/plugins/sdl/SDL_mixer/timidity/playmidi.o
LOAD /home/jbrawley/Desktop/rockbox-photo-cf-support/build/apps/plugins/sdl/SDL_mixer/timidity/readmidi.o
LOAD /home/jbrawley/Desktop/rockbox-photo-cf-support/build/apps/plugins/sdl/SDL_mixer/timidity/resample.o
LOAD /home/jbrawley/Desktop/rockbox-photo-cf-support/build/apps/plugins/sdl/SDL_mixer/timidity/sdl_a.o
LOAD /home/jbrawley/Desktop/rockbox-photo-cf-support/build/apps/plugins/sdl/SDL_mixer/timidity/sdl_c.o
LOAD /home/jbrawley/Desktop/rockbox-photo-cf-support/build/apps/plugins/sdl/SDL_mixer/timidity/tables.o
LOAD /home/jbrawley/Desktop/rockbox-photo-cf-support/build/apps/plugins/sdl/SDL_mixer/timidity/timidity.o
LOAD /home/jbrawley/Desktop/rockbox-photo-cf-support/build/apps/plugins/sdl/progs/wolf3d/fmopl_gpl.o
LOAD /home/jbrawley/Desktop/rockbox-photo-cf-support/build/apps/plugins/sdl/progs/wolf3d/id_ca.o
LOAD /home/jbrawley/Desktop/rockbox-photo-cf-support/build/apps/plugins/sdl/progs/wolf3d/id_in.o
LOAD /home/jbrawley/Desktop/rockbox-photo-cf-support/build/apps/plugins/sdl/progs/wolf3d/id_pm.o
LOAD /home/jbrawley/Desktop/rockbox-photo-cf-support/build/apps/plugins/sdl/progs/wolf3d/id_sd.o
LOAD /home/jbrawley/Desktop/rockbox-photo-cf-support/build/apps/plugins/sdl/progs/wolf3d/id_us_1.o
LOAD /home/jbrawley/Desktop/rockbox-photo-cf-support/build/apps/plugins/sdl/progs/wolf3d/id_vh.o
LOAD /home/jbrawley/Desktop/rockbox-photo-cf-support/build/apps/plugins/sdl/progs/wolf3d/id_vl.o
LOAD /home/jbrawley/Desktop/rockbox-photo-cf-support/build/apps/plugins/sdl/progs/wolf3d/signon.o
LOAD /home/jbrawley/Desktop/rockbox-photo-cf-support/build/apps/plugins/sdl/progs/wolf3d/wl_act1.o
LOAD /home/jbrawley/Desktop/rockbox-photo-cf-support/build/apps/plugins/sdl/progs/wolf3d/wl_act2.o
LOAD /home/jbrawley/Desktop/rockbox-photo-cf-support/build/apps/plugins/sdl/progs/wolf3d/wl_agent.o
LOAD /home/jbrawley/Desktop/rockbox-photo-cf-support/build/apps/plugins/sdl/progs/wolf3d/wl_atmos.o
LOAD /home/jbrawley/Desktop/rockbox-photo-cf-support/build/apps/plugins/sdl/progs/wolf3d/wl_cloudsky.o
LOAD /home/jbrawley/Desktop/rockbox-photo-cf-support/build/apps/plugins/sdl/progs/wolf3d/wl_debug.o
LOAD /home/jbrawley/Desktop/rockbox-photo-cf-support/build/apps/plugins/sdl/progs/wolf3d/wl_dir3dspr.o
LOAD /home/jbrawley/Desktop/rockbox-photo-cf-support/build/apps/plugins/sdl/progs/wolf3d/wl_draw.o
LOAD /home/jbrawley/Desktop/rockbox-photo-cf-support/build/apps/plugins/sdl/progs/wolf3d/wl_floorceiling.o
LOAD /home/jbrawley/Desktop/rockbox-photo-cf-support/build/apps/plugins/sdl/progs/wolf3d/wl_game.o
LOAD /home/jbrawley/Desktop/rockbox-photo-cf-support/build/apps/plugins/sdl/progs/wolf3d/wl_inter.o
LOAD /home/jbrawley/Desktop/rockbox-photo-cf-support/build/apps/plugins/sdl/progs/wolf3d/wl_main.o
LOAD /home/jbrawley/Desktop/rockbox-photo-cf-support/build/apps/plugins/sdl/progs/wolf3d/wl_menu.o
LOAD /home/jbrawley/Desktop/rockbox-photo-cf-support/build/apps/plugins/sdl/progs/wolf3d/wl_parallax.o
LOAD /home/jbrawley/Desktop/rockbox-photo-cf-support/build/apps/plugins/sdl/progs/wolf3d/wl_play.o
LOAD /home/jbrawley/Desktop/rockbox-photo-cf-support/build/apps/plugins/sdl/progs/wolf3d/wl_shade.o
LOAD /home/jbrawley/Desktop/rockbox-photo-cf-support/build/apps/plugins/sdl/progs/wolf3d/wl_state.o
LOAD /home/jbrawley/Desktop/rockbox-photo-cf-support/build/apps/plugins/sdl/progs/wolf3d/wl_text.o
LOAD /home/jbrawley/Desktop/rockbox-photo-cf-support/build/apps/plugins/plugin_crt0.o
LOAD /home/jbrawley/Desktop/rockbox-photo-cf-support/build/lib/libtlsf.a
LOAD /home/jbrawley/Desktop/rockbox-photo-cf-support/build/apps/plugins/libplugin.a
LOAD /home/jbrawley/Desktop/rockbox-photo-cf-support/build/apps/plugins/bitmaps/libpluginbitmaps.a
LOAD /home/jbrawley/Desktop/rockbox-photo-cf-support/build/lib/libsetjmp.a
LOAD /home/jbrawley/Desktop/rockbox-photo-cf-support/build/lib/libfixedpoint.a
LOAD /usr/local/lib/gcc/arm-elf-eabi/4.9.4/libgcc.a

.header         0x0000000001c71270       0x1c
                0x0000000001c71270                _plugin_start_addr = .
                0x0000000001c71270                plugin_start_addr = .
 *(.header)
 .header        0x0000000001c71270       0x1c /home/jbrawley/Desktop/rockbox-photo-cf-support/build/apps/plugins/plugin_crt0.o
                0x0000000001c71270                __header

.text           0x0000000001c71290    0xa5918
 *(.text*)
 .text          0x0000000001c71290      0x30c /home/jbrawley/Desktop/rockbox-photo-cf-support/build/apps/plugins/sdl/main.o
                0x0000000001c71290                cleanup
                0x0000000001c71388                rbsdl_atexit
                0x0000000001c713d4                rb_exit
                0x0000000001c71418                plugin_start
 *fill*         0x0000000001c7159c        0x4 
 .text          0x0000000001c715a0     0x1b10 /home/jbrawley/Desktop/rockbox-photo-cf-support/build/apps/plugins/sdl/wrappers.o
                0x0000000001c715a0                strtok_wrapper
                0x0000000001c715bc                atof_wrapper
                0x0000000001c71904                sin_wrapper
                0x0000000001c71a34                cos_wrapper
                0x0000000001c71b6c                tan_wrapper
                0x0000000001c71dd4                fscanf_wrapper
                0x0000000001c71ef0                printf_wrapper
                0x0000000001c72060                fatal
                0x0000000001c720f8                vprintf_wrapper
                0x0000000001c72144                sprintf_wrapper
                0x0000000001c72190                vsprintf_wrapper
                0x0000000001c721b4                strcpy_wrapper
                0x0000000001c721e8                strdup_wrapper
                0x0000000001c7223c                strcat_wrapper
                0x0000000001c72270                strpbrk_wrapper
                0x0000000001c722cc                fabs_wrapper
                0x0000000001c722d4                fmod_wrapper
                0x0000000001c72308                sqrt_wrapper
                0x0000000001c724e4                atan_wrapper
                0x0000000001c727ec                atan2_wrapper
                0x0000000001c72980                __fpclassifyf
                0x0000000001c729cc                __isinff
                0x0000000001c729e4                rb_exp
                0x0000000001c72b98                floor_wrapper
                0x0000000001c72c14                ceil_wrapper
                0x0000000001c72c9c                rb_log
                0x0000000001c72fbc                pow_wrapper
 .text          0x0000000001c730b0      0x38c /home/jbrawley/Desktop/rockbox-photo-cf-support/build/apps/plugins/sdl/src/SDL.o
                0x0000000001c730b0                rb_SDL_InitSubSystem
                0x0000000001c731e4                rb_SDL_Init
                0x0000000001c73328                rb_SDL_QuitSubSystem
                0x0000000001c733a0                rb_SDL_WasInit
                0x0000000001c733c4                rb_SDL_Quit
                0x0000000001c73430                rb_SDL_Linked_Version
 .text          0x0000000001c7343c      0x564 /home/jbrawley/Desktop/rockbox-photo-cf-support/build/apps/plugins/sdl/src/SDL_error.o
                0x0000000001c7343c                rb_SDL_SetError
                0x0000000001c73640                rb_SDL_GetErrorMsg
                0x0000000001c73920                rb_SDL_GetError
                0x0000000001c73930                rb_SDL_ClearError
                0x0000000001c73948                rb_SDL_Error
 .text          0x0000000001c739a0        0x8 /home/jbrawley/Desktop/rockbox-photo-cf-support/build/apps/plugins/sdl/src/SDL_fatal.o
                0x0000000001c739a0                rb_SDL_InstallParachute
                0x0000000001c739a4                rb_SDL_UninstallParachute
 .text          0x0000000001c739a8      0xb5c /home/jbrawley/Desktop/rockbox-photo-cf-support/build/apps/plugins/sdl/src/audio/SDL_audio.o
                0x0000000001c73a10                rb_SDL_RunAudio
                0x0000000001c73bc4                rb_SDL_AudioDriverName
                0x0000000001c73c14                rb_SDL_OpenAudio
                0x0000000001c74160                rb_SDL_GetAudioStatus
                0x0000000001c7419c                rb_SDL_PauseAudio
                0x0000000001c741b4                rb_SDL_LockAudio
                0x0000000001c741d8                rb_SDL_UnlockAudio
                0x0000000001c741fc                rb_SDL_CloseAudio
                0x0000000001c74210                rb_SDL_AudioQuit
                0x0000000001c742bc                rb_SDL_AudioInit
                0x0000000001c743b4                rb_SDL_FirstAudioFormat
                0x0000000001c74458                rb_SDL_NextAudioFormat
                0x0000000001c744a4                rb_SDL_CalculateAudioSpec
                0x0000000001c744d8                rb_SDL_Audio_SetCaption
 *fill*         0x0000000001c74504        0x4 
 .text          0x0000000001c74508     0x7050 /home/jbrawley/Desktop/rockbox-photo-cf-support/build/apps/plugins/sdl/src/audio/SDL_audiocvt.o
                0x0000000001c74508                rb_SDL_ConvertMono
                0x0000000001c74db0                rb_SDL_ConvertStrip
                0x0000000001c756b8                rb_SDL_ConvertStrip_2
                0x0000000001c75fc8                rb_SDL_ConvertStereo
                0x0000000001c7636c                rb_SDL_ConvertSurround
                0x0000000001c76a90                rb_SDL_ConvertSurround_4
                0x0000000001c770e4                rb_SDL_Convert16LSB
                0x0000000001c77274                rb_SDL_Convert16MSB
                0x0000000001c7741c                rb_SDL_Convert8
                0x0000000001c775a8                rb_SDL_ConvertSign
                0x0000000001c77a6c                rb_SDL_ConvertEndian
                0x0000000001c77c50                rb_SDL_RateMUL2
                0x0000000001c77fc0                rb_SDL_RateMUL2_c2
                0x0000000001c782f8                rb_SDL_RateMUL2_c4
                0x0000000001c78718                rb_SDL_RateMUL2_c6
                0x0000000001c78a44                rb_SDL_RateDIV2
                0x0000000001c78db8                rb_SDL_RateDIV2_c2
                0x0000000001c79334                rb_SDL_RateDIV2_c4
                0x0000000001c79a84                rb_SDL_RateDIV2_c6
                0x0000000001c7a0e0                rb_SDL_RateSLOW
                0x0000000001c7a8ec                rb_SDL_ConvertAudio
                0x0000000001c7a94c                rb_SDL_BuildAudioCVT
 .text          0x0000000001c7b558      0x834 /home/jbrawley/Desktop/rockbox-photo-cf-support/build/apps/plugins/sdl/src/audio/SDL_mixer.o
                0x0000000001c7b558                rb_SDL_MixAudio
 .text          0x0000000001c7bd8c      0xf50 /home/jbrawley/Desktop/rockbox-photo-cf-support/build/apps/plugins/sdl/src/audio/SDL_wave.o
                0x0000000001c7be9c                rb_SDL_LoadWAV_RW
                0x0000000001c7ccc4                rb_SDL_FreeWAV
 .text          0x0000000001c7ccdc      0x9c0 /home/jbrawley/Desktop/rockbox-photo-cf-support/build/apps/plugins/sdl/src/audio/rockbox/SDL_rockboxaudio.o
 .text          0x0000000001c7d69c      0x25c /home/jbrawley/Desktop/rockbox-photo-cf-support/build/apps/plugins/sdl/src/cpuinfo/SDL_cpuinfo.o
                0x0000000001c7d69c                rb_SDL_HasRDTSC
                0x0000000001c7d6e4                rb_SDL_HasMMX
                0x0000000001c7d730                rb_SDL_HasMMXExt
                0x0000000001c7d77c                rb_SDL_Has3DNow
                0x0000000001c7d7c8                rb_SDL_Has3DNowExt
                0x0000000001c7d814                rb_SDL_HasSSE
                0x0000000001c7d860                rb_SDL_HasSSE2
                0x0000000001c7d8ac                rb_SDL_HasAltiVec
 .text          0x0000000001c7d8f8      0x118 /home/jbrawley/Desktop/rockbox-photo-cf-support/build/apps/plugins/sdl/src/events/SDL_active.o
                0x0000000001c7d8f8                rb_SDL_AppActiveInit
                0x0000000001c7d910                rb_SDL_AppActiveQuit
                0x0000000001c7d914                rb_SDL_GetAppState
                0x0000000001c7d924                rb_SDL_PrivateAppActive
 .text          0x0000000001c7da10     0x14e0 /home/jbrawley/Desktop/rockbox-photo-cf-support/build/apps/plugins/sdl/src/events/SDL_events.o
                0x0000000001c7dac0                rb_SDL_Lock_EventThread
                0x0000000001c7db18                rb_SDL_Unlock_EventThread
                0x0000000001c7db4c                rb_SDL_EventThreadID
                0x0000000001c7db5c                rb_SDL_StopEventLoop
                0x0000000001c7dbc8                rb_SDL_StartEventLoop
                0x0000000001c7dd50                rb_SDL_PeepEvents
                0x0000000001c7e228                rb_SDL_PumpEvents
                0x0000000001c7e274                rb_SDL_PollEvent
                0x0000000001c7e404                rb_SDL_WaitEvent
                0x0000000001c7e5c8                rb_SDL_PushEvent
                0x0000000001c7e6b0                rb_SDL_SetEventFilter
                0x0000000001c7e840                rb_SDL_GetEventFilter
                0x0000000001c7e850                rb_SDL_EventState
                0x0000000001c7edac                rb_SDL_PrivateSysWMEvent
 .text          0x0000000001c7eef0     0x1320 /home/jbrawley/Desktop/rockbox-photo-cf-support/build/apps/plugins/sdl/src/events/SDL_keyboard.o
                0x0000000001c7eef0                rb_SDL_KeyboardInit
                0x0000000001c7faa0                rb_SDL_KeyboardQuit
                0x0000000001c7faa4                rb_SDL_ResetKeyboard
                0x0000000001c7fcec                rb_SDL_EnableUNICODE
                0x0000000001c7fd04                rb_SDL_GetKeyState
                0x0000000001c7fd20                rb_SDL_GetModState
                0x0000000001c7fd30                rb_SDL_SetModState
                0x0000000001c7fd40                rb_SDL_GetKeyName
                0x0000000001c7fd7c                rb_SDL_PrivateKeyboard
                0x0000000001c80118                rb_SDL_CheckKeyRepeat
                0x0000000001c801b0                rb_SDL_EnableKeyRepeat
                0x0000000001c801f4                rb_SDL_GetKeyRepeat
 .text          0x0000000001c80210      0x5dc /home/jbrawley/Desktop/rockbox-photo-cf-support/build/apps/plugins/sdl/src/events/SDL_mouse.o
                0x0000000001c80210                rb_SDL_MouseInit
                0x0000000001c80240                rb_SDL_MouseQuit
                0x0000000001c80244                rb_SDL_ResetMouse
                0x0000000001c80324                rb_SDL_GetMouseState
                0x0000000001c8034c                rb_SDL_GetRelativeMouseState
                0x0000000001c80380                rb_SDL_SetMouseRange
                0x0000000001c80394                rb_SDL_PrivateMouseMotion
                0x0000000001c805a8                rb_SDL_PrivateMouseButton
 .text          0x0000000001c807ec       0x7c /home/jbrawley/Desktop/rockbox-photo-cf-support/build/apps/plugins/sdl/src/events/SDL_quit.o
                0x0000000001c807ec                rb_SDL_QuitInit
                0x0000000001c807f4                rb_SDL_QuitQuit
                0x0000000001c807f8                rb_SDL_PrivateQuit
 .text          0x0000000001c80868       0xe4 /home/jbrawley/Desktop/rockbox-photo-cf-support/build/apps/plugins/sdl/src/events/SDL_resize.o
                0x0000000001c80868                rb_SDL_PrivateResize
 .text          0x0000000001c8094c      0x820 /home/jbrawley/Desktop/rockbox-photo-cf-support/build/apps/plugins/sdl/src/file/SDL_rwops.o
                0x0000000001c80c30                rb_SDL_RWFromFile
                0x0000000001c80d18                rb_SDL_RWFromFP
                0x0000000001c80d7c                rb_SDL_RWFromMem
                0x0000000001c80de8                rb_SDL_RWFromConstMem
                0x0000000001c80e54                rb_SDL_AllocRW
                0x0000000001c80e84                rb_SDL_FreeRW
                0x0000000001c80e94                rb_SDL_ReadLE16
                0x0000000001c80ec4                rb_SDL_ReadBE16
                0x0000000001c80f04                rb_SDL_ReadLE32
                0x0000000001c80f34                rb_SDL_ReadBE32
                0x0000000001c80f74                rb_SDL_ReadLE64
                0x0000000001c80fa4                rb_SDL_ReadBE64
                0x0000000001c80ff8                rb_SDL_WriteLE16
                0x0000000001c8102c                rb_SDL_WriteBE16
                0x0000000001c81068                rb_SDL_WriteLE32
                0x0000000001c8109c                rb_SDL_WriteBE32
                0x0000000001c810e0                rb_SDL_WriteLE64
                0x0000000001c81110                rb_SDL_WriteBE64
 .text          0x0000000001c8116c      0xc08 /home/jbrawley/Desktop/rockbox-photo-cf-support/build/apps/plugins/sdl/src/joystick/SDL_joystick.o
                0x0000000001c8116c                rb_SDL_JoystickInit
                0x0000000001c811d8                rb_SDL_NumJoysticks
                0x0000000001c811e8                rb_SDL_JoystickName
                0x0000000001c81234                rb_SDL_JoystickOpened
                0x0000000001c81290                rb_SDL_JoystickIndex
                0x0000000001c812bc                rb_SDL_JoystickNumAxes
                0x0000000001c812e8                rb_SDL_JoystickNumHats
                0x0000000001c81314                rb_SDL_JoystickNumBalls
                0x0000000001c81340                rb_SDL_JoystickNumButtons
                0x0000000001c8136c                rb_SDL_JoystickGetAxis
                0x0000000001c813d8                rb_SDL_JoystickGetHat
                0x0000000001c81430                rb_SDL_JoystickGetBall
                0x0000000001c814b4                rb_SDL_JoystickGetButton
                0x0000000001c8150c                rb_SDL_JoystickClose
                0x0000000001c81620                rb_SDL_JoystickOpen
                0x0000000001c8185c                rb_SDL_JoystickQuit
                0x0000000001c819b4                rb_SDL_PrivateJoystickAxis
                0x0000000001c81a4c                rb_SDL_PrivateJoystickHat
                0x0000000001c81ae0                rb_SDL_PrivateJoystickBall
                0x0000000001c81b98                rb_SDL_PrivateJoystickButton
                0x0000000001c81c48                rb_SDL_JoystickUpdate
                0x0000000001c81c88                rb_SDL_JoystickEventState
 .text          0x0000000001c81d74       0x5c /home/jbrawley/Desktop/rockbox-photo-cf-support/build/apps/plugins/sdl/src/joystick/dummy/SDL_sysjoystick.o
                0x0000000001c81d74                rb_SDL_SYS_JoystickInit
                0x0000000001c81d8c                rb_SDL_SYS_JoystickName
                0x0000000001c81da8                rb_SDL_SYS_JoystickOpen
                0x0000000001c81dc4                rb_SDL_SYS_JoystickUpdate
                0x0000000001c81dc8                rb_SDL_SYS_JoystickClose
                0x0000000001c81dcc                rb_SDL_SYS_JoystickQuit
 .text          0x0000000001c81dd0      0x218 /home/jbrawley/Desktop/rockbox-photo-cf-support/build/apps/plugins/sdl/src/stdlib/SDL_getenv.o
                0x0000000001c81dd0                rb_SDL_putenv
                0x0000000001c81f14                rb_SDL_getenv
 .text          0x0000000001c81fe8     0x3b90 /home/jbrawley/Desktop/rockbox-photo-cf-support/build/apps/plugins/sdl/src/stdlib/SDL_string.o
                0x0000000001c82898                rb_SDL_memset
                0x0000000001c829a8                rb_SDL_revcpy
                0x0000000001c82aac                rb_SDL_strlcat
                0x0000000001c82b20                rb_SDL_strdup
                0x0000000001c82b74                rb_SDL_strrev
                0x0000000001c82d28                rb_SDL_strupr
                0x0000000001c82d5c                rb_SDL_strlwr
                0x0000000001c82d90                rb_SDL_strchr
                0x0000000001c82dc8                rb_SDL_strrchr
                0x0000000001c82f94                rb_SDL_strstr
                0x0000000001c83018                rb_SDL_ltoa
                0x0000000001c833e8                rb_SDL_ultoa
                0x0000000001c835f4                rb_SDL_strtol
                0x0000000001c8368c                rb_SDL_strtoul
                0x0000000001c837a4                rb_SDL_lltoa
                0x0000000001c83bac                rb_SDL_ulltoa
                0x0000000001c83ddc                rb_SDL_strtoll
                0x0000000001c83e74                rb_SDL_strtoull
                0x0000000001c83fc0                rb_SDL_strtod
                0x0000000001c84128                rb_SDL_strcasecmp
                0x0000000001c841b0                rb_SDL_strncasecmp
                0x0000000001c84258                rb_SDL_sscanf
                0x0000000001c84e98                rb_SDL_vsnprintf
                0x0000000001c85b48                rb_SDL_snprintf
 .text          0x0000000001c85b78      0x9a8 /home/jbrawley/Desktop/rockbox-photo-cf-support/build/apps/plugins/sdl/src/thread/SDL_thread.o
                0x0000000001c85b78                rb_SDL_ThreadsInit
                0x0000000001c85ba4                rb_SDL_ThreadsQuit
                0x0000000001c85bcc                rb_SDL_GetErrBuf
                0x0000000001c85da4                rb_SDL_RunThread
                0x0000000001c85de8                rb_SDL_CreateThread
                0x0000000001c86204                rb_SDL_WaitThread
                0x0000000001c864dc                rb_SDL_GetThreadID
                0x0000000001c864fc                rb_SDL_KillThread
 .text          0x0000000001c86520      0x180 /home/jbrawley/Desktop/rockbox-photo-cf-support/build/apps/plugins/sdl/src/thread/rockbox/SDL_sysmutex.o
                0x0000000001c86520                rb_SDL_CreateMutex
                0x0000000001c86578                rb_SDL_DestroyMutex
                0x0000000001c86590                rb_SDL_mutexP
                0x0000000001c8660c                rb_SDL_mutexV
 .text          0x0000000001c866a0      0x1b4 /home/jbrawley/Desktop/rockbox-photo-cf-support/build/apps/plugins/sdl/src/thread/rockbox/SDL_syssem.o
                0x0000000001c866a0                rb_SDL_CreateSemaphore
                0x0000000001c866ec                rb_SDL_DestroySemaphore
                0x0000000001c86704                rb_SDL_SemTryWait
                0x0000000001c86750                rb_SDL_SemWaitTimeout
                0x0000000001c867b4                rb_SDL_SemWait
                0x0000000001c86804                rb_SDL_SemValue
                0x0000000001c86810                rb_SDL_SemPost
 .text          0x0000000001c86854      0x140 /home/jbrawley/Desktop/rockbox-photo-cf-support/build/apps/plugins/sdl/src/thread/rockbox/SDL_systhread.o
                0x0000000001c86878                rb_SDL_SYS_CreateThread
                0x0000000001c86960                rb_SDL_SYS_SetupThread
                0x0000000001c86964                rb_SDL_ThreadID
                0x0000000001c86978                rb_SDL_SYS_WaitThread
                0x0000000001c86990                rb_SDL_SYS_KillThread
 .text          0x0000000001c86994      0x688 /home/jbrawley/Desktop/rockbox-photo-cf-support/build/apps/plugins/sdl/src/timer/SDL_timer.o
                0x0000000001c86998                rb_SDL_SetTimerThreaded
                0x0000000001c869d4                rb_SDL_TimerInit
                0x0000000001c86b0c                rb_SDL_TimerQuit
                0x0000000001c86bf4                rb_SDL_ThreadedTimerCheck
                0x0000000001c86d08                rb_SDL_AddTimer
                0x0000000001c86df4                rb_SDL_RemoveTimer
                0x0000000001c86e94                rb_SDL_SetTimer
 .text          0x0000000001c8701c      0x198 /home/jbrawley/Desktop/rockbox-photo-cf-support/build/apps/plugins/sdl/src/timer/rockbox/SDL_systimer.o
                0x0000000001c870a0                rb_SDL_StartTicks
                0x0000000001c870e4                rb_SDL_GetTicks
                0x0000000001c870f4                rb_SDL_Delay
                0x0000000001c87118                rb_SDL_SYS_TimerInit
                0x0000000001c87160                rb_SDL_SYS_TimerQuit
                0x0000000001c87194                rb_SDL_SYS_StartTimer
                0x0000000001c871b0                rb_SDL_SYS_StopTimer
 .text          0x0000000001c871b4     0x7800 /home/jbrawley/Desktop/rockbox-photo-cf-support/build/apps/plugins/sdl/src/video/SDL_RLEaccel.o
                0x0000000001c87a70                rb_SDL_RLEBlit
                0x0000000001c8b75c                rb_SDL_RLEAlphaBlit
                0x0000000001c8c9fc                rb_SDL_UnRLESurface
                0x0000000001c8ccc8                rb_SDL_RLESurface
 .text          0x0000000001c8e9b4      0xb78 /home/jbrawley/Desktop/rockbox-photo-cf-support/build/apps/plugins/sdl/src/video/SDL_blit.o
                0x0000000001c8f19c                rb_SDL_CalculateBlit
 .text          0x0000000001c8f52c     0x1a14 /home/jbrawley/Desktop/rockbox-photo-cf-support/build/apps/plugins/sdl/src/video/SDL_blit_0.o
                0x0000000001c90e8c                rb_SDL_CalculateBlit0
 .text          0x0000000001c90f40     0x2408 /home/jbrawley/Desktop/rockbox-photo-cf-support/build/apps/plugins/sdl/src/video/SDL_blit_1.o
                0x0000000001c932a8                rb_SDL_CalculateBlit1
 .text          0x0000000001c93348     0x5bc8 /home/jbrawley/Desktop/rockbox-photo-cf-support/build/apps/plugins/sdl/src/video/SDL_blit_A.o
                0x0000000001c98cdc                rb_SDL_CalculateAlphaBlit
 .text          0x0000000001c98f10     0x6ca8 /home/jbrawley/Desktop/rockbox-photo-cf-support/build/apps/plugins/sdl/src/video/SDL_blit_N.o
                0x0000000001c9f8f0                rb_SDL_CalculateBlitN
 .text          0x0000000001c9fbb8     0x1218 /home/jbrawley/Desktop/rockbox-photo-cf-support/build/apps/plugins/sdl/src/video/SDL_bmp.o
                0x0000000001c9fbb8                rb_SDL_LoadBMP_RW
                0x0000000001ca06dc                rb_SDL_SaveBMP_RW
 .text          0x0000000001ca0dd0     0x2380 /home/jbrawley/Desktop/rockbox-photo-cf-support/build/apps/plugins/sdl/src/video/SDL_cursor.o
                0x0000000001ca0dd0                rb_SDL_GetCursor
                0x0000000001ca0de0                rb_SDL_WarpMouse
                0x0000000001ca0eec                rb_SDL_CursorPaletteChanged
                0x0000000001ca0f00                rb_SDL_MouseRect
                0x0000000001ca0fec                rb_SDL_DrawCursorNoLock
                0x0000000001ca1e04                rb_SDL_DrawCursor
                0x0000000001ca1fa0                rb_SDL_EraseCursorNoLock
                0x0000000001ca23a0                rb_SDL_EraseCursor
                0x0000000001ca253c                rb_SDL_SetCursor
                0x0000000001ca26f4                rb_SDL_FreeCursor
                0x0000000001ca278c                rb_SDL_CursorInit
                0x0000000001ca29f8                rb_SDL_CursorQuit
                0x0000000001ca2b48                rb_SDL_CreateCursor
                0x0000000001ca2e94                rb_SDL_MoveCursor
                0x0000000001ca2f48                rb_SDL_ShowCursor
                0x0000000001ca310c                rb_SDL_ResetCursor
 .text          0x0000000001ca3150     0x1d54 /home/jbrawley/Desktop/rockbox-photo-cf-support/build/apps/plugins/sdl/src/video/SDL_pixels.o
                0x0000000001ca3628                rb_SDL_AllocFormat
                0x0000000001ca3bc8                rb_SDL_ReallocFormat
                0x0000000001ca3c9c                rb_SDL_FormatChanged
                0x0000000001ca3cfc                rb_SDL_FreeFormat
                0x0000000001ca3d44                rb_SDL_DitherColors
                0x0000000001ca3e8c                rb_SDL_CalculatePitch
                0x0000000001ca3ee4                rb_SDL_FindColor
                0x0000000001ca4160                rb_SDL_MapRGB
                0x0000000001ca4420                rb_SDL_MapRGBA
                0x0000000001ca46f4                rb_SDL_GetRGBA
                0x0000000001ca4808                rb_SDL_GetRGB
                0x0000000001ca48e0                rb_SDL_ApplyGamma
                0x0000000001ca4a54                rb_SDL_AllocBlitMap
                0x0000000001ca4af4                rb_SDL_InvalidateMap
                0x0000000001ca4b30                rb_SDL_MapSurface
                0x0000000001ca4e54                rb_SDL_FreeBlitMap
 .text          0x0000000001ca4ea4     0x23b8 /home/jbrawley/Desktop/rockbox-photo-cf-support/build/apps/plugins/sdl/src/video/SDL_surface.o
                0x0000000001ca4ea4                rb_SDL_SetColorKey
                0x0000000001ca4fb8                rb_SDL_SetAlpha
                0x0000000001ca5150                rb_SDL_SetAlphaChannel
                0x0000000001ca53f0                rb_SDL_SetClipRect
                0x0000000001ca54a4                rb_SDL_GetClipRect
                0x0000000001ca54d0                rb_SDL_LowerBlit
                0x0000000001ca55f8                rb_SDL_UpperBlit
                0x0000000001ca5808                rb_SDL_FillRect
                0x0000000001ca65fc                rb_SDL_LockSurface
                0x0000000001ca66a4                rb_SDL_UnlockSurface
                0x0000000001ca6714                rb_SDL_FreeSurface
                0x0000000001ca69a4                rb_SDL_CreateRGBSurface
                0x0000000001ca6c10                rb_SDL_ConvertSurface
                0x0000000001ca70cc                rb_SDL_CreateRGBSurfaceFrom
 .text          0x0000000001ca725c     0x2d14 /home/jbrawley/Desktop/rockbox-photo-cf-support/build/apps/plugins/sdl/src/video/SDL_video.o
                0x0000000001ca7588                rb_SDL_VideoDriverName
                0x0000000001ca75d8                rb_SDL_GetVideoSurface
                0x0000000001ca75f0                rb_SDL_GetVideoInfo
                0x0000000001ca7608                rb_SDL_ListModes
                0x0000000001ca7644                rb_SDL_VideoModeOK
                0x0000000001ca77b0                rb_SDL_DisplayFormat
                0x0000000001ca7814                rb_SDL_DisplayFormatAlpha
                0x0000000001ca796c                rb_SDL_UpdateRect
                0x0000000001ca7b50                rb_SDL_UpdateRects
                0x0000000001ca8388                rb_SDL_Flip
                0x0000000001ca8674                rb_SDL_SetPalette
                0x0000000001ca8838                rb_SDL_SetColors
                0x0000000001ca8964                rb_SDL_VideoQuit
                0x0000000001ca8adc                rb_SDL_VideoInit
                0x0000000001ca8cf0                rb_SDL_GL_LoadLibrary
                0x0000000001ca8d48                rb_SDL_GL_GetProcAddress
                0x0000000001ca8da4                rb_SDL_GL_SetAttribute
                0x0000000001ca8ee8                rb_SDL_GL_GetAttribute
                0x0000000001ca8f38                rb_SDL_GL_SwapBuffers
                0x0000000001ca8f74                rb_SDL_GL_UpdateRectsLock
                0x0000000001ca8f78                rb_SDL_GL_UpdateRects
                0x0000000001ca8f7c                rb_SDL_GL_Lock
                0x0000000001ca8f80                rb_SDL_GL_Unlock
                0x0000000001ca8f84                rb_SDL_WM_SetCaption
                0x0000000001ca9028                rb_SDL_WM_GetCaption
                0x0000000001ca9058                rb_SDL_WM_SetIcon
                0x0000000001ca94d8                rb_SDL_WM_GrabInput
                0x0000000001ca95e4                rb_SDL_SetVideoMode
                0x0000000001ca9e40                rb_SDL_WM_IconifyWindow
                0x0000000001ca9e60                rb_SDL_WM_ToggleFullScreen
                0x0000000001ca9f40                rb_SDL_GetWMInfo
 .text          0x0000000001ca9f70     0x1034 /home/jbrawley/Desktop/rockbox-photo-cf-support/build/apps/plugins/sdl/src/video/rockbox/SDL_rockboxvideo.o
                0x0000000001ca9f78                ROCKBOX_InitOSKeymap
                0x0000000001ca9f7c                ROCKBOX_ShowWMCursor
                0x0000000001ca9f84                ROCKBOX_WarpWMCursor
                0x0000000001ca9f88                ROCKBOX_MoveWMCursor
                0x0000000001caa03c                ROCKBOX_PumpEvents
 .text          0x0000000001caafa4     0x4d98 /home/jbrawley/Desktop/rockbox-photo-cf-support/build/apps/plugins/sdl/SDL_mixer/effect_position.o
                0x0000000001cae7dc                _Eff_PositionDeinit
                0x0000000001cae83c                Mix_SetDistance
                0x0000000001caede8                Mix_SetPosition
                0x0000000001cafa7c                Mix_SetPanning
 *fill*         0x0000000001cafd3c        0x4 
 .text          0x0000000001cafd40      0x3b4 /home/jbrawley/Desktop/rockbox-photo-cf-support/build/apps/plugins/sdl/SDL_mixer/effects_internal.o
                0x0000000001cafd40                _Mix_InitEffects
                0x0000000001cafd6c                _Mix_DeinitEffects
                0x0000000001cafd7c                _Eff_build_volume_table_u8
                0x0000000001caff4c                _Eff_build_volume_table_s8
 .text          0x0000000001cb00f4      0x4f4 /home/jbrawley/Desktop/rockbox-photo-cf-support/build/apps/plugins/sdl/SDL_mixer/load_aiff.o
                0x0000000001cb00f4                Mix_LoadAIFF_RW
 .text          0x0000000001cb05e8      0xb08 /home/jbrawley/Desktop/rockbox-photo-cf-support/build/apps/plugins/sdl/SDL_mixer/load_voc.o
                0x0000000001cb0db0                Mix_LoadVOC_RW
 .text          0x0000000001cb10f0     0x5254 /home/jbrawley/Desktop/rockbox-photo-cf-support/build/apps/plugins/sdl/SDL_mixer/mixer.o
                0x0000000001cb10f0                Mix_GetNumChunkDecoders
                0x0000000001cb1100                Mix_GetChunkDecoder
                0x0000000001cb1130                Mix_Linked_Version
                0x0000000001cb1158                Mix_Init
                0x0000000001cb11dc                Mix_Quit
                0x0000000001cb120c                Mix_QuerySpec
                0x0000000001cb125c                Mix_LoadWAV_RW
                0x0000000001cb1540                Mix_QuickLoad_WAV
                0x0000000001cb1624                Mix_QuickLoad_RAW
                0x0000000001cb169c                Mix_FreeChunk
                0x0000000001cb18b0                Mix_SetPostMix
                0x0000000001cb18dc                Mix_HookMusic
                0x0000000001cb1924                Mix_GetMusicHookData
                0x0000000001cb1934                Mix_ChannelFinished
                0x0000000001cb1958                Mix_ReserveChannels
                0x0000000001cb1974                Mix_PlayChannelTimed
                0x0000000001cb1d3c                Mix_ExpireChannel
                0x0000000001cb2330                Mix_FadeInChannelTimed
                0x0000000001cb270c                Mix_Volume
                0x0000000001cb315c                Mix_VolumeChunk
                0x0000000001cb317c                Mix_HaltChannel
                0x0000000001cb37a4                Mix_AllocateChannels
                0x0000000001cb3b00                Mix_HaltGroup
                0x0000000001cb3b78                Mix_FadeOutChannel
                0x0000000001cb4034                Mix_FadeOutGroup
                0x0000000001cb40c4                Mix_FadingChannel
                0x0000000001cb40fc                Mix_Playing
                0x0000000001cb4418                Mix_GetChunk
                0x0000000001cb444c                Mix_CloseAudio
                0x0000000001cb4628                Mix_OpenAudio
                0x0000000001cb49d4                Mix_Pause
                0x0000000001cb4b84                Mix_Resume
                0x0000000001cb4db8                Mix_Paused
                0x0000000001cb4f6c                Mix_GroupChannel
                0x0000000001cb4fcc                Mix_GroupChannels
                0x0000000001cb5230                Mix_GroupAvailable
                0x0000000001cb56cc                Mix_GroupCount
                0x0000000001cb5804                Mix_GroupOldest
                0x0000000001cb5a74                Mix_GroupNewer
                0x0000000001cb5cd0                _Mix_RegisterEffect_locked
                0x0000000001cb5ddc                Mix_RegisterEffect
                0x0000000001cb5efc                _Mix_UnregisterEffect_locked
                0x0000000001cb603c                Mix_UnregisterEffect
                0x0000000001cb61a0                _Mix_UnregisterAllEffects_locked
                0x0000000001cb6268                Mix_UnregisterAllEffects
 .text          0x0000000001cb6344     0x18c0 /home/jbrawley/Desktop/rockbox-photo-cf-support/build/apps/plugins/sdl/SDL_mixer/music.o
                0x0000000001cb66cc                Mix_GetNumMusicDecoders
                0x0000000001cb66dc                Mix_GetMusicDecoder
                0x0000000001cb670c                Mix_HookMusicFinished
                0x0000000001cb6730                music_mixer
                0x0000000001cb699c                open_music
                0x0000000001cb6ad8                MIX_string_equals
                0x0000000001cb6b80                Mix_LoadMUS_RW
                0x0000000001cb6c6c                Mix_LoadMUSType_RW
                0x0000000001cb6d70                Mix_LoadMUS
                0x0000000001cb7114                Mix_FreeMusic
                0x0000000001cb71e4                Mix_GetMusicType
                0x0000000001cb7230                Mix_FadeInMusicPos
                0x0000000001cb733c                Mix_FadeInMusic
                0x0000000001cb7448                Mix_PlayMusic
                0x0000000001cb753c                Mix_SetMusicPosition
                0x0000000001cb757c                Mix_VolumeMusic
                0x0000000001cb75f8                Mix_HaltMusic
                0x0000000001cb7658                Mix_FadeOutMusic
                0x0000000001cb7784                Mix_FadingMusic
                0x0000000001cb77b8                Mix_PauseMusic
                0x0000000001cb77cc                Mix_ResumeMusic
                0x0000000001cb77e0                Mix_RewindMusic
                0x0000000001cb781c                Mix_PausedMusic
                0x0000000001cb7834                Mix_PlayingMusic
                0x0000000001cb78bc                Mix_SetMusicCMD
                0x0000000001cb7984                Mix_SetSynchroValue
                0x0000000001cb798c                Mix_GetSynchroValue
                0x0000000001cb7994                close_music
                0x0000000001cb7a0c                Mix_SetSoundFonts
                0x0000000001cb7a78                Mix_GetSoundFonts
                0x0000000001cb7ad0                Mix_EachSoundFont
 .text          0x0000000001cb7c04      0x508 /home/jbrawley/Desktop/rockbox-photo-cf-support/build/apps/plugins/sdl/SDL_mixer/timidity/common.o
                0x0000000001cb7c04                close_file
                0x0000000001cb7c30                skip
                0x0000000001cb7cc8                safe_malloc
                0x0000000001cb7d68                add_to_pathlist
                0x0000000001cb7e98                open_file
                0x0000000001cb80b0                free_pathlist
 *fill*         0x0000000001cb810c        0x4 
 .text          0x0000000001cb8110      0xd80 /home/jbrawley/Desktop/rockbox-photo-cf-support/build/apps/plugins/sdl/SDL_mixer/timidity/filter.o
                0x0000000001cb8110                antialiasing
 .text          0x0000000001cb8e90     0x33bc /home/jbrawley/Desktop/rockbox-photo-cf-support/build/apps/plugins/sdl/SDL_mixer/timidity/instrum.o
                0x0000000001cbb798                convert_envelope_rate_attack
                0x0000000001cbb7f4                convert_envelope_rate
                0x0000000001cbb868                convert_envelope_offset
                0x0000000001cbb870                convert_tremolo_sweep
                0x0000000001cbb8b8                convert_vibrato_sweep
                0x0000000001cbb930                convert_tremolo_rate
                0x0000000001cbb974                convert_vibrato_rate
                0x0000000001cbb9a4                load_missing_instruments
                0x0000000001cbbe38                free_instruments
                0x0000000001cbc1d4                set_default_instrument
 *fill*         0x0000000001cbc24c        0x4 
 .text          0x0000000001cbc250     0x50d8 /home/jbrawley/Desktop/rockbox-photo-cf-support/build/apps/plugins/sdl/SDL_mixer/timidity/mix.o
                0x0000000001cbcba8                recompute_envelope
                0x0000000001cbcd78                apply_envelope_to_amp
                0x0000000001cbd158                mix_voice
 .text          0x0000000001cc1328      0xc4c /home/jbrawley/Desktop/rockbox-photo-cf-support/build/apps/plugins/sdl/SDL_mixer/timidity/output.o
                0x0000000001cc1328                s32tos8
                0x0000000001cc1578                s32tou8
                0x0000000001cc1704                s32tos16
                0x0000000001cc1868                s32tou16
                0x0000000001cc1a0c                s32tos16x
                0x0000000001cc1bd8                s32tou16x
                0x0000000001cc1ddc                s32toulaw
 *fill*         0x0000000001cc1f74        0x4 
 .text          0x0000000001cc1f78     0x5d5c /home/jbrawley/Desktop/rockbox-photo-cf-support/build/apps/plugins/sdl/SDL_mixer/timidity/playmidi.o
                0x0000000001cc4624                Timidity_PlaySome
                0x0000000001cc72b8                Timidity_SetVolume
                0x0000000001cc79a0                Timidity_LoadSong_RW
                0x0000000001cc7a3c                Timidity_Start
                0x0000000001cc7c28                Timidity_Active
                0x0000000001cc7c38                Timidity_Stop
                0x0000000001cc7c4c                Timidity_FreeSong
                0x0000000001cc7c80                Timidity_Close
 *fill*         0x0000000001cc7cd4        0x4 
 .text          0x0000000001cc7cd8     0x2918 /home/jbrawley/Desktop/rockbox-photo-cf-support/build/apps/plugins/sdl/SDL_mixer/timidity/readmidi.o
                0x0000000001cca020                read_midi_file
 .text          0x0000000001cca5f0     0x1eec /home/jbrawley/Desktop/rockbox-photo-cf-support/build/apps/plugins/sdl/SDL_mixer/timidity/resample.o
                0x0000000001cca860                resample_voice
                0x0000000001ccc070                pre_resample
 .text          0x0000000001ccc4dc       0xfc /home/jbrawley/Desktop/rockbox-photo-cf-support/build/apps/plugins/sdl/SDL_mixer/timidity/sdl_c.o
 .text          0x0000000001ccc5d8        0x4 /home/jbrawley/Desktop/rockbox-photo-cf-support/build/apps/plugins/sdl/SDL_mixer/timidity/tables.o
                0x0000000001ccc5d8                init_tables
 .text          0x0000000001ccc5dc      0xe38 /home/jbrawley/Desktop/rockbox-photo-cf-support/build/apps/plugins/sdl/SDL_mixer/timidity/timidity.o
                0x0000000001ccd130                Timidity_Init
                0x0000000001ccd408                Timidity_Error
 *fill*         0x0000000001ccd414        0x4 
 .text          0x0000000001ccd418     0x3bb8 /home/jbrawley/Desktop/rockbox-photo-cf-support/build/apps/plugins/sdl/progs/wolf3d/fmopl_gpl.o
                0x0000000001ccd540                YM3812Init
                0x0000000001cce784                YM3812Shutdown
                0x0000000001cce7e4                YM3812ResetChip
                0x0000000001ccf434                YM3812Write
                0x0000000001cd0180                YM3812Read
                0x0000000001cd01a8                YM3812TimerOver
                0x0000000001cd052c                YM3812SetTimerHandler
                0x0000000001cd053c                YM3812SetIRQHandler
                0x0000000001cd054c                YM3812SetUpdateHandler
                0x0000000001cd055c                YM3812UpdateOne
 .text          0x0000000001cd0fd0     0x2804 /home/jbrawley/Desktop/rockbox-photo-cf-support/build/apps/plugins/sdl/progs/wolf3d/id_ca.o
                0x0000000001cd0fd0                CAL_GetGrChunkLength
                0x0000000001cd1100                CA_WriteFile
                0x0000000001cd11a8                CA_LoadFile
                0x0000000001cd12b8                CAL_CarmackExpand
                0x0000000001cd1724                CA_RLEWCompress
                0x0000000001cd18b0                CA_RLEWexpand
                0x0000000001cd1928                CAL_SetupGrFile
                0x0000000001cd1ea4                CAL_SetupMapFile
                0x0000000001cd21c8                CAL_SetupAudioFile
                0x0000000001cd22e0                CA_Startup
                0x0000000001cd2408                CA_Shutdown
                0x0000000001cd26e4                CA_CacheAudioChunk
                0x0000000001cd27b0                CA_CacheAdlibSoundChunk
                0x0000000001cd2968                CA_LoadAllSounds
                0x0000000001cd305c                CAL_ExpandGrChunk
                0x0000000001cd3174                CA_CacheGrChunk
                0x0000000001cd32f4                CA_CacheScreen
                0x0000000001cd359c                CA_CacheMap
                0x0000000001cd3788                CA_CannotOpen
 .text          0x0000000001cd37d4     0x2c0c /home/jbrawley/Desktop/rockbox-photo-cf-support/build/apps/plugins/sdl/progs/wolf3d/id_in.o
                0x0000000001cd37d4                IN_GetJoyDelta
                0x0000000001cd38a0                IN_GetJoyFineDelta
                0x0000000001cd391c                IN_JoyButtons
                0x0000000001cd3984                IN_JoyPresent
                0x0000000001cd399c                IN_WaitAndProcessEvents
                0x0000000001cd3d08                IN_ProcessEvents
                0x0000000001cd4058                IN_Startup
                0x0000000001cd4198                IN_Shutdown
                0x0000000001cd41cc                IN_ClearKeysDown
                0x0000000001cd420c                IN_ReadControl
                0x0000000001cd471c                IN_WaitForKey
                0x0000000001cd4ab0                IN_WaitForASCII
                0x0000000001cd4e3c                IN_StartAck
                0x0000000001cd52dc                IN_CheckAck
                0x0000000001cd5c14                IN_Ack
                0x0000000001cd5f9c                IN_UserInput
                0x0000000001cd6354                IN_MouseButtons
                0x0000000001cd6398                IN_IsInputGrabbed
                0x0000000001cd63a8                IN_CenterMouse
 .text          0x0000000001cd63e0      0x628 /home/jbrawley/Desktop/rockbox-photo-cf-support/build/apps/plugins/sdl/progs/wolf3d/id_pm.o
                0x0000000001cd63e0                PM_Startup
                0x0000000001cd69dc                PM_Shutdown
 .text          0x0000000001cd6a08     0x2338 /home/jbrawley/Desktop/rockbox-photo-cf-support/build/apps/plugins/sdl/progs/wolf3d/id_sd.o
                0x0000000001cd6a08                SD_ChannelFinished
                0x0000000001cd6afc                SDL_IMFMusicPlayer
                0x0000000001cd6cdc                SD_StopDigitized
                0x0000000001cd6d4c                SD_GetChannelForDigi
                0x0000000001cd6d98                SD_SetPosition
                0x0000000001cd6e14                GetSample
                0x0000000001cd6f44                SD_PrepareSound
                0x0000000001cd734c                SD_PlayDigitized
                0x0000000001cd74e8                SD_SetDigiDevice
                0x0000000001cd7588                SDL_SetupDigi
                0x0000000001cd7af8                SD_SetSoundMode
                0x0000000001cd7ca8                SD_SetMusicMode
                0x0000000001cd7df4                SD_Startup
                0x0000000001cd80cc                SD_Shutdown
                0x0000000001cd838c                SD_PositionSound
                0x0000000001cd83a8                SD_PlaySound
                0x0000000001cd85d8                SD_SoundPlaying
                0x0000000001cd8630                SD_StopSound
                0x0000000001cd86ec                SD_WaitSoundDone
                0x0000000001cd8760                SD_MusicOn
                0x0000000001cd8774                SD_MusicOff
                0x0000000001cd8864                SD_StartMusic
                0x0000000001cd89a8                SD_ContinueMusic
                0x0000000001cd8c30                SD_FadeOutMusic
                0x0000000001cd8d10                SD_MusicPlaying
 .text          0x0000000001cd8d40     0x1798 /home/jbrawley/Desktop/rockbox-photo-cf-support/build/apps/plugins/sdl/progs/wolf3d/id_us_1.o
                0x0000000001cd8d40                US_Startup
                0x0000000001cd8d78                US_Shutdown
                0x0000000001cd8d94                US_SetPrintRoutines
                0x0000000001cd8da4                US_Print
                0x0000000001cd8ee8                US_PrintUnsigned
                0x0000000001cd8f18                US_PrintSigned
                0x0000000001cd8f48                USL_PrintInCenter
                0x0000000001cd9024                US_PrintCentered
                0x0000000001cd90e8                US_CPrintLine
                0x0000000001cd91a4                US_CPrint
                0x0000000001cd92bc                US_Printf
                0x0000000001cd931c                US_CPrintf
                0x0000000001cd937c                US_ClearWindow
                0x0000000001cd93ec                US_DrawWindow
                0x0000000001cd95a4                US_CenterWindow
                0x0000000001cd95d8                US_SaveWindow
                0x0000000001cd96c8                US_RestoreWindow
                0x0000000001cd975c                USL_RotateChar
                0x0000000001cd9844                US_LineInput
                0x0000000001cda470                US_InitRndT
                0x0000000001cda4ac                US_RndT
 .text          0x0000000001cda4d8      0xe6c /home/jbrawley/Desktop/rockbox-photo-cf-support/build/apps/plugins/sdl/progs/wolf3d/id_vh.o
                0x0000000001cda4d8                VWB_DrawPropString
                0x0000000001cda668                VL_MungePic
                0x0000000001cda840                VWL_MeasureString
                0x0000000001cda89c                VW_MeasurePropString
                0x0000000001cda910                VH_UpdateScreen
                0x0000000001cda948                VWB_DrawTile8
                0x0000000001cda9a0                VWB_DrawTile8M
                0x0000000001cda9e8                VWB_DrawPic
                0x0000000001cdaa68                VWB_DrawPicScaledCoord
                0x0000000001cdaad0                VWB_Bar
                0x0000000001cdab0c                VWB_Plot
                0x0000000001cdab60                VWB_Hlin
                0x0000000001cdabc8                VWB_Vlin
                0x0000000001cdac34                LatchDrawPic
                0x0000000001cdac88                LatchDrawPicScaledCoord
                0x0000000001cdacd4                LoadLatchMem
                0x0000000001cdaf80                VH_Startup
                0x0000000001cdb040                FizzleFade
 .text          0x0000000001cdb344     0x2344 /home/jbrawley/Desktop/rockbox-photo-cf-support/build/apps/plugins/sdl/progs/wolf3d/id_vl.o
                0x0000000001cdb344                VL_Shutdown
                0x0000000001cdb348                VL_SetVGAPlaneMode
                0x0000000001cdb5a8                VL_ConvertPalette
                0x0000000001cdb76c                VL_FillPalette
                0x0000000001cdb8a4                VL_SetColor
                0x0000000001cdb960                VL_GetColor
                0x0000000001cdb990                VL_SetPalette
                0x0000000001cdba50                VL_GetPalette
                0x0000000001cdba6c                VL_FadeOut
                0x0000000001cdbe64                VL_FadeIn
                0x0000000001cdc2d0                VL_LockSurface
                0x0000000001cdc320                VL_UnlockSurface
                0x0000000001cdc354                VL_Plot
                0x0000000001cdc430                VL_GetPixel
                0x0000000001cdc50c                VL_Hlin
                0x0000000001cdc5f0                VL_Vlin
                0x0000000001cdc820                VL_BarScaledCoord
                0x0000000001cdcb0c                VL_MemToLatch
                0x0000000001cdcd84                VL_MemToScreenScaledCoord
                0x0000000001cdcfa0                VL_MemToScreenScaledCoord_ex
                0x0000000001cdd1cc                VL_LatchToScreenScaledCoord
                0x0000000001cdd66c                VL_ScreenToScreen
 .text          0x0000000001cdd688     0x24e0 /home/jbrawley/Desktop/rockbox-photo-cf-support/build/apps/plugins/sdl/progs/wolf3d/wl_act1.o
                0x0000000001cdd688                InitStaticList
                0x0000000001cdd6a0                SpawnStatic
                0x0000000001cdd874                PlaceItemType
                0x0000000001cddab4                RecursiveConnect
                0x0000000001cddfe0                ConnectAreas
                0x0000000001cde1ec                InitAreas
                0x0000000001cde22c                InitDoorList
                0x0000000001cde288                SpawnDoor
                0x0000000001cde3e4                OpenDoor
                0x0000000001cde410                CloseDoor
                0x0000000001cde690                OperateDoor
                0x0000000001cde994                DoorOpen
                0x0000000001cdec48                DoorOpening
                0x0000000001cdee04                DoorClosing
                0x0000000001cdf16c                MoveDoors
                0x0000000001cdf7a4                PushWall
                0x0000000001cdf92c                MovePWalls
 .text          0x0000000001cdfb68     0x5668 /home/jbrawley/Desktop/rockbox-photo-cf-support/build/apps/plugins/sdl/progs/wolf3d/wl_act2.o
                0x0000000001cdfb68                T_BJDone
                0x0000000001cdfb7c                A_Smoke
                0x0000000001cdfc94                T_BJYell
                0x0000000001cdfce0                A_HitlerMorph
                0x0000000001cdfe7c                A_DeathScream
                0x0000000001ce00fc                A_Slurpie
                0x0000000001ce0110                T_SchabbThrow
                0x0000000001ce0354                T_GiftThrow
                0x0000000001ce0594                T_FakeFire
                0x0000000001ce0804                T_Fake
                0x0000000001ce09b0                T_Ghosts
                0x0000000001ce0af8                T_DogChase
                0x0000000001ce0cd8                T_BJJump
                0x0000000001ce0d00                T_Schabb
                0x0000000001ce1364                T_Gift
                0x0000000001ce19c8                T_Fat
                0x0000000001ce202c                T_Stand
                0x0000000001ce203c                A_MechaSound
                0x0000000001ce20a0                T_Bite
                0x0000000001ce21bc                T_Shoot
                0x0000000001ce24e4                T_Chase
                0x0000000001ce2b60                T_BJRun
                0x0000000001ce2ce4                A_StartDeathCam
                0x0000000001ce3448                T_Projectile
                0x0000000001ce3988                T_Path
                0x0000000001ce3c8c                ProjectileTryMove
                0x0000000001ce3f2c                SpawnStand
                0x0000000001ce4160                SpawnDeadGuard
                0x0000000001ce4208                SpawnBoss
                0x0000000001ce4308                SpawnGretel
                0x0000000001ce4408                SpawnPatrol
                0x0000000001ce46cc                SpawnGhosts
                0x0000000001ce4828                SpawnSchabbs
                0x0000000001ce4948                SpawnGift
                0x0000000001ce4a6c                SpawnFat
                0x0000000001ce4b90                SpawnFakeHitler
                0x0000000001ce4cb4                SpawnHitler
                0x0000000001ce4dd8                SelectPathDir
                0x0000000001ce4e50                SpawnBJVictory
                0x0000000001ce4f30                CheckPosition
 .text          0x0000000001ce51d0     0x6390 /home/jbrawley/Desktop/rockbox-photo-cf-support/build/apps/plugins/sdl/progs/wolf3d/wl_agent.o
                0x0000000001ce5484                CheckWeaponChange
                0x0000000001ce5730                StatusDrawPic
                0x0000000001ce5780                StatusDrawFace
                0x0000000001ce57d0                DrawFace
                0x0000000001ce5980                UpdateFace
                0x0000000001ce5a50                DrawHealth
                0x0000000001ce5aa4                TakeDamage
                0x0000000001ce5d50                HealSelf
                0x0000000001ce5f70                DrawLevel
                0x0000000001ce5fc8                DrawLives
                0x0000000001ce601c                GiveExtraMan
                0x0000000001ce60b4                DrawScore
                0x0000000001ce611c                GivePoints
                0x0000000001ce629c                DrawWeapon
                0x0000000001ce6324                DrawKeys
                0x0000000001ce63f4                GiveWeapon
                0x0000000001ce65c8                DrawAmmo
                0x0000000001ce661c                GiveAmmo
                0x0000000001ce6740                GiveKey
                0x0000000001ce683c                GetBonus
                0x0000000001ce7128                TryMove
                0x0000000001ce9478                ClipMove
                0x0000000001ce9648                VictoryTile
                0x0000000001ce9668                Thrust
                0x0000000001ce9b50                ControlMovement
                0x0000000001ce9df8                Cmd_Fire
                0x0000000001ce9e88                Cmd_Use
                0x0000000001cea090                T_Player
                0x0000000001cea668                SpawnPlayer
                0x0000000001cea980                KnifeAttack
                0x0000000001ceaa80                GunAttack
                0x0000000001ceac90                T_Attack
                0x0000000001ceb424                VictorySpin
 .text          0x0000000001ceb560     0x120c /home/jbrawley/Desktop/rockbox-photo-cf-support/build/apps/plugins/sdl/progs/wolf3d/wl_debug.o
                0x0000000001ceb560                CountObjects
                0x0000000001ceb854                PictureGrabber
                0x0000000001ceb95c                BasicOverhead
                0x0000000001cebc84                ShapeTest
                0x0000000001cebc88                DebugKeys
 .text          0x0000000001cec76c     0x4714 /home/jbrawley/Desktop/rockbox-photo-cf-support/build/apps/plugins/sdl/progs/wolf3d/wl_draw.o
                0x0000000001cec76c                TransformActor
                0x0000000001cec8e8                TransformTile
                0x0000000001ceca18                CalcHeight
                0x0000000001cecad0                ScalePost
                0x0000000001cecc04                GlobalScalePost
                0x0000000001cecc18                HitVertWall
                0x0000000001cecfdc                HitHorizWall
                0x0000000001ced39c                HitHorizDoor
                0x0000000001ced6dc                HitVertDoor
                0x0000000001ceda28                VGAClearScreen
                0x0000000001cedafc                CalcRotate
                0x0000000001cedd04                ScaleShape
                0x0000000001cee11c                SimpleScaleShape
                0x0000000001cee4f8                DrawScaleds
                0x0000000001cef050                DrawPlayerWeapon
                0x0000000001cef184                CalcTics
                0x0000000001cef260                AsmRefresh
                0x0000000001cf07f0                WallRefresh
                0x0000000001cf0878                CalcViewVariables
                0x0000000001cf09c4                ThreeDRefresh
 .text          0x0000000001cf0e80     0x35a0 /home/jbrawley/Desktop/rockbox-photo-cf-support/build/apps/plugins/sdl/progs/wolf3d/wl_game.o
                0x0000000001cf0e80                SetSoundLoc
                0x0000000001cf0f88                PlaySoundLocGlobal
                0x0000000001cf1134                UpdateSoundLoc
                0x0000000001cf1450                SetupGameLevel
                0x0000000001cf2854                DrawPlayBorderSides
                0x0000000001cf2ac0                DrawStatusBorder
                0x0000000001cf2c94                DrawPlayBorder
                0x0000000001cf2edc                DrawPlayScreen
                0x0000000001cf2f48                LatchNumberHERE
                0x0000000001cf327c                ShowActStatus
                0x0000000001cf3370                StartDemoRecord
                0x0000000001cf3400                FinishDemoRecord
                0x0000000001cf3560                RecordDemo
                0x0000000001cf3838                PlayDemo
                0x0000000001cf39dc                Died
                0x0000000001cf3e30                GameLoop
 .text          0x0000000001cf4420     0x2610 /home/jbrawley/Desktop/rockbox-photo-cf-support/build/apps/plugins/sdl/progs/wolf3d/wl_inter.o
                0x0000000001cf4420                ClearSplitVWB
                0x0000000001cf4468                PG13
                0x0000000001cf4538                Write
                0x0000000001cf46a4                Victory
                0x0000000001cf4f3c                BJ_Breathe
                0x0000000001cf4fe8                LevelCompleted
                0x0000000001cf61a8                PreloadUpdate
                0x0000000001cf62b4                PreloadGraphics
                0x0000000001cf642c                DrawHighScores
                0x0000000001cf6644                CheckHighScore
 .text          0x0000000001cf6a30     0x42d4 /home/jbrawley/Desktop/rockbox-photo-cf-support/build/apps/plugins/sdl/progs/wolf3d/wl_main.o
                0x0000000001cf6a60                ReadConfig
                0x0000000001cf6e58                WriteConfig
                0x0000000001cf7124                NewGame
                0x0000000001cf71c4                DiskFlopAnim
                0x0000000001cf71fc                DoChecksum
                0x0000000001cf7368                SaveTheGame
                0x0000000001cf7df0                LoadTheGame
                0x0000000001cf8c98                ShutdownId
                0x0000000001cf8cbc                BuildTables
                0x0000000001cf8eec                CalcProjection
                0x0000000001cf90ac                SetupWalls
                0x0000000001cf91c0                SignonScreen
                0x0000000001cf9208                FinishSignon
                0x0000000001cf9338                InitDigiMap
                0x0000000001cf93d4                DoJukebox
                0x0000000001cf95e8                SetViewSize
                0x0000000001cf9844                ShowViewSize
                0x0000000001cf9970                NewViewSize
                0x0000000001cf9c74                Quit
                0x0000000001cf9d9c                CheckParameters
                0x0000000001cfa744                my_main
 .text          0x0000000001cfad04     0xf970 /home/jbrawley/Desktop/rockbox-photo-cf-support/build/apps/plugins/sdl/progs/wolf3d/wl_menu.o
                0x0000000001cfad04                DrawNewGameDiff
                0x0000000001cfad20                CP_ViewScores
                0x0000000001cfae30                FixupCustom
                0x0000000001cfc83c                EnableEndGameMenuItem
                0x0000000001cfc878                DrawMainMenu
                0x0000000001cfcb10                BossKey
                0x0000000001cfcb14                DrawNewEpisode
                0x0000000001cfce10                DrawNewGame
                0x0000000001cfd0b4                DrawSoundMenu
                0x0000000001cfd574                CP_Sound
                0x0000000001cfd7cc                DrawLSAction
                0x0000000001cfd918                DrawLoadSaveScreen
                0x0000000001cfdcbc                PrintLSEntry
                0x0000000001cfddc0                TrackWhichGame
                0x0000000001cfee80                CP_LoadGame
                0x0000000001cff0d8                DrawMouseSens
                0x0000000001cff344                MouseSensitivity
                0x0000000001cff764                DrawCtlScreen
                0x0000000001cffb58                CP_Control
                0x0000000001cffcfc                DefineMouseBtns
                0x0000000001d006f8                DefineJoyBtns
                0x0000000001d01110                DefineKeyBtns
                0x0000000001d01840                DefineKeyMove
                0x0000000001d01f74                EnterCtrlData
                0x0000000001d02920                DrawCustomScreen
                0x0000000001d033f8                CustomControls
                0x0000000001d0490c                PrintCustMouse
                0x0000000001d049a8                DrawCustMouse
                0x0000000001d04bec                PrintCustJoy
                0x0000000001d04c88                DrawCustJoy
                0x0000000001d04ecc                PrintCustKeybd
                0x0000000001d04f18                DrawCustKeybd
                0x0000000001d04fe0                PrintCustKeys
                0x0000000001d05030                DrawCustKeys
                0x0000000001d050f8                DrawChangeView
                0x0000000001d051e4                IntroScreen
                0x0000000001d055dc                ClearMScreen
                0x0000000001d0560c                CacheLump
                0x0000000001d05720                UnCacheLump
                0x0000000001d05918                DrawWindow
                0x0000000001d0599c                DrawOutline
                0x0000000001d05a04                SetupControlPanel
                0x0000000001d05b34                SetupSaveGames
                0x0000000001d05cf0                CleanupControlPanel
                0x0000000001d05de0                HandleMenu
                0x0000000001d06c84                EraseGun
                0x0000000001d06d5c                DrawHalfStep
                0x0000000001d06d84                DrawGun
                0x0000000001d06e98                TicDelay
                0x0000000001d06f08                DrawMenu
                0x0000000001d070b4                SetTextColor
                0x0000000001d070fc                WaitKeyUp
                0x0000000001d07164                ReadAnyControl
                0x0000000001d0717c                Message
                0x0000000001d0775c                CP_ChangeView
                0x0000000001d07c2c                Confirm
                0x0000000001d07e78                CP_EndGame
                0x0000000001d07f1c                CP_SaveGame
                0x0000000001d082e8                CP_Quit
                0x0000000001d08370                CP_NewGame
                0x0000000001d0943c                CP_CheckQuick
                0x0000000001d09c08                US_ControlPanel
                0x0000000001d0a2c8                StartCPMusic
                0x0000000001d0a330                FreeMusic
                0x0000000001d0a378                IN_GetScanName
                0x0000000001d0a388                CheckPause
                0x0000000001d0a3f4                DrawMenuGun
                0x0000000001d0a450                DrawStripes
                0x0000000001d0a49c                ShootSnd
                0x0000000001d0a4b0                my_stat
                0x0000000001d0a4dc                CheckForEpisodes
 .text          0x0000000001d0a674     0x2da4 /home/jbrawley/Desktop/rockbox-photo-cf-support/build/apps/plugins/sdl/progs/wolf3d/wl_play.o
                0x0000000001d0a674                PollKeyboardButtons
                0x0000000001d0a748                PollMouseButtons
                0x0000000001d0a7a8                PollJoystickButtons
                0x0000000001d0a980                PollKeyboardMove
                0x0000000001d0aa34                PollMouseMove
                0x0000000001d0aae0                PollJoystickMove
                0x0000000001d0abf8                PollControls
                0x0000000001d0b324                CenterWindow
                0x0000000001d0b35c                CheckKeys
                0x0000000001d0b988                InitActorList
                0x0000000001d0bb3c                GetNewActor
                0x0000000001d0bc14                RemoveObj
                0x0000000001d0bd7c                StopMusic
                0x0000000001d0bdd0                StartMusic
                0x0000000001d0be44                ContinueMusic
                0x0000000001d0bec0                InitRedShifts
                0x0000000001d0c188                ClearPaletteShifts
                0x0000000001d0c1b4                StartBonusFlash
                0x0000000001d0c1c8                StartDamageFlash
                0x0000000001d0c1e0                UpdatePaletteShifts
                0x0000000001d0c358                FinishPaletteShifts
                0x0000000001d0c390                DoActor
                0x0000000001d0cb4c                PlayLoop
 .text          0x0000000001d0d418     0x46cc /home/jbrawley/Desktop/rockbox-photo-cf-support/build/apps/plugins/sdl/progs/wolf3d/wl_state.o
                0x0000000001d0d418                SpawnNewObj
                0x0000000001d0d5ac                NewState
                0x0000000001d0d5e4                TryWalk
                0x0000000001d0dd34                SelectDodgeDir
                0x0000000001d0e5c0                SelectChaseDir
                0x0000000001d0f3ac                SelectRunDir
                0x0000000001d0f9d4                MoveObj
                0x0000000001d0ffa0                DropItem
                0x0000000001d10178                KillActor
                0x0000000001d10744                DamageActor
                0x0000000001d10df8                CheckLine
                0x0000000001d11264                CheckSight
                0x0000000001d1148c                FirstSighting
                0x0000000001d118c4                SightPlayer
 .text          0x0000000001d11ae4     0x2160 /home/jbrawley/Desktop/rockbox-photo-cf-support/build/apps/plugins/sdl/progs/wolf3d/wl_text.o
                0x0000000001d11ae4                RipToEOL
                0x0000000001d11b04                ParseNumber
                0x0000000001d11b90                ParsePicCommand
                0x0000000001d11d0c                ParseTimedCommand
                0x0000000001d11ef4                TimedPicCommand
                0x0000000001d12128                HandleCommand
                0x0000000001d12c74                NewLine
                0x0000000001d12d2c                HandleCtrls
                0x0000000001d12df8                HandleWord
                0x0000000001d13100                PageLayout
                0x0000000001d1342c                BackPage
                0x0000000001d13484                CacheLayoutGraphics
                0x0000000001d13868                ShowArticle
                0x0000000001d13ae4                HelpScreens
                0x0000000001d13b58                EndText
 .text          0x0000000001d13c44      0x214 /home/jbrawley/Desktop/rockbox-photo-cf-support/build/apps/plugins/plugin_crt0.o
                0x0000000001d13c5c                plugin__start
                0x0000000001d13dac                rb_atexit
                0x0000000001d13dcc                exit
                0x0000000001d13dec                _exit
                0x0000000001d13e04                exit_on_usb
 .text.ls_bit   0x0000000001d13e58       0x44 /home/jbrawley/Desktop/rockbox-photo-cf-support/build/lib/libtlsf.a(tlsf.o)
 .text.ms_bit   0x0000000001d13e9c       0x3c /home/jbrawley/Desktop/rockbox-photo-cf-support/build/lib/libtlsf.a(tlsf.o)
 .text.set_bit  0x0000000001d13ed8       0x1c /home/jbrawley/Desktop/rockbox-photo-cf-support/build/lib/libtlsf.a(tlsf.o)
 .text.clear_bit
                0x0000000001d13ef4       0x1c /home/jbrawley/Desktop/rockbox-photo-cf-support/build/lib/libtlsf.a(tlsf.o)
 .text.MAPPING_SEARCH
                0x0000000001d13f10       0x8c /home/jbrawley/Desktop/rockbox-photo-cf-support/build/lib/libtlsf.a(tlsf.o)
 .text.FIND_SUITABLE_BLOCK
                0x0000000001d13f9c       0x78 /home/jbrawley/Desktop/rockbox-photo-cf-support/build/lib/libtlsf.a(tlsf.o)
 .text.process_area
                0x0000000001d14014       0x60 /home/jbrawley/Desktop/rockbox-photo-cf-support/build/lib/libtlsf.a(tlsf.o)
 .text.MAPPING_INSERT
                0x0000000001d14074       0x5c /home/jbrawley/Desktop/rockbox-photo-cf-support/build/lib/libtlsf.a(tlsf.o)
 .text.panicf   0x0000000001d140d0        0x8 /home/jbrawley/Desktop/rockbox-photo-cf-support/build/lib/libtlsf.a(tlsf.o)
                0x0000000001d140d0                panicf
 .text.get_new_area
                0x0000000001d140d8        0x8 /home/jbrawley/Desktop/rockbox-photo-cf-support/build/lib/libtlsf.a(tlsf.o)
                0x0000000001d140d8                get_new_area
 .text.free_ex  0x0000000001d140e0      0x2a0 /home/jbrawley/Desktop/rockbox-photo-cf-support/build/lib/libtlsf.a(tlsf.o)
                0x0000000001d140e0                free_ex
 .text.init_memory_pool
                0x0000000001d14380       0xcc /home/jbrawley/Desktop/rockbox-photo-cf-support/build/lib/libtlsf.a(tlsf.o)
                0x0000000001d14380                init_memory_pool
 .text.add_new_area
                0x0000000001d1444c      0x16c /home/jbrawley/Desktop/rockbox-photo-cf-support/build/lib/libtlsf.a(tlsf.o)
                0x0000000001d1444c                add_new_area
 .text.malloc_ex
                0x0000000001d145b8      0x260 /home/jbrawley/Desktop/rockbox-photo-cf-support/build/lib/libtlsf.a(tlsf.o)
                0x0000000001d145b8                malloc_ex
 .text.tlsf_malloc
                0x0000000001d14818       0x60 /home/jbrawley/Desktop/rockbox-photo-cf-support/build/lib/libtlsf.a(tlsf.o)
                0x0000000001d14818                tlsf_malloc
 .text.tlsf_free
                0x0000000001d14878       0x10 /home/jbrawley/Desktop/rockbox-photo-cf-support/build/lib/libtlsf.a(tlsf.o)
                0x0000000001d14878                tlsf_free
 .text.realloc_ex
                0x0000000001d14888      0x3a8 /home/jbrawley/Desktop/rockbox-photo-cf-support/build/lib/libtlsf.a(tlsf.o)
                0x0000000001d14888                realloc_ex
 .text.tlsf_realloc
                0x0000000001d14c30       0x1c /home/jbrawley/Desktop/rockbox-photo-cf-support/build/lib/libtlsf.a(tlsf.o)
                0x0000000001d14c30                tlsf_realloc
 .text.calloc_ex
                0x0000000001d14c4c       0x4c /home/jbrawley/Desktop/rockbox-photo-cf-support/build/lib/libtlsf.a(tlsf.o)
                0x0000000001d14c4c                calloc_ex
 .text.tlsf_calloc
                0x0000000001d14c98       0x10 /home/jbrawley/Desktop/rockbox-photo-cf-support/build/lib/libtlsf.a(tlsf.o)
                0x0000000001d14c98                tlsf_calloc
 .text.memcpy   0x0000000001d14ca8       0x14 /home/jbrawley/Desktop/rockbox-photo-cf-support/build/apps/plugins/libplugin.a(gcc-support.o)
                0x0000000001d14ca8                memcpy
 .text.memset   0x0000000001d14cbc       0x14 /home/jbrawley/Desktop/rockbox-photo-cf-support/build/apps/plugins/libplugin.a(gcc-support.o)
                0x0000000001d14cbc                memset
 .text.memcmp   0x0000000001d14cd0       0x14 /home/jbrawley/Desktop/rockbox-photo-cf-support/build/apps/plugins/libplugin.a(gcc-support.o)
                0x0000000001d14cd0                memcmp
 .text.backlight_ignore_timeout
                0x0000000001d14ce4       0x58 /home/jbrawley/Desktop/rockbox-photo-cf-support/build/apps/plugins/libplugin.a(helper.o)
                0x0000000001d14ce4                backlight_ignore_timeout
 .text.backlight_use_settings
                0x0000000001d14d3c       0x3c /home/jbrawley/Desktop/rockbox-photo-cf-support/build/apps/plugins/libplugin.a(helper.o)
                0x0000000001d14d3c                backlight_use_settings
 .text.strncpy  0x0000000001d14d78       0x38 /home/jbrawley/Desktop/rockbox-photo-cf-support/build/apps/plugins/libplugin.a(strncpy.o)
                0x0000000001d14d78                strncpy
 .text._fopen_  0x0000000001d14db0       0xe8 /home/jbrawley/Desktop/rockbox-photo-cf-support/build/apps/plugins/libplugin.a(stdio_compat.o)
                0x0000000001d14db0                _fopen_
 .text._fread_  0x0000000001d14e98       0x54 /home/jbrawley/Desktop/rockbox-photo-cf-support/build/apps/plugins/libplugin.a(stdio_compat.o)
                0x0000000001d14e98                _fread_
 .text._fwrite_
                0x0000000001d14eec       0x5c /home/jbrawley/Desktop/rockbox-photo-cf-support/build/apps/plugins/libplugin.a(stdio_compat.o)
                0x0000000001d14eec                _fwrite_
 .text._fseek_  0x0000000001d14f48       0x70 /home/jbrawley/Desktop/rockbox-photo-cf-support/build/apps/plugins/libplugin.a(stdio_compat.o)
                0x0000000001d14f48                _fseek_
 .text._ftell_  0x0000000001d14fb8       0x20 /home/jbrawley/Desktop/rockbox-photo-cf-support/build/apps/plugins/libplugin.a(stdio_compat.o)
                0x0000000001d14fb8                _ftell_
 .text._fclose_
                0x0000000001d14fd8       0x54 /home/jbrawley/Desktop/rockbox-photo-cf-support/build/apps/plugins/libplugin.a(stdio_compat.o)
                0x0000000001d14fd8                _fclose_
 .text._fgetc_  0x0000000001d1502c       0x58 /home/jbrawley/Desktop/rockbox-photo-cf-support/build/apps/plugins/libplugin.a(stdio_compat.o)
                0x0000000001d1502c                _fgetc_
 .text._fgets_  0x0000000001d15084       0x88 /home/jbrawley/Desktop/rockbox-photo-cf-support/build/apps/plugins/libplugin.a(stdio_compat.o)
                0x0000000001d15084                _fgets_
 .text._ferror_
                0x0000000001d1510c       0x10 /home/jbrawley/Desktop/rockbox-photo-cf-support/build/apps/plugins/libplugin.a(stdio_compat.o)
                0x0000000001d1510c                _ferror_
 .text.simple_resize_bitmap
                0x0000000001d1511c       0xc0 /home/jbrawley/Desktop/rockbox-photo-cf-support/build/apps/plugins/libplugin.a(pluginlib_bmp.o)
                0x0000000001d1511c                simple_resize_bitmap
 .text          0x0000000001d151dc       0x1c /home/jbrawley/Desktop/rockbox-photo-cf-support/build/lib/libsetjmp.a(setjmp.o)
                0x0000000001d151dc                setjmp
                0x0000000001d151e8                longjmp
 .text.fp_sincos
                0x0000000001d151f8       0x8c /home/jbrawley/Desktop/rockbox-photo-cf-support/build/lib/libfixedpoint.a(fixedpoint.o)
                0x0000000001d151f8                fp_sincos
 .text          0x0000000001d15284      0x114 /usr/local/lib/gcc/arm-elf-eabi/4.9.4/libgcc.a(_udivsi3.o)
                0x0000000001d15284                __udivsi3
                0x0000000001d15284                __aeabi_uidiv
                0x0000000001d15378                __aeabi_uidivmod
 .text          0x0000000001d15398      0x148 /usr/local/lib/gcc/arm-elf-eabi/4.9.4/libgcc.a(_divsi3.o)
                0x0000000001d15398                __aeabi_idiv
                0x0000000001d15398                __divsi3
                0x0000000001d154c0                __aeabi_idivmod
 .text          0x0000000001d154e0        0x4 /usr/local/lib/gcc/arm-elf-eabi/4.9.4/libgcc.a(_dvmd_tls.o)
                0x0000000001d154e0                __aeabi_ldiv0
                0x0000000001d154e0                __aeabi_idiv0
 .text          0x0000000001d154e4      0x41c /usr/local/lib/gcc/arm-elf-eabi/4.9.4/libgcc.a(_arm_addsubdf3.o)
                0x0000000001d154e4                __aeabi_drsub
                0x0000000001d154ec                __aeabi_dsub
                0x0000000001d154ec                __subdf3
                0x0000000001d154f0                __adddf3
                0x0000000001d154f0                __aeabi_dadd
                0x0000000001d15800                __aeabi_ui2d
                0x0000000001d15800                __floatunsidf
                0x0000000001d15824                __floatsidf
                0x0000000001d15824                __aeabi_i2d
                0x0000000001d1584c                __extendsfdf2
                0x0000000001d1584c                __aeabi_f2d
                0x0000000001d1588c                __aeabi_ul2d
                0x0000000001d1588c                __floatundidf
                0x0000000001d158a0                __floatdidf
                0x0000000001d158a0                __aeabi_l2d
 .text          0x0000000001d15900      0x49c /usr/local/lib/gcc/arm-elf-eabi/4.9.4/libgcc.a(_arm_muldivdf3.o)
                0x0000000001d15900                __aeabi_dmul
                0x0000000001d15900                __muldf3
                0x0000000001d15b90                __aeabi_ddiv
                0x0000000001d15b90                __divdf3
 .text          0x0000000001d15d9c      0x144 /usr/local/lib/gcc/arm-elf-eabi/4.9.4/libgcc.a(_arm_cmpdf2.o)
                0x0000000001d15d9c                __gtdf2
                0x0000000001d15d9c                __gedf2
                0x0000000001d15da4                __ltdf2
                0x0000000001d15da4                __ledf2
                0x0000000001d15dac                __cmpdf2
                0x0000000001d15dac                __eqdf2
                0x0000000001d15dac                __nedf2
                0x0000000001d15e34                __aeabi_cdrcmple
                0x0000000001d15e50                __aeabi_cdcmple
                0x0000000001d15e50                __aeabi_cdcmpeq
                0x0000000001d15e68                __aeabi_dcmpeq
                0x0000000001d15e80                __aeabi_dcmplt
                0x0000000001d15e98                __aeabi_dcmple
                0x0000000001d15eb0                __aeabi_dcmpge
                0x0000000001d15ec8                __aeabi_dcmpgt
 .text          0x0000000001d15ee0       0x5c /usr/local/lib/gcc/arm-elf-eabi/4.9.4/libgcc.a(_arm_fixdfsi.o)
                0x0000000001d15ee0                __fixdfsi
                0x0000000001d15ee0                __aeabi_d2iz
 .text          0x0000000001d15f3c       0x54 /usr/local/lib/gcc/arm-elf-eabi/4.9.4/libgcc.a(_arm_fixunsdfsi.o)
                0x0000000001d15f3c                __fixunsdfsi
                0x0000000001d15f3c                __aeabi_d2uiz
 .text          0x0000000001d15f90       0xa0 /usr/local/lib/gcc/arm-elf-eabi/4.9.4/libgcc.a(_arm_truncdfsf2.o)
                0x0000000001d15f90                __aeabi_d2f
                0x0000000001d15f90                __truncdfsf2
 .text          0x0000000001d16030      0x2ac /usr/local/lib/gcc/arm-elf-eabi/4.9.4/libgcc.a(_arm_addsubsf3.o)
                0x0000000001d16030                __aeabi_frsub
                0x0000000001d16038                __subsf3
                0x0000000001d16038                __aeabi_fsub
                0x0000000001d1603c                __aeabi_fadd
                0x0000000001d1603c                __addsf3
                0x0000000001d161f8                __aeabi_ui2f
                0x0000000001d161f8                __floatunsisf
                0x0000000001d16200                __aeabi_i2f
                0x0000000001d16200                __floatsisf
                0x0000000001d16220                __floatundisf
                0x0000000001d16220                __aeabi_ul2f
                0x0000000001d16230                __floatdisf
                0x0000000001d16230                __aeabi_l2f
 .text          0x0000000001d162dc      0x2f8 /usr/local/lib/gcc/arm-elf-eabi/4.9.4/libgcc.a(_arm_muldivsf3.o)
                0x0000000001d162dc                __mulsf3
                0x0000000001d162dc                __aeabi_fmul
                0x0000000001d16474                __divsf3
                0x0000000001d16474                __aeabi_fdiv
 .text          0x0000000001d165d4      0x114 /usr/local/lib/gcc/arm-elf-eabi/4.9.4/libgcc.a(_arm_cmpsf2.o)
                0x0000000001d165d4                __gtsf2
                0x0000000001d165d4                __gesf2
                0x0000000001d165dc                __lesf2
                0x0000000001d165dc                __ltsf2
                0x0000000001d165e4                __nesf2
                0x0000000001d165e4                __eqsf2
                0x0000000001d165e4                __cmpsf2
                0x0000000001d16648                __aeabi_cfrcmple
                0x0000000001d16658                __aeabi_cfcmple
                0x0000000001d16658                __aeabi_cfcmpeq
                0x0000000001d16670                __aeabi_fcmpeq
                0x0000000001d16688                __aeabi_fcmplt
                0x0000000001d166a0                __aeabi_fcmple
                0x0000000001d166b8                __aeabi_fcmpge
                0x0000000001d166d0                __aeabi_fcmpgt
 .text          0x0000000001d166e8       0x5c /usr/local/lib/gcc/arm-elf-eabi/4.9.4/libgcc.a(_arm_fixsfsi.o)
                0x0000000001d166e8                __fixsfsi
                0x0000000001d166e8                __aeabi_f2iz
 .text          0x0000000001d16744       0x54 /usr/local/lib/gcc/arm-elf-eabi/4.9.4/libgcc.a(_arm_fixunssfsi.o)
                0x0000000001d16744                __aeabi_f2uiz
                0x0000000001d16744                __fixunssfsi
 .text          0x0000000001d16798       0x48 /usr/local/lib/gcc/arm-elf-eabi/4.9.4/libgcc.a(_clzsi2.o)
                0x0000000001d16798                __clzsi2
 .text          0x0000000001d167e0       0x48 /usr/local/lib/gcc/arm-elf-eabi/4.9.4/libgcc.a(_aeabi_ldivmod.o)
                0x0000000001d167e0                __aeabi_ldivmod
 .text          0x0000000001d16828       0x3c /usr/local/lib/gcc/arm-elf-eabi/4.9.4/libgcc.a(_aeabi_uldivmod.o)
                0x0000000001d16828                __aeabi_uldivmod
 .text          0x0000000001d16864       0x84 /usr/local/lib/gcc/arm-elf-eabi/4.9.4/libgcc.a(bpabi.o)
                0x0000000001d16864                __gnu_ldivmod_helper
                0x0000000001d168a8                __gnu_uldivmod_helper
 .text          0x0000000001d168e8      0x178 /usr/local/lib/gcc/arm-elf-eabi/4.9.4/libgcc.a(_divdi3.o)
                0x0000000001d168e8                __divdi3
 .text          0x0000000001d16a60      0x120 /usr/local/lib/gcc/arm-elf-eabi/4.9.4/libgcc.a(_udivdi3.o)
                0x0000000001d16a60                __udivdi3
 .text          0x0000000001d16b80       0x28 /usr/local/lib/gcc/arm-elf-eabi/4.9.4/libgcc.a(_clzdi2.o)
                0x0000000001d16b80                __clzdi2
 *(.glue_7)
 .glue_7        0x0000000001d16ba8        0x0 linker stubs
 *(.glue_7t)
 .glue_7t       0x0000000001d16ba8        0x0 linker stubs

.vfp11_veneer   0x0000000001d16ba8        0x0
 .vfp11_veneer  0x0000000001d16ba8        0x0 linker stubs

.v4_bx          0x0000000001d16ba8        0x0
 .v4_bx         0x0000000001d16ba8        0x0 linker stubs

.iplt           0x0000000001d16ba8        0x0
 .iplt          0x0000000001d16ba8        0x0 /home/jbrawley/Desktop/rockbox-photo-cf-support/build/apps/plugins/sdl/main.o

.rodata         0x0000000001d16ba8     0x951c
 *(.rodata*)
 .rodata.str1.4
                0x0000000001d16ba8       0x49 /home/jbrawley/Desktop/rockbox-photo-cf-support/build/apps/plugins/sdl/main.o
 *fill*         0x0000000001d16bf1        0x7 
 .rodata        0x0000000001d16bf8      0xe00 /home/jbrawley/Desktop/rockbox-photo-cf-support/build/apps/plugins/sdl/wrappers.o
                0x0000000001d16c18                __exp_deltatable
                0x0000000001d16ee0                __exp_atable
 .rodata.str1.4
                0x0000000001d179f8        0x6 /home/jbrawley/Desktop/rockbox-photo-cf-support/build/apps/plugins/sdl/wrappers.o
                                          0xb (size before relaxing)
 *fill*         0x0000000001d179fe        0x2 
 .rodata.str1.4
                0x0000000001d17a00       0x65 /home/jbrawley/Desktop/rockbox-photo-cf-support/build/apps/plugins/sdl/src/SDL.o
 *fill*         0x0000000001d17a65        0x3 
 .rodata.str1.4
                0x0000000001d17a68       0x82 /home/jbrawley/Desktop/rockbox-photo-cf-support/build/apps/plugins/sdl/src/SDL_error.o
 *fill*         0x0000000001d17aea        0x2 
 .rodata        0x0000000001d17aec       0x48 /home/jbrawley/Desktop/rockbox-photo-cf-support/build/apps/plugins/sdl/src/audio/SDL_audio.o
 .rodata.str1.4
                0x0000000001d17b34      0x126 /home/jbrawley/Desktop/rockbox-photo-cf-support/build/apps/plugins/sdl/src/audio/SDL_audio.o
 *fill*         0x0000000001d17c5a        0x2 
 .rodata.str1.4
                0x0000000001d17c5c       0x23 /home/jbrawley/Desktop/rockbox-photo-cf-support/build/apps/plugins/sdl/src/audio/SDL_audiocvt.o
 *fill*         0x0000000001d17c7f        0x1 
 .rodata        0x0000000001d17c80      0x200 /home/jbrawley/Desktop/rockbox-photo-cf-support/build/apps/plugins/sdl/src/audio/SDL_mixer.o
 .rodata.str1.4
                0x0000000001d17e80       0x25 /home/jbrawley/Desktop/rockbox-photo-cf-support/build/apps/plugins/sdl/src/audio/SDL_mixer.o
 *fill*         0x0000000001d17ea5        0x3 
 .rodata        0x0000000001d17ea8      0x1e4 /home/jbrawley/Desktop/rockbox-photo-cf-support/build/apps/plugins/sdl/src/audio/SDL_wave.o
 .rodata.str1.4
                0x0000000001d1808c      0x102 /home/jbrawley/Desktop/rockbox-photo-cf-support/build/apps/plugins/sdl/src/audio/SDL_wave.o
 *fill*         0x0000000001d1818e        0x2 
 .rodata.str1.4
                0x0000000001d18190       0x4e /home/jbrawley/Desktop/rockbox-photo-cf-support/build/apps/plugins/sdl/src/audio/rockbox/SDL_rockboxaudio.o
 *fill*         0x0000000001d181de        0x2 
 .rodata.str1.4
                0x0000000001d181e0       0x1a /home/jbrawley/Desktop/rockbox-photo-cf-support/build/apps/plugins/sdl/src/events/SDL_events.o
 *fill*         0x0000000001d181fa        0x2 
 .rodata.str1.4
                0x0000000001d181fc      0x741 /home/jbrawley/Desktop/rockbox-photo-cf-support/build/apps/plugins/sdl/src/events/SDL_keyboard.o
                                        0x799 (size before relaxing)
 *fill*         0x0000000001d1893d        0x3 
 .rodata.str1.4
                0x0000000001d18940       0x9d /home/jbrawley/Desktop/rockbox-photo-cf-support/build/apps/plugins/sdl/src/file/SDL_rwops.o
 *fill*         0x0000000001d189dd        0x3 
 .rodata        0x0000000001d189e0        0x5 /home/jbrawley/Desktop/rockbox-photo-cf-support/build/apps/plugins/sdl/src/joystick/SDL_joystick.o
 *fill*         0x0000000001d189e5        0x3 
 .rodata.str1.4
                0x0000000001d189e8       0xb5 /home/jbrawley/Desktop/rockbox-photo-cf-support/build/apps/plugins/sdl/src/joystick/SDL_joystick.o
 *fill*         0x0000000001d18a9d        0x3 
 .rodata.str1.4
                0x0000000001d18aa0       0x24 /home/jbrawley/Desktop/rockbox-photo-cf-support/build/apps/plugins/sdl/src/joystick/dummy/SDL_sysjoystick.o
 .rodata        0x0000000001d18ac4       0x24 /home/jbrawley/Desktop/rockbox-photo-cf-support/build/apps/plugins/sdl/src/stdlib/SDL_string.o
 .rodata.str1.4
                0x0000000001d18ae8        0x8 /home/jbrawley/Desktop/rockbox-photo-cf-support/build/apps/plugins/sdl/src/stdlib/SDL_string.o
 .rodata.str1.4
                0x0000000001d18af0       0x33 /home/jbrawley/Desktop/rockbox-photo-cf-support/build/apps/plugins/sdl/src/thread/rockbox/SDL_sysmutex.o
 *fill*         0x0000000001d18b23        0x1 
 .rodata.str1.4
                0x0000000001d18b24       0x18 /home/jbrawley/Desktop/rockbox-photo-cf-support/build/apps/plugins/sdl/src/thread/rockbox/SDL_syssem.o
 .rodata.str1.4
                0x0000000001d18b3c        0x7 /home/jbrawley/Desktop/rockbox-photo-cf-support/build/apps/plugins/sdl/src/thread/rockbox/SDL_systhread.o
 *fill*         0x0000000001d18b43        0x1 
 .rodata.str1.4
                0x0000000001d18b44       0xa5 /home/jbrawley/Desktop/rockbox-photo-cf-support/build/apps/plugins/sdl/src/timer/SDL_timer.o
 *fill*         0x0000000001d18be9        0x3 
 .rodata.str1.4
                0x0000000001d18bec       0x2c /home/jbrawley/Desktop/rockbox-photo-cf-support/build/apps/plugins/sdl/src/timer/rockbox/SDL_systimer.o
 .rodata        0x0000000001d18c18       0x10 /home/jbrawley/Desktop/rockbox-photo-cf-support/build/apps/plugins/sdl/src/video/SDL_RLEaccel.o
 .rodata.str1.4
                0x0000000001d18c28       0x1f /home/jbrawley/Desktop/rockbox-photo-cf-support/build/apps/plugins/sdl/src/video/SDL_blit.o
 *fill*         0x0000000001d18c47        0x1 
 .rodata        0x0000000001d18c48       0x28 /home/jbrawley/Desktop/rockbox-photo-cf-support/build/apps/plugins/sdl/src/video/SDL_blit_0.o
 .rodata        0x0000000001d18c70       0x28 /home/jbrawley/Desktop/rockbox-photo-cf-support/build/apps/plugins/sdl/src/video/SDL_blit_1.o
 .rodata        0x0000000001d18c98     0x21c8 /home/jbrawley/Desktop/rockbox-photo-cf-support/build/apps/plugins/sdl/src/video/SDL_blit_N.o
 .rodata        0x0000000001d1ae60        0x2 /home/jbrawley/Desktop/rockbox-photo-cf-support/build/apps/plugins/sdl/src/video/SDL_bmp.o
 *fill*         0x0000000001d1ae62        0x2 
 .rodata.str1.4
                0x0000000001d1ae64       0xa1 /home/jbrawley/Desktop/rockbox-photo-cf-support/build/apps/plugins/sdl/src/video/SDL_bmp.o
                                         0xa5 (size before relaxing)
 *fill*         0x0000000001d1af05        0x3 
 .rodata.str1.4
                0x0000000001d1af08       0x5a /home/jbrawley/Desktop/rockbox-photo-cf-support/build/apps/plugins/sdl/src/video/SDL_cursor.o
 *fill*         0x0000000001d1af62        0x2 
 .rodata.str1.4
                0x0000000001d1af64      0x122 /home/jbrawley/Desktop/rockbox-photo-cf-support/build/apps/plugins/sdl/src/video/SDL_surface.o
 *fill*         0x0000000001d1b086        0x2 
 .rodata.str1.4
                0x0000000001d1b088      0x227 /home/jbrawley/Desktop/rockbox-photo-cf-support/build/apps/plugins/sdl/src/video/SDL_video.o
 *fill*         0x0000000001d1b2af        0x1 
 .rodata.str1.4
                0x0000000001d1b2b0       0xb1 /home/jbrawley/Desktop/rockbox-photo-cf-support/build/apps/plugins/sdl/src/video/rockbox/SDL_rockboxvideo.o
                                         0xb9 (size before relaxing)
 *fill*         0x0000000001d1b361        0x3 
 .rodata.str1.4
                0x0000000001d1b364       0x19 /home/jbrawley/Desktop/rockbox-photo-cf-support/build/apps/plugins/sdl/SDL_mixer/effect_position.o
                                         0x29 (size before relaxing)
 *fill*         0x0000000001d1b37d        0x3 
 .rodata.str1.4
                0x0000000001d1b380       0x14 /home/jbrawley/Desktop/rockbox-photo-cf-support/build/apps/plugins/sdl/SDL_mixer/effects_internal.o
 .rodata.str1.4
                0x0000000001d1b394       0xee /home/jbrawley/Desktop/rockbox-photo-cf-support/build/apps/plugins/sdl/SDL_mixer/load_aiff.o
                                         0xfe (size before relaxing)
 *fill*         0x0000000001d1b482        0x2 
 .rodata.str1.4
                0x0000000001d1b484      0x10b /home/jbrawley/Desktop/rockbox-photo-cf-support/build/apps/plugins/sdl/SDL_mixer/load_voc.o
 *fill*         0x0000000001d1b58f        0x1 
 .rodata.str1.4
                0x0000000001d1b590      0x1f2 /home/jbrawley/Desktop/rockbox-photo-cf-support/build/apps/plugins/sdl/SDL_mixer/mixer.o
                                        0x202 (size before relaxing)
 *fill*         0x0000000001d1b782        0x2 
 .rodata.str1.4
                0x0000000001d1b784      0x1f3 /home/jbrawley/Desktop/rockbox-photo-cf-support/build/apps/plugins/sdl/SDL_mixer/music.o
                                        0x233 (size before relaxing)
 *fill*         0x0000000001d1b977        0x1 
 .rodata.str1.4
                0x0000000001d1b978      0x10b /home/jbrawley/Desktop/rockbox-photo-cf-support/build/apps/plugins/sdl/SDL_mixer/timidity/common.o
                                        0x11b (size before relaxing)
 *fill*         0x0000000001d1ba83        0x1 
 .rodata.str1.4
                0x0000000001d1ba84       0x4d /home/jbrawley/Desktop/rockbox-photo-cf-support/build/apps/plugins/sdl/SDL_mixer/timidity/filter.o
 *fill*         0x0000000001d1bad1        0x3 
 .rodata        0x0000000001d1bad4       0x2e /home/jbrawley/Desktop/rockbox-photo-cf-support/build/apps/plugins/sdl/SDL_mixer/timidity/instrum.o
 *fill*         0x0000000001d1bb02        0x2 
 .rodata.str1.4
                0x0000000001d1bb04      0x3b5 /home/jbrawley/Desktop/rockbox-photo-cf-support/build/apps/plugins/sdl/SDL_mixer/timidity/instrum.o
                                        0x3b9 (size before relaxing)
 *fill*         0x0000000001d1beb9        0x3 
 .rodata        0x0000000001d1bebc      0x400 /home/jbrawley/Desktop/rockbox-photo-cf-support/build/apps/plugins/sdl/SDL_mixer/timidity/playmidi.o
 .rodata.str1.4
                0x0000000001d1c2bc       0xa0 /home/jbrawley/Desktop/rockbox-photo-cf-support/build/apps/plugins/sdl/SDL_mixer/timidity/playmidi.o
 .rodata        0x0000000001d1c35c       0x20 /home/jbrawley/Desktop/rockbox-photo-cf-support/build/apps/plugins/sdl/SDL_mixer/timidity/readmidi.o
 .rodata.str1.4
                0x0000000001d1c37c      0x3b0 /home/jbrawley/Desktop/rockbox-photo-cf-support/build/apps/plugins/sdl/SDL_mixer/timidity/readmidi.o
                                        0x3c8 (size before relaxing)
 .rodata        0x0000000001d1c72c       0x24 /home/jbrawley/Desktop/rockbox-photo-cf-support/build/apps/plugins/sdl/SDL_mixer/timidity/resample.o
 .rodata.str1.4
                0x0000000001d1c750       0x25 /home/jbrawley/Desktop/rockbox-photo-cf-support/build/apps/plugins/sdl/SDL_mixer/timidity/resample.o
 *fill*         0x0000000001d1c775        0x3 
 .rodata.str1.4
                0x0000000001d1c778        0xa /home/jbrawley/Desktop/rockbox-photo-cf-support/build/apps/plugins/sdl/SDL_mixer/timidity/sdl_a.o
 *fill*         0x0000000001d1c782        0x2 
 .rodata.str1.4
                0x0000000001d1c784        0xe /home/jbrawley/Desktop/rockbox-photo-cf-support/build/apps/plugins/sdl/SDL_mixer/timidity/sdl_c.o
 *fill*         0x0000000001d1c792        0x2 
 .rodata.str1.4
                0x0000000001d1c794      0x3da /home/jbrawley/Desktop/rockbox-photo-cf-support/build/apps/plugins/sdl/SDL_mixer/timidity/timidity.o
                                        0x40a (size before relaxing)
 *fill*         0x0000000001d1cb6e        0x2 
 .rodata        0x0000000001d1cb70      0x55c /home/jbrawley/Desktop/rockbox-photo-cf-support/build/apps/plugins/sdl/progs/wolf3d/fmopl_gpl.o
 .rodata        0x0000000001d1d0cc       0xc1 /home/jbrawley/Desktop/rockbox-photo-cf-support/build/apps/plugins/sdl/progs/wolf3d/id_ca.o
 *fill*         0x0000000001d1d18d        0x3 
 .rodata.str1.4
                0x0000000001d1d190      0x190 /home/jbrawley/Desktop/rockbox-photo-cf-support/build/apps/plugins/sdl/progs/wolf3d/id_ca.o
                                        0x194 (size before relaxing)
 .rodata        0x0000000001d1d320        0x9 /home/jbrawley/Desktop/rockbox-photo-cf-support/build/apps/plugins/sdl/progs/wolf3d/id_in.o
 *fill*         0x0000000001d1d329        0x3 
 .rodata.str1.4
                0x0000000001d1d32c       0x30 /home/jbrawley/Desktop/rockbox-photo-cf-support/build/apps/plugins/sdl/progs/wolf3d/id_in.o
 .rodata        0x0000000001d1d35c       0x1f /home/jbrawley/Desktop/rockbox-photo-cf-support/build/apps/plugins/sdl/progs/wolf3d/id_pm.o
 *fill*         0x0000000001d1d37b        0x1 
 .rodata.str1.4
                0x0000000001d1d37c       0x8b /home/jbrawley/Desktop/rockbox-photo-cf-support/build/apps/plugins/sdl/progs/wolf3d/id_pm.o
                                         0xa7 (size before relaxing)
 *fill*         0x0000000001d1d407        0x1 
 .rodata.str1.4
                0x0000000001d1d408      0x267 /home/jbrawley/Desktop/rockbox-photo-cf-support/build/apps/plugins/sdl/progs/wolf3d/id_sd.o
 *fill*         0x0000000001d1d66f        0x1 
 .rodata        0x0000000001d1d670      0x12c /home/jbrawley/Desktop/rockbox-photo-cf-support/build/apps/plugins/sdl/progs/wolf3d/id_us_1.o
 .rodata.str1.4
                0x0000000001d1d79c       0x32 /home/jbrawley/Desktop/rockbox-photo-cf-support/build/apps/plugins/sdl/progs/wolf3d/id_us_1.o
 *fill*         0x0000000001d1d7ce        0x2 
 .rodata        0x0000000001d1d7d0       0x24 /home/jbrawley/Desktop/rockbox-photo-cf-support/build/apps/plugins/sdl/progs/wolf3d/id_vh.o
 .rodata.str1.4
                0x0000000001d1d7f4       0xc6 /home/jbrawley/Desktop/rockbox-photo-cf-support/build/apps/plugins/sdl/progs/wolf3d/id_vh.o
                                         0xde (size before relaxing)
 *fill*         0x0000000001d1d8ba        0x2 
 .rodata.str1.4
                0x0000000001d1d8bc       0xba /home/jbrawley/Desktop/rockbox-photo-cf-support/build/apps/plugins/sdl/progs/wolf3d/id_vl.o
                                         0xeb (size before relaxing)
 *fill*         0x0000000001d1d976        0x2 
 .rodata.str1.4
                0x0000000001d1d978       0x54 /home/jbrawley/Desktop/rockbox-photo-cf-support/build/apps/plugins/sdl/progs/wolf3d/wl_act1.o
 .rodata        0x0000000001d1d9cc        0x8 /home/jbrawley/Desktop/rockbox-photo-cf-support/build/apps/plugins/sdl/progs/wolf3d/wl_act2.o
 .rodata.str1.4
                0x0000000001d1d9d4       0x3b /home/jbrawley/Desktop/rockbox-photo-cf-support/build/apps/plugins/sdl/progs/wolf3d/wl_act2.o
 .rodata.str1.4
                0x0000000001d1da0f        0x4 /home/jbrawley/Desktop/rockbox-photo-cf-support/build/apps/plugins/sdl/progs/wolf3d/wl_agent.o
 *fill*         0x0000000001d1da0f        0x1 
 .rodata.str1.4
                0x0000000001d1da10      0x201 /home/jbrawley/Desktop/rockbox-photo-cf-support/build/apps/plugins/sdl/progs/wolf3d/wl_debug.o
                                        0x20d (size before relaxing)
 *fill*         0x0000000001d1dc11        0x3 
 .rodata.str1.4
                0x0000000001d1dc14        0x5 /home/jbrawley/Desktop/rockbox-photo-cf-support/build/apps/plugins/sdl/progs/wolf3d/wl_draw.o
                                         0x35 (size before relaxing)
 *fill*         0x0000000001d1dc19        0x3 
 .rodata        0x0000000001d1dc1c       0x10 /home/jbrawley/Desktop/rockbox-photo-cf-support/build/apps/plugins/sdl/progs/wolf3d/wl_game.o
 .rodata.str1.4
                0x0000000001d1dc2c       0x98 /home/jbrawley/Desktop/rockbox-photo-cf-support/build/apps/plugins/sdl/progs/wolf3d/wl_game.o
                                         0xb4 (size before relaxing)
 .rodata        0x0000000001d1dcc4      0x30c /home/jbrawley/Desktop/rockbox-photo-cf-support/build/apps/plugins/sdl/progs/wolf3d/wl_inter.o
 .rodata.str1.4
                0x0000000001d1dfd0       0xd9 /home/jbrawley/Desktop/rockbox-photo-cf-support/build/apps/plugins/sdl/progs/wolf3d/wl_inter.o
                                         0xe9 (size before relaxing)
 *fill*         0x0000000001d1e0a9        0x3 
 .rodata        0x0000000001d1e0ac       0x4c /home/jbrawley/Desktop/rockbox-photo-cf-support/build/apps/plugins/sdl/progs/wolf3d/wl_main.o
                0x0000000001d1e0f4                radtoint
 .rodata.str1.4
                0x0000000001d1e0f8      0xdc9 /home/jbrawley/Desktop/rockbox-photo-cf-support/build/apps/plugins/sdl/progs/wolf3d/wl_main.o
                                        0xdd1 (size before relaxing)
 *fill*         0x0000000001d1eec1        0x3 
 .rodata        0x0000000001d1eec4      0x598 /home/jbrawley/Desktop/rockbox-photo-cf-support/build/apps/plugins/sdl/progs/wolf3d/wl_menu.o
 .rodata.str1.4
                0x0000000001d1f45c      0x48e /home/jbrawley/Desktop/rockbox-photo-cf-support/build/apps/plugins/sdl/progs/wolf3d/wl_menu.o
                                        0x5ca (size before relaxing)
 *fill*         0x0000000001d1f8ea        0x2 
 .rodata.str1.4
                0x0000000001d1f8ec      0x15b /home/jbrawley/Desktop/rockbox-photo-cf-support/build/apps/plugins/sdl/progs/wolf3d/wl_play.o
 *fill*         0x0000000001d1fa47        0x1 
 .rodata        0x0000000001d1fa48       0x5d /home/jbrawley/Desktop/rockbox-photo-cf-support/build/apps/plugins/sdl/progs/wolf3d/wl_state.o
 *fill*         0x0000000001d1faa5        0x3 
 .rodata.str1.4
                0x0000000001d1faa8       0x4f /home/jbrawley/Desktop/rockbox-photo-cf-support/build/apps/plugins/sdl/progs/wolf3d/wl_state.o
 *fill*         0x0000000001d1faf7        0x1 
 .rodata.str1.4
                0x0000000001d1faf8       0x80 /home/jbrawley/Desktop/rockbox-photo-cf-support/build/apps/plugins/sdl/progs/wolf3d/wl_text.o
                                         0x7e (size before relaxing)
 .rodata        0x0000000001d1fb78      0x400 /home/jbrawley/Desktop/rockbox-photo-cf-support/build/lib/libtlsf.a(tlsf.o)
 .rodata.str1.1
                0x0000000001d1ff78       0xa2 /home/jbrawley/Desktop/rockbox-photo-cf-support/build/lib/libtlsf.a(tlsf.o)
 .rodata.str1.1
                0x0000000001d2001a       0x27 /home/jbrawley/Desktop/rockbox-photo-cf-support/build/apps/plugins/libplugin.a(stdio_compat.o)
 *fill*         0x0000000001d20041        0x3 
 .rodata.atan_table
                0x0000000001d20044       0x80 /home/jbrawley/Desktop/rockbox-photo-cf-support/build/lib/libfixedpoint.a(fixedpoint.o)

.ARM.exidx      0x0000000001d200c4        0x8
 .ARM.exidx     0x0000000001d200c4        0x8 /usr/local/lib/gcc/arm-elf-eabi/4.9.4/libgcc.a(_divdi3.o)
 .ARM.exidx     0x0000000001d200cc        0x0 /usr/local/lib/gcc/arm-elf-eabi/4.9.4/libgcc.a(_udivdi3.o)
                                          0x8 (size before relaxing)

.rel.dyn        0x0000000001d200cc        0x0
 .rel.iplt      0x0000000001d200cc        0x0 /home/jbrawley/Desktop/rockbox-photo-cf-support/build/apps/plugins/sdl/main.o

.data           0x0000000001d200d0    0x1ae30
 *(.data*)
 .data          0x0000000001d200d0        0x1 /home/jbrawley/Desktop/rockbox-photo-cf-support/build/apps/plugins/sdl/main.o
                0x0000000001d200d0                printf_enabled
 *fill*         0x0000000001d200d1        0x3 
 .data          0x0000000001d200d4        0xc /home/jbrawley/Desktop/rockbox-photo-cf-support/build/apps/plugins/sdl/wrappers.o
 .data          0x0000000001d200e0        0x3 /home/jbrawley/Desktop/rockbox-photo-cf-support/build/apps/plugins/sdl/src/SDL.o
 *fill*         0x0000000001d200e3        0x1 
 .data          0x0000000001d200e4       0x10 /home/jbrawley/Desktop/rockbox-photo-cf-support/build/apps/plugins/sdl/src/audio/rockbox/SDL_rockboxaudio.o
                0x0000000001d200e4                ROCKBOXAUD_bootstrap
 .data          0x0000000001d200f4        0x4 /home/jbrawley/Desktop/rockbox-photo-cf-support/build/apps/plugins/sdl/src/cpuinfo/SDL_cpuinfo.o
 .data          0x0000000001d200f8       0x48 /home/jbrawley/Desktop/rockbox-photo-cf-support/build/apps/plugins/sdl/src/video/SDL_cursor.o
                0x0000000001d200fc                rb_SDL_cursorstate
 .data          0x0000000001d20140       0x20 /home/jbrawley/Desktop/rockbox-photo-cf-support/build/apps/plugins/sdl/src/video/SDL_video.o
 .data          0x0000000001d20160       0x18 /home/jbrawley/Desktop/rockbox-photo-cf-support/build/apps/plugins/sdl/src/video/rockbox/SDL_rockboxvideo.o
                0x0000000001d20168                ROCKBOX_bootstrap
 .data          0x0000000001d20178        0x4 /home/jbrawley/Desktop/rockbox-photo-cf-support/build/apps/plugins/sdl/SDL_mixer/mixer.o
 .data          0x0000000001d2017c        0x8 /home/jbrawley/Desktop/rockbox-photo-cf-support/build/apps/plugins/sdl/SDL_mixer/music.o
                0x0000000001d20180                music_active
 .data          0x0000000001d20184        0xc /home/jbrawley/Desktop/rockbox-photo-cf-support/build/apps/plugins/sdl/SDL_mixer/timidity/ctrlmode.o
                0x0000000001d20184                ctl
                0x0000000001d20188                ctl_list
 .data          0x0000000001d20190      0x414 /home/jbrawley/Desktop/rockbox-photo-cf-support/build/apps/plugins/sdl/SDL_mixer/timidity/instrum.o
                0x0000000001d20190                max_patch_memory
                0x0000000001d20194                tonebank
                0x0000000001d2039c                drumset
 .data          0x0000000001d205a4        0xc /home/jbrawley/Desktop/rockbox-photo-cf-support/build/apps/plugins/sdl/SDL_mixer/timidity/output.o
                0x0000000001d205a4                play_mode
                0x0000000001d205a8                play_mode_list
 .data          0x0000000001d205b0        0xc /home/jbrawley/Desktop/rockbox-photo-cf-support/build/apps/plugins/sdl/SDL_mixer/timidity/playmidi.o
                0x0000000001d205b0                amplification
                0x0000000001d205b4                voices
                0x0000000001d205b8                drumchannels
 .data          0x0000000001d205bc        0xc /home/jbrawley/Desktop/rockbox-photo-cf-support/build/apps/plugins/sdl/SDL_mixer/timidity/sdl_a.o
                0x0000000001d205bc                sdl_play_mode
 .data          0x0000000001d205c8       0x5c /home/jbrawley/Desktop/rockbox-photo-cf-support/build/apps/plugins/sdl/SDL_mixer/timidity/sdl_c.o
                0x0000000001d205c8                sdl_control_mode
 *fill*         0x0000000001d20624        0x4 
 .data          0x0000000001d20628     0x7488 /home/jbrawley/Desktop/rockbox-photo-cf-support/build/apps/plugins/sdl/SDL_mixer/timidity/tables.o
                0x0000000001d20628                xmap
                0x0000000001d244a8                _l2u
                0x0000000001d244ac                _l2u_
                0x0000000001d264b0                bend_coarse
                0x0000000001d268b0                bend_fine
                0x0000000001d270b0                expr_table
                0x0000000001d274b0                vol_table
                0x0000000001d278b0                freq_table
 .data          0x0000000001d27ab0        0xc /home/jbrawley/Desktop/rockbox-photo-cf-support/build/apps/plugins/sdl/progs/wolf3d/id_ca.o
                0x0000000001d27ab0                grhandle
                0x0000000001d27ab4                maphandle
                0x0000000001d27ab8                audiohandle
 .data          0x0000000001d27abc      0x180 /home/jbrawley/Desktop/rockbox-photo-cf-support/build/apps/plugins/sdl/progs/wolf3d/id_in.o
                0x0000000001d27abc                ShiftNames
                0x0000000001d27b3c                ASCIINames
                0x0000000001d27bbc                SpecialNames
 .data          0x0000000001d27c3c        0x4 /home/jbrawley/Desktop/rockbox-photo-cf-support/build/apps/plugins/sdl/progs/wolf3d/id_sd.o
                0x0000000001d27c3c                soundTimeCounter
 .data          0x0000000001d27c40      0x1d6 /home/jbrawley/Desktop/rockbox-photo-cf-support/build/apps/plugins/sdl/progs/wolf3d/id_us_1.o
                0x0000000001d27c40                USL_MeasureString
                0x0000000001d27c44                USL_DrawString
                0x0000000001d27c48                Scores
 *fill*         0x0000000001d27e16        0x2 
 .data          0x0000000001d27e18      0x410 /home/jbrawley/Desktop/rockbox-photo-cf-support/build/apps/plugins/sdl/progs/wolf3d/id_vl.o
                0x0000000001d27e18                screenBits
                0x0000000001d27e1c                screenWidth
                0x0000000001d27e20                screenHeight
                0x0000000001d27e24                usedoublebuffering
                0x0000000001d27e25                fullscreen
                0x0000000001d27e28                gamepal
 .data          0x0000000001d28228     0xfa00 /home/jbrawley/Desktop/rockbox-photo-cf-support/build/apps/plugins/sdl/progs/wolf3d/signon.o
                0x0000000001d28228                signon
 .data          0x0000000001d37c28      0x180 /home/jbrawley/Desktop/rockbox-photo-cf-support/build/apps/plugins/sdl/progs/wolf3d/wl_act1.o
                0x0000000001d37c28                statinfo
                0x0000000001d37d88                dirs
 .data          0x0000000001d37da8     0x1851 /home/jbrawley/Desktop/rockbox-photo-cf-support/build/apps/plugins/sdl/progs/wolf3d/wl_act2.o
                0x0000000001d37da8                s_smoke1
                0x0000000001d37dbc                s_hitlerchase1
                0x0000000001d37dd0                s_needle1
                0x0000000001d37de4                s_rocket
                0x0000000001d37df8                s_fakechase1
                0x0000000001d37e0c                s_fire1
                0x0000000001d37e20                s_fakeshoot1
                0x0000000001d37e34                s_dogjump1
                0x0000000001d37e48                s_schabbshoot1
                0x0000000001d37e5c                s_giftshoot1
                0x0000000001d37e70                s_fatshoot1
                0x0000000001d37e84                s_grdshoot1
                0x0000000001d37e98                s_ofcshoot1
                0x0000000001d37eac                s_mutshoot1
                0x0000000001d37ec0                s_ssshoot1
                0x0000000001d37ed4                s_bossshoot1
                0x0000000001d37ee8                s_gretelshoot1
                0x0000000001d37efc                s_mechashoot1
                0x0000000001d37f10                s_hitlershoot1
                0x0000000001d37f24                s_bjjump1
                0x0000000001d37f38                s_schabbdeathcam
                0x0000000001d37f4c                s_hitlerdeathcam
                0x0000000001d37f60                s_giftdeathcam
                0x0000000001d37f74                s_fatdeathcam
                0x0000000001d37f88                s_boom1
                0x0000000001d37f9c                s_grdstand
                0x0000000001d37fb0                s_ofcstand
                0x0000000001d37fc4                s_mutstand
                0x0000000001d37fd8                s_ssstand
                0x0000000001d37fec                starthitpoints
                0x0000000001d3809c                s_grddie4
                0x0000000001d380b0                s_bossstand
                0x0000000001d380c4                s_gretelstand
                0x0000000001d380d8                s_grdpath1
                0x0000000001d380ec                s_ofcpath1
                0x0000000001d38100                s_sspath1
                0x0000000001d38114                s_mutpath1
                0x0000000001d38128                s_dogpath1
                0x0000000001d3813c                s_blinkychase1
                0x0000000001d38150                s_clydechase1
                0x0000000001d38164                s_pinkychase1
                0x0000000001d38178                s_inkychase1
                0x0000000001d3818c                s_schabbdie2
                0x0000000001d381a0                s_schabbstand
                0x0000000001d381b4                s_giftdie2
                0x0000000001d381c8                s_giftstand
                0x0000000001d381dc                s_fatdie2
                0x0000000001d381f0                s_fatstand
                0x0000000001d38204                s_hitlerdie2
                0x0000000001d38218                s_fakestand
                0x0000000001d3822c                s_mechastand
                0x0000000001d38240                s_bjrun1
                0x0000000001d38254                s_bjjump4
                0x0000000001d38268                s_bjjump3
                0x0000000001d3827c                s_bjjump2
                0x0000000001d38290                s_bjrun4
                0x0000000001d382a4                s_bjrun3s
                0x0000000001d382b8                s_bjrun3
                0x0000000001d382cc                s_bjrun2
                0x0000000001d382e0                s_bjrun1s
                0x0000000001d382f4                s_hitlershoot6
                0x0000000001d38308                s_hitlershoot5
                0x0000000001d3831c                s_hitlershoot4
                0x0000000001d38330                s_hitlershoot3
                0x0000000001d38344                s_hitlershoot2
                0x0000000001d38358                s_hitlerdie10
                0x0000000001d3836c                s_hitlerdie9
                0x0000000001d38380                s_hitlerdie8
                0x0000000001d38394                s_hitlerdie7
                0x0000000001d383a8                s_hitlerdie6
                0x0000000001d383bc                s_hitlerdie5
                0x0000000001d383d0                s_hitlerdie4
                0x0000000001d383e4                s_hitlerdie3
                0x0000000001d383f8                s_hitlerdie1
                0x0000000001d3840c                s_hitlerchase4
                0x0000000001d38420                s_hitlerchase3s
                0x0000000001d38434                s_hitlerchase3
                0x0000000001d38448                s_hitlerchase2
                0x0000000001d3845c                s_hitlerchase1s
                0x0000000001d38470                s_mechashoot6
                0x0000000001d38484                s_mechashoot5
                0x0000000001d38498                s_mechashoot4
                0x0000000001d384ac                s_mechashoot3
                0x0000000001d384c0                s_mechashoot2
                0x0000000001d384d4                s_mechadie4
                0x0000000001d384e8                s_mechadie3
                0x0000000001d384fc                s_mechadie2
                0x0000000001d38510                s_mechadie1
                0x0000000001d38524                s_mechachase4
                0x0000000001d38538                s_mechachase3s
                0x0000000001d3854c                s_mechachase3
                0x0000000001d38560                s_mechachase2
                0x0000000001d38574                s_mechachase1s
                0x0000000001d38588                s_mechachase1
                0x0000000001d3859c                s_fire2
                0x0000000001d385b0                s_fakeshoot9
                0x0000000001d385c4                s_fakeshoot8
                0x0000000001d385d8                s_fakeshoot7
                0x0000000001d385ec                s_fakeshoot6
                0x0000000001d38600                s_fakeshoot5
                0x0000000001d38614                s_fakeshoot4
                0x0000000001d38628                s_fakeshoot3
                0x0000000001d3863c                s_fakeshoot2
                0x0000000001d38650                s_fakedie6
                0x0000000001d38664                s_fakedie5
                0x0000000001d38678                s_fakedie4
                0x0000000001d3868c                s_fakedie3
                0x0000000001d386a0                s_fakedie2
                0x0000000001d386b4                s_fakedie1
                0x0000000001d386c8                s_fakechase4
                0x0000000001d386dc                s_fakechase3s
                0x0000000001d386f0                s_fakechase3
                0x0000000001d38704                s_fakechase2
                0x0000000001d38718                s_fakechase1s
                0x0000000001d3872c                s_fatshoot6
                0x0000000001d38740                s_fatshoot5
                0x0000000001d38754                s_fatshoot4
                0x0000000001d38768                s_fatshoot3
                0x0000000001d3877c                s_fatshoot2
                0x0000000001d38790                s_fatdie6
                0x0000000001d387a4                s_fatdie5
                0x0000000001d387b8                s_fatdie4
                0x0000000001d387cc                s_fatdie3
                0x0000000001d387e0                s_fatdie1
                0x0000000001d387f4                s_fatchase4
                0x0000000001d38808                s_fatchase3s
                0x0000000001d3881c                s_fatchase3
                0x0000000001d38830                s_fatchase2
                0x0000000001d38844                s_fatchase1s
                0x0000000001d38858                s_fatchase1
                0x0000000001d3886c                s_giftshoot2
                0x0000000001d38880                s_giftdie6
                0x0000000001d38894                s_giftdie5
                0x0000000001d388a8                s_giftdie4
                0x0000000001d388bc                s_giftdie3
                0x0000000001d388d0                s_giftdie1
                0x0000000001d388e4                s_giftchase4
                0x0000000001d388f8                s_giftchase3s
                0x0000000001d3890c                s_giftchase3
                0x0000000001d38920                s_giftchase2
                0x0000000001d38934                s_giftchase1s
                0x0000000001d38948                s_giftchase1
                0x0000000001d3895c                s_needle4
                0x0000000001d38970                s_needle3
                0x0000000001d38984                s_needle2
                0x0000000001d38998                s_schabbshoot2
                0x0000000001d389ac                s_schabbdie6
                0x0000000001d389c0                s_schabbdie5
                0x0000000001d389d4                s_schabbdie4
                0x0000000001d389e8                s_schabbdie3
                0x0000000001d389fc                s_schabbdie1
                0x0000000001d38a10                s_schabbchase4
                0x0000000001d38a24                s_schabbchase3s
                0x0000000001d38a38                s_schabbchase3
                0x0000000001d38a4c                s_schabbchase2
                0x0000000001d38a60                s_schabbchase1s
                0x0000000001d38a74                s_schabbchase1
                0x0000000001d38a88                s_gretelshoot8
                0x0000000001d38a9c                s_gretelshoot7
                0x0000000001d38ab0                s_gretelshoot6
                0x0000000001d38ac4                s_gretelshoot5
                0x0000000001d38ad8                s_gretelshoot4
                0x0000000001d38aec                s_gretelshoot3
                0x0000000001d38b00                s_gretelshoot2
                0x0000000001d38b14                s_greteldie4
                0x0000000001d38b28                s_greteldie3
                0x0000000001d38b3c                s_greteldie2
                0x0000000001d38b50                s_greteldie1
                0x0000000001d38b64                s_gretelchase4
                0x0000000001d38b78                s_gretelchase3s
                0x0000000001d38b8c                s_gretelchase3
                0x0000000001d38ba0                s_gretelchase2
                0x0000000001d38bb4                s_gretelchase1s
                0x0000000001d38bc8                s_gretelchase1
                0x0000000001d38bdc                s_bossshoot8
                0x0000000001d38bf0                s_bossshoot7
                0x0000000001d38c04                s_bossshoot6
                0x0000000001d38c18                s_bossshoot5
                0x0000000001d38c2c                s_bossshoot4
                0x0000000001d38c40                s_bossshoot3
                0x0000000001d38c54                s_bossshoot2
                0x0000000001d38c68                s_bossdie4
                0x0000000001d38c7c                s_bossdie3
                0x0000000001d38c90                s_bossdie2
                0x0000000001d38ca4                s_bossdie1
                0x0000000001d38cb8                s_bosschase4
                0x0000000001d38ccc                s_bosschase3s
                0x0000000001d38ce0                s_bosschase3
                0x0000000001d38cf4                s_bosschase2
                0x0000000001d38d08                s_bosschase1s
                0x0000000001d38d1c                s_bosschase1
                0x0000000001d38d30                s_ssdie4
                0x0000000001d38d44                s_ssdie3
                0x0000000001d38d58                s_ssdie2
                0x0000000001d38d6c                s_ssdie1
                0x0000000001d38d80                s_sschase4
                0x0000000001d38d94                s_sschase3s
                0x0000000001d38da8                s_sschase3
                0x0000000001d38dbc                s_sschase2
                0x0000000001d38dd0                s_sschase1s
                0x0000000001d38de4                s_sschase1
                0x0000000001d38df8                s_ssshoot9
                0x0000000001d38e0c                s_ssshoot8
                0x0000000001d38e20                s_ssshoot7
                0x0000000001d38e34                s_ssshoot6
                0x0000000001d38e48                s_ssshoot5
                0x0000000001d38e5c                s_ssshoot4
                0x0000000001d38e70                s_ssshoot3
                0x0000000001d38e84                s_ssshoot2
                0x0000000001d38e98                s_sspain1
                0x0000000001d38eac                s_sspain
                0x0000000001d38ec0                s_sspath4
                0x0000000001d38ed4                s_sspath3s
                0x0000000001d38ee8                s_sspath3
                0x0000000001d38efc                s_sspath2
                0x0000000001d38f10                s_sspath1s
                0x0000000001d38f24                s_mutdie5
                0x0000000001d38f38                s_mutdie4
                0x0000000001d38f4c                s_mutdie3
                0x0000000001d38f60                s_mutdie2
                0x0000000001d38f74                s_mutdie1
                0x0000000001d38f88                s_mutchase4
                0x0000000001d38f9c                s_mutchase3s
                0x0000000001d38fb0                s_mutchase3
                0x0000000001d38fc4                s_mutchase2
                0x0000000001d38fd8                s_mutchase1s
                0x0000000001d38fec                s_mutchase1
                0x0000000001d39000                s_mutshoot4
                0x0000000001d39014                s_mutshoot3
                0x0000000001d39028                s_mutshoot2
                0x0000000001d3903c                s_mutpain1
                0x0000000001d39050                s_mutpain
                0x0000000001d39064                s_mutpath4
                0x0000000001d39078                s_mutpath3s
                0x0000000001d3908c                s_mutpath3
                0x0000000001d390a0                s_mutpath2
                0x0000000001d390b4                s_mutpath1s
                0x0000000001d390c8                s_ofcdie5
                0x0000000001d390dc                s_ofcdie4
                0x0000000001d390f0                s_ofcdie3
                0x0000000001d39104                s_ofcdie2
                0x0000000001d39118                s_ofcdie1
                0x0000000001d3912c                s_ofcchase4
                0x0000000001d39140                s_ofcchase3s
                0x0000000001d39154                s_ofcchase3
                0x0000000001d39168                s_ofcchase2
                0x0000000001d3917c                s_ofcchase1s
                0x0000000001d39190                s_ofcchase1
                0x0000000001d391a4                s_ofcshoot3
                0x0000000001d391b8                s_ofcshoot2
                0x0000000001d391cc                s_ofcpain1
                0x0000000001d391e0                s_ofcpain
                0x0000000001d391f4                s_ofcpath4
                0x0000000001d39208                s_ofcpath3s
                0x0000000001d3921c                s_ofcpath3
                0x0000000001d39230                s_ofcpath2
                0x0000000001d39244                s_ofcpath1s
                0x0000000001d39258                s_dogdead
                0x0000000001d3926c                s_dogdie3
                0x0000000001d39280                s_dogdie2
                0x0000000001d39294                s_dogdie1
                0x0000000001d392a8                s_dogchase4
                0x0000000001d392bc                s_dogchase3s
                0x0000000001d392d0                s_dogchase3
                0x0000000001d392e4                s_dogchase2
                0x0000000001d392f8                s_dogchase1s
                0x0000000001d3930c                s_dogchase1
                0x0000000001d39320                s_dogjump5
                0x0000000001d39334                s_dogjump4
                0x0000000001d39348                s_dogjump3
                0x0000000001d3935c                s_dogjump2
                0x0000000001d39370                s_dogpath4
                0x0000000001d39384                s_dogpath3s
                0x0000000001d39398                s_dogpath3
                0x0000000001d393ac                s_dogpath2
                0x0000000001d393c0                s_dogpath1s
                0x0000000001d393d4                s_clydechase2
                0x0000000001d393e8                s_pinkychase2
                0x0000000001d393fc                s_inkychase2
                0x0000000001d39410                s_blinkychase2
                0x0000000001d39424                s_grddie3
                0x0000000001d39438                s_grddie2
                0x0000000001d3944c                s_grddie1
                0x0000000001d39460                s_grdchase4
                0x0000000001d39474                s_grdchase3s
                0x0000000001d39488                s_grdchase3
                0x0000000001d3949c                s_grdchase2
                0x0000000001d394b0                s_grdchase1s
                0x0000000001d394c4                s_grdchase1
                0x0000000001d394d8                s_grdshoot3
                0x0000000001d394ec                s_grdshoot2
                0x0000000001d39500                s_grdpain1
                0x0000000001d39514                s_grdpain
                0x0000000001d39528                s_grdpath4
                0x0000000001d3953c                s_grdpath3s
                0x0000000001d39550                s_grdpath3
                0x0000000001d39564                s_grdpath2
                0x0000000001d39578                s_grdpath1s
                0x0000000001d3958c                s_boom3
                0x0000000001d395a0                s_boom2
                0x0000000001d395b4                s_smoke4
                0x0000000001d395c8                s_smoke3
                0x0000000001d395dc                s_smoke2
                0x0000000001d395f0                dirtable
 *fill*         0x0000000001d395f9        0x3 
 .data          0x0000000001d395fc       0xcd /home/jbrawley/Desktop/rockbox-photo-cf-support/build/apps/plugins/sdl/progs/wolf3d/wl_agent.o
                0x0000000001d395fc                s_attack
                0x0000000001d39610                attackinfo
                0x0000000001d396b8                s_player
 *fill*         0x0000000001d396c9        0x3 
 .data          0x0000000001d396cc        0xd /home/jbrawley/Desktop/rockbox-photo-cf-support/build/apps/plugins/sdl/progs/wolf3d/wl_debug.o
 *fill*         0x0000000001d396d9        0x3 
 .data          0x0000000001d396dc       0x50 /home/jbrawley/Desktop/rockbox-photo-cf-support/build/apps/plugins/sdl/progs/wolf3d/wl_draw.o
                0x0000000001d396dc                vgaCeiling
                0x0000000001d39718                weaponscale
                0x0000000001d39728                costable
 .data          0x0000000001d3972c      0x3b0 /home/jbrawley/Desktop/rockbox-photo-cf-support/build/apps/plugins/sdl/progs/wolf3d/wl_game.o
                0x0000000001d3972c                lefttable
                0x0000000001d398f0                righttable
                0x0000000001d39ab2                bordercol
                0x0000000001d39ab4                demoname
                0x0000000001d39ac4                ElevatorBackTo
 .data          0x0000000001d39adc        0x4 /home/jbrawley/Desktop/rockbox-photo-cf-support/build/apps/plugins/sdl/progs/wolf3d/wl_inter.o
 .data          0x0000000001d39ae0      0x448 /home/jbrawley/Desktop/rockbox-photo-cf-support/build/apps/plugins/sdl/progs/wolf3d/wl_main.o
                0x0000000001d39ae0                configname
                0x0000000001d39bf0                MusicItems
                0x0000000001d39bfc                MusicMenu
                0x0000000001d39ef0                param_samplerate
                0x0000000001d39ef4                param_difficulty
                0x0000000001d39ef8                param_tedlevel
                0x0000000001d39efc                param_joystickhat
                0x0000000001d39f00                param_audiobuffer
                0x0000000001d39f04                dirangle
 .data          0x0000000001d39f28      0xd50 /home/jbrawley/Desktop/rockbox-photo-cf-support/build/apps/plugins/sdl/progs/wolf3d/wl_menu.o
                0x0000000001d39f28                CusMenu
                0x0000000001d3a0a4                order
                0x0000000001d3a0a8                mbarray
                0x0000000001d3a0b4                moveorder
                0x0000000001d3a0c8                color_hlite
                0x0000000001d3a0e0                color_norml
                0x0000000001d3a0f4                MainMenu
                0x0000000001d3a270                MainItems
                0x0000000001d3a27c                NewEitems
                0x0000000001d3a288                NewEmenu
                0x0000000001d3a458                NewItems
                0x0000000001d3a464                NewMenu
                0x0000000001d3a50c                SndMenu
                0x0000000001d3a704                SndItems
                0x0000000001d3a710                LSItems
                0x0000000001d3a71c                LSMenu
                0x0000000001d3a8d0                CtlMenu
                0x0000000001d3a978                CtlItems
                0x0000000001d3a984                CusItems
                0x0000000001d3a990                endStrings
                0x0000000001d3ac60                EpisodeSelect
 .data          0x0000000001d3ac78      0x1d8 /home/jbrawley/Desktop/rockbox-photo-cf-support/build/apps/plugins/sdl/progs/wolf3d/wl_play.o
                0x0000000001d3ac78                buttonscan
                0x0000000001d3acc0                buttonmouse
                0x0000000001d3acd0                buttonjoy
                0x0000000001d3ad50                dirscan
                0x0000000001d3ad60                songs
 .data          0x0000000001d3ae50       0x25 /home/jbrawley/Desktop/rockbox-photo-cf-support/build/apps/plugins/sdl/progs/wolf3d/wl_text.o
                0x0000000001d3ae50                helpextern
                0x0000000001d3ae54                endextern
                0x0000000001d3ae58                endfilename
                0x0000000001d3ae68                helpfilename
 *fill*         0x0000000001d3ae75        0x3 
 .data          0x0000000001d3ae78        0x4 /home/jbrawley/Desktop/rockbox-photo-cf-support/build/apps/plugins/plugin_crt0.o
                0x0000000001d3ae78                rb
 .data.__file__
                0x0000000001d3ae7c       0x84 /home/jbrawley/Desktop/rockbox-photo-cf-support/build/apps/plugins/libplugin.a(stdio_compat.o)

.igot.plt       0x0000000001d3af00        0x0
 .igot.plt      0x0000000001d3af00        0x0 /home/jbrawley/Desktop/rockbox-photo-cf-support/build/apps/plugins/sdl/main.o

.ncdata         0x0000000011d3af00        0x0 load address 0x0000000001d3af00
                0x0000000011d3af00                . = ALIGN (0x10)
 *fill*         0x0000000011d3af00        0x0 
 *(.ncdata*)
                0x0000000011d3af00                . = ALIGN (0x10)
                0x0000000001d3af00                bssaddr = (. - 0x10000000)
                0x0000000001d3af00                iramcopy = (. - 0x10000000)

/DISCARD/
 *(.eh_frame)

.bss            0x0000000001d3af00   0x144cfc
                0x0000000001d3af00                plugin_bss_start = .
                0x0000000001d3af00                _plugin_bss_start = .
 *(.bss*)
 .bss           0x0000000001d3af00   0x100008 /home/jbrawley/Desktop/rockbox-photo-cf-support/build/apps/plugins/sdl/main.o
                0x0000000001d3af04                audiobuf
 .bss           0x0000000001e3af08       0x2c /home/jbrawley/Desktop/rockbox-photo-cf-support/build/apps/plugins/sdl/wrappers.o
 .bss           0x0000000001e3af34        0x8 /home/jbrawley/Desktop/rockbox-photo-cf-support/build/apps/plugins/sdl/src/SDL.o
 .bss           0x0000000001e3af3c      0x400 /home/jbrawley/Desktop/rockbox-photo-cf-support/build/apps/plugins/sdl/src/SDL_error.o
 .bss           0x0000000001e3b33c        0xc /home/jbrawley/Desktop/rockbox-photo-cf-support/build/apps/plugins/sdl/src/audio/SDL_audio.o
                0x0000000001e3b33c                current_audio
 .bss           0x0000000001e3b348       0x64 /home/jbrawley/Desktop/rockbox-photo-cf-support/build/apps/plugins/sdl/src/audio/SDL_wave.o
 .bss           0x0000000001e3b3ac      0x804 /home/jbrawley/Desktop/rockbox-photo-cf-support/build/apps/plugins/sdl/src/audio/rockbox/SDL_rockboxaudio.o
                0x0000000001e3bbac                current_dev
 .bss           0x0000000001e3bbb0        0x1 /home/jbrawley/Desktop/rockbox-photo-cf-support/build/apps/plugins/sdl/src/events/SDL_active.o
 *fill*         0x0000000001e3bbb1        0x3 
 .bss           0x0000000001e3bbb4      0xc2c /home/jbrawley/Desktop/rockbox-photo-cf-support/build/apps/plugins/sdl/src/events/SDL_events.o
                0x0000000001e3c7d8                rb_SDL_EventOK
 .bss           0x0000000001e3c7e0      0x658 /home/jbrawley/Desktop/rockbox-photo-cf-support/build/apps/plugins/sdl/src/events/SDL_keyboard.o
                0x0000000001e3c7e0                rb_SDL_TranslateUNICODE
 .bss           0x0000000001e3ce38        0xd /home/jbrawley/Desktop/rockbox-photo-cf-support/build/apps/plugins/sdl/src/events/SDL_mouse.o
 *fill*         0x0000000001e3ce45        0x3 
 .bss           0x0000000001e3ce48        0x8 /home/jbrawley/Desktop/rockbox-photo-cf-support/build/apps/plugins/sdl/src/events/SDL_resize.o
 .bss           0x0000000001e3ce50        0xc /home/jbrawley/Desktop/rockbox-photo-cf-support/build/apps/plugins/sdl/src/joystick/SDL_joystick.o
                0x0000000001e3ce50                rb_SDL_numjoysticks
                0x0000000001e3ce54                rb_SDL_allocatedjoysticks
                0x0000000001e3ce58                rb_SDL_joysticks
 .bss           0x0000000001e3ce5c        0x4 /home/jbrawley/Desktop/rockbox-photo-cf-support/build/apps/plugins/sdl/src/stdlib/SDL_getenv.o
 .bss           0x0000000001e3ce60      0x31c /home/jbrawley/Desktop/rockbox-photo-cf-support/build/apps/plugins/sdl/src/thread/SDL_thread.o
 .bss           0x0000000001e3d17c     0x4048 /home/jbrawley/Desktop/rockbox-photo-cf-support/build/apps/plugins/sdl/src/thread/rockbox/SDL_systhread.o
 .bss           0x0000000001e411c4       0x1c /home/jbrawley/Desktop/rockbox-photo-cf-support/build/apps/plugins/sdl/src/timer/SDL_timer.o
                0x0000000001e411c4                rb_SDL_timer_started
                0x0000000001e411d0                rb_SDL_timer_running
                0x0000000001e411dc                rb_SDL_alarm_interval
 .bss           0x0000000001e411e0        0xc /home/jbrawley/Desktop/rockbox-photo-cf-support/build/apps/plugins/sdl/src/timer/rockbox/SDL_systimer.o
 .bss           0x0000000001e411ec       0x10 /home/jbrawley/Desktop/rockbox-photo-cf-support/build/apps/plugins/sdl/src/video/SDL_cursor.o
                0x0000000001e411ec                rb_SDL_cursor
                0x0000000001e411f4                rb_SDL_cursorlock
 .bss           0x0000000001e411fc        0x4 /home/jbrawley/Desktop/rockbox-photo-cf-support/build/apps/plugins/sdl/src/video/SDL_pixels.o
 .bss           0x0000000001e41200        0x4 /home/jbrawley/Desktop/rockbox-photo-cf-support/build/apps/plugins/sdl/src/video/SDL_video.o
                0x0000000001e41200                current_video
 .bss           0x0000000001e41204        0x9 /home/jbrawley/Desktop/rockbox-photo-cf-support/build/apps/plugins/sdl/src/video/rockbox/SDL_rockboxvideo.o
 *fill*         0x0000000001e4120d        0x3 
 .bss           0x0000000001e41210       0x12 /home/jbrawley/Desktop/rockbox-photo-cf-support/build/apps/plugins/sdl/SDL_mixer/effect_position.o
 *fill*         0x0000000001e41222        0x2 
 .bss           0x0000000001e41224        0x8 /home/jbrawley/Desktop/rockbox-photo-cf-support/build/apps/plugins/sdl/SDL_mixer/effects_internal.o
                0x0000000001e41224                _Mix_effects_max_speed
                0x0000000001e41228                _Eff_volume_table
 .bss           0x0000000001e4122c       0x4c /home/jbrawley/Desktop/rockbox-photo-cf-support/build/apps/plugins/sdl/SDL_mixer/mixer.o
 .bss           0x0000000001e41278       0x2c /home/jbrawley/Desktop/rockbox-photo-cf-support/build/apps/plugins/sdl/SDL_mixer/music.o
                0x0000000001e412a0                soundfont_paths
 .bss           0x0000000001e412a4        0x4 /home/jbrawley/Desktop/rockbox-photo-cf-support/build/apps/plugins/sdl/SDL_mixer/timidity/common.o
 .bss           0x0000000001e412a8     0x3024 /home/jbrawley/Desktop/rockbox-photo-cf-support/build/apps/plugins/sdl/SDL_mixer/timidity/instrum.o
                0x0000000001e412a8                current_patch_memory
                0x0000000001e412ac                last_tune_purged
                0x0000000001e412b0                current_tune_number
                0x0000000001e412b4                fast_decay
                0x0000000001e412b8                antialiasing_allowed
                0x0000000001e442c4                default_instrument
                0x0000000001e442c8                default_program
 .bss           0x0000000001e442cc       0x38 /home/jbrawley/Desktop/rockbox-photo-cf-support/build/apps/plugins/sdl/SDL_mixer/timidity/playmidi.o
                0x0000000001e442e0                XG_System_On
                0x0000000001e442f4                adjust_panning_immediately
                0x0000000001e442f8                GS_System_On
                0x0000000001e442fc                GM_System_On
                0x0000000001e44300                control_ratio
 .bss           0x0000000001e44304       0xd0 /home/jbrawley/Desktop/rockbox-photo-cf-support/build/apps/plugins/sdl/SDL_mixer/timidity/readmidi.o
                0x0000000001e44314                quietchannels
 .bss           0x0000000001e443d4      0x510 /home/jbrawley/Desktop/rockbox-photo-cf-support/build/apps/plugins/sdl/SDL_mixer/timidity/timidity.o
                0x0000000001e444d8                resample_buffer
                0x0000000001e444dc                common_buffer
                0x0000000001e444e0                timidity_error
                0x0000000001e448e0                free_instruments_afterwards
 .bss           0x0000000001e448e4     0xa008 /home/jbrawley/Desktop/rockbox-photo-cf-support/build/apps/plugins/sdl/progs/wolf3d/fmopl_gpl.o
 .bss           0x0000000001e4e8ec     0x1380 /home/jbrawley/Desktop/rockbox-photo-cf-support/build/apps/plugins/sdl/progs/wolf3d/id_ca.o
                0x0000000001e4eb74                numEpisodesMissing
 .bss           0x0000000001e4fc6c        0xc /home/jbrawley/Desktop/rockbox-photo-cf-support/build/apps/plugins/sdl/progs/wolf3d/id_in.o
 .bss           0x0000000001e4fc78        0x1 /home/jbrawley/Desktop/rockbox-photo-cf-support/build/apps/plugins/sdl/progs/wolf3d/id_pm.o
                0x0000000001e4fc78                PMSoundInfoPagePadded
 *fill*         0x0000000001e4fc79        0x3 
 .bss           0x0000000001e4fc7c      0x325 /home/jbrawley/Desktop/rockbox-photo-cf-support/build/apps/plugins/sdl/progs/wolf3d/id_sd.o
                0x0000000001e4fc7c                OPL_ptr
                0x0000000001e4fc80                numreadysamples
                0x0000000001e4fc88                curAlSound
                0x0000000001e4fc8c                curAlSoundPtr
                0x0000000001e4fc90                curAlLengthLeft
 *fill*         0x0000000001e4ffa1        0x3 
 .bss           0x0000000001e4ffa4        0x9 /home/jbrawley/Desktop/rockbox-photo-cf-support/build/apps/plugins/sdl/progs/wolf3d/id_us_1.o
                0x0000000001e4ffa8                rndindex
 *fill*         0x0000000001e4ffad        0x3 
 .bss           0x0000000001e4ffb0        0x8 /home/jbrawley/Desktop/rockbox-photo-cf-support/build/apps/plugins/sdl/progs/wolf3d/id_vh.o
 .bss           0x0000000001e4ffb8        0xc /home/jbrawley/Desktop/rockbox-photo-cf-support/build/apps/plugins/sdl/progs/wolf3d/id_vl.o
                0x0000000001e4ffb8                screen
                0x0000000001e4ffbc                screenBuffer
                0x0000000001e4ffc0                curSurface
 .bss           0x0000000001e4ffc4       0x11 /home/jbrawley/Desktop/rockbox-photo-cf-support/build/apps/plugins/sdl/progs/wolf3d/wl_act2.o
                0x0000000001e4ffc4                s_deathcam
 *fill*         0x0000000001e4ffd5        0x3 
 .bss           0x0000000001e4ffd8        0x8 /home/jbrawley/Desktop/rockbox-photo-cf-support/build/apps/plugins/sdl/progs/wolf3d/wl_agent.o
                0x0000000001e4ffd8                facetimes
                0x0000000001e4ffdc                facecount
 .bss           0x0000000001e4ffe0       0x14 /home/jbrawley/Desktop/rockbox-photo-cf-support/build/apps/plugins/sdl/progs/wolf3d/wl_draw.o
                0x0000000001e4ffe0                vbufPitch
                0x0000000001e4ffe8                fps
                0x0000000001e4ffec                fps_frames
                0x0000000001e4fff0                fps_time
 .bss           0x0000000001e4fff4        0x8 /home/jbrawley/Desktop/rockbox-photo-cf-support/build/apps/plugins/sdl/progs/wolf3d/wl_inter.o
                0x0000000001e4fff4                lastBreathTime
 .bss           0x0000000001e4fffc      0x112 /home/jbrawley/Desktop/rockbox-photo-cf-support/build/apps/plugins/sdl/progs/wolf3d/wl_main.o
                0x0000000001e50000                configdir
                0x0000000001e50100                param_nowait
                0x0000000001e50101                param_debugmode
                0x0000000001e50104                param_joystickindex
                0x0000000001e50108                param_mission
                0x0000000001e5010c                param_goodtimes
                0x0000000001e5010d                param_ignorenumchunks
 *fill*         0x0000000001e5010e        0x2 
 .bss           0x0000000001e50110      0x178 /home/jbrawley/Desktop/rockbox-photo-cf-support/build/apps/plugins/sdl/progs/wolf3d/wl_menu.o
 .bss           0x0000000001e50288       0x10 /home/jbrawley/Desktop/rockbox-photo-cf-support/build/apps/plugins/sdl/progs/wolf3d/wl_play.o
                0x0000000001e50290                extravbls
                0x0000000001e50294                lastgamemusicoffset
 .bss           0x0000000001e50298       0x9c /home/jbrawley/Desktop/rockbox-photo-cf-support/build/apps/plugins/sdl/progs/wolf3d/wl_text.o
 .bss           0x0000000001e50334       0x60 /home/jbrawley/Desktop/rockbox-photo-cf-support/build/apps/plugins/plugin_crt0.o
 .bss           0x0000000001e50394        0x4 /home/jbrawley/Desktop/rockbox-photo-cf-support/build/lib/libtlsf.a(tlsf.o)
 *(COMMON)
 COMMON         0x0000000001e50398       0x10 /home/jbrawley/Desktop/rockbox-photo-cf-support/build/apps/plugins/sdl/main.o
                0x0000000001e50398                sdl_thread_id
                0x0000000001e5039c                main_thread_id
                0x0000000001e503a0                prog_idx
                0x0000000001e503a4                main_fn
 COMMON         0x0000000001e503a8        0x4 /home/jbrawley/Desktop/rockbox-photo-cf-support/build/apps/plugins/sdl/src/audio/rockbox/SDL_rockboxaudio.o
                0x0000000001e503a8                rbaud_underruns
 COMMON         0x0000000001e503ac       0x20 /home/jbrawley/Desktop/rockbox-photo-cf-support/build/apps/plugins/sdl/src/events/SDL_events.o
                0x0000000001e503ac                rb_SDL_ProcessEvents
 COMMON         0x0000000001e503cc       0x20 /home/jbrawley/Desktop/rockbox-photo-cf-support/build/apps/plugins/sdl/src/events/SDL_keyboard.o
                0x0000000001e503cc                rb_SDL_KeyRepeat
 COMMON         0x0000000001e503ec        0x4 /home/jbrawley/Desktop/rockbox-photo-cf-support/build/apps/plugins/sdl/src/timer/SDL_timer.o
                0x0000000001e503ec                rb_SDL_alarm_callback
 COMMON         0x0000000001e503f0       0x58 /home/jbrawley/Desktop/rockbox-photo-cf-support/build/apps/plugins/sdl/src/video/rockbox/SDL_rockboxvideo.o
                0x0000000001e503f0                rb_keymap
 COMMON         0x0000000001e50448      0x400 /home/jbrawley/Desktop/rockbox-photo-cf-support/build/apps/plugins/sdl/SDL_mixer/timidity/common.o
                0x0000000001e50448                current_filename
 COMMON         0x0000000001e50848    0x1ed98 /home/jbrawley/Desktop/rockbox-photo-cf-support/build/apps/plugins/sdl/SDL_mixer/timidity/playmidi.o
                0x0000000001e50848                drumvolume
                0x0000000001e51048                master_volume
                0x0000000001e51050                voice
                0x0000000001e6d850                XG_System_chorus_type
                0x0000000001e6d854                drumreverberation
                0x0000000001e6e054                drumchorusdepth
                0x0000000001e6e858                channel
                0x0000000001e6edd8                drumpanpot
                0x0000000001e6f5d8                XG_System_variation_type
                0x0000000001e6f5dc                XG_System_reverb_type
 COMMON         0x0000000001e6f5e0      0x105 /home/jbrawley/Desktop/rockbox-photo-cf-support/build/apps/plugins/sdl/SDL_mixer/timidity/readmidi.o
                0x0000000001e6f5e0                midi_name
 *fill*         0x0000000001e6f6e5        0x3 
 COMMON         0x0000000001e6f6e8        0xc /home/jbrawley/Desktop/rockbox-photo-cf-support/build/apps/plugins/sdl/SDL_mixer/timidity/timidity.o
                0x0000000001e6f6e8                AUDIO_BUFFER_SIZE
                0x0000000001e6f6ec                num_ochannels
                0x0000000001e6f6f0                s32tobuf
 COMMON         0x0000000001e6f6f4      0xb30 /home/jbrawley/Desktop/rockbox-photo-cf-support/build/apps/plugins/sdl/progs/wolf3d/id_ca.o
                0x0000000001e6f6f4                audioext
                0x0000000001e6f6fc                grhuffman
                0x0000000001e6faf8                mapsegs
                0x0000000001e6fb00                oldsoundmode
                0x0000000001e6fb04                audiosegs
                0x0000000001e6ff84                chunkexplen
                0x0000000001e6ff88                grsegs
                0x0000000001e7020c                mapon
                0x0000000001e70210                graphext
                0x0000000001e70216                RLEWtag
                0x0000000001e70218                extension
                0x0000000001e70220                chunkcomplen
 COMMON         0x0000000001e70224      0x166 /home/jbrawley/Desktop/rockbox-photo-cf-support/build/apps/plugins/sdl/progs/wolf3d/id_in.o
                0x0000000001e70224                btnstate
                0x0000000001e70238                Keyboard
                0x0000000001e7037b                MousePresent
                0x0000000001e7037c                LastASCII
                0x0000000001e70380                LastScan
                0x0000000001e70384                JoyNumButtons
                0x0000000001e70388                Paused
                0x0000000001e70389                forcegrabmouse
 *fill*         0x0000000001e7038a        0x2 
 COMMON         0x0000000001e7038c       0x18 /home/jbrawley/Desktop/rockbox-photo-cf-support/build/apps/plugins/sdl/progs/wolf3d/id_pm.o
                0x0000000001e7038c                ChunksInFile
                0x0000000001e70390                PMPageDataSize
                0x0000000001e70394                PMPageData
                0x0000000001e70398                PMSpriteStart
                0x0000000001e7039c                PMSoundStart
                0x0000000001e703a0                PMPages
 COMMON         0x0000000001e703a4      0x326 /home/jbrawley/Desktop/rockbox-photo-cf-support/build/apps/plugins/sdl/progs/wolf3d/id_sd.o
                0x0000000001e703a4                AdLibPresent
                0x0000000001e703a5                MusicMode
                0x0000000001e703a6                SoundPositioned
                0x0000000001e703a7                DigiMode
                0x0000000001e703a8                DigiMap
                0x0000000001e70504                SoundMode
                0x0000000001e70506                NumDigi
                0x0000000001e70508                DigiChannel
                0x0000000001e70664                channelSoundPos
                0x0000000001e706c4                samplesPerMusicTick
                0x0000000001e706c8                SBProPresent
                0x0000000001e706c9                SoundBlasterPresent
 *fill*         0x0000000001e706ca        0x2 
 COMMON         0x0000000001e706cc      0x10a /home/jbrawley/Desktop/rockbox-photo-cf-support/build/apps/plugins/sdl/progs/wolf3d/id_us_1.o
                0x0000000001e706cc                PrintX
                0x0000000001e706ce                WindowH
                0x0000000001e706d0                WindowY
                0x0000000001e706d2                WindowX
                0x0000000001e706d4                PrintY
                0x0000000001e706d8                Games
                0x0000000001e707d4                WindowW
 *fill*         0x0000000001e707d6        0x2 
 COMMON         0x0000000001e707d8      0x1a8 /home/jbrawley/Desktop/rockbox-photo-cf-support/build/apps/plugins/sdl/progs/wolf3d/id_vh.o
                0x0000000001e707d8                fontcolor
                0x0000000001e707dc                py
                0x0000000001e707e0                latchpics
                0x0000000001e70970                backcolor
                0x0000000001e70974                fontnumber
                0x0000000001e70978                pictable
                0x0000000001e7097c                px
 COMMON         0x0000000001e70980      0xc18 /home/jbrawley/Desktop/rockbox-photo-cf-support/build/apps/plugins/sdl/progs/wolf3d/id_vl.o
                0x0000000001e70980                palette1
                0x0000000001e70d80                scaleFactor
                0x0000000001e70d84                bordercolor
                0x0000000001e70d88                screenPitch
                0x0000000001e70d8c                palette2
                0x0000000001e7118c                curPitch
                0x0000000001e71190                screenfaded
                0x0000000001e71194                curpal
                0x0000000001e71594                bufferPitch
 COMMON         0x0000000001e71598     0x1c2c /home/jbrawley/Desktop/rockbox-photo-cf-support/build/apps/plugins/sdl/progs/wolf3d/wl_act1.o
                0x0000000001e71598                pwalltile
                0x0000000001e7159c                areaconnect
                0x0000000001e71af6                doornum
                0x0000000001e71af8                pwallpos
                0x0000000001e71afc                doorposition
                0x0000000001e71b7c                laststatobj
                0x0000000001e71b80                pwally
                0x0000000001e71b82                pwalldir
                0x0000000001e71b84                statobjlist
                0x0000000001e72fd4                doorobjlist
                0x0000000001e73194                pwallstate
                0x0000000001e73198                lastdoorobj
                0x0000000001e7319c                areabyplayer
                0x0000000001e731c2                pwallx
 COMMON         0x0000000001e731c4        0xe /home/jbrawley/Desktop/rockbox-photo-cf-support/build/apps/plugins/sdl/progs/wolf3d/wl_agent.o
                0x0000000001e731c4                plux
                0x0000000001e731c6                pluy
                0x0000000001e731c8                LastAttacker
                0x0000000001e731cc                thrustspeed
                0x0000000001e731d0                anglefrac
 *fill*         0x0000000001e731d2        0x2 
 COMMON         0x0000000001e731d4     0x1e80 /home/jbrawley/Desktop/rockbox-photo-cf-support/build/apps/plugins/sdl/progs/wolf3d/wl_draw.o
                0x0000000001e731d4                pixelangle
                0x0000000001e731d8                farthest
                0x0000000001e731dc                ytilestep
                0x0000000001e731e0                ypartialdown
                0x0000000001e731e4                viewcos
                0x0000000001e731e8                lasttexture
                0x0000000001e731ec                postwidth
                0x0000000001e731f0                vertwall
                0x0000000001e73270                viewy
                0x0000000001e73274                focalty
                0x0000000001e73278                postsource
                0x0000000001e7327c                tilehit
                0x0000000001e7327e                ytile
                0x0000000001e73280                min_wallheight
                0x0000000001e73284                xtilestep
                0x0000000001e73286                viewty
                0x0000000001e73288                visstep
                0x0000000001e7328c                pixx
                0x0000000001e73290                horizwall
                0x0000000001e73310                xtile
                0x0000000001e73312                xspot
                0x0000000001e73314                xstep
                0x0000000001e73318                vislist
                0x0000000001e73ae8                viewsin
                0x0000000001e73aec                midangle
                0x0000000001e73aee                viewtx
                0x0000000001e73af0                lasttimecount
                0x0000000001e73af4                lastside
                0x0000000001e73af8                xpartialup
                0x0000000001e73afc                fpscounter
                0x0000000001e73afe                angle
                0x0000000001e73b00                texdelta
                0x0000000001e73b04                lasttilehit
                0x0000000001e73b08                ypartialup
                0x0000000001e73b0c                wallheight
                0x0000000001e73b10                ystep
                0x0000000001e73b14                sintable
                0x0000000001e7421c                finetangent
                0x0000000001e7502c                lastintercept
                0x0000000001e75030                yspot
                0x0000000001e75032                viewangle
                0x0000000001e75034                viewx
                0x0000000001e75038                frameon
                0x0000000001e7503c                xintercept
                0x0000000001e75040                visptr
                0x0000000001e75044                postx
                0x0000000001e75048                focaltx
                0x0000000001e7504c                yintercept
                0x0000000001e75050                xpartialdown
 COMMON         0x0000000001e75054       0x50 /home/jbrawley/Desktop/rockbox-photo-cf-support/build/apps/plugins/sdl/progs/wolf3d/wl_game.o
                0x0000000001e75054                ingame
                0x0000000001e75058                leftchannel
                0x0000000001e7505c                fizzlein
                0x0000000001e75060                gamestate
                0x0000000001e750a0                rightchannel
 COMMON         0x0000000001e750a4       0x80 /home/jbrawley/Desktop/rockbox-photo-cf-support/build/apps/plugins/sdl/progs/wolf3d/wl_inter.o
                0x0000000001e750a4                LevelRatios
 COMMON         0x0000000001e75124       0x84 /home/jbrawley/Desktop/rockbox-photo-cf-support/build/apps/plugins/sdl/progs/wolf3d/wl_main.o
                0x0000000001e75124                shootdelta
                0x0000000001e75128                startgame
                0x0000000001e7512c                viewwidth
                0x0000000001e75130                mouseadjustment
                0x0000000001e75134                centerx
                0x0000000001e75138                heightnumerator
                0x0000000001e7513c                viewscreenx
                0x0000000001e75140                focallength
                0x0000000001e75144                screenofs
                0x0000000001e75148                viewheight
                0x0000000001e7514c                loadedgame
                0x0000000001e75150                str
                0x0000000001e751a0                scale
                0x0000000001e751a4                viewscreeny
 COMMON         0x0000000001e751a8     0xaa54 /home/jbrawley/Desktop/rockbox-photo-cf-support/build/apps/plugins/sdl/progs/wolf3d/wl_play.o
                0x0000000001e751a8                godmode
                0x0000000001e751ac                joystickenabled
                0x0000000001e751b0                redshifts
                0x0000000001e769b0                objfreelist
                0x0000000001e769b4                tilemap
                0x0000000001e779b4                damagecount
                0x0000000001e779b8                controlx
                0x0000000001e779bc                killerobj
                0x0000000001e779c0                player
                0x0000000001e779c4                demorecord
                0x0000000001e779c8                lastobj
                0x0000000001e779cc                buttonstate
                0x0000000001e779e0                demobuffer
                0x0000000001e779e4                lastdemoptr
                0x0000000001e779e8                viewsize
                0x0000000001e779ec                playstate
                0x0000000001e779f0                objcount
                0x0000000001e779f4                whiteshifts
                0x0000000001e785f4                madenoise
                0x0000000001e785f8                dummyobj
                0x0000000001e78638                obj
                0x0000000001e7863c                demoplayback
                0x0000000001e78640                demoptr
                0x0000000001e78644                singlestep
                0x0000000001e78648                newobj
                0x0000000001e7864c                buttonheld
                0x0000000001e78660                objlist
                0x0000000001e7abe0                bonuscount
                0x0000000001e7abe4                controly
                0x0000000001e7abe8                mouseenabled
                0x0000000001e7abec                funnyticount
                0x0000000001e7abf0                ammocheat
                0x0000000001e7abf1                noclip
                0x0000000001e7abf4                spotvis
                0x0000000001e7bbf4                palshifted
                0x0000000001e7bbf8                actorat
                0x0000000001e7fbf8                tics
                0x0000000001e7fbfc                . = ALIGN (0x4)

.ncbss          0x0000000011e7fbfc        0x4 load address 0x0000000001e7fbfc
                0x0000000011e7fc00                . = ALIGN (0x10)
 *fill*         0x0000000011e7fbfc        0x4 
 *(.ncbss*)
                0x0000000011e7fc00                . = ALIGN (0x10)
                0x0000000001e7fc00                pluginendaddr = (. - 0x10000000)

.pluginend      0x0000000001e7fc00        0x0
                0x0000000001e7fc00                _plugin_end_addr = .
                0x0000000001e7fc00                plugin_end_addr = .

.iram           0x000000004000c000        0x0 load address 0x0000000001d3af00
                0x000000004000c000                iramstart = .
 *(.icode)
 *(.irodata)
 *(.idata)
                0x000000004000c000                iramend = .

.ibss           0x000000004000c000        0x0
                0x000000004000c000                iedata = .
 *(.ibss)
                0x000000004000c000                . = ALIGN (0x4)
                0x000000004000c000                iend = .
                0x0000000001e7fc00                loadendaddr = MAX (plugin_end_addr, (LOADADDR (.iram) + SIZEOF (.iram)))

.pluginloadend  0x0000000001e7fc00        0x0
                0x0000000001e7fc00                _plugin_load_end_addr = .
                0x0000000001e7fc00                plugin_load_end_addr = .

.comment        0x0000000000000000       0x11
 *(.comment)
 .comment       0x0000000000000000       0x11 /home/jbrawley/Desktop/rockbox-photo-cf-support/build/apps/plugins/sdl/main.o
                                         0x12 (size before relaxing)
 .comment       0x0000000000000011       0x12 /home/jbrawley/Desktop/rockbox-photo-cf-support/build/apps/plugins/sdl/wrappers.o
 .comment       0x0000000000000011       0x12 /home/jbrawley/Desktop/rockbox-photo-cf-support/build/apps/plugins/sdl/src/SDL.o
 .comment       0x0000000000000011       0x12 /home/jbrawley/Desktop/rockbox-photo-cf-support/build/apps/plugins/sdl/src/SDL_error.o
 .comment       0x0000000000000011       0x12 /home/jbrawley/Desktop/rockbox-photo-cf-support/build/apps/plugins/sdl/src/SDL_fatal.o
 .comment       0x0000000000000011       0x12 /home/jbrawley/Desktop/rockbox-photo-cf-support/build/apps/plugins/sdl/src/audio/SDL_audio.o
 .comment       0x0000000000000011       0x12 /home/jbrawley/Desktop/rockbox-photo-cf-support/build/apps/plugins/sdl/src/audio/SDL_audiocvt.o
 .comment       0x0000000000000011       0x12 /home/jbrawley/Desktop/rockbox-photo-cf-support/build/apps/plugins/sdl/src/audio/SDL_audiodev.o
 .comment       0x0000000000000011       0x12 /home/jbrawley/Desktop/rockbox-photo-cf-support/build/apps/plugins/sdl/src/audio/SDL_mixer.o
 .comment       0x0000000000000011       0x12 /home/jbrawley/Desktop/rockbox-photo-cf-support/build/apps/plugins/sdl/src/audio/SDL_mixer_MMX.o
 .comment       0x0000000000000011       0x12 /home/jbrawley/Desktop/rockbox-photo-cf-support/build/apps/plugins/sdl/src/audio/SDL_mixer_MMX_VC.o
 .comment       0x0000000000000011       0x12 /home/jbrawley/Desktop/rockbox-photo-cf-support/build/apps/plugins/sdl/src/audio/SDL_mixer_m68k.o
 .comment       0x0000000000000011       0x12 /home/jbrawley/Desktop/rockbox-photo-cf-support/build/apps/plugins/sdl/src/audio/SDL_wave.o
 .comment       0x0000000000000011       0x12 /home/jbrawley/Desktop/rockbox-photo-cf-support/build/apps/plugins/sdl/src/audio/rockbox/SDL_rockboxaudio.o
 .comment       0x0000000000000011       0x12 /home/jbrawley/Desktop/rockbox-photo-cf-support/build/apps/plugins/sdl/src/cdrom/SDL_cdrom.o
 .comment       0x0000000000000011       0x12 /home/jbrawley/Desktop/rockbox-photo-cf-support/build/apps/plugins/sdl/src/cdrom/dummy/SDL_syscdrom.o
 .comment       0x0000000000000011       0x12 /home/jbrawley/Desktop/rockbox-photo-cf-support/build/apps/plugins/sdl/src/cpuinfo/SDL_cpuinfo.o
 .comment       0x0000000000000011       0x12 /home/jbrawley/Desktop/rockbox-photo-cf-support/build/apps/plugins/sdl/src/events/SDL_active.o
 .comment       0x0000000000000011       0x12 /home/jbrawley/Desktop/rockbox-photo-cf-support/build/apps/plugins/sdl/src/events/SDL_events.o
 .comment       0x0000000000000011       0x12 /home/jbrawley/Desktop/rockbox-photo-cf-support/build/apps/plugins/sdl/src/events/SDL_expose.o
 .comment       0x0000000000000011       0x12 /home/jbrawley/Desktop/rockbox-photo-cf-support/build/apps/plugins/sdl/src/events/SDL_keyboard.o
 .comment       0x0000000000000011       0x12 /home/jbrawley/Desktop/rockbox-photo-cf-support/build/apps/plugins/sdl/src/events/SDL_mouse.o
 .comment       0x0000000000000011       0x12 /home/jbrawley/Desktop/rockbox-photo-cf-support/build/apps/plugins/sdl/src/events/SDL_quit.o
 .comment       0x0000000000000011       0x12 /home/jbrawley/Desktop/rockbox-photo-cf-support/build/apps/plugins/sdl/src/events/SDL_resize.o
 .comment       0x0000000000000011       0x12 /home/jbrawley/Desktop/rockbox-photo-cf-support/build/apps/plugins/sdl/src/file/SDL_rwops.o
 .comment       0x0000000000000011       0x12 /home/jbrawley/Desktop/rockbox-photo-cf-support/build/apps/plugins/sdl/src/joystick/SDL_joystick.o
 .comment       0x0000000000000011       0x12 /home/jbrawley/Desktop/rockbox-photo-cf-support/build/apps/plugins/sdl/src/joystick/dummy/SDL_sysjoystick.o
 .comment       0x0000000000000011       0x12 /home/jbrawley/Desktop/rockbox-photo-cf-support/build/apps/plugins/sdl/src/loadso/dummy/SDL_sysloadso.o
 .comment       0x0000000000000011       0x12 /home/jbrawley/Desktop/rockbox-photo-cf-support/build/apps/plugins/sdl/src/stdlib/SDL_getenv.o
 .comment       0x0000000000000011       0x12 /home/jbrawley/Desktop/rockbox-photo-cf-support/build/apps/plugins/sdl/src/stdlib/SDL_iconv.o
 .comment       0x0000000000000011       0x12 /home/jbrawley/Desktop/rockbox-photo-cf-support/build/apps/plugins/sdl/src/stdlib/SDL_malloc.o
 .comment       0x0000000000000011       0x12 /home/jbrawley/Desktop/rockbox-photo-cf-support/build/apps/plugins/sdl/src/stdlib/SDL_qsort.o
 .comment       0x0000000000000011       0x12 /home/jbrawley/Desktop/rockbox-photo-cf-support/build/apps/plugins/sdl/src/stdlib/SDL_stdlib.o
 .comment       0x0000000000000011       0x12 /home/jbrawley/Desktop/rockbox-photo-cf-support/build/apps/plugins/sdl/src/stdlib/SDL_string.o
 .comment       0x0000000000000011       0x12 /home/jbrawley/Desktop/rockbox-photo-cf-support/build/apps/plugins/sdl/src/thread/SDL_thread.o
 .comment       0x0000000000000011       0x12 /home/jbrawley/Desktop/rockbox-photo-cf-support/build/apps/plugins/sdl/src/thread/rockbox/SDL_syscond.o
 .comment       0x0000000000000011       0x12 /home/jbrawley/Desktop/rockbox-photo-cf-support/build/apps/plugins/sdl/src/thread/rockbox/SDL_sysmutex.o
 .comment       0x0000000000000011       0x12 /home/jbrawley/Desktop/rockbox-photo-cf-support/build/apps/plugins/sdl/src/thread/rockbox/SDL_syssem.o
 .comment       0x0000000000000011       0x12 /home/jbrawley/Desktop/rockbox-photo-cf-support/build/apps/plugins/sdl/src/thread/rockbox/SDL_systhread.o
 .comment       0x0000000000000011       0x12 /home/jbrawley/Desktop/rockbox-photo-cf-support/build/apps/plugins/sdl/src/timer/SDL_timer.o
 .comment       0x0000000000000011       0x12 /home/jbrawley/Desktop/rockbox-photo-cf-support/build/apps/plugins/sdl/src/timer/rockbox/SDL_systimer.o
 .comment       0x0000000000000011       0x12 /home/jbrawley/Desktop/rockbox-photo-cf-support/build/apps/plugins/sdl/src/video/SDL_RLEaccel.o
 .comment       0x0000000000000011       0x12 /home/jbrawley/Desktop/rockbox-photo-cf-support/build/apps/plugins/sdl/src/video/SDL_blit.o
 .comment       0x0000000000000011       0x12 /home/jbrawley/Desktop/rockbox-photo-cf-support/build/apps/plugins/sdl/src/video/SDL_blit_0.o
 .comment       0x0000000000000011       0x12 /home/jbrawley/Desktop/rockbox-photo-cf-support/build/apps/plugins/sdl/src/video/SDL_blit_1.o
 .comment       0x0000000000000011       0x12 /home/jbrawley/Desktop/rockbox-photo-cf-support/build/apps/plugins/sdl/src/video/SDL_blit_A.o
 .comment       0x0000000000000011       0x12 /home/jbrawley/Desktop/rockbox-photo-cf-support/build/apps/plugins/sdl/src/video/SDL_blit_N.o
 .comment       0x0000000000000011       0x12 /home/jbrawley/Desktop/rockbox-photo-cf-support/build/apps/plugins/sdl/src/video/SDL_bmp.o
 .comment       0x0000000000000011       0x12 /home/jbrawley/Desktop/rockbox-photo-cf-support/build/apps/plugins/sdl/src/video/SDL_cursor.o
 .comment       0x0000000000000011       0x12 /home/jbrawley/Desktop/rockbox-photo-cf-support/build/apps/plugins/sdl/src/video/SDL_gamma.o
 .comment       0x0000000000000011       0x12 /home/jbrawley/Desktop/rockbox-photo-cf-support/build/apps/plugins/sdl/src/video/SDL_pixels.o
 .comment       0x0000000000000011       0x12 /home/jbrawley/Desktop/rockbox-photo-cf-support/build/apps/plugins/sdl/src/video/SDL_stretch.o
 .comment       0x0000000000000011       0x12 /home/jbrawley/Desktop/rockbox-photo-cf-support/build/apps/plugins/sdl/src/video/SDL_surface.o
 .comment       0x0000000000000011       0x12 /home/jbrawley/Desktop/rockbox-photo-cf-support/build/apps/plugins/sdl/src/video/SDL_video.o
 .comment       0x0000000000000011       0x12 /home/jbrawley/Desktop/rockbox-photo-cf-support/build/apps/plugins/sdl/src/video/SDL_yuv.o
 .comment       0x0000000000000011       0x12 /home/jbrawley/Desktop/rockbox-photo-cf-support/build/apps/plugins/sdl/src/video/SDL_yuv_mmx.o
 .comment       0x0000000000000011       0x12 /home/jbrawley/Desktop/rockbox-photo-cf-support/build/apps/plugins/sdl/src/video/SDL_yuv_sw.o
 .comment       0x0000000000000011       0x12 /home/jbrawley/Desktop/rockbox-photo-cf-support/build/apps/plugins/sdl/src/video/dummy/SDL_nullevents.o
 .comment       0x0000000000000011       0x12 /home/jbrawley/Desktop/rockbox-photo-cf-support/build/apps/plugins/sdl/src/video/dummy/SDL_nullmouse.o
 .comment       0x0000000000000011       0x12 /home/jbrawley/Desktop/rockbox-photo-cf-support/build/apps/plugins/sdl/src/video/dummy/SDL_nullvideo.o
 .comment       0x0000000000000011       0x12 /home/jbrawley/Desktop/rockbox-photo-cf-support/build/apps/plugins/sdl/src/video/rockbox/SDL_rockboxvideo.o
 .comment       0x0000000000000011       0x12 /home/jbrawley/Desktop/rockbox-photo-cf-support/build/apps/plugins/sdl/SDL_image/IMG_bmp.o
 .comment       0x0000000000000011       0x12 /home/jbrawley/Desktop/rockbox-photo-cf-support/build/apps/plugins/sdl/SDL_image/IMG.o
 .comment       0x0000000000000011       0x12 /home/jbrawley/Desktop/rockbox-photo-cf-support/build/apps/plugins/sdl/SDL_image/IMG_gif.o
 .comment       0x0000000000000011       0x12 /home/jbrawley/Desktop/rockbox-photo-cf-support/build/apps/plugins/sdl/SDL_image/IMG_jpg.o
 .comment       0x0000000000000011       0x12 /home/jbrawley/Desktop/rockbox-photo-cf-support/build/apps/plugins/sdl/SDL_image/IMG_lbm.o
 .comment       0x0000000000000011       0x12 /home/jbrawley/Desktop/rockbox-photo-cf-support/build/apps/plugins/sdl/SDL_image/IMG_pcx.o
 .comment       0x0000000000000011       0x12 /home/jbrawley/Desktop/rockbox-photo-cf-support/build/apps/plugins/sdl/SDL_image/IMG_png.o
 .comment       0x0000000000000011       0x12 /home/jbrawley/Desktop/rockbox-photo-cf-support/build/apps/plugins/sdl/SDL_image/IMG_pnm.o
 .comment       0x0000000000000011       0x12 /home/jbrawley/Desktop/rockbox-photo-cf-support/build/apps/plugins/sdl/SDL_image/IMG_tga.o
 .comment       0x0000000000000011       0x12 /home/jbrawley/Desktop/rockbox-photo-cf-support/build/apps/plugins/sdl/SDL_image/IMG_tif.o
 .comment       0x0000000000000011       0x12 /home/jbrawley/Desktop/rockbox-photo-cf-support/build/apps/plugins/sdl/SDL_image/IMG_webp.o
 .comment       0x0000000000000011       0x12 /home/jbrawley/Desktop/rockbox-photo-cf-support/build/apps/plugins/sdl/SDL_image/IMG_xcf.o
 .comment       0x0000000000000011       0x12 /home/jbrawley/Desktop/rockbox-photo-cf-support/build/apps/plugins/sdl/SDL_image/IMG_xpm.o
 .comment       0x0000000000000011       0x12 /home/jbrawley/Desktop/rockbox-photo-cf-support/build/apps/plugins/sdl/SDL_image/IMG_xv.o
 .comment       0x0000000000000011       0x12 /home/jbrawley/Desktop/rockbox-photo-cf-support/build/apps/plugins/sdl/SDL_image/IMG_xxx.o
 .comment       0x0000000000000011       0x12 /home/jbrawley/Desktop/rockbox-photo-cf-support/build/apps/plugins/sdl/SDL_mixer/dynamic_flac.o
 .comment       0x0000000000000011       0x12 /home/jbrawley/Desktop/rockbox-photo-cf-support/build/apps/plugins/sdl/SDL_mixer/dynamic_fluidsynth.o
 .comment       0x0000000000000011       0x12 /home/jbrawley/Desktop/rockbox-photo-cf-support/build/apps/plugins/sdl/SDL_mixer/dynamic_mod.o
 .comment       0x0000000000000011       0x12 /home/jbrawley/Desktop/rockbox-photo-cf-support/build/apps/plugins/sdl/SDL_mixer/dynamic_mp3.o
 .comment       0x0000000000000011       0x12 /home/jbrawley/Desktop/rockbox-photo-cf-support/build/apps/plugins/sdl/SDL_mixer/dynamic_ogg.o
 .comment       0x0000000000000011       0x12 /home/jbrawley/Desktop/rockbox-photo-cf-support/build/apps/plugins/sdl/SDL_mixer/effect_position.o
 .comment       0x0000000000000011       0x12 /home/jbrawley/Desktop/rockbox-photo-cf-support/build/apps/plugins/sdl/SDL_mixer/effects_internal.o
 .comment       0x0000000000000011       0x12 /home/jbrawley/Desktop/rockbox-photo-cf-support/build/apps/plugins/sdl/SDL_mixer/effect_stereoreverse.o
 .comment       0x0000000000000011       0x12 /home/jbrawley/Desktop/rockbox-photo-cf-support/build/apps/plugins/sdl/SDL_mixer/fluidsynth.o
 .comment       0x0000000000000011       0x12 /home/jbrawley/Desktop/rockbox-photo-cf-support/build/apps/plugins/sdl/SDL_mixer/load_aiff.o
 .comment       0x0000000000000011       0x12 /home/jbrawley/Desktop/rockbox-photo-cf-support/build/apps/plugins/sdl/SDL_mixer/load_flac.o
 .comment       0x0000000000000011       0x12 /home/jbrawley/Desktop/rockbox-photo-cf-support/build/apps/plugins/sdl/SDL_mixer/load_ogg.o
 .comment       0x0000000000000011       0x12 /home/jbrawley/Desktop/rockbox-photo-cf-support/build/apps/plugins/sdl/SDL_mixer/load_voc.o
 .comment       0x0000000000000011       0x12 /home/jbrawley/Desktop/rockbox-photo-cf-support/build/apps/plugins/sdl/SDL_mixer/mixer.o
 .comment       0x0000000000000011       0x12 /home/jbrawley/Desktop/rockbox-photo-cf-support/build/apps/plugins/sdl/SDL_mixer/music.o
 .comment       0x0000000000000011       0x12 /home/jbrawley/Desktop/rockbox-photo-cf-support/build/apps/plugins/sdl/SDL_mixer/music_cmd.o
 .comment       0x0000000000000011       0x12 /home/jbrawley/Desktop/rockbox-photo-cf-support/build/apps/plugins/sdl/SDL_mixer/music_flac.o
 .comment       0x0000000000000011       0x12 /home/jbrawley/Desktop/rockbox-photo-cf-support/build/apps/plugins/sdl/SDL_mixer/music_mad.o
 .comment       0x0000000000000011       0x12 /home/jbrawley/Desktop/rockbox-photo-cf-support/build/apps/plugins/sdl/SDL_mixer/music_mod.o
 .comment       0x0000000000000011       0x12 /home/jbrawley/Desktop/rockbox-photo-cf-support/build/apps/plugins/sdl/SDL_mixer/music_modplug.o
 .comment       0x0000000000000011       0x12 /home/jbrawley/Desktop/rockbox-photo-cf-support/build/apps/plugins/sdl/SDL_mixer/music_ogg.o
 .comment       0x0000000000000011       0x12 /home/jbrawley/Desktop/rockbox-photo-cf-support/build/apps/plugins/sdl/SDL_mixer/wavestream.o
 .comment       0x0000000000000011       0x12 /home/jbrawley/Desktop/rockbox-photo-cf-support/build/apps/plugins/sdl/SDL_mixer/timidity/common.o
 .comment       0x0000000000000011       0x12 /home/jbrawley/Desktop/rockbox-photo-cf-support/build/apps/plugins/sdl/SDL_mixer/timidity/ctrlmode.o
 .comment       0x0000000000000011       0x12 /home/jbrawley/Desktop/rockbox-photo-cf-support/build/apps/plugins/sdl/SDL_mixer/timidity/filter.o
 .comment       0x0000000000000011       0x12 /home/jbrawley/Desktop/rockbox-photo-cf-support/build/apps/plugins/sdl/SDL_mixer/timidity/instrum.o
 .comment       0x0000000000000011       0x12 /home/jbrawley/Desktop/rockbox-photo-cf-support/build/apps/plugins/sdl/SDL_mixer/timidity/mix.o
 .comment       0x0000000000000011       0x12 /home/jbrawley/Desktop/rockbox-photo-cf-support/build/apps/plugins/sdl/SDL_mixer/timidity/output.o
 .comment       0x0000000000000011       0x12 /home/jbrawley/Desktop/rockbox-photo-cf-support/build/apps/plugins/sdl/SDL_mixer/timidity/playmidi.o
 .comment       0x0000000000000011       0x12 /home/jbrawley/Desktop/rockbox-photo-cf-support/build/apps/plugins/sdl/SDL_mixer/timidity/readmidi.o
 .comment       0x0000000000000011       0x12 /home/jbrawley/Desktop/rockbox-photo-cf-support/build/apps/plugins/sdl/SDL_mixer/timidity/resample.o
 .comment       0x0000000000000011       0x12 /home/jbrawley/Desktop/rockbox-photo-cf-support/build/apps/plugins/sdl/SDL_mixer/timidity/sdl_a.o
 .comment       0x0000000000000011       0x12 /home/jbrawley/Desktop/rockbox-photo-cf-support/build/apps/plugins/sdl/SDL_mixer/timidity/sdl_c.o
 .comment       0x0000000000000011       0x12 /home/jbrawley/Desktop/rockbox-photo-cf-support/build/apps/plugins/sdl/SDL_mixer/timidity/tables.o
 .comment       0x0000000000000011       0x12 /home/jbrawley/Desktop/rockbox-photo-cf-support/build/apps/plugins/sdl/SDL_mixer/timidity/timidity.o
 .comment       0x0000000000000011       0x12 /home/jbrawley/Desktop/rockbox-photo-cf-support/build/apps/plugins/sdl/progs/wolf3d/fmopl_gpl.o
 .comment       0x0000000000000011       0x12 /home/jbrawley/Desktop/rockbox-photo-cf-support/build/apps/plugins/sdl/progs/wolf3d/id_ca.o
 .comment       0x0000000000000011       0x12 /home/jbrawley/Desktop/rockbox-photo-cf-support/build/apps/plugins/sdl/progs/wolf3d/id_in.o
 .comment       0x0000000000000011       0x12 /home/jbrawley/Desktop/rockbox-photo-cf-support/build/apps/plugins/sdl/progs/wolf3d/id_pm.o
 .comment       0x0000000000000011       0x12 /home/jbrawley/Desktop/rockbox-photo-cf-support/build/apps/plugins/sdl/progs/wolf3d/id_sd.o
 .comment       0x0000000000000011       0x12 /home/jbrawley/Desktop/rockbox-photo-cf-support/build/apps/plugins/sdl/progs/wolf3d/id_us_1.o
 .comment       0x0000000000000011       0x12 /home/jbrawley/Desktop/rockbox-photo-cf-support/build/apps/plugins/sdl/progs/wolf3d/id_vh.o
 .comment       0x0000000000000011       0x12 /home/jbrawley/Desktop/rockbox-photo-cf-support/build/apps/plugins/sdl/progs/wolf3d/id_vl.o
 .comment       0x0000000000000011       0x12 /home/jbrawley/Desktop/rockbox-photo-cf-support/build/apps/plugins/sdl/progs/wolf3d/signon.o
 .comment       0x0000000000000011       0x12 /home/jbrawley/Desktop/rockbox-photo-cf-support/build/apps/plugins/sdl/progs/wolf3d/wl_act1.o
 .comment       0x0000000000000011       0x12 /home/jbrawley/Desktop/rockbox-photo-cf-support/build/apps/plugins/sdl/progs/wolf3d/wl_act2.o
 .comment       0x0000000000000011       0x12 /home/jbrawley/Desktop/rockbox-photo-cf-support/build/apps/plugins/sdl/progs/wolf3d/wl_agent.o
 .comment       0x0000000000000011       0x12 /home/jbrawley/Desktop/rockbox-photo-cf-support/build/apps/plugins/sdl/progs/wolf3d/wl_atmos.o
 .comment       0x0000000000000011       0x12 /home/jbrawley/Desktop/rockbox-photo-cf-support/build/apps/plugins/sdl/progs/wolf3d/wl_cloudsky.o
 .comment       0x0000000000000011       0x12 /home/jbrawley/Desktop/rockbox-photo-cf-support/build/apps/plugins/sdl/progs/wolf3d/wl_debug.o
 .comment       0x0000000000000011       0x12 /home/jbrawley/Desktop/rockbox-photo-cf-support/build/apps/plugins/sdl/progs/wolf3d/wl_dir3dspr.o
 .comment       0x0000000000000011       0x12 /home/jbrawley/Desktop/rockbox-photo-cf-support/build/apps/plugins/sdl/progs/wolf3d/wl_draw.o
 .comment       0x0000000000000011       0x12 /home/jbrawley/Desktop/rockbox-photo-cf-support/build/apps/plugins/sdl/progs/wolf3d/wl_floorceiling.o
 .comment       0x0000000000000011       0x12 /home/jbrawley/Desktop/rockbox-photo-cf-support/build/apps/plugins/sdl/progs/wolf3d/wl_game.o
 .comment       0x0000000000000011       0x12 /home/jbrawley/Desktop/rockbox-photo-cf-support/build/apps/plugins/sdl/progs/wolf3d/wl_inter.o
 .comment       0x0000000000000011       0x12 /home/jbrawley/Desktop/rockbox-photo-cf-support/build/apps/plugins/sdl/progs/wolf3d/wl_main.o
 .comment       0x0000000000000011       0x12 /home/jbrawley/Desktop/rockbox-photo-cf-support/build/apps/plugins/sdl/progs/wolf3d/wl_menu.o
 .comment       0x0000000000000011       0x12 /home/jbrawley/Desktop/rockbox-photo-cf-support/build/apps/plugins/sdl/progs/wolf3d/wl_parallax.o
 .comment       0x0000000000000011       0x12 /home/jbrawley/Desktop/rockbox-photo-cf-support/build/apps/plugins/sdl/progs/wolf3d/wl_play.o
 .comment       0x0000000000000011       0x12 /home/jbrawley/Desktop/rockbox-photo-cf-support/build/apps/plugins/sdl/progs/wolf3d/wl_shade.o
 .comment       0x0000000000000011       0x12 /home/jbrawley/Desktop/rockbox-photo-cf-support/build/apps/plugins/sdl/progs/wolf3d/wl_state.o
 .comment       0x0000000000000011       0x12 /home/jbrawley/Desktop/rockbox-photo-cf-support/build/apps/plugins/sdl/progs/wolf3d/wl_text.o
 .comment       0x0000000000000011       0x12 /home/jbrawley/Desktop/rockbox-photo-cf-support/build/apps/plugins/plugin_crt0.o
 .comment       0x0000000000000011       0x12 /home/jbrawley/Desktop/rockbox-photo-cf-support/build/lib/libtlsf.a(tlsf.o)
 .comment       0x0000000000000011       0x12 /home/jbrawley/Desktop/rockbox-photo-cf-support/build/apps/plugins/libplugin.a(gcc-support.o)
 .comment       0x0000000000000011       0x12 /home/jbrawley/Desktop/rockbox-photo-cf-support/build/apps/plugins/libplugin.a(helper.o)
 .comment       0x0000000000000011       0x12 /home/jbrawley/Desktop/rockbox-photo-cf-support/build/apps/plugins/libplugin.a(strncpy.o)
 .comment       0x0000000000000011       0x12 /home/jbrawley/Desktop/rockbox-photo-cf-support/build/apps/plugins/libplugin.a(stdio_compat.o)
 .comment       0x0000000000000011       0x12 /home/jbrawley/Desktop/rockbox-photo-cf-support/build/apps/plugins/libplugin.a(pluginlib_bmp.o)
 .comment       0x0000000000000011       0x12 /home/jbrawley/Desktop/rockbox-photo-cf-support/build/apps/plugins/libplugin.a(pluginlib_resize.o)
 .comment       0x0000000000000011       0x12 /home/jbrawley/Desktop/rockbox-photo-cf-support/build/lib/libfixedpoint.a(fixedpoint.o)
 .comment       0x0000000000000011       0x12 /usr/local/lib/gcc/arm-elf-eabi/4.9.4/libgcc.a(bpabi.o)
 .comment       0x0000000000000011       0x12 /usr/local/lib/gcc/arm-elf-eabi/4.9.4/libgcc.a(_divdi3.o)
 .comment       0x0000000000000011       0x12 /usr/local/lib/gcc/arm-elf-eabi/4.9.4/libgcc.a(_udivdi3.o)
OUTPUT(/home/jbrawley/Desktop/rockbox-photo-cf-support/build/apps/plugins/sdl/wolf3d.elf elf32-littlearm)

.ARM.attributes
                0x0000000000000000       0x2e
 .ARM.attributes
                0x0000000000000000       0x2c /home/jbrawley/Desktop/rockbox-photo-cf-support/build/apps/plugins/sdl/main.o
 .ARM.attributes
                0x000000000000002c       0x2c /home/jbrawley/Desktop/rockbox-photo-cf-support/build/apps/plugins/sdl/wrappers.o
 .ARM.attributes
                0x0000000000000058       0x2c /home/jbrawley/Desktop/rockbox-photo-cf-support/build/apps/plugins/sdl/src/SDL.o
 .ARM.attributes
                0x0000000000000084       0x2c /home/jbrawley/Desktop/rockbox-photo-cf-support/build/apps/plugins/sdl/src/SDL_error.o
 .ARM.attributes
                0x00000000000000b0       0x2c /home/jbrawley/Desktop/rockbox-photo-cf-support/build/apps/plugins/sdl/src/SDL_fatal.o
 .ARM.attributes
                0x00000000000000dc       0x2c /home/jbrawley/Desktop/rockbox-photo-cf-support/build/apps/plugins/sdl/src/audio/SDL_audio.o
 .ARM.attributes
                0x0000000000000108       0x2c /home/jbrawley/Desktop/rockbox-photo-cf-support/build/apps/plugins/sdl/src/audio/SDL_audiocvt.o
 .ARM.attributes
                0x0000000000000134       0x2c /home/jbrawley/Desktop/rockbox-photo-cf-support/build/apps/plugins/sdl/src/audio/SDL_audiodev.o
 .ARM.attributes
                0x0000000000000160       0x2c /home/jbrawley/Desktop/rockbox-photo-cf-support/build/apps/plugins/sdl/src/audio/SDL_mixer.o
 .ARM.attributes
                0x000000000000018c       0x2c /home/jbrawley/Desktop/rockbox-photo-cf-support/build/apps/plugins/sdl/src/audio/SDL_mixer_MMX.o
 .ARM.attributes
                0x00000000000001b8       0x2c /home/jbrawley/Desktop/rockbox-photo-cf-support/build/apps/plugins/sdl/src/audio/SDL_mixer_MMX_VC.o
 .ARM.attributes
                0x00000000000001e4       0x2c /home/jbrawley/Desktop/rockbox-photo-cf-support/build/apps/plugins/sdl/src/audio/SDL_mixer_m68k.o
 .ARM.attributes
                0x0000000000000210       0x2c /home/jbrawley/Desktop/rockbox-photo-cf-support/build/apps/plugins/sdl/src/audio/SDL_wave.o
 .ARM.attributes
                0x000000000000023c       0x2c /home/jbrawley/Desktop/rockbox-photo-cf-support/build/apps/plugins/sdl/src/audio/rockbox/SDL_rockboxaudio.o
 .ARM.attributes
                0x0000000000000268       0x2c /home/jbrawley/Desktop/rockbox-photo-cf-support/build/apps/plugins/sdl/src/cdrom/SDL_cdrom.o
 .ARM.attributes
                0x0000000000000294       0x2c /home/jbrawley/Desktop/rockbox-photo-cf-support/build/apps/plugins/sdl/src/cdrom/dummy/SDL_syscdrom.o
 .ARM.attributes
                0x00000000000002c0       0x2c /home/jbrawley/Desktop/rockbox-photo-cf-support/build/apps/plugins/sdl/src/cpuinfo/SDL_cpuinfo.o
 .ARM.attributes
                0x00000000000002ec       0x2c /home/jbrawley/Desktop/rockbox-photo-cf-support/build/apps/plugins/sdl/src/events/SDL_active.o
 .ARM.attributes
                0x0000000000000318       0x2c /home/jbrawley/Desktop/rockbox-photo-cf-support/build/apps/plugins/sdl/src/events/SDL_events.o
 .ARM.attributes
                0x0000000000000344       0x2c /home/jbrawley/Desktop/rockbox-photo-cf-support/build/apps/plugins/sdl/src/events/SDL_expose.o
 .ARM.attributes
                0x0000000000000370       0x2c /home/jbrawley/Desktop/rockbox-photo-cf-support/build/apps/plugins/sdl/src/events/SDL_keyboard.o
 .ARM.attributes
                0x000000000000039c       0x2c /home/jbrawley/Desktop/rockbox-photo-cf-support/build/apps/plugins/sdl/src/events/SDL_mouse.o
 .ARM.attributes
                0x00000000000003c8       0x2c /home/jbrawley/Desktop/rockbox-photo-cf-support/build/apps/plugins/sdl/src/events/SDL_quit.o
 .ARM.attributes
                0x00000000000003f4       0x2c /home/jbrawley/Desktop/rockbox-photo-cf-support/build/apps/plugins/sdl/src/events/SDL_resize.o
 .ARM.attributes
                0x0000000000000420       0x2c /home/jbrawley/Desktop/rockbox-photo-cf-support/build/apps/plugins/sdl/src/file/SDL_rwops.o
 .ARM.attributes
                0x000000000000044c       0x2c /home/jbrawley/Desktop/rockbox-photo-cf-support/build/apps/plugins/sdl/src/joystick/SDL_joystick.o
 .ARM.attributes
                0x0000000000000478       0x2c /home/jbrawley/Desktop/rockbox-photo-cf-support/build/apps/plugins/sdl/src/joystick/dummy/SDL_sysjoystick.o
 .ARM.attributes
                0x00000000000004a4       0x2c /home/jbrawley/Desktop/rockbox-photo-cf-support/build/apps/plugins/sdl/src/loadso/dummy/SDL_sysloadso.o
 .ARM.attributes
                0x00000000000004d0       0x2c /home/jbrawley/Desktop/rockbox-photo-cf-support/build/apps/plugins/sdl/src/stdlib/SDL_getenv.o
 .ARM.attributes
                0x00000000000004fc       0x2c /home/jbrawley/Desktop/rockbox-photo-cf-support/build/apps/plugins/sdl/src/stdlib/SDL_iconv.o
 .ARM.attributes
                0x0000000000000528       0x2c /home/jbrawley/Desktop/rockbox-photo-cf-support/build/apps/plugins/sdl/src/stdlib/SDL_malloc.o
 .ARM.attributes
                0x0000000000000554       0x2c /home/jbrawley/Desktop/rockbox-photo-cf-support/build/apps/plugins/sdl/src/stdlib/SDL_qsort.o
 .ARM.attributes
                0x0000000000000580       0x2c /home/jbrawley/Desktop/rockbox-photo-cf-support/build/apps/plugins/sdl/src/stdlib/SDL_stdlib.o
 .ARM.attributes
                0x00000000000005ac       0x2c /home/jbrawley/Desktop/rockbox-photo-cf-support/build/apps/plugins/sdl/src/stdlib/SDL_string.o
 .ARM.attributes
                0x00000000000005d8       0x2c /home/jbrawley/Desktop/rockbox-photo-cf-support/build/apps/plugins/sdl/src/thread/SDL_thread.o
 .ARM.attributes
                0x0000000000000604       0x2c /home/jbrawley/Desktop/rockbox-photo-cf-support/build/apps/plugins/sdl/src/thread/rockbox/SDL_syscond.o
 .ARM.attributes
                0x0000000000000630       0x2c /home/jbrawley/Desktop/rockbox-photo-cf-support/build/apps/plugins/sdl/src/thread/rockbox/SDL_sysmutex.o
 .ARM.attributes
                0x000000000000065c       0x2c /home/jbrawley/Desktop/rockbox-photo-cf-support/build/apps/plugins/sdl/src/thread/rockbox/SDL_syssem.o
 .ARM.attributes
                0x0000000000000688       0x2c /home/jbrawley/Desktop/rockbox-photo-cf-support/build/apps/plugins/sdl/src/thread/rockbox/SDL_systhread.o
 .ARM.attributes
                0x00000000000006b4       0x2c /home/jbrawley/Desktop/rockbox-photo-cf-support/build/apps/plugins/sdl/src/timer/SDL_timer.o
 .ARM.attributes
                0x00000000000006e0       0x2c /home/jbrawley/Desktop/rockbox-photo-cf-support/build/apps/plugins/sdl/src/timer/rockbox/SDL_systimer.o
 .ARM.attributes
                0x000000000000070c       0x2c /home/jbrawley/Desktop/rockbox-photo-cf-support/build/apps/plugins/sdl/src/video/SDL_RLEaccel.o
 .ARM.attributes
                0x0000000000000738       0x2c /home/jbrawley/Desktop/rockbox-photo-cf-support/build/apps/plugins/sdl/src/video/SDL_blit.o
 .ARM.attributes
                0x0000000000000764       0x2c /home/jbrawley/Desktop/rockbox-photo-cf-support/build/apps/plugins/sdl/src/video/SDL_blit_0.o
 .ARM.attributes
                0x0000000000000790       0x2c /home/jbrawley/Desktop/rockbox-photo-cf-support/build/apps/plugins/sdl/src/video/SDL_blit_1.o
 .ARM.attributes
                0x00000000000007bc       0x2c /home/jbrawley/Desktop/rockbox-photo-cf-support/build/apps/plugins/sdl/src/video/SDL_blit_A.o
 .ARM.attributes
                0x00000000000007e8       0x2c /home/jbrawley/Desktop/rockbox-photo-cf-support/build/apps/plugins/sdl/src/video/SDL_blit_N.o
 .ARM.attributes
                0x0000000000000814       0x2c /home/jbrawley/Desktop/rockbox-photo-cf-support/build/apps/plugins/sdl/src/video/SDL_bmp.o
 .ARM.attributes
                0x0000000000000840       0x2c /home/jbrawley/Desktop/rockbox-photo-cf-support/build/apps/plugins/sdl/src/video/SDL_cursor.o
 .ARM.attributes
                0x000000000000086c       0x2c /home/jbrawley/Desktop/rockbox-photo-cf-support/build/apps/plugins/sdl/src/video/SDL_gamma.o
 .ARM.attributes
                0x0000000000000898       0x2c /home/jbrawley/Desktop/rockbox-photo-cf-support/build/apps/plugins/sdl/src/video/SDL_pixels.o
 .ARM.attributes
                0x00000000000008c4       0x2c /home/jbrawley/Desktop/rockbox-photo-cf-support/build/apps/plugins/sdl/src/video/SDL_stretch.o
 .ARM.attributes
                0x00000000000008f0       0x2c /home/jbrawley/Desktop/rockbox-photo-cf-support/build/apps/plugins/sdl/src/video/SDL_surface.o
 .ARM.attributes
                0x000000000000091c       0x2c /home/jbrawley/Desktop/rockbox-photo-cf-support/build/apps/plugins/sdl/src/video/SDL_video.o
 .ARM.attributes
                0x0000000000000948       0x2c /home/jbrawley/Desktop/rockbox-photo-cf-support/build/apps/plugins/sdl/src/video/SDL_yuv.o
 .ARM.attributes
                0x0000000000000974       0x2c /home/jbrawley/Desktop/rockbox-photo-cf-support/build/apps/plugins/sdl/src/video/SDL_yuv_mmx.o
 .ARM.attributes
                0x00000000000009a0       0x2c /home/jbrawley/Desktop/rockbox-photo-cf-support/build/apps/plugins/sdl/src/video/SDL_yuv_sw.o
 .ARM.attributes
                0x00000000000009cc       0x2c /home/jbrawley/Desktop/rockbox-photo-cf-support/build/apps/plugins/sdl/src/video/dummy/SDL_nullevents.o
 .ARM.attributes
                0x00000000000009f8       0x2c /home/jbrawley/Desktop/rockbox-photo-cf-support/build/apps/plugins/sdl/src/video/dummy/SDL_nullmouse.o
 .ARM.attributes
                0x0000000000000a24       0x2c /home/jbrawley/Desktop/rockbox-photo-cf-support/build/apps/plugins/sdl/src/video/dummy/SDL_nullvideo.o
 .ARM.attributes
                0x0000000000000a50       0x2c /home/jbrawley/Desktop/rockbox-photo-cf-support/build/apps/plugins/sdl/src/video/rockbox/SDL_rockboxvideo.o
 .ARM.attributes
                0x0000000000000a7c       0x2c /home/jbrawley/Desktop/rockbox-photo-cf-support/build/apps/plugins/sdl/SDL_image/IMG_bmp.o
 .ARM.attributes
                0x0000000000000aa8       0x2c /home/jbrawley/Desktop/rockbox-photo-cf-support/build/apps/plugins/sdl/SDL_image/IMG.o
 .ARM.attributes
                0x0000000000000ad4       0x2c /home/jbrawley/Desktop/rockbox-photo-cf-support/build/apps/plugins/sdl/SDL_image/IMG_gif.o
 .ARM.attributes
                0x0000000000000b00       0x2c /home/jbrawley/Desktop/rockbox-photo-cf-support/build/apps/plugins/sdl/SDL_image/IMG_jpg.o
 .ARM.attributes
                0x0000000000000b2c       0x2c /home/jbrawley/Desktop/rockbox-photo-cf-support/build/apps/plugins/sdl/SDL_image/IMG_lbm.o
 .ARM.attributes
                0x0000000000000b58       0x2c /home/jbrawley/Desktop/rockbox-photo-cf-support/build/apps/plugins/sdl/SDL_image/IMG_pcx.o
 .ARM.attributes
                0x0000000000000b84       0x2c /home/jbrawley/Desktop/rockbox-photo-cf-support/build/apps/plugins/sdl/SDL_image/IMG_png.o
 .ARM.attributes
                0x0000000000000bb0       0x2c /home/jbrawley/Desktop/rockbox-photo-cf-support/build/apps/plugins/sdl/SDL_image/IMG_pnm.o
 .ARM.attributes
                0x0000000000000bdc       0x2c /home/jbrawley/Desktop/rockbox-photo-cf-support/build/apps/plugins/sdl/SDL_image/IMG_tga.o
 .ARM.attributes
                0x0000000000000c08       0x2c /home/jbrawley/Desktop/rockbox-photo-cf-support/build/apps/plugins/sdl/SDL_image/IMG_tif.o
 .ARM.attributes
                0x0000000000000c34       0x2c /home/jbrawley/Desktop/rockbox-photo-cf-support/build/apps/plugins/sdl/SDL_image/IMG_webp.o
 .ARM.attributes
                0x0000000000000c60       0x2c /home/jbrawley/Desktop/rockbox-photo-cf-support/build/apps/plugins/sdl/SDL_image/IMG_xcf.o
 .ARM.attributes
                0x0000000000000c8c       0x2c /home/jbrawley/Desktop/rockbox-photo-cf-support/build/apps/plugins/sdl/SDL_image/IMG_xpm.o
 .ARM.attributes
                0x0000000000000cb8       0x2c /home/jbrawley/Desktop/rockbox-photo-cf-support/build/apps/plugins/sdl/SDL_image/IMG_xv.o
 .ARM.attributes
                0x0000000000000ce4       0x2c /home/jbrawley/Desktop/rockbox-photo-cf-support/build/apps/plugins/sdl/SDL_image/IMG_xxx.o
 .ARM.attributes
                0x0000000000000d10       0x2c /home/jbrawley/Desktop/rockbox-photo-cf-support/build/apps/plugins/sdl/SDL_mixer/dynamic_flac.o
 .ARM.attributes
                0x0000000000000d3c       0x2c /home/jbrawley/Desktop/rockbox-photo-cf-support/build/apps/plugins/sdl/SDL_mixer/dynamic_fluidsynth.o
 .ARM.attributes
                0x0000000000000d68       0x2c /home/jbrawley/Desktop/rockbox-photo-cf-support/build/apps/plugins/sdl/SDL_mixer/dynamic_mod.o
 .ARM.attributes
                0x0000000000000d94       0x2c /home/jbrawley/Desktop/rockbox-photo-cf-support/build/apps/plugins/sdl/SDL_mixer/dynamic_mp3.o
 .ARM.attributes
                0x0000000000000dc0       0x2c /home/jbrawley/Desktop/rockbox-photo-cf-support/build/apps/plugins/sdl/SDL_mixer/dynamic_ogg.o
 .ARM.attributes
                0x0000000000000dec       0x2c /home/jbrawley/Desktop/rockbox-photo-cf-support/build/apps/plugins/sdl/SDL_mixer/effect_position.o
 .ARM.attributes
                0x0000000000000e18       0x2c /home/jbrawley/Desktop/rockbox-photo-cf-support/build/apps/plugins/sdl/SDL_mixer/effects_internal.o
 .ARM.attributes
                0x0000000000000e44       0x2c /home/jbrawley/Desktop/rockbox-photo-cf-support/build/apps/plugins/sdl/SDL_mixer/effect_stereoreverse.o
 .ARM.attributes
                0x0000000000000e70       0x2c /home/jbrawley/Desktop/rockbox-photo-cf-support/build/apps/plugins/sdl/SDL_mixer/fluidsynth.o
 .ARM.attributes
                0x0000000000000e9c       0x2c /home/jbrawley/Desktop/rockbox-photo-cf-support/build/apps/plugins/sdl/SDL_mixer/load_aiff.o
 .ARM.attributes
                0x0000000000000ec8       0x2c /home/jbrawley/Desktop/rockbox-photo-cf-support/build/apps/plugins/sdl/SDL_mixer/load_flac.o
 .ARM.attributes
                0x0000000000000ef4       0x2c /home/jbrawley/Desktop/rockbox-photo-cf-support/build/apps/plugins/sdl/SDL_mixer/load_ogg.o
 .ARM.attributes
                0x0000000000000f20       0x2c /home/jbrawley/Desktop/rockbox-photo-cf-support/build/apps/plugins/sdl/SDL_mixer/load_voc.o
 .ARM.attributes
                0x0000000000000f4c       0x2c /home/jbrawley/Desktop/rockbox-photo-cf-support/build/apps/plugins/sdl/SDL_mixer/mixer.o
 .ARM.attributes
                0x0000000000000f78       0x2c /home/jbrawley/Desktop/rockbox-photo-cf-support/build/apps/plugins/sdl/SDL_mixer/music.o
 .ARM.attributes
                0x0000000000000fa4       0x2c /home/jbrawley/Desktop/rockbox-photo-cf-support/build/apps/plugins/sdl/SDL_mixer/music_cmd.o
 .ARM.attributes
                0x0000000000000fd0       0x2c /home/jbrawley/Desktop/rockbox-photo-cf-support/build/apps/plugins/sdl/SDL_mixer/music_flac.o
 .ARM.attributes
                0x0000000000000ffc       0x2c /home/jbrawley/Desktop/rockbox-photo-cf-support/build/apps/plugins/sdl/SDL_mixer/music_mad.o
 .ARM.attributes
                0x0000000000001028       0x2c /home/jbrawley/Desktop/rockbox-photo-cf-support/build/apps/plugins/sdl/SDL_mixer/music_mod.o
 .ARM.attributes
                0x0000000000001054       0x2c /home/jbrawley/Desktop/rockbox-photo-cf-support/build/apps/plugins/sdl/SDL_mixer/music_modplug.o
 .ARM.attributes
                0x0000000000001080       0x2c /home/jbrawley/Desktop/rockbox-photo-cf-support/build/apps/plugins/sdl/SDL_mixer/music_ogg.o
 .ARM.attributes
                0x00000000000010ac       0x2c /home/jbrawley/Desktop/rockbox-photo-cf-support/build/apps/plugins/sdl/SDL_mixer/wavestream.o
 .ARM.attributes
                0x00000000000010d8       0x2c /home/jbrawley/Desktop/rockbox-photo-cf-support/build/apps/plugins/sdl/SDL_mixer/timidity/common.o
 .ARM.attributes
                0x0000000000001104       0x2c /home/jbrawley/Desktop/rockbox-photo-cf-support/build/apps/plugins/sdl/SDL_mixer/timidity/ctrlmode.o
 .ARM.attributes
                0x0000000000001130       0x2c /home/jbrawley/Desktop/rockbox-photo-cf-support/build/apps/plugins/sdl/SDL_mixer/timidity/filter.o
 .ARM.attributes
                0x000000000000115c       0x2c /home/jbrawley/Desktop/rockbox-photo-cf-support/build/apps/plugins/sdl/SDL_mixer/timidity/instrum.o
 .ARM.attributes
                0x0000000000001188       0x2c /home/jbrawley/Desktop/rockbox-photo-cf-support/build/apps/plugins/sdl/SDL_mixer/timidity/mix.o
 .ARM.attributes
                0x00000000000011b4       0x2c /home/jbrawley/Desktop/rockbox-photo-cf-support/build/apps/plugins/sdl/SDL_mixer/timidity/output.o
 .ARM.attributes
                0x00000000000011e0       0x2c /home/jbrawley/Desktop/rockbox-photo-cf-support/build/apps/plugins/sdl/SDL_mixer/timidity/playmidi.o
 .ARM.attributes
                0x000000000000120c       0x2c /home/jbrawley/Desktop/rockbox-photo-cf-support/build/apps/plugins/sdl/SDL_mixer/timidity/readmidi.o
 .ARM.attributes
                0x0000000000001238       0x2c /home/jbrawley/Desktop/rockbox-photo-cf-support/build/apps/plugins/sdl/SDL_mixer/timidity/resample.o
 .ARM.attributes
                0x0000000000001264       0x2c /home/jbrawley/Desktop/rockbox-photo-cf-support/build/apps/plugins/sdl/SDL_mixer/timidity/sdl_a.o
 .ARM.attributes
                0x0000000000001290       0x2c /home/jbrawley/Desktop/rockbox-photo-cf-support/build/apps/plugins/sdl/SDL_mixer/timidity/sdl_c.o
 .ARM.attributes
                0x00000000000012bc       0x2c /home/jbrawley/Desktop/rockbox-photo-cf-support/build/apps/plugins/sdl/SDL_mixer/timidity/tables.o
 .ARM.attributes
                0x00000000000012e8       0x2c /home/jbrawley/Desktop/rockbox-photo-cf-support/build/apps/plugins/sdl/SDL_mixer/timidity/timidity.o
 .ARM.attributes
                0x0000000000001314       0x2c /home/jbrawley/Desktop/rockbox-photo-cf-support/build/apps/plugins/sdl/progs/wolf3d/fmopl_gpl.o
 .ARM.attributes
                0x0000000000001340       0x2c /home/jbrawley/Desktop/rockbox-photo-cf-support/build/apps/plugins/sdl/progs/wolf3d/id_ca.o
 .ARM.attributes
                0x000000000000136c       0x2c /home/jbrawley/Desktop/rockbox-photo-cf-support/build/apps/plugins/sdl/progs/wolf3d/id_in.o
 .ARM.attributes
                0x0000000000001398       0x2c /home/jbrawley/Desktop/rockbox-photo-cf-support/build/apps/plugins/sdl/progs/wolf3d/id_pm.o
 .ARM.attributes
                0x00000000000013c4       0x2c /home/jbrawley/Desktop/rockbox-photo-cf-support/build/apps/plugins/sdl/progs/wolf3d/id_sd.o
 .ARM.attributes
                0x00000000000013f0       0x2c /home/jbrawley/Desktop/rockbox-photo-cf-support/build/apps/plugins/sdl/progs/wolf3d/id_us_1.o
 .ARM.attributes
                0x000000000000141c       0x2c /home/jbrawley/Desktop/rockbox-photo-cf-support/build/apps/plugins/sdl/progs/wolf3d/id_vh.o
 .ARM.attributes
                0x0000000000001448       0x2c /home/jbrawley/Desktop/rockbox-photo-cf-support/build/apps/plugins/sdl/progs/wolf3d/id_vl.o
 .ARM.attributes
                0x0000000000001474       0x2c /home/jbrawley/Desktop/rockbox-photo-cf-support/build/apps/plugins/sdl/progs/wolf3d/signon.o
 .ARM.attributes
                0x00000000000014a0       0x2c /home/jbrawley/Desktop/rockbox-photo-cf-support/build/apps/plugins/sdl/progs/wolf3d/wl_act1.o
 .ARM.attributes
                0x00000000000014cc       0x2c /home/jbrawley/Desktop/rockbox-photo-cf-support/build/apps/plugins/sdl/progs/wolf3d/wl_act2.o
 .ARM.attributes
                0x00000000000014f8       0x2c /home/jbrawley/Desktop/rockbox-photo-cf-support/build/apps/plugins/sdl/progs/wolf3d/wl_agent.o
 .ARM.attributes
                0x0000000000001524       0x2c /home/jbrawley/Desktop/rockbox-photo-cf-support/build/apps/plugins/sdl/progs/wolf3d/wl_atmos.o
 .ARM.attributes
                0x0000000000001550       0x2c /home/jbrawley/Desktop/rockbox-photo-cf-support/build/apps/plugins/sdl/progs/wolf3d/wl_cloudsky.o
 .ARM.attributes
                0x000000000000157c       0x2c /home/jbrawley/Desktop/rockbox-photo-cf-support/build/apps/plugins/sdl/progs/wolf3d/wl_debug.o
 .ARM.attributes
                0x00000000000015a8       0x2c /home/jbrawley/Desktop/rockbox-photo-cf-support/build/apps/plugins/sdl/progs/wolf3d/wl_dir3dspr.o
 .ARM.attributes
                0x00000000000015d4       0x2c /home/jbrawley/Desktop/rockbox-photo-cf-support/build/apps/plugins/sdl/progs/wolf3d/wl_draw.o
 .ARM.attributes
                0x0000000000001600       0x2c /home/jbrawley/Desktop/rockbox-photo-cf-support/build/apps/plugins/sdl/progs/wolf3d/wl_floorceiling.o
 .ARM.attributes
                0x000000000000162c       0x2c /home/jbrawley/Desktop/rockbox-photo-cf-support/build/apps/plugins/sdl/progs/wolf3d/wl_game.o
 .ARM.attributes
                0x0000000000001658       0x2c /home/jbrawley/Desktop/rockbox-photo-cf-support/build/apps/plugins/sdl/progs/wolf3d/wl_inter.o
 .ARM.attributes
                0x0000000000001684       0x2c /home/jbrawley/Desktop/rockbox-photo-cf-support/build/apps/plugins/sdl/progs/wolf3d/wl_main.o
 .ARM.attributes
                0x00000000000016b0       0x2c /home/jbrawley/Desktop/rockbox-photo-cf-support/build/apps/plugins/sdl/progs/wolf3d/wl_menu.o
 .ARM.attributes
                0x00000000000016dc       0x2c /home/jbrawley/Desktop/rockbox-photo-cf-support/build/apps/plugins/sdl/progs/wolf3d/wl_parallax.o
 .ARM.attributes
                0x0000000000001708       0x2c /home/jbrawley/Desktop/rockbox-photo-cf-support/build/apps/plugins/sdl/progs/wolf3d/wl_play.o
 .ARM.attributes
                0x0000000000001734       0x2c /home/jbrawley/Desktop/rockbox-photo-cf-support/build/apps/plugins/sdl/progs/wolf3d/wl_shade.o
 .ARM.attributes
                0x0000000000001760       0x2c /home/jbrawley/Desktop/rockbox-photo-cf-support/build/apps/plugins/sdl/progs/wolf3d/wl_state.o
 .ARM.attributes
                0x000000000000178c       0x2c /home/jbrawley/Desktop/rockbox-photo-cf-support/build/apps/plugins/sdl/progs/wolf3d/wl_text.o
 .ARM.attributes
                0x00000000000017b8       0x30 /home/jbrawley/Desktop/rockbox-photo-cf-support/build/apps/plugins/plugin_crt0.o
 .ARM.attributes
                0x00000000000017e8       0x30 /home/jbrawley/Desktop/rockbox-photo-cf-support/build/lib/libtlsf.a(tlsf.o)
 .ARM.attributes
                0x0000000000001818       0x30 /home/jbrawley/Desktop/rockbox-photo-cf-support/build/apps/plugins/libplugin.a(gcc-support.o)
 .ARM.attributes
                0x0000000000001848       0x30 /home/jbrawley/Desktop/rockbox-photo-cf-support/build/apps/plugins/libplugin.a(helper.o)
 .ARM.attributes
                0x0000000000001878       0x30 /home/jbrawley/Desktop/rockbox-photo-cf-support/build/apps/plugins/libplugin.a(strncpy.o)
 .ARM.attributes
                0x00000000000018a8       0x30 /home/jbrawley/Desktop/rockbox-photo-cf-support/build/apps/plugins/libplugin.a(stdio_compat.o)
 .ARM.attributes
                0x00000000000018d8       0x30 /home/jbrawley/Desktop/rockbox-photo-cf-support/build/apps/plugins/libplugin.a(pluginlib_bmp.o)
 .ARM.attributes
                0x0000000000001908       0x30 /home/jbrawley/Desktop/rockbox-photo-cf-support/build/apps/plugins/libplugin.a(pluginlib_resize.o)
 .ARM.attributes
                0x0000000000001938       0x20 /home/jbrawley/Desktop/rockbox-photo-cf-support/build/lib/libsetjmp.a(setjmp.o)
 .ARM.attributes
                0x0000000000001958       0x30 /home/jbrawley/Desktop/rockbox-photo-cf-support/build/lib/libfixedpoint.a(fixedpoint.o)
 .ARM.attributes
                0x0000000000001988       0x18 /usr/local/lib/gcc/arm-elf-eabi/4.9.4/libgcc.a(_udivsi3.o)
 .ARM.attributes
                0x00000000000019a0       0x18 /usr/local/lib/gcc/arm-elf-eabi/4.9.4/libgcc.a(_divsi3.o)
 .ARM.attributes
                0x00000000000019b8       0x18 /usr/local/lib/gcc/arm-elf-eabi/4.9.4/libgcc.a(_dvmd_tls.o)
 .ARM.attributes
                0x00000000000019d0       0x18 /usr/local/lib/gcc/arm-elf-eabi/4.9.4/libgcc.a(_arm_addsubdf3.o)
 .ARM.attributes
                0x00000000000019e8       0x18 /usr/local/lib/gcc/arm-elf-eabi/4.9.4/libgcc.a(_arm_muldivdf3.o)
 .ARM.attributes
                0x0000000000001a00       0x18 /usr/local/lib/gcc/arm-elf-eabi/4.9.4/libgcc.a(_arm_cmpdf2.o)
 .ARM.attributes
                0x0000000000001a18       0x18 /usr/local/lib/gcc/arm-elf-eabi/4.9.4/libgcc.a(_arm_fixdfsi.o)
 .ARM.attributes
                0x0000000000001a30       0x18 /usr/local/lib/gcc/arm-elf-eabi/4.9.4/libgcc.a(_arm_fixunsdfsi.o)
 .ARM.attributes
                0x0000000000001a48       0x18 /usr/local/lib/gcc/arm-elf-eabi/4.9.4/libgcc.a(_arm_truncdfsf2.o)
 .ARM.attributes
                0x0000000000001a60       0x18 /usr/local/lib/gcc/arm-elf-eabi/4.9.4/libgcc.a(_arm_addsubsf3.o)
 .ARM.attributes
                0x0000000000001a78       0x18 /usr/local/lib/gcc/arm-elf-eabi/4.9.4/libgcc.a(_arm_muldivsf3.o)
 .ARM.attributes
                0x0000000000001a90       0x18 /usr/local/lib/gcc/arm-elf-eabi/4.9.4/libgcc.a(_arm_cmpsf2.o)
 .ARM.attributes
                0x0000000000001aa8       0x18 /usr/local/lib/gcc/arm-elf-eabi/4.9.4/libgcc.a(_arm_fixsfsi.o)
 .ARM.attributes
                0x0000000000001ac0       0x18 /usr/local/lib/gcc/arm-elf-eabi/4.9.4/libgcc.a(_arm_fixunssfsi.o)
 .ARM.attributes
                0x0000000000001ad8       0x18 /usr/local/lib/gcc/arm-elf-eabi/4.9.4/libgcc.a(_clzsi2.o)
 .ARM.attributes
                0x0000000000001af0       0x18 /usr/local/lib/gcc/arm-elf-eabi/4.9.4/libgcc.a(_aeabi_ldivmod.o)
 .ARM.attributes
                0x0000000000001b08       0x18 /usr/local/lib/gcc/arm-elf-eabi/4.9.4/libgcc.a(_aeabi_uldivmod.o)
 .ARM.attributes
                0x0000000000001b20       0x30 /usr/local/lib/gcc/arm-elf-eabi/4.9.4/libgcc.a(bpabi.o)
 .ARM.attributes
                0x0000000000001b50       0x30 /usr/local/lib/gcc/arm-elf-eabi/4.9.4/libgcc.a(_divdi3.o)
 .ARM.attributes
                0x0000000000001b80       0x30 /usr/local/lib/gcc/arm-elf-eabi/4.9.4/libgcc.a(_udivdi3.o)
 .ARM.attributes
                0x0000000000001bb0       0x18 /usr/local/lib/gcc/arm-elf-eabi/4.9.4/libgcc.a(_clzdi2.o)

.debug_frame    0x0000000000000000      0x180
 .debug_frame   0x0000000000000000       0x20 /usr/local/lib/gcc/arm-elf-eabi/4.9.4/libgcc.a(_udivsi3.o)
 .debug_frame   0x0000000000000020       0x20 /usr/local/lib/gcc/arm-elf-eabi/4.9.4/libgcc.a(_divsi3.o)
 .debug_frame   0x0000000000000040       0x28 /usr/local/lib/gcc/arm-elf-eabi/4.9.4/libgcc.a(_aeabi_ldivmod.o)
 .debug_frame   0x0000000000000068       0x28 /usr/local/lib/gcc/arm-elf-eabi/4.9.4/libgcc.a(_aeabi_uldivmod.o)
 .debug_frame   0x0000000000000090       0x68 /usr/local/lib/gcc/arm-elf-eabi/4.9.4/libgcc.a(bpabi.o)
 .debug_frame   0x00000000000000f8       0x48 /usr/local/lib/gcc/arm-elf-eabi/4.9.4/libgcc.a(_divdi3.o)
 .debug_frame   0x0000000000000140       0x40 /usr/local/lib/gcc/arm-elf-eabi/4.9.4/libgcc.a(_udivdi3.o)

.debug_line     0x0000000000000000      0xd79
 .debug_line    0x0000000000000000       0x7e /usr/local/lib/gcc/arm-elf-eabi/4.9.4/libgcc.a(_udivsi3.o)
 .debug_line    0x000000000000007e       0x8a /usr/local/lib/gcc/arm-elf-eabi/4.9.4/libgcc.a(_divsi3.o)
 .debug_line    0x0000000000000108       0x61 /usr/local/lib/gcc/arm-elf-eabi/4.9.4/libgcc.a(_dvmd_tls.o)
 .debug_line    0x0000000000000169      0x164 /usr/local/lib/gcc/arm-elf-eabi/4.9.4/libgcc.a(_arm_addsubdf3.o)
 .debug_line    0x00000000000002cd      0x180 /usr/local/lib/gcc/arm-elf-eabi/4.9.4/libgcc.a(_arm_muldivdf3.o)
 .debug_line    0x000000000000044d       0xae /usr/local/lib/gcc/arm-elf-eabi/4.9.4/libgcc.a(_arm_cmpdf2.o)
 .debug_line    0x00000000000004fb       0x78 /usr/local/lib/gcc/arm-elf-eabi/4.9.4/libgcc.a(_arm_fixdfsi.o)
 .debug_line    0x0000000000000573       0x76 /usr/local/lib/gcc/arm-elf-eabi/4.9.4/libgcc.a(_arm_fixunsdfsi.o)
 .debug_line    0x00000000000005e9       0x89 /usr/local/lib/gcc/arm-elf-eabi/4.9.4/libgcc.a(_arm_truncdfsf2.o)
 .debug_line    0x0000000000000672      0x117 /usr/local/lib/gcc/arm-elf-eabi/4.9.4/libgcc.a(_arm_addsubsf3.o)
 .debug_line    0x0000000000000789      0x123 /usr/local/lib/gcc/arm-elf-eabi/4.9.4/libgcc.a(_arm_muldivsf3.o)
 .debug_line    0x00000000000008ac       0xa2 /usr/local/lib/gcc/arm-elf-eabi/4.9.4/libgcc.a(_arm_cmpsf2.o)
 .debug_line    0x000000000000094e       0x78 /usr/local/lib/gcc/arm-elf-eabi/4.9.4/libgcc.a(_arm_fixsfsi.o)
 .debug_line    0x00000000000009c6       0x76 /usr/local/lib/gcc/arm-elf-eabi/4.9.4/libgcc.a(_arm_fixunssfsi.o)
 .debug_line    0x0000000000000a3c       0x6e /usr/local/lib/gcc/arm-elf-eabi/4.9.4/libgcc.a(_clzsi2.o)
 .debug_line    0x0000000000000aaa       0x65 /usr/local/lib/gcc/arm-elf-eabi/4.9.4/libgcc.a(_aeabi_ldivmod.o)
 .debug_line    0x0000000000000b0f       0x64 /usr/local/lib/gcc/arm-elf-eabi/4.9.4/libgcc.a(_aeabi_uldivmod.o)
 .debug_line    0x0000000000000b73       0x65 /usr/local/lib/gcc/arm-elf-eabi/4.9.4/libgcc.a(bpabi.o)
 .debug_line    0x0000000000000bd8       0x9e /usr/local/lib/gcc/arm-elf-eabi/4.9.4/libgcc.a(_divdi3.o)
 .debug_line    0x0000000000000c76       0x98 /usr/local/lib/gcc/arm-elf-eabi/4.9.4/libgcc.a(_udivdi3.o)
 .debug_line    0x0000000000000d0e       0x6b /usr/local/lib/gcc/arm-elf-eabi/4.9.4/libgcc.a(_clzdi2.o)

.debug_info     0x0000000000000000      0xf27
 .debug_info    0x0000000000000000       0x88 /usr/local/lib/gcc/arm-elf-eabi/4.9.4/libgcc.a(_udivsi3.o)
 .debug_info    0x0000000000000088       0x88 /usr/local/lib/gcc/arm-elf-eabi/4.9.4/libgcc.a(_divsi3.o)
 .debug_info    0x0000000000000110       0x88 /usr/local/lib/gcc/arm-elf-eabi/4.9.4/libgcc.a(_dvmd_tls.o)
 .debug_info    0x0000000000000198       0x89 /usr/local/lib/gcc/arm-elf-eabi/4.9.4/libgcc.a(_arm_addsubdf3.o)
 .debug_info    0x0000000000000221       0x89 /usr/local/lib/gcc/arm-elf-eabi/4.9.4/libgcc.a(_arm_muldivdf3.o)
 .debug_info    0x00000000000002aa       0x89 /usr/local/lib/gcc/arm-elf-eabi/4.9.4/libgcc.a(_arm_cmpdf2.o)
 .debug_info    0x0000000000000333       0x89 /usr/local/lib/gcc/arm-elf-eabi/4.9.4/libgcc.a(_arm_fixdfsi.o)
 .debug_info    0x00000000000003bc       0x89 /usr/local/lib/gcc/arm-elf-eabi/4.9.4/libgcc.a(_arm_fixunsdfsi.o)
 .debug_info    0x0000000000000445       0x89 /usr/local/lib/gcc/arm-elf-eabi/4.9.4/libgcc.a(_arm_truncdfsf2.o)
 .debug_info    0x00000000000004ce       0x89 /usr/local/lib/gcc/arm-elf-eabi/4.9.4/libgcc.a(_arm_addsubsf3.o)
 .debug_info    0x0000000000000557       0x89 /usr/local/lib/gcc/arm-elf-eabi/4.9.4/libgcc.a(_arm_muldivsf3.o)
 .debug_info    0x00000000000005e0       0x89 /usr/local/lib/gcc/arm-elf-eabi/4.9.4/libgcc.a(_arm_cmpsf2.o)
 .debug_info    0x0000000000000669       0x89 /usr/local/lib/gcc/arm-elf-eabi/4.9.4/libgcc.a(_arm_fixsfsi.o)
 .debug_info    0x00000000000006f2       0x89 /usr/local/lib/gcc/arm-elf-eabi/4.9.4/libgcc.a(_arm_fixunssfsi.o)
 .debug_info    0x000000000000077b       0x88 /usr/local/lib/gcc/arm-elf-eabi/4.9.4/libgcc.a(_clzsi2.o)
 .debug_info    0x0000000000000803       0x84 /usr/local/lib/gcc/arm-elf-eabi/4.9.4/libgcc.a(_aeabi_ldivmod.o)
 .debug_info    0x0000000000000887       0x84 /usr/local/lib/gcc/arm-elf-eabi/4.9.4/libgcc.a(_aeabi_uldivmod.o)
 .debug_info    0x000000000000090b      0x164 /usr/local/lib/gcc/arm-elf-eabi/4.9.4/libgcc.a(bpabi.o)
 .debug_info    0x0000000000000a6f      0x269 /usr/local/lib/gcc/arm-elf-eabi/4.9.4/libgcc.a(_divdi3.o)
 .debug_info    0x0000000000000cd8      0x1c7 /usr/local/lib/gcc/arm-elf-eabi/4.9.4/libgcc.a(_udivdi3.o)
 .debug_info    0x0000000000000e9f       0x88 /usr/local/lib/gcc/arm-elf-eabi/4.9.4/libgcc.a(_clzdi2.o)

.debug_abbrev   0x0000000000000000      0x409
 .debug_abbrev  0x0000000000000000       0x14 /usr/local/lib/gcc/arm-elf-eabi/4.9.4/libgcc.a(_udivsi3.o)
 .debug_abbrev  0x0000000000000014       0x14 /usr/local/lib/gcc/arm-elf-eabi/4.9.4/libgcc.a(_divsi3.o)
 .debug_abbrev  0x0000000000000028       0x14 /usr/local/lib/gcc/arm-elf-eabi/4.9.4/libgcc.a(_dvmd_tls.o)
 .debug_abbrev  0x000000000000003c       0x14 /usr/local/lib/gcc/arm-elf-eabi/4.9.4/libgcc.a(_arm_addsubdf3.o)
 .debug_abbrev  0x0000000000000050       0x14 /usr/local/lib/gcc/arm-elf-eabi/4.9.4/libgcc.a(_arm_muldivdf3.o)
 .debug_abbrev  0x0000000000000064       0x14 /usr/local/lib/gcc/arm-elf-eabi/4.9.4/libgcc.a(_arm_cmpdf2.o)
 .debug_abbrev  0x0000000000000078       0x14 /usr/local/lib/gcc/arm-elf-eabi/4.9.4/libgcc.a(_arm_fixdfsi.o)
 .debug_abbrev  0x000000000000008c       0x14 /usr/local/lib/gcc/arm-elf-eabi/4.9.4/libgcc.a(_arm_fixunsdfsi.o)
 .debug_abbrev  0x00000000000000a0       0x14 /usr/local/lib/gcc/arm-elf-eabi/4.9.4/libgcc.a(_arm_truncdfsf2.o)
 .debug_abbrev  0x00000000000000b4       0x14 /usr/local/lib/gcc/arm-elf-eabi/4.9.4/libgcc.a(_arm_addsubsf3.o)
 .debug_abbrev  0x00000000000000c8       0x14 /usr/local/lib/gcc/arm-elf-eabi/4.9.4/libgcc.a(_arm_muldivsf3.o)
 .debug_abbrev  0x00000000000000dc       0x14 /usr/local/lib/gcc/arm-elf-eabi/4.9.4/libgcc.a(_arm_cmpsf2.o)
 .debug_abbrev  0x00000000000000f0       0x14 /usr/local/lib/gcc/arm-elf-eabi/4.9.4/libgcc.a(_arm_fixsfsi.o)
 .debug_abbrev  0x0000000000000104       0x14 /usr/local/lib/gcc/arm-elf-eabi/4.9.4/libgcc.a(_arm_fixunssfsi.o)
 .debug_abbrev  0x0000000000000118       0x14 /usr/local/lib/gcc/arm-elf-eabi/4.9.4/libgcc.a(_clzsi2.o)
 .debug_abbrev  0x000000000000012c       0x14 /usr/local/lib/gcc/arm-elf-eabi/4.9.4/libgcc.a(_aeabi_ldivmod.o)
 .debug_abbrev  0x0000000000000140       0x14 /usr/local/lib/gcc/arm-elf-eabi/4.9.4/libgcc.a(_aeabi_uldivmod.o)
 .debug_abbrev  0x0000000000000154       0xb7 /usr/local/lib/gcc/arm-elf-eabi/4.9.4/libgcc.a(bpabi.o)
 .debug_abbrev  0x000000000000020b      0x123 /usr/local/lib/gcc/arm-elf-eabi/4.9.4/libgcc.a(_divdi3.o)
 .debug_abbrev  0x000000000000032e       0xc7 /usr/local/lib/gcc/arm-elf-eabi/4.9.4/libgcc.a(_udivdi3.o)
 .debug_abbrev  0x00000000000003f5       0x14 /usr/local/lib/gcc/arm-elf-eabi/4.9.4/libgcc.a(_clzdi2.o)

.debug_aranges  0x0000000000000000      0x2a0
 .debug_aranges
                0x0000000000000000       0x20 /usr/local/lib/gcc/arm-elf-eabi/4.9.4/libgcc.a(_udivsi3.o)
 .debug_aranges
                0x0000000000000020       0x20 /usr/local/lib/gcc/arm-elf-eabi/4.9.4/libgcc.a(_divsi3.o)
 .debug_aranges
                0x0000000000000040       0x20 /usr/local/lib/gcc/arm-elf-eabi/4.9.4/libgcc.a(_dvmd_tls.o)
 .debug_aranges
                0x0000000000000060       0x20 /usr/local/lib/gcc/arm-elf-eabi/4.9.4/libgcc.a(_arm_addsubdf3.o)
 .debug_aranges
                0x0000000000000080       0x20 /usr/local/lib/gcc/arm-elf-eabi/4.9.4/libgcc.a(_arm_muldivdf3.o)
 .debug_aranges
                0x00000000000000a0       0x20 /usr/local/lib/gcc/arm-elf-eabi/4.9.4/libgcc.a(_arm_cmpdf2.o)
 .debug_aranges
                0x00000000000000c0       0x20 /usr/local/lib/gcc/arm-elf-eabi/4.9.4/libgcc.a(_arm_fixdfsi.o)
 .debug_aranges
                0x00000000000000e0       0x20 /usr/local/lib/gcc/arm-elf-eabi/4.9.4/libgcc.a(_arm_fixunsdfsi.o)
 .debug_aranges
                0x0000000000000100       0x20 /usr/local/lib/gcc/arm-elf-eabi/4.9.4/libgcc.a(_arm_truncdfsf2.o)
 .debug_aranges
                0x0000000000000120       0x20 /usr/local/lib/gcc/arm-elf-eabi/4.9.4/libgcc.a(_arm_addsubsf3.o)
 .debug_aranges
                0x0000000000000140       0x20 /usr/local/lib/gcc/arm-elf-eabi/4.9.4/libgcc.a(_arm_muldivsf3.o)
 .debug_aranges
                0x0000000000000160       0x20 /usr/local/lib/gcc/arm-elf-eabi/4.9.4/libgcc.a(_arm_cmpsf2.o)
 .debug_aranges
                0x0000000000000180       0x20 /usr/local/lib/gcc/arm-elf-eabi/4.9.4/libgcc.a(_arm_fixsfsi.o)
 .debug_aranges
                0x00000000000001a0       0x20 /usr/local/lib/gcc/arm-elf-eabi/4.9.4/libgcc.a(_arm_fixunssfsi.o)
 .debug_aranges
                0x00000000000001c0       0x20 /usr/local/lib/gcc/arm-elf-eabi/4.9.4/libgcc.a(_clzsi2.o)
 .debug_aranges
                0x00000000000001e0       0x20 /usr/local/lib/gcc/arm-elf-eabi/4.9.4/libgcc.a(_aeabi_ldivmod.o)
 .debug_aranges
                0x0000000000000200       0x20 /usr/local/lib/gcc/arm-elf-eabi/4.9.4/libgcc.a(_aeabi_uldivmod.o)
 .debug_aranges
                0x0000000000000220       0x20 /usr/local/lib/gcc/arm-elf-eabi/4.9.4/libgcc.a(bpabi.o)
 .debug_aranges
                0x0000000000000240       0x20 /usr/local/lib/gcc/arm-elf-eabi/4.9.4/libgcc.a(_divdi3.o)
 .debug_aranges
                0x0000000000000260       0x20 /usr/local/lib/gcc/arm-elf-eabi/4.9.4/libgcc.a(_udivdi3.o)
 .debug_aranges
                0x0000000000000280       0x20 /usr/local/lib/gcc/arm-elf-eabi/4.9.4/libgcc.a(_clzdi2.o)

.debug_loc      0x0000000000000000      0x500
 .debug_loc     0x0000000000000000       0xa0 /usr/local/lib/gcc/arm-elf-eabi/4.9.4/libgcc.a(bpabi.o)
 .debug_loc     0x00000000000000a0      0x27d /usr/local/lib/gcc/arm-elf-eabi/4.9.4/libgcc.a(_divdi3.o)
 .debug_loc     0x000000000000031d      0x1e3 /usr/local/lib/gcc/arm-elf-eabi/4.9.4/libgcc.a(_udivdi3.o)

.debug_str      0x0000000000000000      0x287
 .debug_str     0x0000000000000000      0x152 /usr/local/lib/gcc/arm-elf-eabi/4.9.4/libgcc.a(bpabi.o)
 .debug_str     0x0000000000000152      0x135 /usr/local/lib/gcc/arm-elf-eabi/4.9.4/libgcc.a(_divdi3.o)
                                        0x1dd (size before relaxing)
 .debug_str     0x0000000000000287      0x1ba /usr/local/lib/gcc/arm-elf-eabi/4.9.4/libgcc.a(_udivdi3.o)

.debug_ranges   0x0000000000000000       0x18
 .debug_ranges  0x0000000000000000       0x18 /usr/local/lib/gcc/arm-elf-eabi/4.9.4/libgcc.a(_udivdi3.o)
