Archive member included to satisfy reference by file (symbol)

/home/jbrawley/Desktop/rockbox-photo-cf-support/build/apps/plugins/libplugin.a(xlcd_scroll.o)
                              /home/jbrawley/Desktop/rockbox-photo-cf-support/build/apps/plugins/fractals/fractal.o (xlcd_scroll_left)
/home/jbrawley/Desktop/rockbox-photo-cf-support/build/apps/plugins/libplugin.a(xlcd_core.o)
                              /home/jbrawley/Desktop/rockbox-photo-cf-support/build/apps/plugins/libplugin.a(xlcd_scroll.o) (get_framebuffer)
/home/jbrawley/Desktop/rockbox-photo-cf-support/build/lib/libsetjmp.a(setjmp.o)
                              /home/jbrawley/Desktop/rockbox-photo-cf-support/build/apps/plugins/plugin_crt0.o (setjmp)
/usr/local/lib/gcc/arm-elf-eabi/4.9.4/libgcc.a(_udivsi3.o)
                              /home/jbrawley/Desktop/rockbox-photo-cf-support/build/apps/plugins/fractals/mandelbrot_set.o (__aeabi_uidiv)
/usr/local/lib/gcc/arm-elf-eabi/4.9.4/libgcc.a(_divsi3.o)
                              /home/jbrawley/Desktop/rockbox-photo-cf-support/build/apps/plugins/fractals/mandelbrot_set.o (__aeabi_idiv)
/usr/local/lib/gcc/arm-elf-eabi/4.9.4/libgcc.a(_dvmd_tls.o)
                              /usr/local/lib/gcc/arm-elf-eabi/4.9.4/libgcc.a(_udivsi3.o) (__aeabi_idiv0)

Allocating common symbols
Common symbol       size              file

y_min               0x4               /home/jbrawley/Desktop/rockbox-photo-cf-support/build/apps/plugins/fractals/mandelbrot_set.o
step_log2           0x4               /home/jbrawley/Desktop/rockbox-photo-cf-support/build/apps/plugins/fractals/mandelbrot_set.o
x_delta             0x4               /home/jbrawley/Desktop/rockbox-photo-cf-support/build/apps/plugins/fractals/mandelbrot_set.o
x_min               0x4               /home/jbrawley/Desktop/rockbox-photo-cf-support/build/apps/plugins/fractals/mandelbrot_set.o
x_step              0x4               /home/jbrawley/Desktop/rockbox-photo-cf-support/build/apps/plugins/fractals/mandelbrot_set.o
y_step              0x4               /home/jbrawley/Desktop/rockbox-photo-cf-support/build/apps/plugins/fractals/mandelbrot_set.o
y_max               0x4               /home/jbrawley/Desktop/rockbox-photo-cf-support/build/apps/plugins/fractals/mandelbrot_set.o
max_iter            0x4               /home/jbrawley/Desktop/rockbox-photo-cf-support/build/apps/plugins/fractals/mandelbrot_set.o
x_max               0x4               /home/jbrawley/Desktop/rockbox-photo-cf-support/build/apps/plugins/fractals/mandelbrot_set.o
y_delta             0x4               /home/jbrawley/Desktop/rockbox-photo-cf-support/build/apps/plugins/fractals/mandelbrot_set.o
ops                 0x4               /home/jbrawley/Desktop/rockbox-photo-cf-support/build/apps/plugins/fractals/mandelbrot_set.o

Discarded input sections

 .data          0x0000000000000000        0x0 /home/jbrawley/Desktop/rockbox-photo-cf-support/build/apps/plugins/fractals/fractal.o
 .bss           0x0000000000000000        0x0 /home/jbrawley/Desktop/rockbox-photo-cf-support/build/apps/plugins/fractals/fractal.o
 .data          0x0000000000000000        0x0 /home/jbrawley/Desktop/rockbox-photo-cf-support/build/apps/plugins/fractals/fractal_rect.o
 .text          0x0000000000000000        0x0 /home/jbrawley/Desktop/rockbox-photo-cf-support/build/apps/plugins/libplugin.a(xlcd_scroll.o)
 .data          0x0000000000000000        0x0 /home/jbrawley/Desktop/rockbox-photo-cf-support/build/apps/plugins/libplugin.a(xlcd_scroll.o)
 .bss           0x0000000000000000        0x0 /home/jbrawley/Desktop/rockbox-photo-cf-support/build/apps/plugins/libplugin.a(xlcd_scroll.o)
 .text          0x0000000000000000        0x0 /home/jbrawley/Desktop/rockbox-photo-cf-support/build/apps/plugins/libplugin.a(xlcd_core.o)
 .data          0x0000000000000000        0x0 /home/jbrawley/Desktop/rockbox-photo-cf-support/build/apps/plugins/libplugin.a(xlcd_core.o)
 .bss           0x0000000000000000        0x0 /home/jbrawley/Desktop/rockbox-photo-cf-support/build/apps/plugins/libplugin.a(xlcd_core.o)
 .data          0x0000000000000000        0x0 /home/jbrawley/Desktop/rockbox-photo-cf-support/build/lib/libsetjmp.a(setjmp.o)
 .bss           0x0000000000000000        0x0 /home/jbrawley/Desktop/rockbox-photo-cf-support/build/lib/libsetjmp.a(setjmp.o)
 .data          0x0000000000000000        0x0 /usr/local/lib/gcc/arm-elf-eabi/4.9.4/libgcc.a(_udivsi3.o)
 .bss           0x0000000000000000        0x0 /usr/local/lib/gcc/arm-elf-eabi/4.9.4/libgcc.a(_udivsi3.o)
 .data          0x0000000000000000        0x0 /usr/local/lib/gcc/arm-elf-eabi/4.9.4/libgcc.a(_divsi3.o)
 .bss           0x0000000000000000        0x0 /usr/local/lib/gcc/arm-elf-eabi/4.9.4/libgcc.a(_divsi3.o)
 .data          0x0000000000000000        0x0 /usr/local/lib/gcc/arm-elf-eabi/4.9.4/libgcc.a(_dvmd_tls.o)
 .bss           0x0000000000000000        0x0 /usr/local/lib/gcc/arm-elf-eabi/4.9.4/libgcc.a(_dvmd_tls.o)

Memory Configuration

Name             Origin             Length             Attributes
PLUGIN_RAM       0x0000000001f80000 0x0000000000080000
PLUGIN_IRAM      0x000000004000c000 0x000000000000c000
*default*        0x0000000000000000 0xffffffffffffffff

Linker script and memory map

LOAD /home/jbrawley/Desktop/rockbox-photo-cf-support/build/apps/plugins/fractals/fractal.o
LOAD /home/jbrawley/Desktop/rockbox-photo-cf-support/build/apps/plugins/fractals/fractal_rect.o
LOAD /home/jbrawley/Desktop/rockbox-photo-cf-support/build/apps/plugins/fractals/mandelbrot_set.o
LOAD /home/jbrawley/Desktop/rockbox-photo-cf-support/build/apps/plugins/plugin_crt0.o
LOAD /home/jbrawley/Desktop/rockbox-photo-cf-support/build/apps/plugins/libplugin.a
LOAD /home/jbrawley/Desktop/rockbox-photo-cf-support/build/apps/plugins/bitmaps/libpluginbitmaps.a
LOAD /home/jbrawley/Desktop/rockbox-photo-cf-support/build/lib/libsetjmp.a
LOAD /home/jbrawley/Desktop/rockbox-photo-cf-support/build/lib/libfixedpoint.a
LOAD /usr/local/lib/gcc/arm-elf-eabi/4.9.4/libgcc.a

.header         0x0000000001f80000       0x1c
                0x0000000001f80000                _plugin_start_addr = .
                0x0000000001f80000                plugin_start_addr = .
 *(.header)
 .header        0x0000000001f80000       0x1c /home/jbrawley/Desktop/rockbox-photo-cf-support/build/apps/plugins/plugin_crt0.o
                0x0000000001f80000                __header

.text           0x0000000001f8001c     0x1810
 *(.text*)
 .text          0x0000000001f8001c      0x34c /home/jbrawley/Desktop/rockbox-photo-cf-support/build/apps/plugins/fractals/fractal.o
                0x0000000001f800b8                plugin_start
 .text          0x0000000001f80368      0x2ec /home/jbrawley/Desktop/rockbox-photo-cf-support/build/apps/plugins/fractals/fractal_rect.o
                0x0000000001f803b8                rects_queue_init
                0x0000000001f803dc                rects_calc_all
                0x0000000001f80460                rects_move_up
                0x0000000001f804d8                rects_move_down
                0x0000000001f80558                rects_move_left
                0x0000000001f805d4                rects_move_right
 .text          0x0000000001f80654      0x9d8 /home/jbrawley/Desktop/rockbox-photo-cf-support/build/apps/plugins/fractals/mandelbrot_set.o
 .text          0x0000000001f8102c      0x214 /home/jbrawley/Desktop/rockbox-photo-cf-support/build/apps/plugins/plugin_crt0.o
                0x0000000001f81044                plugin__start
                0x0000000001f81194                rb_atexit
                0x0000000001f811b4                exit
                0x0000000001f811d4                _exit
                0x0000000001f811ec                exit_on_usb
 .text.xlcd_scroll_left
                0x0000000001f81240       0xdc /home/jbrawley/Desktop/rockbox-photo-cf-support/build/apps/plugins/libplugin.a(xlcd_scroll.o)
                0x0000000001f81240                xlcd_scroll_left
 .text.xlcd_scroll_right
                0x0000000001f8131c       0xd0 /home/jbrawley/Desktop/rockbox-photo-cf-support/build/apps/plugins/libplugin.a(xlcd_scroll.o)
                0x0000000001f8131c                xlcd_scroll_right
 .text.xlcd_scroll_up
                0x0000000001f813ec       0xb0 /home/jbrawley/Desktop/rockbox-photo-cf-support/build/apps/plugins/libplugin.a(xlcd_scroll.o)
                0x0000000001f813ec                xlcd_scroll_up
 .text.xlcd_scroll_down
                0x0000000001f8149c       0xb0 /home/jbrawley/Desktop/rockbox-photo-cf-support/build/apps/plugins/libplugin.a(xlcd_scroll.o)
                0x0000000001f8149c                xlcd_scroll_down
 .text.get_framebuffer
                0x0000000001f8154c       0x64 /home/jbrawley/Desktop/rockbox-photo-cf-support/build/apps/plugins/libplugin.a(xlcd_core.o)
                0x0000000001f8154c                get_framebuffer
 .text          0x0000000001f815b0       0x1c /home/jbrawley/Desktop/rockbox-photo-cf-support/build/lib/libsetjmp.a(setjmp.o)
                0x0000000001f815b0                setjmp
                0x0000000001f815bc                longjmp
 .text          0x0000000001f815cc      0x114 /usr/local/lib/gcc/arm-elf-eabi/4.9.4/libgcc.a(_udivsi3.o)
                0x0000000001f815cc                __udivsi3
                0x0000000001f815cc                __aeabi_uidiv
                0x0000000001f816c0                __aeabi_uidivmod
 .text          0x0000000001f816e0      0x148 /usr/local/lib/gcc/arm-elf-eabi/4.9.4/libgcc.a(_divsi3.o)
                0x0000000001f816e0                __aeabi_idiv
                0x0000000001f816e0                __divsi3
                0x0000000001f81808                __aeabi_idivmod
 .text          0x0000000001f81828        0x4 /usr/local/lib/gcc/arm-elf-eabi/4.9.4/libgcc.a(_dvmd_tls.o)
                0x0000000001f81828                __aeabi_ldiv0
                0x0000000001f81828                __aeabi_idiv0
 *(.glue_7)
 .glue_7        0x0000000001f8182c        0x0 linker stubs
 *(.glue_7t)
 .glue_7t       0x0000000001f8182c        0x0 linker stubs

.vfp11_veneer   0x0000000001f8182c        0x0
 .vfp11_veneer  0x0000000001f8182c        0x0 linker stubs

.v4_bx          0x0000000001f8182c        0x0
 .v4_bx         0x0000000001f8182c        0x0 linker stubs

.iplt           0x0000000001f8182c        0x0
 .iplt          0x0000000001f8182c        0x0 /home/jbrawley/Desktop/rockbox-photo-cf-support/build/apps/plugins/fractals/fractal.o

.rel.dyn        0x0000000001f8182c        0x0
 .rel.iplt      0x0000000001f8182c        0x0 /home/jbrawley/Desktop/rockbox-photo-cf-support/build/apps/plugins/fractals/fractal.o

.rodata
 *(.rodata*)

.data           0x0000000001f8182c       0x18
 *(.data*)
 .data          0x0000000001f8182c       0x14 /home/jbrawley/Desktop/rockbox-photo-cf-support/build/apps/plugins/fractals/mandelbrot_set.o
                0x0000000001f8182c                mandelbrot_ops
 .data          0x0000000001f81840        0x4 /home/jbrawley/Desktop/rockbox-photo-cf-support/build/apps/plugins/plugin_crt0.o
                0x0000000001f81840                rb

.igot.plt       0x0000000001f81844        0x0
 .igot.plt      0x0000000001f81844        0x0 /home/jbrawley/Desktop/rockbox-photo-cf-support/build/apps/plugins/fractals/fractal.o

.ncdata         0x0000000011f81844        0xc load address 0x0000000001f81844
                0x0000000011f81850                . = ALIGN (0x10)
 *fill*         0x0000000011f81844        0xc 
 *(.ncdata*)
                0x0000000011f81850                . = ALIGN (0x10)
                0x0000000001f81850                bssaddr = (. - 0x10000000)
                0x0000000001f81850                iramcopy = (. - 0x10000000)

/DISCARD/
 *(.eh_frame)

.bss            0x0000000001f81850      0x474
                0x0000000001f81850                plugin_bss_start = .
                0x0000000001f81850                _plugin_bss_start = .
 *(.bss*)
 .bss           0x0000000001f81850      0x288 /home/jbrawley/Desktop/rockbox-photo-cf-support/build/apps/plugins/fractals/fractal_rect.o
 .bss           0x0000000001f81ad8      0x160 /home/jbrawley/Desktop/rockbox-photo-cf-support/build/apps/plugins/fractals/mandelbrot_set.o
 .bss           0x0000000001f81c38       0x60 /home/jbrawley/Desktop/rockbox-photo-cf-support/build/apps/plugins/plugin_crt0.o
 *(COMMON)
 COMMON         0x0000000001f81c98       0x2c /home/jbrawley/Desktop/rockbox-photo-cf-support/build/apps/plugins/fractals/mandelbrot_set.o
                0x0000000001f81c98                y_min
                0x0000000001f81c9c                step_log2
                0x0000000001f81ca0                x_delta
                0x0000000001f81ca4                x_min
                0x0000000001f81ca8                x_step
                0x0000000001f81cac                y_step
                0x0000000001f81cb0                y_max
                0x0000000001f81cb4                max_iter
                0x0000000001f81cb8                x_max
                0x0000000001f81cbc                y_delta
                0x0000000001f81cc0                ops
                0x0000000001f81cc4                . = ALIGN (0x4)

.ncbss          0x0000000011f81cc4        0xc load address 0x0000000001f81cc4
                0x0000000011f81cd0                . = ALIGN (0x10)
 *fill*         0x0000000011f81cc4        0xc 
 *(.ncbss*)
                0x0000000011f81cd0                . = ALIGN (0x10)
                0x0000000001f81cd0                pluginendaddr = (. - 0x10000000)

.pluginend      0x0000000001f81cd0        0x0
                0x0000000001f81cd0                _plugin_end_addr = .
                0x0000000001f81cd0                plugin_end_addr = .

.iram           0x000000004000c000        0x0 load address 0x0000000001f81850
                0x000000004000c000                iramstart = .
 *(.icode)
 *(.irodata)
 *(.idata)
                0x000000004000c000                iramend = .

.ibss           0x000000004000c000        0x0
                0x000000004000c000                iedata = .
 *(.ibss)
                0x000000004000c000                . = ALIGN (0x4)
                0x000000004000c000                iend = .
                0x0000000001f81cd0                loadendaddr = MAX (plugin_end_addr, (LOADADDR (.iram) + SIZEOF (.iram)))

.pluginloadend  0x0000000001f81cd0        0x0
                0x0000000001f81cd0                _plugin_load_end_addr = .
                0x0000000001f81cd0                plugin_load_end_addr = .

.comment        0x0000000000000000       0x11
 *(.comment)
 .comment       0x0000000000000000       0x11 /home/jbrawley/Desktop/rockbox-photo-cf-support/build/apps/plugins/fractals/fractal.o
                                         0x12 (size before relaxing)
 .comment       0x0000000000000011       0x12 /home/jbrawley/Desktop/rockbox-photo-cf-support/build/apps/plugins/fractals/fractal_rect.o
 .comment       0x0000000000000011       0x12 /home/jbrawley/Desktop/rockbox-photo-cf-support/build/apps/plugins/fractals/mandelbrot_set.o
 .comment       0x0000000000000011       0x12 /home/jbrawley/Desktop/rockbox-photo-cf-support/build/apps/plugins/plugin_crt0.o
 .comment       0x0000000000000011       0x12 /home/jbrawley/Desktop/rockbox-photo-cf-support/build/apps/plugins/libplugin.a(xlcd_scroll.o)
 .comment       0x0000000000000011       0x12 /home/jbrawley/Desktop/rockbox-photo-cf-support/build/apps/plugins/libplugin.a(xlcd_core.o)
OUTPUT(/home/jbrawley/Desktop/rockbox-photo-cf-support/build/apps/plugins/fractals/fractals.elf elf32-littlearm)

.ARM.attributes
                0x0000000000000000       0x2e
 .ARM.attributes
                0x0000000000000000       0x30 /home/jbrawley/Desktop/rockbox-photo-cf-support/build/apps/plugins/fractals/fractal.o
 .ARM.attributes
                0x0000000000000030       0x30 /home/jbrawley/Desktop/rockbox-photo-cf-support/build/apps/plugins/fractals/fractal_rect.o
 .ARM.attributes
                0x0000000000000060       0x30 /home/jbrawley/Desktop/rockbox-photo-cf-support/build/apps/plugins/fractals/mandelbrot_set.o
 .ARM.attributes
                0x0000000000000090       0x30 /home/jbrawley/Desktop/rockbox-photo-cf-support/build/apps/plugins/plugin_crt0.o
 .ARM.attributes
                0x00000000000000c0       0x30 /home/jbrawley/Desktop/rockbox-photo-cf-support/build/apps/plugins/libplugin.a(xlcd_scroll.o)
 .ARM.attributes
                0x00000000000000f0       0x30 /home/jbrawley/Desktop/rockbox-photo-cf-support/build/apps/plugins/libplugin.a(xlcd_core.o)
 .ARM.attributes
                0x0000000000000120       0x20 /home/jbrawley/Desktop/rockbox-photo-cf-support/build/lib/libsetjmp.a(setjmp.o)
 .ARM.attributes
                0x0000000000000140       0x18 /usr/local/lib/gcc/arm-elf-eabi/4.9.4/libgcc.a(_udivsi3.o)
 .ARM.attributes
                0x0000000000000158       0x18 /usr/local/lib/gcc/arm-elf-eabi/4.9.4/libgcc.a(_divsi3.o)
 .ARM.attributes
                0x0000000000000170       0x18 /usr/local/lib/gcc/arm-elf-eabi/4.9.4/libgcc.a(_dvmd_tls.o)

.debug_frame    0x0000000000000000       0x40
 .debug_frame   0x0000000000000000       0x20 /usr/local/lib/gcc/arm-elf-eabi/4.9.4/libgcc.a(_udivsi3.o)
 .debug_frame   0x0000000000000020       0x20 /usr/local/lib/gcc/arm-elf-eabi/4.9.4/libgcc.a(_divsi3.o)

.debug_line     0x0000000000000000      0x169
 .debug_line    0x0000000000000000       0x7e /usr/local/lib/gcc/arm-elf-eabi/4.9.4/libgcc.a(_udivsi3.o)
 .debug_line    0x000000000000007e       0x8a /usr/local/lib/gcc/arm-elf-eabi/4.9.4/libgcc.a(_divsi3.o)
 .debug_line    0x0000000000000108       0x61 /usr/local/lib/gcc/arm-elf-eabi/4.9.4/libgcc.a(_dvmd_tls.o)

.debug_info     0x0000000000000000      0x198
 .debug_info    0x0000000000000000       0x88 /usr/local/lib/gcc/arm-elf-eabi/4.9.4/libgcc.a(_udivsi3.o)
 .debug_info    0x0000000000000088       0x88 /usr/local/lib/gcc/arm-elf-eabi/4.9.4/libgcc.a(_divsi3.o)
 .debug_info    0x0000000000000110       0x88 /usr/local/lib/gcc/arm-elf-eabi/4.9.4/libgcc.a(_dvmd_tls.o)

.debug_abbrev   0x0000000000000000       0x3c
 .debug_abbrev  0x0000000000000000       0x14 /usr/local/lib/gcc/arm-elf-eabi/4.9.4/libgcc.a(_udivsi3.o)
 .debug_abbrev  0x0000000000000014       0x14 /usr/local/lib/gcc/arm-elf-eabi/4.9.4/libgcc.a(_divsi3.o)
 .debug_abbrev  0x0000000000000028       0x14 /usr/local/lib/gcc/arm-elf-eabi/4.9.4/libgcc.a(_dvmd_tls.o)

.debug_aranges  0x0000000000000000       0x60
 .debug_aranges
                0x0000000000000000       0x20 /usr/local/lib/gcc/arm-elf-eabi/4.9.4/libgcc.a(_udivsi3.o)
 .debug_aranges
                0x0000000000000020       0x20 /usr/local/lib/gcc/arm-elf-eabi/4.9.4/libgcc.a(_divsi3.o)
 .debug_aranges
                0x0000000000000040       0x20 /usr/local/lib/gcc/arm-elf-eabi/4.9.4/libgcc.a(_dvmd_tls.o)
