Archive member included to satisfy reference by file (symbol)

/home/jbrawley/Desktop/rockbox-photo-cf-support/build/apps/plugins/libplugin.a(gcc-support.o)
                              /home/jbrawley/Desktop/rockbox-photo-cf-support/build/apps/plugins/doom/f_wipe.o (memcpy)
/home/jbrawley/Desktop/rockbox-photo-cf-support/build/apps/plugins/libplugin.a(helper.o)
                              /home/jbrawley/Desktop/rockbox-photo-cf-support/build/apps/plugins/doom/rockdoom.o (backlight_ignore_timeout)
/home/jbrawley/Desktop/rockbox-photo-cf-support/build/apps/plugins/libplugin.a(strncpy.o)
                              /home/jbrawley/Desktop/rockbox-photo-cf-support/build/apps/plugins/doom/m_menu.o (strncpy)
/home/jbrawley/Desktop/rockbox-photo-cf-support/build/lib/libsetjmp.a(setjmp.o)
                              /home/jbrawley/Desktop/rockbox-photo-cf-support/build/apps/plugins/plugin_crt0.o (setjmp)
/usr/local/lib/gcc/arm-elf-eabi/4.9.4/libgcc.a(_udivsi3.o)
                              /home/jbrawley/Desktop/rockbox-photo-cf-support/build/apps/plugins/doom/tables.o (__aeabi_uidiv)
/usr/local/lib/gcc/arm-elf-eabi/4.9.4/libgcc.a(_divsi3.o)
                              /home/jbrawley/Desktop/rockbox-photo-cf-support/build/apps/plugins/doom/g_game.o (__aeabi_idiv)
/usr/local/lib/gcc/arm-elf-eabi/4.9.4/libgcc.a(_dvmd_tls.o)
                              /usr/local/lib/gcc/arm-elf-eabi/4.9.4/libgcc.a(_udivsi3.o) (__aeabi_idiv0)
/usr/local/lib/gcc/arm-elf-eabi/4.9.4/libgcc.a(_arm_addsubsf3.o)
                              /home/jbrawley/Desktop/rockbox-photo-cf-support/build/apps/plugins/doom/f_finale.o (__aeabi_fadd)
/usr/local/lib/gcc/arm-elf-eabi/4.9.4/libgcc.a(_arm_muldivsf3.o)
                              /home/jbrawley/Desktop/rockbox-photo-cf-support/build/apps/plugins/doom/f_finale.o (__aeabi_fmul)
/usr/local/lib/gcc/arm-elf-eabi/4.9.4/libgcc.a(_arm_cmpsf2.o)
                              /home/jbrawley/Desktop/rockbox-photo-cf-support/build/apps/plugins/doom/f_finale.o (__aeabi_fcmpgt)
/usr/local/lib/gcc/arm-elf-eabi/4.9.4/libgcc.a(_arm_fixsfsi.o)
                              /home/jbrawley/Desktop/rockbox-photo-cf-support/build/apps/plugins/doom/f_finale.o (__aeabi_f2iz)
/usr/local/lib/gcc/arm-elf-eabi/4.9.4/libgcc.a(_aeabi_ldivmod.o)
                              /home/jbrawley/Desktop/rockbox-photo-cf-support/build/apps/plugins/doom/am_map.o (__aeabi_ldivmod)
/usr/local/lib/gcc/arm-elf-eabi/4.9.4/libgcc.a(_aeabi_uldivmod.o)
                              /home/jbrawley/Desktop/rockbox-photo-cf-support/build/apps/plugins/doom/p_enemy.o (__aeabi_uldivmod)
/usr/local/lib/gcc/arm-elf-eabi/4.9.4/libgcc.a(bpabi.o)
                              /usr/local/lib/gcc/arm-elf-eabi/4.9.4/libgcc.a(_aeabi_ldivmod.o) (__gnu_ldivmod_helper)
/usr/local/lib/gcc/arm-elf-eabi/4.9.4/libgcc.a(_divdi3.o)
                              /usr/local/lib/gcc/arm-elf-eabi/4.9.4/libgcc.a(bpabi.o) (__divdi3)
/usr/local/lib/gcc/arm-elf-eabi/4.9.4/libgcc.a(_udivdi3.o)
                              /usr/local/lib/gcc/arm-elf-eabi/4.9.4/libgcc.a(bpabi.o) (__udivdi3)
/usr/local/lib/gcc/arm-elf-eabi/4.9.4/libgcc.a(_clzdi2.o)
                              /usr/local/lib/gcc/arm-elf-eabi/4.9.4/libgcc.a(_divdi3.o) (__clzdi2)
/usr/local/lib/gcc/arm-elf-eabi/4.9.4/libgcc.a(_clzsi2.o)
                              /usr/local/lib/gcc/arm-elf-eabi/4.9.4/libgcc.a(_clzdi2.o) (__clzsi2)

Allocating common symbols
Common symbol       size              file

sidedef             0x4               /home/jbrawley/Desktop/rockbox-photo-cf-support/build/apps/plugins/doom/r_bsp.o
sectors             0x4               /home/jbrawley/Desktop/rockbox-photo-cf-support/build/apps/plugins/doom/p_setup.o
numflats            0x4               /home/jbrawley/Desktop/rockbox-photo-cf-support/build/apps/plugins/doom/r_data.o
pspritescale        0x4               /home/jbrawley/Desktop/rockbox-photo-cf-support/build/apps/plugins/doom/r_things.o
castonmelee         0x4               /home/jbrawley/Desktop/rockbox-photo-cf-support/build/apps/plugins/doom/f_finale.o
timingdemo          0x4               /home/jbrawley/Desktop/rockbox-photo-cf-support/build/apps/plugins/doom/g_game.o
maxdrawsegs         0x4               /home/jbrawley/Desktop/rockbox-photo-cf-support/build/apps/plugins/doom/r_bsp.o
hudcolor_list       0x4               /home/jbrawley/Desktop/rockbox-photo-cf-support/build/apps/plugins/doom/hu_stuff.o
mapcolor_fchg       0x4               /home/jbrawley/Desktop/rockbox-photo-cf-support/build/apps/plugins/doom/am_map.o
paused              0x4               /home/jbrawley/Desktop/rockbox-photo-cf-support/build/apps/plugins/doom/g_game.o
key_spy             0x4               /home/jbrawley/Desktop/rockbox-photo-cf-support/build/apps/plugins/doom/g_game.o
bmapwidth           0x4               /home/jbrawley/Desktop/rockbox-photo-cf-support/build/apps/plugins/doom/p_setup.o
sprites             0x4               /home/jbrawley/Desktop/rockbox-photo-cf-support/build/apps/plugins/doom/r_things.o
whichSkull          0x2               /home/jbrawley/Desktop/rockbox-photo-cf-support/build/apps/plugins/doom/m_menu.o
skytexture          0x4               /home/jbrawley/Desktop/rockbox-photo-cf-support/build/apps/plugins/doom/r_sky.o
totalitems          0x4               /home/jbrawley/Desktop/rockbox-photo-cf-support/build/apps/plugins/doom/g_game.o
debugfile           0x4               /home/jbrawley/Desktop/rockbox-photo-cf-support/build/apps/plugins/doom/d_main.o
idmusnum            0x4               /home/jbrawley/Desktop/rockbox-photo-cf-support/build/apps/plugins/doom/s_sound.o
projection          0x4               /home/jbrawley/Desktop/rockbox-photo-cf-support/build/apps/plugins/doom/r_main.o
brain               0x8               /home/jbrawley/Desktop/rockbox-photo-cf-support/build/apps/plugins/doom/p_enemy.o
rw_x                0x4               /home/jbrawley/Desktop/rockbox-photo-cf-support/build/apps/plugins/doom/r_segs.o
ceilingplane        0x4               /home/jbrawley/Desktop/rockbox-photo-cf-support/build/apps/plugins/doom/r_plane.o
ammo_yellow         0x4               /home/jbrawley/Desktop/rockbox-photo-cf-support/build/apps/plugins/doom/st_stuff.o
viewcos             0x4               /home/jbrawley/Desktop/rockbox-photo-cf-support/build/apps/plugins/doom/r_main.o
linedef             0x4               /home/jbrawley/Desktop/rockbox-photo-cf-support/build/apps/plugins/doom/r_bsp.o
systemvol           0x4               /home/jbrawley/Desktop/rockbox-photo-cf-support/build/apps/plugins/doom/m_menu.o
vertexes            0x4               /home/jbrawley/Desktop/rockbox-photo-cf-support/build/apps/plugins/doom/p_setup.o
fixedcolormap       0x4               /home/jbrawley/Desktop/rockbox-photo-cf-support/build/apps/plugins/doom/r_main.o
default_help_friends
                    0x4               /home/jbrawley/Desktop/rockbox-photo-cf-support/build/apps/plugins/doom/doomstat.o
deathmatch_p        0x4               /home/jbrawley/Desktop/rockbox-photo-cf-support/build/apps/plugins/doom/p_setup.o
key_menu_enter      0x4               /home/jbrawley/Desktop/rockbox-photo-cf-support/build/apps/plugins/doom/g_game.o
openbacksector      0x4               /home/jbrawley/Desktop/rockbox-photo-cf-support/build/apps/plugins/doom/p_maputl.o
key_quicksave       0x4               /home/jbrawley/Desktop/rockbox-photo-cf-support/build/apps/plugins/doom/g_game.o
key_backspace       0x4               /home/jbrawley/Desktop/rockbox-photo-cf-support/build/apps/plugins/doom/g_game.o
castnum             0x4               /home/jbrawley/Desktop/rockbox-photo-cf-support/build/apps/plugins/doom/f_finale.o
mouseSensitivity    0x4               /home/jbrawley/Desktop/rockbox-photo-cf-support/build/apps/plugins/doom/m_menu.o
tmceilingz          0x4               /home/jbrawley/Desktop/rockbox-photo-cf-support/build/apps/plugins/doom/p_map.o
key_weapontoggle    0x4               /home/jbrawley/Desktop/rockbox-photo-cf-support/build/apps/plugins/doom/g_game.o
saveOldString       0x18              /home/jbrawley/Desktop/rockbox-photo-cf-support/build/apps/plugins/doom/m_menu.o
maketic             0x4               /home/jbrawley/Desktop/rockbox-photo-cf-support/build/apps/plugins/doom/d_net.o
startmap            0x4               /home/jbrawley/Desktop/rockbox-photo-cf-support/build/apps/plugins/doom/d_main.o
key_quickload       0x4               /home/jbrawley/Desktop/rockbox-photo-cf-support/build/apps/plugins/doom/g_game.o
zlight              0x4               /home/jbrawley/Desktop/rockbox-photo-cf-support/build/apps/plugins/doom/r_main.o
extralight          0x4               /home/jbrawley/Desktop/rockbox-photo-cf-support/build/apps/plugins/doom/r_main.o
default_monkeys     0x4               /home/jbrawley/Desktop/rockbox-photo-cf-support/build/apps/plugins/doom/doomstat.o
starttime           0x4               /home/jbrawley/Desktop/rockbox-photo-cf-support/build/apps/plugins/doom/g_game.o
bmaporgy            0x4               /home/jbrawley/Desktop/rockbox-photo-cf-support/build/apps/plugins/doom/p_setup.o
rng                 0x100             /home/jbrawley/Desktop/rockbox-photo-cf-support/build/apps/plugins/doom/m_random.o
numsides            0x4               /home/jbrawley/Desktop/rockbox-photo-cf-support/build/apps/plugins/doom/p_setup.o
blockmaplump        0x4               /home/jbrawley/Desktop/rockbox-photo-cf-support/build/apps/plugins/doom/p_setup.o
hu_font             0x76c             /home/jbrawley/Desktop/rockbox-photo-cf-support/build/apps/plugins/doom/hu_stuff.o
openbottom          0x4               /home/jbrawley/Desktop/rockbox-photo-cf-support/build/apps/plugins/doom/p_maputl.o
skullAnimCounter    0x2               /home/jbrawley/Desktop/rockbox-photo-cf-support/build/apps/plugins/doom/m_menu.o
activeplats         0x4               /home/jbrawley/Desktop/rockbox-photo-cf-support/build/apps/plugins/doom/p_plats.o
openrange           0x4               /home/jbrawley/Desktop/rockbox-photo-cf-support/build/apps/plugins/doom/p_maputl.o
numbraintargets     0x4               /home/jbrawley/Desktop/rockbox-photo-cf-support/build/apps/plugins/doom/p_enemy.o
rejectmatrix        0x4               /home/jbrawley/Desktop/rockbox-photo-cf-support/build/apps/plugins/doom/p_setup.o
textureheight       0x4               /home/jbrawley/Desktop/rockbox-photo-cf-support/build/apps/plugins/doom/r_data.o
trace               0x10              /home/jbrawley/Desktop/rockbox-photo-cf-support/build/apps/plugins/doom/p_maputl.o
key_loadgame        0x4               /home/jbrawley/Desktop/rockbox-photo-cf-support/build/apps/plugins/doom/g_game.o
lastopening         0x4               /home/jbrawley/Desktop/rockbox-photo-cf-support/build/apps/plugins/doom/r_plane.o
viewy               0x4               /home/jbrawley/Desktop/rockbox-photo-cf-support/build/apps/plugins/doom/r_main.o
shiftxform          0x4               /home/jbrawley/Desktop/rockbox-photo-cf-support/build/apps/plugins/doom/hu_stuff.o
key_zoomout         0x4               /home/jbrawley/Desktop/rockbox-photo-cf-support/build/apps/plugins/doom/g_game.o
blockline           0x4               /home/jbrawley/Desktop/rockbox-photo-cf-support/build/apps/plugins/doom/p_map.o
finesine            0x4               /home/jbrawley/Desktop/rockbox-photo-cf-support/build/apps/plugins/doom/tables.o
hud_displayed       0x4               /home/jbrawley/Desktop/rockbox-photo-cf-support/build/apps/plugins/doom/hu_stuff.o
firstflat           0x4               /home/jbrawley/Desktop/rockbox-photo-cf-support/build/apps/plugins/doom/r_data.o
defaultskill        0x4               /home/jbrawley/Desktop/rockbox-photo-cf-support/build/apps/plugins/doom/g_game.o
opentop             0x4               /home/jbrawley/Desktop/rockbox-photo-cf-support/build/apps/plugins/doom/p_maputl.o
ceilingline         0x4               /home/jbrawley/Desktop/rockbox-photo-cf-support/build/apps/plugins/doom/p_map.o
mapcolor_unsn       0x4               /home/jbrawley/Desktop/rockbox-photo-cf-support/build/apps/plugins/doom/am_map.o
key_weapon4         0x4               /home/jbrawley/Desktop/rockbox-photo-cf-support/build/apps/plugins/doom/g_game.o
tantoangle          0x4               /home/jbrawley/Desktop/rockbox-photo-cf-support/build/apps/plugins/doom/tables.o
mousebstrafe        0x4               /home/jbrawley/Desktop/rockbox-photo-cf-support/build/apps/plugins/doom/g_game.o
default_translucency
                    0x4               /home/jbrawley/Desktop/rockbox-photo-cf-support/build/apps/plugins/doom/doomstat.o
levelTimeCount      0x4               /home/jbrawley/Desktop/rockbox-photo-cf-support/build/apps/plugins/doom/p_spec.o
levelFragLimit      0x4               /home/jbrawley/Desktop/rockbox-photo-cf-support/build/apps/plugins/doom/p_spec.o
mapcolor_rdor       0x4               /home/jbrawley/Desktop/rockbox-photo-cf-support/build/apps/plugins/doom/am_map.o
armor_red           0x4               /home/jbrawley/Desktop/rockbox-photo-cf-support/build/apps/plugins/doom/st_stuff.o
mapcolor_ykey       0x4               /home/jbrawley/Desktop/rockbox-photo-cf-support/build/apps/plugins/doom/am_map.o
key_menu_left       0x4               /home/jbrawley/Desktop/rockbox-photo-cf-support/build/apps/plugins/doom/g_game.o
frontsector         0x4               /home/jbrawley/Desktop/rockbox-photo-cf-support/build/apps/plugins/doom/r_bsp.o
sts_pct_always_gray
                    0x4               /home/jbrawley/Desktop/rockbox-photo-cf-support/build/apps/plugins/doom/st_lib.o
numvertexes         0x4               /home/jbrawley/Desktop/rockbox-photo-cf-support/build/apps/plugins/doom/p_setup.o
mapcolor_flat       0x4               /home/jbrawley/Desktop/rockbox-photo-cf-support/build/apps/plugins/doom/am_map.o
key_hud             0x4               /home/jbrawley/Desktop/rockbox-photo-cf-support/build/apps/plugins/doom/g_game.o
mapcolor_ydor       0x4               /home/jbrawley/Desktop/rockbox-photo-cf-support/build/apps/plugins/doom/am_map.o
mapcolor_rkey       0x4               /home/jbrawley/Desktop/rockbox-photo-cf-support/build/apps/plugins/doom/am_map.o
myargv              0x4               /home/jbrawley/Desktop/rockbox-photo-cf-support/build/apps/plugins/doom/m_argv.o
usemouse            0x4               /home/jbrawley/Desktop/rockbox-photo-cf-support/build/apps/plugins/doom/m_misc.o
hu_msgbg            0xb4              /home/jbrawley/Desktop/rockbox-photo-cf-support/build/apps/plugins/doom/hu_stuff.o
setsizeneeded       0x4               /home/jbrawley/Desktop/rockbox-photo-cf-support/build/apps/plugins/doom/r_main.o
doomexit            0x1               /home/jbrawley/Desktop/rockbox-photo-cf-support/build/apps/plugins/doom/d_main.o
mapcolor_wall       0x4               /home/jbrawley/Desktop/rockbox-photo-cf-support/build/apps/plugins/doom/am_map.o
usergame            0x4               /home/jbrawley/Desktop/rockbox-photo-cf-support/build/apps/plugins/doom/g_game.o
quickSaveSlot       0x4               /home/jbrawley/Desktop/rockbox-photo-cf-support/build/apps/plugins/doom/m_menu.o
thinkerclasscap     0x48              /home/jbrawley/Desktop/rockbox-photo-cf-support/build/apps/plugins/doom/p_tick.o
respawnmonsters     0x4               /home/jbrawley/Desktop/rockbox-photo-cf-support/build/apps/plugins/doom/g_game.o
xtoviewangle        0x374             /home/jbrawley/Desktop/rockbox-photo-cf-support/build/apps/plugins/doom/r_main.o
screenblocks        0x4               /home/jbrawley/Desktop/rockbox-photo-cf-support/build/apps/plugins/doom/m_menu.o
read_e2             0x4               /home/jbrawley/Desktop/rockbox-photo-cf-support/build/apps/plugins/doom/m_menu.o
key_weapon1         0x4               /home/jbrawley/Desktop/rockbox-photo-cf-support/build/apps/plugins/doom/g_game.o
ds_p                0x4               /home/jbrawley/Desktop/rockbox-photo-cf-support/build/apps/plugins/doom/r_bsp.o
scalelight          0x4               /home/jbrawley/Desktop/rockbox-photo-cf-support/build/apps/plugins/doom/r_main.o
tmfloorz            0x4               /home/jbrawley/Desktop/rockbox-photo-cf-support/build/apps/plugins/doom/p_map.o
key_use             0x4               /home/jbrawley/Desktop/rockbox-photo-cf-support/build/apps/plugins/doom/g_game.o
viewwidth           0x4               /home/jbrawley/Desktop/rockbox-photo-cf-support/build/apps/plugins/doom/r_draw.o
joybfire            0x4               /home/jbrawley/Desktop/rockbox-photo-cf-support/build/apps/plugins/doom/g_game.o
iquehead            0x4               /home/jbrawley/Desktop/rockbox-photo-cf-support/build/apps/plugins/doom/p_mobj.o
colfunc             0x4               /home/jbrawley/Desktop/rockbox-photo-cf-support/build/apps/plugins/doom/r_main.o
saveSlot            0x4               /home/jbrawley/Desktop/rockbox-photo-cf-support/build/apps/plugins/doom/m_menu.o
addon               0xc8              /home/jbrawley/Desktop/rockbox-photo-cf-support/build/apps/plugins/doom/rockdoom.o
flattranslation     0x4               /home/jbrawley/Desktop/rockbox-photo-cf-support/build/apps/plugins/doom/r_data.o
consoleplayer       0x4               /home/jbrawley/Desktop/rockbox-photo-cf-support/build/apps/plugins/doom/g_game.o
hudcolor_titl       0x4               /home/jbrawley/Desktop/rockbox-photo-cf-support/build/apps/plugins/doom/hu_stuff.o
playerstarts        0x28              /home/jbrawley/Desktop/rockbox-photo-cf-support/build/apps/plugins/doom/p_setup.o
attackrange         0x4               /home/jbrawley/Desktop/rockbox-photo-cf-support/build/apps/plugins/doom/p_map.o
health_green        0x4               /home/jbrawley/Desktop/rockbox-photo-cf-support/build/apps/plugins/doom/st_stuff.o
key_strafeleft      0x4               /home/jbrawley/Desktop/rockbox-photo-cf-support/build/apps/plugins/doom/g_game.o
distscale           0x370             /home/jbrawley/Desktop/rockbox-photo-cf-support/build/apps/plugins/doom/r_plane.o
default_numChannels
                    0x4               /home/jbrawley/Desktop/rockbox-photo-cf-support/build/apps/plugins/doom/s_sound.o
flashing_hom        0x4               /home/jbrawley/Desktop/rockbox-photo-cf-support/build/apps/plugins/doom/doomstat.o
mapcolor_secr       0x4               /home/jbrawley/Desktop/rockbox-photo-cf-support/build/apps/plugins/doom/am_map.o
usething            0x4               /home/jbrawley/Desktop/rockbox-photo-cf-support/build/apps/plugins/doom/p_map.o
hudcolor_mesg       0x4               /home/jbrawley/Desktop/rockbox-photo-cf-support/build/apps/plugins/doom/hu_stuff.o
mapcolor_clsd       0x4               /home/jbrawley/Desktop/rockbox-photo-cf-support/build/apps/plugins/doom/am_map.o
ffmap               0x4               /home/jbrawley/Desktop/rockbox-photo-cf-support/build/apps/plugins/doom/d_main.o
shootz              0x4               /home/jbrawley/Desktop/rockbox-photo-cf-support/build/apps/plugins/doom/p_map.o
casttics            0x4               /home/jbrawley/Desktop/rockbox-photo-cf-support/build/apps/plugins/doom/f_finale.o
lastshottic         0x4               /home/jbrawley/Desktop/rockbox-photo-cf-support/build/apps/plugins/doom/p_pspr.o
key_map_grid        0x4               /home/jbrawley/Desktop/rockbox-photo-cf-support/build/apps/plugins/doom/g_game.o
openings            0x4               /home/jbrawley/Desktop/rockbox-photo-cf-support/build/apps/plugins/doom/r_plane.o
mapcolor_cchg       0x4               /home/jbrawley/Desktop/rockbox-photo-cf-support/build/apps/plugins/doom/am_map.o
hud_distributed     0x4               /home/jbrawley/Desktop/rockbox-photo-cf-support/build/apps/plugins/doom/hu_stuff.o
mapcolor_frnd       0x4               /home/jbrawley/Desktop/rockbox-photo-cf-support/build/apps/plugins/doom/am_map.o
newgame_e           0x4               /home/jbrawley/Desktop/rockbox-photo-cf-support/build/apps/plugins/doom/m_menu.o
key_map_down        0x4               /home/jbrawley/Desktop/rockbox-photo-cf-support/build/apps/plugins/doom/g_game.o
floorclip           0x1b8             /home/jbrawley/Desktop/rockbox-photo-cf-support/build/apps/plugins/doom/r_plane.o
spryscale           0x4               /home/jbrawley/Desktop/rockbox-photo-cf-support/build/apps/plugins/doom/r_things.o
key_menu_down       0x4               /home/jbrawley/Desktop/rockbox-photo-cf-support/build/apps/plugins/doom/g_game.o
hu_fontk            0x4               /home/jbrawley/Desktop/rockbox-photo-cf-support/build/apps/plugins/doom/hu_stuff.o
tmbbox              0x10              /home/jbrawley/Desktop/rockbox-photo-cf-support/build/apps/plugins/doom/p_map.o
mapcolor_item       0x4               /home/jbrawley/Desktop/rockbox-photo-cf-support/build/apps/plugins/doom/am_map.o
rw_stopx            0x4               /home/jbrawley/Desktop/rockbox-photo-cf-support/build/apps/plugins/doom/r_segs.o
levelTimer          0x4               /home/jbrawley/Desktop/rockbox-photo-cf-support/build/apps/plugins/doom/p_spec.o
lastspritelump      0x4               /home/jbrawley/Desktop/rockbox-photo-cf-support/build/apps/plugins/doom/r_data.o
clipangle           0x4               /home/jbrawley/Desktop/rockbox-photo-cf-support/build/apps/plugins/doom/r_main.o
players             0x480             /home/jbrawley/Desktop/rockbox-photo-cf-support/build/apps/plugins/doom/g_game.o
numsectors          0x4               /home/jbrawley/Desktop/rockbox-photo-cf-support/build/apps/plugins/doom/p_setup.o
startskill          0x4               /home/jbrawley/Desktop/rockbox-photo-cf-support/build/apps/plugins/doom/d_main.o
key_quit            0x4               /home/jbrawley/Desktop/rockbox-photo-cf-support/build/apps/plugins/doom/g_game.o
spritewidth         0x4               /home/jbrawley/Desktop/rockbox-photo-cf-support/build/apps/plugins/doom/r_data.o
key_weapon7         0x4               /home/jbrawley/Desktop/rockbox-photo-cf-support/build/apps/plugins/doom/g_game.o
demo_insurance      0x4               /home/jbrawley/Desktop/rockbox-photo-cf-support/build/apps/plugins/doom/doomstat.o
messageNeedsInput   0x4               /home/jbrawley/Desktop/rockbox-photo-cf-support/build/apps/plugins/doom/m_menu.o
X_opt               0x4               /home/jbrawley/Desktop/rockbox-photo-cf-support/build/apps/plugins/doom/m_misc.o
default_monster_avoid_hazards
                    0x4               /home/jbrawley/Desktop/rockbox-photo-cf-support/build/apps/plugins/doom/doomstat.o
c_zlight            0x4               /home/jbrawley/Desktop/rockbox-photo-cf-support/build/apps/plugins/doom/r_main.o
respawnparm         0x4               /home/jbrawley/Desktop/rockbox-photo-cf-support/build/apps/plugins/doom/d_main.o
clrespawnparm       0x4               /home/jbrawley/Desktop/rockbox-photo-cf-support/build/apps/plugins/doom/d_main.o
projectiony         0x4               /home/jbrawley/Desktop/rockbox-photo-cf-support/build/apps/plugins/doom/r_main.o
num_deathmatchstarts
                    0x4               /home/jbrawley/Desktop/rockbox-photo-cf-support/build/apps/plugins/doom/p_setup.o
viletryx            0x4               /home/jbrawley/Desktop/rockbox-photo-cf-support/build/apps/plugins/doom/p_enemy.o
totalsecret         0x4               /home/jbrawley/Desktop/rockbox-photo-cf-support/build/apps/plugins/doom/g_game.o
screenheightarray   0x1b8             /home/jbrawley/Desktop/rockbox-photo-cf-support/build/apps/plugins/doom/r_things.o
key_map_up          0x4               /home/jbrawley/Desktop/rockbox-photo-cf-support/build/apps/plugins/doom/g_game.o
acceleratestage     0x4               /home/jbrawley/Desktop/rockbox-photo-cf-support/build/apps/plugins/doom/wi_stuff.o
corpsehit           0x4               /home/jbrawley/Desktop/rockbox-photo-cf-support/build/apps/plugins/doom/p_enemy.o
messy               0x4               /home/jbrawley/Desktop/rockbox-photo-cf-support/build/apps/plugins/doom/m_menu.o
snd_device          0x4               /home/jbrawley/Desktop/rockbox-photo-cf-support/build/apps/plugins/doom/m_misc.o
key_messages        0x4               /home/jbrawley/Desktop/rockbox-photo-cf-support/build/apps/plugins/doom/g_game.o
gamestate           0x4               /home/jbrawley/Desktop/rockbox-photo-cf-support/build/apps/plugins/doom/g_game.o
deathmatchstarts    0x4               /home/jbrawley/Desktop/rockbox-photo-cf-support/build/apps/plugins/doom/p_setup.o
statcopy            0x4               /home/jbrawley/Desktop/rockbox-photo-cf-support/build/apps/plugins/doom/g_game.o
backsector          0x4               /home/jbrawley/Desktop/rockbox-photo-cf-support/build/apps/plugins/doom/r_bsp.o
key_reverse         0x4               /home/jbrawley/Desktop/rockbox-photo-cf-support/build/apps/plugins/doom/g_game.o
castattacking       0x4               /home/jbrawley/Desktop/rockbox-photo-cf-support/build/apps/plugins/doom/f_finale.o
key_endgame         0x4               /home/jbrawley/Desktop/rockbox-photo-cf-support/build/apps/plugins/doom/g_game.o
fullcolormap        0x4               /home/jbrawley/Desktop/rockbox-photo-cf-support/build/apps/plugins/doom/r_main.o
default_monsters_remember
                    0x4               /home/jbrawley/Desktop/rockbox-photo-cf-support/build/apps/plugins/doom/doomstat.o
netgame             0x4               /home/jbrawley/Desktop/rockbox-photo-cf-support/build/apps/plugins/doom/g_game.o
anims               0x4               /home/jbrawley/Desktop/rockbox-photo-cf-support/build/apps/plugins/doom/p_spec.o
bodyquesize         0x4               /home/jbrawley/Desktop/rockbox-photo-cf-support/build/apps/plugins/doom/g_game.o
viewsin             0x4               /home/jbrawley/Desktop/rockbox-photo-cf-support/build/apps/plugins/doom/r_main.o
automapmode         0x4               /home/jbrawley/Desktop/rockbox-photo-cf-support/build/apps/plugins/doom/am_map.o
lastflat            0x4               /home/jbrawley/Desktop/rockbox-photo-cf-support/build/apps/plugins/doom/r_data.o
totallive           0x4               /home/jbrawley/Desktop/rockbox-photo-cf-support/build/apps/plugins/doom/g_game.o
mceilingclip        0x4               /home/jbrawley/Desktop/rockbox-photo-cf-support/build/apps/plugins/doom/r_things.o
key_setup           0x4               /home/jbrawley/Desktop/rockbox-photo-cf-support/build/apps/plugins/doom/g_game.o
key_straferight     0x4               /home/jbrawley/Desktop/rockbox-photo-cf-support/build/apps/plugins/doom/g_game.o
episodes_e          0x4               /home/jbrawley/Desktop/rockbox-photo-cf-support/build/apps/plugins/doom/m_menu.o
singledemo          0x4               /home/jbrawley/Desktop/rockbox-photo-cf-support/build/apps/plugins/doom/g_game.o
key_map_follow      0x4               /home/jbrawley/Desktop/rockbox-photo-cf-support/build/apps/plugins/doom/g_game.o
colrngs             0x2c              /home/jbrawley/Desktop/rockbox-photo-cf-support/build/apps/plugins/doom/v_video.o
openfrontsector     0x4               /home/jbrawley/Desktop/rockbox-photo-cf-support/build/apps/plugins/doom/p_maputl.o
netcmds             0x180             /home/jbrawley/Desktop/rockbox-photo-cf-support/build/apps/plugins/doom/d_net.o
namemap             0x1c              /home/jbrawley/Desktop/rockbox-photo-cf-support/build/apps/plugins/doom/rockdoom.o
wminfo              0xcc              /home/jbrawley/Desktop/rockbox-photo-cf-support/build/apps/plugins/doom/g_game.o
messageRoutine      0x4               /home/jbrawley/Desktop/rockbox-photo-cf-support/build/apps/plugins/doom/m_menu.o
joybspeed           0x4               /home/jbrawley/Desktop/rockbox-photo-cf-support/build/apps/plugins/doom/g_game.o
default_variable_friction
                    0x4               /home/jbrawley/Desktop/rockbox-photo-cf-support/build/apps/plugins/doom/doomstat.o
doom_weapon_toggles
                    0x4               /home/jbrawley/Desktop/rockbox-photo-cf-support/build/apps/plugins/doom/doomstat.o
linetarget          0x4               /home/jbrawley/Desktop/rockbox-photo-cf-support/build/apps/plugins/doom/p_map.o
bmaporgx            0x4               /home/jbrawley/Desktop/rockbox-photo-cf-support/build/apps/plugins/doom/p_setup.o
playernumtotrans    0x4               /home/jbrawley/Desktop/rockbox-photo-cf-support/build/apps/plugins/doom/r_draw.o
load_e              0x4               /home/jbrawley/Desktop/rockbox-photo-cf-support/build/apps/plugins/doom/m_menu.o
chat_on             0x4               /home/jbrawley/Desktop/rockbox-photo-cf-support/build/apps/plugins/doom/hu_stuff.o
lastanim            0x4               /home/jbrawley/Desktop/rockbox-photo-cf-support/build/apps/plugins/doom/p_spec.o
texturetranslation  0x4               /home/jbrawley/Desktop/rockbox-photo-cf-support/build/apps/plugins/doom/r_data.o
noblit              0x4               /home/jbrawley/Desktop/rockbox-photo-cf-support/build/apps/plugins/doom/g_game.o
hud_list_bgon       0x4               /home/jbrawley/Desktop/rockbox-photo-cf-support/build/apps/plugins/doom/hu_stuff.o
messageLastMenuActive
                    0x4               /home/jbrawley/Desktop/rockbox-photo-cf-support/build/apps/plugins/doom/m_menu.o
key_menu_right      0x4               /home/jbrawley/Desktop/rockbox-photo-cf-support/build/apps/plugins/doom/g_game.o
caststate           0x4               /home/jbrawley/Desktop/rockbox-photo-cf-support/build/apps/plugins/doom/f_finale.o
subsectors          0x4               /home/jbrawley/Desktop/rockbox-photo-cf-support/build/apps/plugins/doom/p_setup.o
segs                0x4               /home/jbrawley/Desktop/rockbox-photo-cf-support/build/apps/plugins/doom/p_setup.o
mapcolor_hair       0x4               /home/jbrawley/Desktop/rockbox-photo-cf-support/build/apps/plugins/doom/am_map.o
pspriteyscale       0x4               /home/jbrawley/Desktop/rockbox-photo-cf-support/build/apps/plugins/doom/r_things.o
currentMenu         0x4               /home/jbrawley/Desktop/rockbox-photo-cf-support/build/apps/plugins/doom/m_menu.o
numtextures         0x4               /home/jbrawley/Desktop/rockbox-photo-cf-support/build/apps/plugins/doom/r_data.o
default_player_bobbing
                    0x4               /home/jbrawley/Desktop/rockbox-photo-cf-support/build/apps/plugins/doom/doomstat.o
key_map_clear       0x4               /home/jbrawley/Desktop/rockbox-photo-cf-support/build/apps/plugins/doom/g_game.o
nomonsters          0x4               /home/jbrawley/Desktop/rockbox-photo-cf-support/build/apps/plugins/doom/d_main.o
numsegs             0x4               /home/jbrawley/Desktop/rockbox-photo-cf-support/build/apps/plugins/doom/p_setup.o
mousebfire          0x4               /home/jbrawley/Desktop/rockbox-photo-cf-support/build/apps/plugins/doom/g_game.o
key_map_right       0x4               /home/jbrawley/Desktop/rockbox-photo-cf-support/build/apps/plugins/doom/g_game.o
spriteoffset        0x4               /home/jbrawley/Desktop/rockbox-photo-cf-support/build/apps/plugins/doom/r_data.o
firstcolormaplump   0x4               /home/jbrawley/Desktop/rockbox-photo-cf-support/build/apps/plugins/doom/r_data.o
numdefaults         0x4               /home/jbrawley/Desktop/rockbox-photo-cf-support/build/apps/plugins/doom/m_misc.o
clnomonsters        0x4               /home/jbrawley/Desktop/rockbox-photo-cf-support/build/apps/plugins/doom/d_main.o
modifiedgame        0x4               /home/jbrawley/Desktop/rockbox-photo-cf-support/build/apps/plugins/doom/doomstat.o
key_weapon9         0x4               /home/jbrawley/Desktop/rockbox-photo-cf-support/build/apps/plugins/doom/g_game.o
firstspritelump     0x4               /home/jbrawley/Desktop/rockbox-photo-cf-support/build/apps/plugins/doom/r_data.o
devparm             0x4               /home/jbrawley/Desktop/rockbox-photo-cf-support/build/apps/plugins/doom/d_main.o
iquetail            0x4               /home/jbrawley/Desktop/rockbox-photo-cf-support/build/apps/plugins/doom/p_mobj.o
markfloor           0x4               /home/jbrawley/Desktop/rockbox-photo-cf-support/build/apps/plugins/doom/r_segs.o
numsprites          0x4               /home/jbrawley/Desktop/rockbox-photo-cf-support/build/apps/plugins/doom/r_things.o
key_soundvolume     0x4               /home/jbrawley/Desktop/rockbox-photo-cf-support/build/apps/plugins/doom/g_game.o
menuactive          0x4               /home/jbrawley/Desktop/rockbox-photo-cf-support/build/apps/plugins/doom/m_menu.o
key_weapon3         0x4               /home/jbrawley/Desktop/rockbox-photo-cf-support/build/apps/plugins/doom/g_game.o
key_enter           0x4               /home/jbrawley/Desktop/rockbox-photo-cf-support/build/apps/plugins/doom/g_game.o
default_allow_pushers
                    0x4               /home/jbrawley/Desktop/rockbox-photo-cf-support/build/apps/plugins/doom/doomstat.o
mus_pause_opt       0x4               /home/jbrawley/Desktop/rockbox-photo-cf-support/build/apps/plugins/doom/m_misc.o
demoplayback        0x4               /home/jbrawley/Desktop/rockbox-photo-cf-support/build/apps/plugins/doom/g_game.o
default_demo_insurance
                    0x4               /home/jbrawley/Desktop/rockbox-photo-cf-support/build/apps/plugins/doom/doomstat.o
pspriteiscale       0x4               /home/jbrawley/Desktop/rockbox-photo-cf-support/build/apps/plugins/doom/r_things.o
tmdropoffz          0x4               /home/jbrawley/Desktop/rockbox-photo-cf-support/build/apps/plugins/doom/p_map.o
totalkills          0x4               /home/jbrawley/Desktop/rockbox-photo-cf-support/build/apps/plugins/doom/g_game.o
gameskill           0x4               /home/jbrawley/Desktop/rockbox-photo-cf-support/build/apps/plugins/doom/g_game.o
playeringame        0x10              /home/jbrawley/Desktop/rockbox-photo-cf-support/build/apps/plugins/doom/g_game.o
bmapheight          0x4               /home/jbrawley/Desktop/rockbox-photo-cf-support/build/apps/plugins/doom/p_setup.o
mapcolor_sngl       0x4               /home/jbrawley/Desktop/rockbox-photo-cf-support/build/apps/plugins/doom/am_map.o
key_zoomin          0x4               /home/jbrawley/Desktop/rockbox-photo-cf-support/build/apps/plugins/doom/g_game.o
numlines            0x4               /home/jbrawley/Desktop/rockbox-photo-cf-support/build/apps/plugins/doom/p_setup.o
viewplayer          0x4               /home/jbrawley/Desktop/rockbox-photo-cf-support/build/apps/plugins/doom/r_main.o
translationtables   0x4               /home/jbrawley/Desktop/rockbox-photo-cf-support/build/apps/plugins/doom/r_draw.o
sprtopscreen        0x4               /home/jbrawley/Desktop/rockbox-photo-cf-support/build/apps/plugins/doom/r_things.o
walllights          0x4               /home/jbrawley/Desktop/rockbox-photo-cf-support/build/apps/plugins/doom/r_segs.o
itemrespawntime     0x200             /home/jbrawley/Desktop/rockbox-photo-cf-support/build/apps/plugins/doom/p_mobj.o
gameepisode         0x4               /home/jbrawley/Desktop/rockbox-photo-cf-support/build/apps/plugins/doom/g_game.o
main_e              0x4               /home/jbrawley/Desktop/rockbox-photo-cf-support/build/apps/plugins/doom/m_menu.o
viewz               0x4               /home/jbrawley/Desktop/rockbox-photo-cf-support/build/apps/plugins/doom/r_main.o
hud_nosecrets       0x4               /home/jbrawley/Desktop/rockbox-photo-cf-support/build/apps/plugins/doom/hu_stuff.o
key_map             0x4               /home/jbrawley/Desktop/rockbox-photo-cf-support/build/apps/plugins/doom/g_game.o
joybstrafe          0x4               /home/jbrawley/Desktop/rockbox-photo-cf-support/build/apps/plugins/doom/g_game.o
mfloorclip          0x4               /home/jbrawley/Desktop/rockbox-photo-cf-support/build/apps/plugins/doom/r_things.o
destination_keys    0x10              /home/jbrawley/Desktop/rockbox-photo-cf-support/build/apps/plugins/doom/g_game.o
key_fire            0x4               /home/jbrawley/Desktop/rockbox-photo-cf-support/build/apps/plugins/doom/g_game.o
key_menu_escape     0x4               /home/jbrawley/Desktop/rockbox-photo-cf-support/build/apps/plugins/doom/g_game.o
segtextured         0x4               /home/jbrawley/Desktop/rockbox-photo-cf-support/build/apps/plugins/doom/r_segs.o
key_menu_up         0x4               /home/jbrawley/Desktop/rockbox-photo-cf-support/build/apps/plugins/doom/g_game.o
gametic             0x4               /home/jbrawley/Desktop/rockbox-photo-cf-support/build/apps/plugins/doom/g_game.o
lastcolormaplump    0x4               /home/jbrawley/Desktop/rockbox-photo-cf-support/build/apps/plugins/doom/r_data.o
nodes               0x4               /home/jbrawley/Desktop/rockbox-photo-cf-support/build/apps/plugins/doom/p_setup.o
numcolormaps        0x4               /home/jbrawley/Desktop/rockbox-photo-cf-support/build/apps/plugins/doom/r_main.o
filearray           0x24              /home/jbrawley/Desktop/rockbox-photo-cf-support/build/apps/plugins/doom/rockdoom.o
armor_yellow        0x4               /home/jbrawley/Desktop/rockbox-photo-cf-support/build/apps/plugins/doom/st_stuff.o
joybuse             0x4               /home/jbrawley/Desktop/rockbox-photo-cf-support/build/apps/plugins/doom/g_game.o
numnodes            0x4               /home/jbrawley/Desktop/rockbox-photo-cf-support/build/apps/plugins/doom/p_setup.o
key_weapon8         0x4               /home/jbrawley/Desktop/rockbox-photo-cf-support/build/apps/plugins/doom/g_game.o
key_savegame        0x4               /home/jbrawley/Desktop/rockbox-photo-cf-support/build/apps/plugins/doom/g_game.o
key_right           0x4               /home/jbrawley/Desktop/rockbox-photo-cf-support/build/apps/plugins/doom/g_game.o
default_monster_backing
                    0x4               /home/jbrawley/Desktop/rockbox-photo-cf-support/build/apps/plugins/doom/doomstat.o
key_map_overlay     0x4               /home/jbrawley/Desktop/rockbox-photo-cf-support/build/apps/plugins/doom/g_game.o
key_autorun         0x4               /home/jbrawley/Desktop/rockbox-photo-cf-support/build/apps/plugins/doom/g_game.o
rw_normalangle      0x4               /home/jbrawley/Desktop/rockbox-photo-cf-support/build/apps/plugins/doom/r_segs.o
fastparm            0x4               /home/jbrawley/Desktop/rockbox-photo-cf-support/build/apps/plugins/doom/d_main.o
skyflatnum          0x4               /home/jbrawley/Desktop/rockbox-photo-cf-support/build/apps/plugins/doom/r_sky.o
curline             0x4               /home/jbrawley/Desktop/rockbox-photo-cf-support/build/apps/plugins/doom/r_bsp.o
numChannels         0x4               /home/jbrawley/Desktop/rockbox-photo-cf-support/build/apps/plugins/doom/s_sound.o
mixbuffer           0x4               /home/jbrawley/Desktop/rockbox-photo-cf-support/build/apps/plugins/doom/i_sound.o
levelstarttic       0x4               /home/jbrawley/Desktop/rockbox-photo-cf-support/build/apps/plugins/doom/g_game.o
read_e              0x4               /home/jbrawley/Desktop/rockbox-photo-cf-support/build/apps/plugins/doom/m_menu.o
viewheight          0x4               /home/jbrawley/Desktop/rockbox-photo-cf-support/build/apps/plugins/doom/r_draw.o
colormaps           0x4               /home/jbrawley/Desktop/rockbox-photo-cf-support/build/apps/plugins/doom/r_main.o
musserver_filename  0x4               /home/jbrawley/Desktop/rockbox-photo-cf-support/build/apps/plugins/doom/m_misc.o
hud_msg_lines       0x4               /home/jbrawley/Desktop/rockbox-photo-cf-support/build/apps/plugins/doom/hu_stuff.o
viewangleoffset     0x4               /home/jbrawley/Desktop/rockbox-photo-cf-support/build/apps/plugins/doom/r_main.o
key_map_mark        0x4               /home/jbrawley/Desktop/rockbox-photo-cf-support/build/apps/plugins/doom/g_game.o
steptable           0x4               /home/jbrawley/Desktop/rockbox-photo-cf-support/build/apps/plugins/doom/i_sound.o
fastdemo            0x4               /home/jbrawley/Desktop/rockbox-photo-cf-support/build/apps/plugins/doom/g_game.o
felldown            0x4               /home/jbrawley/Desktop/rockbox-photo-cf-support/build/apps/plugins/doom/p_map.o
sound_e             0x4               /home/jbrawley/Desktop/rockbox-photo-cf-support/build/apps/plugins/doom/m_menu.o
finecosine          0x4               /home/jbrawley/Desktop/rockbox-photo-cf-support/build/apps/plugins/doom/tables.o
numspechit          0x4               /home/jbrawley/Desktop/rockbox-photo-cf-support/build/apps/plugins/doom/p_map.o
setblocks           0x4               /home/jbrawley/Desktop/rockbox-photo-cf-support/build/apps/plugins/doom/r_main.o
thinkercap          0x18              /home/jbrawley/Desktop/rockbox-photo-cf-support/build/apps/plugins/doom/p_tick.o
health_yellow       0x4               /home/jbrawley/Desktop/rockbox-photo-cf-support/build/apps/plugins/doom/st_stuff.o
onground            0x4               /home/jbrawley/Desktop/rockbox-photo-cf-support/build/apps/plugins/doom/p_user.o
default_comp        0x80              /home/jbrawley/Desktop/rockbox-photo-cf-support/build/apps/plugins/doom/doomstat.o
viletryy            0x4               /home/jbrawley/Desktop/rockbox-photo-cf-support/build/apps/plugins/doom/p_enemy.o
options_e           0x4               /home/jbrawley/Desktop/rockbox-photo-cf-support/build/apps/plugins/doom/m_menu.o
vileobj             0x4               /home/jbrawley/Desktop/rockbox-photo-cf-support/build/apps/plugins/doom/p_enemy.o
clfastparm          0x4               /home/jbrawley/Desktop/rockbox-photo-cf-support/build/apps/plugins/doom/d_main.o
demorecording       0x4               /home/jbrawley/Desktop/rockbox-photo-cf-support/build/apps/plugins/doom/g_game.o
health_red          0x4               /home/jbrawley/Desktop/rockbox-photo-cf-support/build/apps/plugins/doom/st_stuff.o
totalleveltimes     0x4               /home/jbrawley/Desktop/rockbox-photo-cf-support/build/apps/plugins/doom/g_game.o
key_menu_backspace  0x4               /home/jbrawley/Desktop/rockbox-photo-cf-support/build/apps/plugins/doom/g_game.o
map_point_coordinates
                    0x4               /home/jbrawley/Desktop/rockbox-photo-cf-support/build/apps/plugins/doom/m_misc.o
nodrawers           0x4               /home/jbrawley/Desktop/rockbox-photo-cf-support/build/apps/plugins/doom/g_game.o
messx               0x4               /home/jbrawley/Desktop/rockbox-photo-cf-support/build/apps/plugins/doom/m_menu.o
screenSize          0x4               /home/jbrawley/Desktop/rockbox-photo-cf-support/build/apps/plugins/doom/m_menu.o
ceilingclip         0x1b8             /home/jbrawley/Desktop/rockbox-photo-cf-support/build/apps/plugins/doom/r_plane.o
mapcolor_sprt       0x4               /home/jbrawley/Desktop/rockbox-photo-cf-support/build/apps/plugins/doom/am_map.o
myargc              0x4               /home/jbrawley/Desktop/rockbox-photo-cf-support/build/apps/plugins/doom/m_argv.o
mapcolor_grid       0x4               /home/jbrawley/Desktop/rockbox-photo-cf-support/build/apps/plugins/doom/am_map.o
deathmatch          0x4               /home/jbrawley/Desktop/rockbox-photo-cf-support/build/apps/plugins/doom/g_game.o
key_map_zoomout     0x4               /home/jbrawley/Desktop/rockbox-photo-cf-support/build/apps/plugins/doom/g_game.o
rw_distance         0x4               /home/jbrawley/Desktop/rockbox-photo-cf-support/build/apps/plugins/doom/r_segs.o
displayplayer       0x4               /home/jbrawley/Desktop/rockbox-photo-cf-support/build/apps/plugins/doom/g_game.o
mapcolor_bkey       0x4               /home/jbrawley/Desktop/rockbox-photo-cf-support/build/apps/plugins/doom/am_map.o
finetangent         0x4               /home/jbrawley/Desktop/rockbox-photo-cf-support/build/apps/plugins/doom/tables.o
endstring           0xaa              /home/jbrawley/Desktop/rockbox-photo-cf-support/build/apps/plugins/doom/m_menu.o
key_map_left        0x4               /home/jbrawley/Desktop/rockbox-photo-cf-support/build/apps/plugins/doom/g_game.o
saveStringEnter     0x4               /home/jbrawley/Desktop/rockbox-photo-cf-support/build/apps/plugins/doom/m_menu.o
key_weapon2         0x4               /home/jbrawley/Desktop/rockbox-photo-cf-support/build/apps/plugins/doom/g_game.o
autostart           0x4               /home/jbrawley/Desktop/rockbox-photo-cf-support/build/apps/plugins/doom/d_main.o
sts_traditional_keys
                    0x4               /home/jbrawley/Desktop/rockbox-photo-cf-support/build/apps/plugins/doom/st_stuff.o
scaledviewwidth     0x4               /home/jbrawley/Desktop/rockbox-photo-cf-support/build/apps/plugins/doom/r_draw.o
centeryfrac         0x4               /home/jbrawley/Desktop/rockbox-photo-cf-support/build/apps/plugins/doom/r_main.o
default_weapon_recoil
                    0x4               /home/jbrawley/Desktop/rockbox-photo-cf-support/build/apps/plugins/doom/doomstat.o
advancedemo         0x4               /home/jbrawley/Desktop/rockbox-photo-cf-support/build/apps/plugins/doom/d_main.o
sndserver_filename  0x4               /home/jbrawley/Desktop/rockbox-photo-cf-support/build/apps/plugins/doom/m_misc.o
key_left            0x4               /home/jbrawley/Desktop/rockbox-photo-cf-support/build/apps/plugins/doom/g_game.o
argvlist            0xc               /home/jbrawley/Desktop/rockbox-photo-cf-support/build/apps/plugins/doom/rockdoom.o
spritetopoffset     0x4               /home/jbrawley/Desktop/rockbox-photo-cf-support/build/apps/plugins/doom/r_data.o
floatok             0x4               /home/jbrawley/Desktop/rockbox-photo-cf-support/build/apps/plugins/doom/p_map.o
doomcom             0x4               /home/jbrawley/Desktop/rockbox-photo-cf-support/build/apps/plugins/doom/d_net.o
yslope              0x2c0             /home/jbrawley/Desktop/rockbox-photo-cf-support/build/apps/plugins/doom/r_plane.o
itemOn              0x2               /home/jbrawley/Desktop/rockbox-photo-cf-support/build/apps/plugins/doom/m_menu.o
drawsegs            0x4               /home/jbrawley/Desktop/rockbox-photo-cf-support/build/apps/plugins/doom/r_bsp.o
key_strafe          0x4               /home/jbrawley/Desktop/rockbox-photo-cf-support/build/apps/plugins/doom/g_game.o
key_chat            0x4               /home/jbrawley/Desktop/rockbox-photo-cf-support/build/apps/plugins/doom/g_game.o
longtics            0x4               /home/jbrawley/Desktop/rockbox-photo-cf-support/build/apps/plugins/doom/g_game.o
specials_e          0x4               /home/jbrawley/Desktop/rockbox-photo-cf-support/build/apps/plugins/doom/p_saveg.o
floorline           0x4               /home/jbrawley/Desktop/rockbox-photo-cf-support/build/apps/plugins/doom/p_map.o
sides               0x4               /home/jbrawley/Desktop/rockbox-photo-cf-support/build/apps/plugins/doom/p_setup.o
key_pause           0x4               /home/jbrawley/Desktop/rockbox-photo-cf-support/build/apps/plugins/doom/g_game.o
blockmap            0x4               /home/jbrawley/Desktop/rockbox-photo-cf-support/build/apps/plugins/doom/p_setup.o
map_secret_after    0x4               /home/jbrawley/Desktop/rockbox-photo-cf-support/build/apps/plugins/doom/am_map.o
key_map_gobig       0x4               /home/jbrawley/Desktop/rockbox-photo-cf-support/build/apps/plugins/doom/g_game.o
key_down            0x4               /home/jbrawley/Desktop/rockbox-photo-cf-support/build/apps/plugins/doom/g_game.o
save_p              0x4               /home/jbrawley/Desktop/rockbox-photo-cf-support/build/apps/plugins/doom/p_saveg.o
hudcolor_xyco       0x4               /home/jbrawley/Desktop/rockbox-photo-cf-support/build/apps/plugins/doom/hu_stuff.o
key_up              0x4               /home/jbrawley/Desktop/rockbox-photo-cf-support/build/apps/plugins/doom/g_game.o
saveCharIndex       0x4               /home/jbrawley/Desktop/rockbox-photo-cf-support/build/apps/plugins/doom/m_menu.o
messageString       0x4               /home/jbrawley/Desktop/rockbox-photo-cf-support/build/apps/plugins/doom/m_menu.o
castframes          0x4               /home/jbrawley/Desktop/rockbox-photo-cf-support/build/apps/plugins/doom/f_finale.o
dc_translation      0x4               /home/jbrawley/Desktop/rockbox-photo-cf-support/build/apps/plugins/doom/r_draw.o
blocklinks          0x4               /home/jbrawley/Desktop/rockbox-photo-cf-support/build/apps/plugins/doom/p_setup.o
skytexturemid       0x4               /home/jbrawley/Desktop/rockbox-photo-cf-support/build/apps/plugins/doom/r_sky.o
viewangle           0x4               /home/jbrawley/Desktop/rockbox-photo-cf-support/build/apps/plugins/doom/r_main.o
numbraintargets_alloc
                    0x4               /home/jbrawley/Desktop/rockbox-photo-cf-support/build/apps/plugins/doom/p_enemy.o
epi                 0x4               /home/jbrawley/Desktop/rockbox-photo-cf-support/build/apps/plugins/doom/m_menu.o
vol_lookup          0x4               /home/jbrawley/Desktop/rockbox-photo-cf-support/build/apps/plugins/doom/i_sound.o
leveltime           0x4               /home/jbrawley/Desktop/rockbox-photo-cf-support/build/apps/plugins/doom/p_tick.o
mousebforward       0x4               /home/jbrawley/Desktop/rockbox-photo-cf-support/build/apps/plugins/doom/g_game.o
c_scalelight        0x4               /home/jbrawley/Desktop/rockbox-photo-cf-support/build/apps/plugins/doom/r_main.o
la_damage           0x4               /home/jbrawley/Desktop/rockbox-photo-cf-support/build/apps/plugins/doom/p_map.o
startepisode        0x4               /home/jbrawley/Desktop/rockbox-photo-cf-support/build/apps/plugins/doom/d_main.o
gamemap             0x4               /home/jbrawley/Desktop/rockbox-photo-cf-support/build/apps/plugins/doom/g_game.o
sts_always_red      0x4               /home/jbrawley/Desktop/rockbox-photo-cf-support/build/apps/plugins/doom/st_lib.o
negonearray         0x1b8             /home/jbrawley/Desktop/rockbox-photo-cf-support/build/apps/plugins/doom/r_things.o
tempstring          0x50              /home/jbrawley/Desktop/rockbox-photo-cf-support/build/apps/plugins/doom/m_menu.o
buttonlist          0x140             /home/jbrawley/Desktop/rockbox-photo-cf-support/build/apps/plugins/doom/p_switch.o
tmpusher            0x4               /home/jbrawley/Desktop/rockbox-photo-cf-support/build/apps/plugins/doom/p_spec.o
viewx               0x4               /home/jbrawley/Desktop/rockbox-photo-cf-support/build/apps/plugins/doom/r_main.o
hu_font2            0x4               /home/jbrawley/Desktop/rockbox-photo-cf-support/build/apps/plugins/doom/hu_stuff.o
activeceilings      0x4               /home/jbrawley/Desktop/rockbox-photo-cf-support/build/apps/plugins/doom/p_ceilng.o
mapcolor_tele       0x4               /home/jbrawley/Desktop/rockbox-photo-cf-support/build/apps/plugins/doom/am_map.o
maxopenings         0x4               /home/jbrawley/Desktop/rockbox-photo-cf-support/build/apps/plugins/doom/r_plane.o
dirtybox            0x10              /home/jbrawley/Desktop/rockbox-photo-cf-support/build/apps/plugins/doom/v_video.o
gameaction          0x4               /home/jbrawley/Desktop/rockbox-photo-cf-support/build/apps/plugins/doom/g_game.o
itemrespawnque      0x500             /home/jbrawley/Desktop/rockbox-photo-cf-support/build/apps/plugins/doom/p_mobj.o
lowfloor            0x4               /home/jbrawley/Desktop/rockbox-photo-cf-support/build/apps/plugins/doom/p_maputl.o
rw_angle1           0x4               /home/jbrawley/Desktop/rockbox-photo-cf-support/build/apps/plugins/doom/r_segs.o
key_weapon5         0x4               /home/jbrawley/Desktop/rockbox-photo-cf-support/build/apps/plugins/doom/g_game.o
mapcolor_exit       0x4               /home/jbrawley/Desktop/rockbox-photo-cf-support/build/apps/plugins/doom/am_map.o
usegamma            0x4               /home/jbrawley/Desktop/rockbox-photo-cf-support/build/apps/plugins/doom/v_video.o
key_weapon6         0x4               /home/jbrawley/Desktop/rockbox-photo-cf-support/build/apps/plugins/doom/g_game.o
centerxfrac         0x4               /home/jbrawley/Desktop/rockbox-photo-cf-support/build/apps/plugins/doom/r_main.o
message_dontfuckwithme
                    0x4               /home/jbrawley/Desktop/rockbox-photo-cf-support/build/apps/plugins/doom/hu_stuff.o
levelFragLimitCount
                    0x4               /home/jbrawley/Desktop/rockbox-photo-cf-support/build/apps/plugins/doom/p_spec.o
mapcolor_bdor       0x4               /home/jbrawley/Desktop/rockbox-photo-cf-support/build/apps/plugins/doom/am_map.o
castdeath           0x4               /home/jbrawley/Desktop/rockbox-photo-cf-support/build/apps/plugins/doom/f_finale.o
armor_green         0x4               /home/jbrawley/Desktop/rockbox-photo-cf-support/build/apps/plugins/doom/st_stuff.o
savegamestrings     0xf0              /home/jbrawley/Desktop/rockbox-photo-cf-support/build/apps/plugins/doom/m_menu.o
spechit             0x4               /home/jbrawley/Desktop/rockbox-photo-cf-support/build/apps/plugins/doom/p_map.o
inhelpscreens       0x4               /home/jbrawley/Desktop/rockbox-photo-cf-support/build/apps/plugins/doom/m_menu.o
viewwindowy         0x4               /home/jbrawley/Desktop/rockbox-photo-cf-support/build/apps/plugins/doom/r_draw.o
markceiling         0x4               /home/jbrawley/Desktop/rockbox-photo-cf-support/build/apps/plugins/doom/r_segs.o
key_gamma           0x4               /home/jbrawley/Desktop/rockbox-photo-cf-support/build/apps/plugins/doom/g_game.o
mapcolor_back       0x4               /home/jbrawley/Desktop/rockbox-photo-cf-support/build/apps/plugins/doom/am_map.o
showMessages        0x4               /home/jbrawley/Desktop/rockbox-photo-cf-support/build/apps/plugins/doom/m_menu.o
messageToPrint      0x4               /home/jbrawley/Desktop/rockbox-photo-cf-support/build/apps/plugins/doom/m_menu.o
ammo_red            0x4               /home/jbrawley/Desktop/rockbox-photo-cf-support/build/apps/plugins/doom/st_stuff.o
hud_active          0x4               /home/jbrawley/Desktop/rockbox-photo-cf-support/build/apps/plugins/doom/hu_stuff.o
key_map_zoomin      0x4               /home/jbrawley/Desktop/rockbox-photo-cf-support/build/apps/plugins/doom/g_game.o
savedescription     0x20              /home/jbrawley/Desktop/rockbox-photo-cf-support/build/apps/plugins/doom/g_game.o
numsubsectors       0x4               /home/jbrawley/Desktop/rockbox-photo-cf-support/build/apps/plugins/doom/p_setup.o
braintargets        0x4               /home/jbrawley/Desktop/rockbox-photo-cf-support/build/apps/plugins/doom/p_enemy.o
chat_char           0x1               /home/jbrawley/Desktop/rockbox-photo-cf-support/build/apps/plugins/doom/hu_stuff.o
key_screenshot      0x4               /home/jbrawley/Desktop/rockbox-photo-cf-support/build/apps/plugins/doom/g_game.o
basetic             0x4               /home/jbrawley/Desktop/rockbox-photo-cf-support/build/apps/plugins/doom/d_main.o
numspritelumps      0x4               /home/jbrawley/Desktop/rockbox-photo-cf-support/build/apps/plugins/doom/r_data.o
key_speed           0x4               /home/jbrawley/Desktop/rockbox-photo-cf-support/build/apps/plugins/doom/g_game.o
hudcolor_chat       0x4               /home/jbrawley/Desktop/rockbox-photo-cf-support/build/apps/plugins/doom/hu_stuff.o
viewwindowx         0x4               /home/jbrawley/Desktop/rockbox-photo-cf-support/build/apps/plugins/doom/r_draw.o
key_map_rotate      0x4               /home/jbrawley/Desktop/rockbox-photo-cf-support/build/apps/plugins/doom/g_game.o
lines               0x4               /home/jbrawley/Desktop/rockbox-photo-cf-support/build/apps/plugins/doom/p_setup.o
floorplane          0x4               /home/jbrawley/Desktop/rockbox-photo-cf-support/build/apps/plugins/doom/r_plane.o
key_weapon          0x4               /home/jbrawley/Desktop/rockbox-photo-cf-support/build/apps/plugins/doom/g_game.o
bodyqueslot         0x4               /home/jbrawley/Desktop/rockbox-photo-cf-support/build/apps/plugins/doom/g_game.o

Discarded input sections

 .data          0x0000000000000000        0x0 /home/jbrawley/Desktop/rockbox-photo-cf-support/build/apps/plugins/doom/../../../firmware/libc/sscanf.o
 .bss           0x0000000000000000        0x0 /home/jbrawley/Desktop/rockbox-photo-cf-support/build/apps/plugins/doom/../../../firmware/libc/sscanf.o
 .text          0x0000000000000000        0x0 /home/jbrawley/Desktop/rockbox-photo-cf-support/build/apps/plugins/doom/info.o
 .bss           0x0000000000000000        0x0 /home/jbrawley/Desktop/rockbox-photo-cf-support/build/apps/plugins/doom/info.o
 .text          0x0000000000000000        0x0 /home/jbrawley/Desktop/rockbox-photo-cf-support/build/apps/plugins/doom/doomdef.o
 .data          0x0000000000000000        0x0 /home/jbrawley/Desktop/rockbox-photo-cf-support/build/apps/plugins/doom/doomdef.o
 .bss           0x0000000000000000        0x0 /home/jbrawley/Desktop/rockbox-photo-cf-support/build/apps/plugins/doom/doomdef.o
 .text          0x0000000000000000        0x0 /home/jbrawley/Desktop/rockbox-photo-cf-support/build/apps/plugins/doom/doomstat.o
 .text          0x0000000000000000        0x0 /home/jbrawley/Desktop/rockbox-photo-cf-support/build/apps/plugins/doom/dstrings.o
 .data          0x0000000000000000        0x0 /home/jbrawley/Desktop/rockbox-photo-cf-support/build/apps/plugins/doom/dstrings.o
 .bss           0x0000000000000000        0x0 /home/jbrawley/Desktop/rockbox-photo-cf-support/build/apps/plugins/doom/dstrings.o
 .data          0x0000000000000000        0x0 /home/jbrawley/Desktop/rockbox-photo-cf-support/build/apps/plugins/doom/tables.o
 .bss           0x0000000000000000        0x0 /home/jbrawley/Desktop/rockbox-photo-cf-support/build/apps/plugins/doom/tables.o
 .data          0x0000000000000000        0x0 /home/jbrawley/Desktop/rockbox-photo-cf-support/build/apps/plugins/doom/f_finale.o
 .data          0x0000000000000000        0x0 /home/jbrawley/Desktop/rockbox-photo-cf-support/build/apps/plugins/doom/f_wipe.o
 .text          0x0000000000000000        0x0 /home/jbrawley/Desktop/rockbox-photo-cf-support/build/apps/plugins/doom/d_items.o
 .bss           0x0000000000000000        0x0 /home/jbrawley/Desktop/rockbox-photo-cf-support/build/apps/plugins/doom/d_items.o
 .data          0x0000000000000000        0x0 /home/jbrawley/Desktop/rockbox-photo-cf-support/build/apps/plugins/doom/m_argv.o
 .bss           0x0000000000000000        0x0 /home/jbrawley/Desktop/rockbox-photo-cf-support/build/apps/plugins/doom/m_argv.o
 .text          0x0000000000000000      0x17c /home/jbrawley/Desktop/rockbox-photo-cf-support/build/apps/plugins/doom/m_cheat.o
 .data          0x0000000000000000        0x4 /home/jbrawley/Desktop/rockbox-photo-cf-support/build/apps/plugins/doom/m_cheat.o
 .bss           0x0000000000000000      0x100 /home/jbrawley/Desktop/rockbox-photo-cf-support/build/apps/plugins/doom/m_cheat.o
 .bss           0x0000000000000000        0x0 /home/jbrawley/Desktop/rockbox-photo-cf-support/build/apps/plugins/doom/m_random.o
 .data          0x0000000000000000        0x0 /home/jbrawley/Desktop/rockbox-photo-cf-support/build/apps/plugins/doom/p_ceilng.o
 .bss           0x0000000000000000        0x0 /home/jbrawley/Desktop/rockbox-photo-cf-support/build/apps/plugins/doom/p_ceilng.o
 .data          0x0000000000000000        0x0 /home/jbrawley/Desktop/rockbox-photo-cf-support/build/apps/plugins/doom/p_doors.o
 .bss           0x0000000000000000        0x0 /home/jbrawley/Desktop/rockbox-photo-cf-support/build/apps/plugins/doom/p_doors.o
 .data          0x0000000000000000        0x0 /home/jbrawley/Desktop/rockbox-photo-cf-support/build/apps/plugins/doom/p_genlin.o
 .bss           0x0000000000000000        0x0 /home/jbrawley/Desktop/rockbox-photo-cf-support/build/apps/plugins/doom/p_genlin.o
 .data          0x0000000000000000        0x0 /home/jbrawley/Desktop/rockbox-photo-cf-support/build/apps/plugins/doom/p_floor.o
 .bss           0x0000000000000000        0x0 /home/jbrawley/Desktop/rockbox-photo-cf-support/build/apps/plugins/doom/p_floor.o
 .bss           0x0000000000000000        0x0 /home/jbrawley/Desktop/rockbox-photo-cf-support/build/apps/plugins/doom/p_inter.o
 .data          0x0000000000000000        0x0 /home/jbrawley/Desktop/rockbox-photo-cf-support/build/apps/plugins/doom/p_lights.o
 .bss           0x0000000000000000        0x0 /home/jbrawley/Desktop/rockbox-photo-cf-support/build/apps/plugins/doom/p_lights.o
 .data          0x0000000000000000        0x0 /home/jbrawley/Desktop/rockbox-photo-cf-support/build/apps/plugins/doom/p_maputl.o
 .data          0x0000000000000000        0x0 /home/jbrawley/Desktop/rockbox-photo-cf-support/build/apps/plugins/doom/p_plats.o
 .bss           0x0000000000000000        0x0 /home/jbrawley/Desktop/rockbox-photo-cf-support/build/apps/plugins/doom/p_plats.o
 .data          0x0000000000000000        0x0 /home/jbrawley/Desktop/rockbox-photo-cf-support/build/apps/plugins/doom/p_sight.o
 .data          0x0000000000000000        0x0 /home/jbrawley/Desktop/rockbox-photo-cf-support/build/apps/plugins/doom/p_spec.o
 .data          0x0000000000000000        0x0 /home/jbrawley/Desktop/rockbox-photo-cf-support/build/apps/plugins/doom/p_switch.o
 .data          0x0000000000000000        0x0 /home/jbrawley/Desktop/rockbox-photo-cf-support/build/apps/plugins/doom/p_mobj.o
 .data          0x0000000000000000        0x0 /home/jbrawley/Desktop/rockbox-photo-cf-support/build/apps/plugins/doom/p_telept.o
 .bss           0x0000000000000000        0x0 /home/jbrawley/Desktop/rockbox-photo-cf-support/build/apps/plugins/doom/p_telept.o
 .data          0x0000000000000000        0x0 /home/jbrawley/Desktop/rockbox-photo-cf-support/build/apps/plugins/doom/p_tick.o
 .data          0x0000000000000000        0x0 /home/jbrawley/Desktop/rockbox-photo-cf-support/build/apps/plugins/doom/p_saveg.o
 .data          0x0000000000000000        0x0 /home/jbrawley/Desktop/rockbox-photo-cf-support/build/apps/plugins/doom/p_user.o
 .bss           0x0000000000000000        0x0 /home/jbrawley/Desktop/rockbox-photo-cf-support/build/apps/plugins/doom/p_user.o
 .data          0x0000000000000000        0x0 /home/jbrawley/Desktop/rockbox-photo-cf-support/build/apps/plugins/doom/r_bsp.o
 .data          0x0000000000000000        0x0 /home/jbrawley/Desktop/rockbox-photo-cf-support/build/apps/plugins/doom/r_draw.o
 .bss           0x0000000000000000        0x0 /home/jbrawley/Desktop/rockbox-photo-cf-support/build/apps/plugins/doom/r_draw.o
 .data          0x0000000000000000        0x0 /home/jbrawley/Desktop/rockbox-photo-cf-support/build/apps/plugins/doom/r_segs.o
 .data          0x0000000000000000        0x0 /home/jbrawley/Desktop/rockbox-photo-cf-support/build/apps/plugins/doom/r_sky.o
 .bss           0x0000000000000000        0x0 /home/jbrawley/Desktop/rockbox-photo-cf-support/build/apps/plugins/doom/r_sky.o
 .data          0x0000000000000000        0x0 /home/jbrawley/Desktop/rockbox-photo-cf-support/build/apps/plugins/doom/r_things.o
 .data          0x0000000000000000        0x0 /home/jbrawley/Desktop/rockbox-photo-cf-support/build/apps/plugins/doom/v_video.o
 .bss           0x0000000000000000        0x0 /home/jbrawley/Desktop/rockbox-photo-cf-support/build/apps/plugins/doom/v_video.o
 .data          0x0000000000000000        0x0 /home/jbrawley/Desktop/rockbox-photo-cf-support/build/apps/plugins/doom/st_lib.o
 .bss           0x0000000000000000        0x0 /home/jbrawley/Desktop/rockbox-photo-cf-support/build/apps/plugins/doom/st_lib.o
 .data          0x0000000000000000        0x0 /home/jbrawley/Desktop/rockbox-photo-cf-support/build/apps/plugins/doom/hu_lib.o
 .bss           0x0000000000000000        0x0 /home/jbrawley/Desktop/rockbox-photo-cf-support/build/apps/plugins/doom/hu_lib.o
 .data          0x0000000000000000        0x0 /home/jbrawley/Desktop/rockbox-photo-cf-support/build/apps/plugins/doom/z_zone.o
 .bss           0x0000000000000000        0x0 /home/jbrawley/Desktop/rockbox-photo-cf-support/build/apps/plugins/doom/z_zone.o
 .data          0x0000000000000000        0x0 /home/jbrawley/Desktop/rockbox-photo-cf-support/build/apps/plugins/doom/z_bmalloc.o
 .bss           0x0000000000000000        0x0 /home/jbrawley/Desktop/rockbox-photo-cf-support/build/apps/plugins/doom/z_bmalloc.o
 .text          0x0000000000000000        0x0 /home/jbrawley/Desktop/rockbox-photo-cf-support/build/apps/plugins/doom/sounds.o
 .bss           0x0000000000000000        0x0 /home/jbrawley/Desktop/rockbox-photo-cf-support/build/apps/plugins/doom/sounds.o
 .data          0x0000000000000000        0x0 /home/jbrawley/Desktop/rockbox-photo-cf-support/build/apps/plugins/doom/m_bbox.o
 .bss           0x0000000000000000        0x0 /home/jbrawley/Desktop/rockbox-photo-cf-support/build/apps/plugins/doom/m_bbox.o
 .data          0x0000000000000000        0x0 /home/jbrawley/Desktop/rockbox-photo-cf-support/build/apps/plugins/doom/i_system.o
 .data          0x0000000000000000        0x0 /home/jbrawley/Desktop/rockbox-photo-cf-support/build/apps/plugins/doom/i_video.o
 .data          0x0000000000000000        0x0 /home/jbrawley/Desktop/rockbox-photo-cf-support/build/apps/plugins/doom/w_wad.o
 .text          0x0000000000000000        0x0 /home/jbrawley/Desktop/rockbox-photo-cf-support/build/apps/plugins/libplugin.a(gcc-support.o)
 .data          0x0000000000000000        0x0 /home/jbrawley/Desktop/rockbox-photo-cf-support/build/apps/plugins/libplugin.a(gcc-support.o)
 .bss           0x0000000000000000        0x0 /home/jbrawley/Desktop/rockbox-photo-cf-support/build/apps/plugins/libplugin.a(gcc-support.o)
 .text.__div0   0x0000000000000000       0x14 /home/jbrawley/Desktop/rockbox-photo-cf-support/build/apps/plugins/libplugin.a(gcc-support.o)
 .text.memset   0x0000000000000000       0x14 /home/jbrawley/Desktop/rockbox-photo-cf-support/build/apps/plugins/libplugin.a(gcc-support.o)
 .text.memmove  0x0000000000000000       0x14 /home/jbrawley/Desktop/rockbox-photo-cf-support/build/apps/plugins/libplugin.a(gcc-support.o)
 .text.memcmp   0x0000000000000000       0x14 /home/jbrawley/Desktop/rockbox-photo-cf-support/build/apps/plugins/libplugin.a(gcc-support.o)
 .text          0x0000000000000000        0x0 /home/jbrawley/Desktop/rockbox-photo-cf-support/build/apps/plugins/libplugin.a(helper.o)
 .data          0x0000000000000000        0x0 /home/jbrawley/Desktop/rockbox-photo-cf-support/build/apps/plugins/libplugin.a(helper.o)
 .bss           0x0000000000000000        0x0 /home/jbrawley/Desktop/rockbox-photo-cf-support/build/apps/plugins/libplugin.a(helper.o)
 .text.talk_val
                0x0000000000000000       0x1c /home/jbrawley/Desktop/rockbox-photo-cf-support/build/apps/plugins/libplugin.a(helper.o)
 .text.backlight_force_on
                0x0000000000000000       0x34 /home/jbrawley/Desktop/rockbox-photo-cf-support/build/apps/plugins/libplugin.a(helper.o)
 .text.sw_poweroff_disable
                0x0000000000000000       0x3c /home/jbrawley/Desktop/rockbox-photo-cf-support/build/apps/plugins/libplugin.a(helper.o)
 .text.sw_poweroff_restore
                0x0000000000000000       0x20 /home/jbrawley/Desktop/rockbox-photo-cf-support/build/apps/plugins/libplugin.a(helper.o)
 .text.remote_backlight_force_on
                0x0000000000000000        0x4 /home/jbrawley/Desktop/rockbox-photo-cf-support/build/apps/plugins/libplugin.a(helper.o)
 .text.remote_backlight_ignore_timeout
                0x0000000000000000        0x4 /home/jbrawley/Desktop/rockbox-photo-cf-support/build/apps/plugins/libplugin.a(helper.o)
 .text.remote_backlight_use_settings
                0x0000000000000000        0x4 /home/jbrawley/Desktop/rockbox-photo-cf-support/build/apps/plugins/libplugin.a(helper.o)
 .text.buttonlight_force_on
                0x0000000000000000        0x4 /home/jbrawley/Desktop/rockbox-photo-cf-support/build/apps/plugins/libplugin.a(helper.o)
 .text.buttonlight_force_off
                0x0000000000000000        0x4 /home/jbrawley/Desktop/rockbox-photo-cf-support/build/apps/plugins/libplugin.a(helper.o)
 .text.buttonlight_ignore_timeout
                0x0000000000000000        0x4 /home/jbrawley/Desktop/rockbox-photo-cf-support/build/apps/plugins/libplugin.a(helper.o)
 .text.buttonlight_use_settings
                0x0000000000000000        0x4 /home/jbrawley/Desktop/rockbox-photo-cf-support/build/apps/plugins/libplugin.a(helper.o)
 .text.backlight_brightness_set
                0x0000000000000000       0x14 /home/jbrawley/Desktop/rockbox-photo-cf-support/build/apps/plugins/libplugin.a(helper.o)
 .text.backlight_brightness_use_setting
                0x0000000000000000       0x1c /home/jbrawley/Desktop/rockbox-photo-cf-support/build/apps/plugins/libplugin.a(helper.o)
 .text.buttonlight_brightness_set
                0x0000000000000000        0x4 /home/jbrawley/Desktop/rockbox-photo-cf-support/build/apps/plugins/libplugin.a(helper.o)
 .text.buttonlight_brightness_use_setting
                0x0000000000000000        0x4 /home/jbrawley/Desktop/rockbox-photo-cf-support/build/apps/plugins/libplugin.a(helper.o)
 .data.original_sw_poweroff_state
                0x0000000000000000        0x1 /home/jbrawley/Desktop/rockbox-photo-cf-support/build/apps/plugins/libplugin.a(helper.o)
 .text          0x0000000000000000        0x0 /home/jbrawley/Desktop/rockbox-photo-cf-support/build/apps/plugins/libplugin.a(strncpy.o)
 .data          0x0000000000000000        0x0 /home/jbrawley/Desktop/rockbox-photo-cf-support/build/apps/plugins/libplugin.a(strncpy.o)
 .bss           0x0000000000000000        0x0 /home/jbrawley/Desktop/rockbox-photo-cf-support/build/apps/plugins/libplugin.a(strncpy.o)
 .data          0x0000000000000000        0x0 /home/jbrawley/Desktop/rockbox-photo-cf-support/build/lib/libsetjmp.a(setjmp.o)
 .bss           0x0000000000000000        0x0 /home/jbrawley/Desktop/rockbox-photo-cf-support/build/lib/libsetjmp.a(setjmp.o)
 .data          0x0000000000000000        0x0 /usr/local/lib/gcc/arm-elf-eabi/4.9.4/libgcc.a(_udivsi3.o)
 .bss           0x0000000000000000        0x0 /usr/local/lib/gcc/arm-elf-eabi/4.9.4/libgcc.a(_udivsi3.o)
 .data          0x0000000000000000        0x0 /usr/local/lib/gcc/arm-elf-eabi/4.9.4/libgcc.a(_divsi3.o)
 .bss           0x0000000000000000        0x0 /usr/local/lib/gcc/arm-elf-eabi/4.9.4/libgcc.a(_divsi3.o)
 .data          0x0000000000000000        0x0 /usr/local/lib/gcc/arm-elf-eabi/4.9.4/libgcc.a(_dvmd_tls.o)
 .bss           0x0000000000000000        0x0 /usr/local/lib/gcc/arm-elf-eabi/4.9.4/libgcc.a(_dvmd_tls.o)
 .data          0x0000000000000000        0x0 /usr/local/lib/gcc/arm-elf-eabi/4.9.4/libgcc.a(_arm_addsubsf3.o)
 .bss           0x0000000000000000        0x0 /usr/local/lib/gcc/arm-elf-eabi/4.9.4/libgcc.a(_arm_addsubsf3.o)
 .data          0x0000000000000000        0x0 /usr/local/lib/gcc/arm-elf-eabi/4.9.4/libgcc.a(_arm_muldivsf3.o)
 .bss           0x0000000000000000        0x0 /usr/local/lib/gcc/arm-elf-eabi/4.9.4/libgcc.a(_arm_muldivsf3.o)
 .data          0x0000000000000000        0x0 /usr/local/lib/gcc/arm-elf-eabi/4.9.4/libgcc.a(_arm_cmpsf2.o)
 .bss           0x0000000000000000        0x0 /usr/local/lib/gcc/arm-elf-eabi/4.9.4/libgcc.a(_arm_cmpsf2.o)
 .data          0x0000000000000000        0x0 /usr/local/lib/gcc/arm-elf-eabi/4.9.4/libgcc.a(_arm_fixsfsi.o)
 .bss           0x0000000000000000        0x0 /usr/local/lib/gcc/arm-elf-eabi/4.9.4/libgcc.a(_arm_fixsfsi.o)
 .data          0x0000000000000000        0x0 /usr/local/lib/gcc/arm-elf-eabi/4.9.4/libgcc.a(_aeabi_ldivmod.o)
 .bss           0x0000000000000000        0x0 /usr/local/lib/gcc/arm-elf-eabi/4.9.4/libgcc.a(_aeabi_ldivmod.o)
 .data          0x0000000000000000        0x0 /usr/local/lib/gcc/arm-elf-eabi/4.9.4/libgcc.a(_aeabi_uldivmod.o)
 .bss           0x0000000000000000        0x0 /usr/local/lib/gcc/arm-elf-eabi/4.9.4/libgcc.a(_aeabi_uldivmod.o)
 .data          0x0000000000000000        0x0 /usr/local/lib/gcc/arm-elf-eabi/4.9.4/libgcc.a(bpabi.o)
 .bss           0x0000000000000000        0x0 /usr/local/lib/gcc/arm-elf-eabi/4.9.4/libgcc.a(bpabi.o)
 .data          0x0000000000000000        0x0 /usr/local/lib/gcc/arm-elf-eabi/4.9.4/libgcc.a(_divdi3.o)
 .bss           0x0000000000000000        0x0 /usr/local/lib/gcc/arm-elf-eabi/4.9.4/libgcc.a(_divdi3.o)
 .ARM.extab     0x0000000000000000        0x0 /usr/local/lib/gcc/arm-elf-eabi/4.9.4/libgcc.a(_divdi3.o)
 .data          0x0000000000000000        0x0 /usr/local/lib/gcc/arm-elf-eabi/4.9.4/libgcc.a(_udivdi3.o)
 .bss           0x0000000000000000        0x0 /usr/local/lib/gcc/arm-elf-eabi/4.9.4/libgcc.a(_udivdi3.o)
 .ARM.extab     0x0000000000000000        0x0 /usr/local/lib/gcc/arm-elf-eabi/4.9.4/libgcc.a(_udivdi3.o)
 .data          0x0000000000000000        0x0 /usr/local/lib/gcc/arm-elf-eabi/4.9.4/libgcc.a(_clzdi2.o)
 .bss           0x0000000000000000        0x0 /usr/local/lib/gcc/arm-elf-eabi/4.9.4/libgcc.a(_clzdi2.o)
 .data          0x0000000000000000        0x0 /usr/local/lib/gcc/arm-elf-eabi/4.9.4/libgcc.a(_clzsi2.o)
 .bss           0x0000000000000000        0x0 /usr/local/lib/gcc/arm-elf-eabi/4.9.4/libgcc.a(_clzsi2.o)

Memory Configuration

Name             Origin             Length             Attributes
PLUGIN_RAM       0x0000000001f80000 0x0000000000080000
PLUGIN_IRAM      0x000000004000c000 0x000000000000c000
*default*        0x0000000000000000 0xffffffffffffffff

Linker script and memory map

LOAD /home/jbrawley/Desktop/rockbox-photo-cf-support/build/apps/plugins/doom/../../../firmware/libc/sscanf.o
LOAD /home/jbrawley/Desktop/rockbox-photo-cf-support/build/apps/plugins/doom/info.o
LOAD /home/jbrawley/Desktop/rockbox-photo-cf-support/build/apps/plugins/doom/doomdef.o
LOAD /home/jbrawley/Desktop/rockbox-photo-cf-support/build/apps/plugins/doom/doomstat.o
LOAD /home/jbrawley/Desktop/rockbox-photo-cf-support/build/apps/plugins/doom/dstrings.o
LOAD /home/jbrawley/Desktop/rockbox-photo-cf-support/build/apps/plugins/doom/tables.o
LOAD /home/jbrawley/Desktop/rockbox-photo-cf-support/build/apps/plugins/doom/f_finale.o
LOAD /home/jbrawley/Desktop/rockbox-photo-cf-support/build/apps/plugins/doom/f_wipe.o
LOAD /home/jbrawley/Desktop/rockbox-photo-cf-support/build/apps/plugins/doom/d_net.o
LOAD /home/jbrawley/Desktop/rockbox-photo-cf-support/build/apps/plugins/doom/d_items.o
LOAD /home/jbrawley/Desktop/rockbox-photo-cf-support/build/apps/plugins/doom/g_game.o
LOAD /home/jbrawley/Desktop/rockbox-photo-cf-support/build/apps/plugins/doom/m_menu.o
LOAD /home/jbrawley/Desktop/rockbox-photo-cf-support/build/apps/plugins/doom/m_argv.o
LOAD /home/jbrawley/Desktop/rockbox-photo-cf-support/build/apps/plugins/doom/m_cheat.o
LOAD /home/jbrawley/Desktop/rockbox-photo-cf-support/build/apps/plugins/doom/m_random.o
LOAD /home/jbrawley/Desktop/rockbox-photo-cf-support/build/apps/plugins/doom/am_map.o
LOAD /home/jbrawley/Desktop/rockbox-photo-cf-support/build/apps/plugins/doom/p_ceilng.o
LOAD /home/jbrawley/Desktop/rockbox-photo-cf-support/build/apps/plugins/doom/p_doors.o
LOAD /home/jbrawley/Desktop/rockbox-photo-cf-support/build/apps/plugins/doom/p_genlin.o
LOAD /home/jbrawley/Desktop/rockbox-photo-cf-support/build/apps/plugins/doom/p_enemy.o
LOAD /home/jbrawley/Desktop/rockbox-photo-cf-support/build/apps/plugins/doom/p_floor.o
LOAD /home/jbrawley/Desktop/rockbox-photo-cf-support/build/apps/plugins/doom/p_inter.o
LOAD /home/jbrawley/Desktop/rockbox-photo-cf-support/build/apps/plugins/doom/p_lights.o
LOAD /home/jbrawley/Desktop/rockbox-photo-cf-support/build/apps/plugins/doom/p_map.o
LOAD /home/jbrawley/Desktop/rockbox-photo-cf-support/build/apps/plugins/doom/p_maputl.o
LOAD /home/jbrawley/Desktop/rockbox-photo-cf-support/build/apps/plugins/doom/p_plats.o
LOAD /home/jbrawley/Desktop/rockbox-photo-cf-support/build/apps/plugins/doom/p_pspr.o
LOAD /home/jbrawley/Desktop/rockbox-photo-cf-support/build/apps/plugins/doom/p_setup.o
LOAD /home/jbrawley/Desktop/rockbox-photo-cf-support/build/apps/plugins/doom/p_sight.o
LOAD /home/jbrawley/Desktop/rockbox-photo-cf-support/build/apps/plugins/doom/p_spec.o
LOAD /home/jbrawley/Desktop/rockbox-photo-cf-support/build/apps/plugins/doom/p_switch.o
LOAD /home/jbrawley/Desktop/rockbox-photo-cf-support/build/apps/plugins/doom/p_mobj.o
LOAD /home/jbrawley/Desktop/rockbox-photo-cf-support/build/apps/plugins/doom/p_telept.o
LOAD /home/jbrawley/Desktop/rockbox-photo-cf-support/build/apps/plugins/doom/p_tick.o
LOAD /home/jbrawley/Desktop/rockbox-photo-cf-support/build/apps/plugins/doom/p_saveg.o
LOAD /home/jbrawley/Desktop/rockbox-photo-cf-support/build/apps/plugins/doom/p_user.o
LOAD /home/jbrawley/Desktop/rockbox-photo-cf-support/build/apps/plugins/doom/r_bsp.o
LOAD /home/jbrawley/Desktop/rockbox-photo-cf-support/build/apps/plugins/doom/r_data.o
LOAD /home/jbrawley/Desktop/rockbox-photo-cf-support/build/apps/plugins/doom/r_draw.o
LOAD /home/jbrawley/Desktop/rockbox-photo-cf-support/build/apps/plugins/doom/r_main.o
LOAD /home/jbrawley/Desktop/rockbox-photo-cf-support/build/apps/plugins/doom/r_plane.o
LOAD /home/jbrawley/Desktop/rockbox-photo-cf-support/build/apps/plugins/doom/r_segs.o
LOAD /home/jbrawley/Desktop/rockbox-photo-cf-support/build/apps/plugins/doom/r_sky.o
LOAD /home/jbrawley/Desktop/rockbox-photo-cf-support/build/apps/plugins/doom/r_things.o
LOAD /home/jbrawley/Desktop/rockbox-photo-cf-support/build/apps/plugins/doom/wi_stuff.o
LOAD /home/jbrawley/Desktop/rockbox-photo-cf-support/build/apps/plugins/doom/v_video.o
LOAD /home/jbrawley/Desktop/rockbox-photo-cf-support/build/apps/plugins/doom/st_lib.o
LOAD /home/jbrawley/Desktop/rockbox-photo-cf-support/build/apps/plugins/doom/st_stuff.o
LOAD /home/jbrawley/Desktop/rockbox-photo-cf-support/build/apps/plugins/doom/hu_stuff.o
LOAD /home/jbrawley/Desktop/rockbox-photo-cf-support/build/apps/plugins/doom/hu_lib.o
LOAD /home/jbrawley/Desktop/rockbox-photo-cf-support/build/apps/plugins/doom/s_sound.o
LOAD /home/jbrawley/Desktop/rockbox-photo-cf-support/build/apps/plugins/doom/z_zone.o
LOAD /home/jbrawley/Desktop/rockbox-photo-cf-support/build/apps/plugins/doom/z_bmalloc.o
LOAD /home/jbrawley/Desktop/rockbox-photo-cf-support/build/apps/plugins/doom/sounds.o
LOAD /home/jbrawley/Desktop/rockbox-photo-cf-support/build/apps/plugins/doom/d_main.o
LOAD /home/jbrawley/Desktop/rockbox-photo-cf-support/build/apps/plugins/doom/m_misc.o
LOAD /home/jbrawley/Desktop/rockbox-photo-cf-support/build/apps/plugins/doom/m_bbox.o
LOAD /home/jbrawley/Desktop/rockbox-photo-cf-support/build/apps/plugins/doom/i_system.o
LOAD /home/jbrawley/Desktop/rockbox-photo-cf-support/build/apps/plugins/doom/i_sound.o
LOAD /home/jbrawley/Desktop/rockbox-photo-cf-support/build/apps/plugins/doom/i_video.o
LOAD /home/jbrawley/Desktop/rockbox-photo-cf-support/build/apps/plugins/doom/w_wad.o
LOAD /home/jbrawley/Desktop/rockbox-photo-cf-support/build/apps/plugins/doom/rockdoom.o
LOAD /home/jbrawley/Desktop/rockbox-photo-cf-support/build/apps/plugins/doom/d_deh.o
LOAD /home/jbrawley/Desktop/rockbox-photo-cf-support/build/apps/plugins/plugin_crt0.o
LOAD /home/jbrawley/Desktop/rockbox-photo-cf-support/build/apps/plugins/libplugin.a
LOAD /home/jbrawley/Desktop/rockbox-photo-cf-support/build/apps/plugins/bitmaps/libpluginbitmaps.a
LOAD /home/jbrawley/Desktop/rockbox-photo-cf-support/build/lib/libsetjmp.a
LOAD /home/jbrawley/Desktop/rockbox-photo-cf-support/build/lib/libfixedpoint.a
LOAD /usr/local/lib/gcc/arm-elf-eabi/4.9.4/libgcc.a

.header         0x0000000001f80000       0x1c
                0x0000000001f80000                _plugin_start_addr = .
                0x0000000001f80000                plugin_start_addr = .
 *(.header)
 .header        0x0000000001f80000       0x1c /home/jbrawley/Desktop/rockbox-photo-cf-support/build/apps/plugins/plugin_crt0.o
                0x0000000001f80000                __header

.text           0x0000000001f8001c    0x43834
 *(.text*)
 .text          0x0000000001f8001c      0x3ec /home/jbrawley/Desktop/rockbox-photo-cf-support/build/apps/plugins/doom/../../../firmware/libc/sscanf.o
                0x0000000001f801a0                sscanf
 .text          0x0000000001f80408      0x208 /home/jbrawley/Desktop/rockbox-photo-cf-support/build/apps/plugins/doom/tables.o
                0x0000000001f80408                SlopeDiv
                0x0000000001f80438                R_LoadTrigTables
 .text          0x0000000001f80610     0x1318 /home/jbrawley/Desktop/rockbox-photo-cf-support/build/apps/plugins/doom/f_finale.o
                0x0000000001f80b64                F_StartFinale
                0x0000000001f80f28                F_Responder
                0x0000000001f80f70                F_TextWrite
                0x0000000001f810b4                F_StartCast
                0x0000000001f81164                F_Ticker
                0x0000000001f813c0                F_CastTicker
                0x0000000001f813e0                F_CastResponder
                0x0000000001f81410                F_CastDrawer
                0x0000000001f815fc                F_Drawer
 .text          0x0000000001f81928      0x524 /home/jbrawley/Desktop/rockbox-photo-cf-support/build/apps/plugins/doom/f_wipe.o
                0x0000000001f819c4                wipe_StartScreen
                0x0000000001f81a48                wipe_EndScreen
                0x0000000001f81af8                wipe_ScreenWipe
 .text          0x0000000001f81e4c      0x1c4 /home/jbrawley/Desktop/rockbox-photo-cf-support/build/apps/plugins/doom/d_net.o
                0x0000000001f81e4c                D_InitNetGame
                0x0000000001f81ed8                D_BuildNewTiccmds
                0x0000000001f81f6c                TryRunTics
 .text          0x0000000001f82010     0x46ac /home/jbrawley/Desktop/rockbox-photo-cf-support/build/apps/plugins/doom/g_game.o
                0x0000000001f82544                G_BuildTiccmd
                0x0000000001f83088                G_RestartLevel
                0x0000000001f8309c                G_Responder
                0x0000000001f83358                G_PlayerFinishLevel
                0x0000000001f833f0                G_ChangedPlayerColour
                0x0000000001f834bc                G_PlayerReborn
                0x0000000001f835ac                G_CheckSpot
                0x0000000001f83944                G_DeathMatchSpawnPlayer
                0x0000000001f83a20                G_DoReborn
                0x0000000001f83a44                G_ExitLevel
                0x0000000001f83a68                G_SecretExitLevel
                0x0000000001f83ab4                G_DoCompleted
                0x0000000001f83e5c                G_WorldDone
                0x0000000001f83f24                G_DoWorldDone
                0x0000000001f83f80                G_ForcedLoadGame
                0x0000000001f83fa4                G_LoadGame
                0x0000000001f8401c                CheckSaveGame
                0x0000000001f84098                G_SaveGameName
                0x0000000001f840ec                G_DeferedInitNew
                0x0000000001f8411c                G_Compatibility
                0x0000000001f84178                G_ReloadDefaults
                0x0000000001f84448                G_SetFastParms
                0x0000000001f8451c                G_InitNew
                0x0000000001f846c0                G_DoNewGame
                0x0000000001f84714                G_WriteOptions
                0x0000000001f84908                G_ReadOptions
                0x0000000001f84ecc                G_RecordDemo
                0x0000000001f85094                G_BeginRecording
                0x0000000001f853b0                G_DeferedPlayDemo
                0x0000000001f853d0                G_DoPlayDemo
                0x0000000001f85454                G_DoLoadGame
                0x0000000001f858c8                G_TimeDemo
                0x0000000001f8590c                G_CheckDemoStatus
                0x0000000001f85af0                G_ReadDemoTiccmd
                0x0000000001f85b74                G_WriteDemoTiccmd
                0x0000000001f85c2c                doom_printf
                0x0000000001f8610c                G_SaveGame
                0x0000000001f86170                G_Ticker
 .text          0x0000000001f866bc     0x26d8 /home/jbrawley/Desktop/rockbox-photo-cf-support/build/apps/plugins/doom/m_menu.o
                0x0000000001f866bc                M_SaveSelect
                0x0000000001f86844                M_Sound
                0x0000000001f8686c                M_Options
                0x0000000001f86898                M_ChangeMessages
                0x0000000001f868f8                M_ReadThis
                0x0000000001f86924                M_ReadThis2
                0x0000000001f86950                M_FinishReadThis
                0x0000000001f8697c                M_QuitDOOM
                0x0000000001f86a7c                M_DrawMainMenu
                0x0000000001f86abc                M_DrawNewGame
                0x0000000001f86b28                M_DrawEpisode
                0x0000000001f86b68                M_LoadSelect
                0x0000000001f86be0                M_SfxVol
                0x0000000001f86c34                M_MusicVol
                0x0000000001f86c88                M_ChangeGamma
                0x0000000001f86ce8                M_SizeDisplay
                0x0000000001f86d80                M_SystemVol
                0x0000000001f86e64                M_DrawReadThis1
                0x0000000001f86ee8                M_DrawReadThis2
                0x0000000001f86f6c                M_QuitResponse
                0x0000000001f86fec                M_EndGame
                0x0000000001f87128                M_QuickLoadResponse
                0x0000000001f87158                M_VerifyNightmare
                0x0000000001f871ac                M_ChooseSkill
                0x0000000001f87260                M_EndGameResponse
                0x0000000001f872e4                M_NewGame
                0x0000000001f873bc                M_Episode
                0x0000000001f874b4                M_ReadSaveStrings
                0x0000000001f875a4                M_LoadGame
                0x0000000001f87648                M_SaveGame
                0x0000000001f87700                M_DrawSaveLoadBorder
                0x0000000001f877b8                M_DoSave
                0x0000000001f87800                M_QuickSaveResponse
                0x0000000001f87830                M_QuickSave
                0x0000000001f87974                M_QuickLoad
                0x0000000001f87ad4                M_DrawThermo
                0x0000000001f87bd8                M_DrawSound
                0x0000000001f87ccc                M_DrawOptions
                0x0000000001f87d9c                M_DrawEmptyCell
                0x0000000001f87df4                M_DrawSelCell
                0x0000000001f87e4c                M_StartMessage
                0x0000000001f87ea8                M_StopMessage
                0x0000000001f87ed4                M_StringWidth
                0x0000000001f87f60                M_StringHeight
                0x0000000001f87fa0                M_WriteText
                0x0000000001f88060                M_DrawLoad
                0x0000000001f880e8                M_DrawSave
                0x0000000001f881cc                M_Responder
                0x0000000001f88884                M_StartControlPanel
                0x0000000001f8889c                M_Drawer
                0x0000000001f88bd8                M_ClearMenus
                0x0000000001f88bec                M_SetupNextMenu
                0x0000000001f88c0c                M_Ticker
                0x0000000001f88c54                M_Init
 .text          0x0000000001f88d94       0x7c /home/jbrawley/Desktop/rockbox-photo-cf-support/build/apps/plugins/doom/m_argv.o
                0x0000000001f88d94                M_CheckParm
 .text          0x0000000001f88e10      0x154 /home/jbrawley/Desktop/rockbox-photo-cf-support/build/apps/plugins/doom/m_random.o
                0x0000000001f88e10                P_Random
                0x0000000001f88f0c                M_ClearRandom
 .text          0x0000000001f88f64     0x2ae4 /home/jbrawley/Desktop/rockbox-photo-cf-support/build/apps/plugins/doom/am_map.o
                0x0000000001f88ff0                AM_getIslope
                0x0000000001f8910c                AM_activateNewScale
                0x0000000001f8919c                AM_saveScaleAndLoc
                0x0000000001f891c8                AM_restoreScaleAndLoc
                0x0000000001f892e0                AM_addMark
                0x0000000001f8937c                AM_findMinMaxBoundaries
                0x0000000001f89568                AM_changeWindowLoc
                0x0000000001f89648                AM_initVariables
                0x0000000001f89764                AM_loadPics
                0x0000000001f89768                AM_unloadPics
                0x0000000001f8976c                AM_clearMarks
                0x0000000001f89780                AM_LevelInit
                0x0000000001f89868                AM_Stop
                0x0000000001f898a0                AM_Start
                0x0000000001f89934                AM_minOutWindowScale
                0x0000000001f89994                AM_maxOutWindowScale
                0x0000000001f899f4                AM_Responder
                0x0000000001f89ed0                AM_changeWindowScale
                0x0000000001f89f68                AM_doFollowPlayer
                0x0000000001f8a018                AM_Ticker
                0x0000000001f8a094                AM_clipMline
                0x0000000001f8a45c                AM_drawFline
                0x0000000001f8a5a0                AM_drawMline
                0x0000000001f8a5e4                AM_drawGrid
                0x0000000001f8a704                AM_DoorColor
                0x0000000001f8a93c                AM_drawWalls
                0x0000000001f8af2c                AM_drawLineCharacter
                0x0000000001f8b154                AM_drawPlayers
                0x0000000001f8b338                AM_drawThings
                0x0000000001f8b73c                AM_drawMarks
                0x0000000001f8b940                AM_Drawer
 .text          0x0000000001f8ba48      0x5c4 /home/jbrawley/Desktop/rockbox-photo-cf-support/build/apps/plugins/doom/p_ceilng.o
                0x0000000001f8ba48                P_ActivateInStasisCeiling
                0x0000000001f8bac8                EV_CeilingCrushStop
                0x0000000001f8bb34                P_AddActiveCeiling
                0x0000000001f8bb84                EV_DoCeiling
                0x0000000001f8bd40                P_RemoveActiveCeiling
                0x0000000001f8bd84                T_MoveCeiling
                0x0000000001f8bfd8                P_RemoveAllActiveCeilings
 .text          0x0000000001f8c00c      0xb74 /home/jbrawley/Desktop/rockbox-photo-cf-support/build/apps/plugins/doom/p_doors.o
                0x0000000001f8c00c                T_VerticalDoor
                0x0000000001f8c43c                EV_DoDoor
                0x0000000001f8c624                EV_DoLockedDoor
                0x0000000001f8c77c                EV_VerticalDoor
                0x0000000001f8ca90                P_SpawnDoorCloseIn30
                0x0000000001f8caf8                P_SpawnDoorRaiseIn5Mins
 .text          0x0000000001f8cb80     0x1514 /home/jbrawley/Desktop/rockbox-photo-cf-support/build/apps/plugins/doom/p_genlin.o
                0x0000000001f8cb80                EV_DoGenFloor
                0x0000000001f8cf18                EV_DoGenCeiling
                0x0000000001f8d284                EV_DoGenLift
                0x0000000001f8d520                EV_DoGenStairs
                0x0000000001f8d954                EV_DoGenCrusher
                0x0000000001f8db04                EV_DoGenLockedDoor
                0x0000000001f8dd14                EV_DoGenDoor
 .text          0x0000000001f8e094     0x4620 /home/jbrawley/Desktop/rockbox-photo-cf-support/build/apps/plugins/doom/p_enemy.o
                0x0000000001f8e728                PIT_VileCheck
                0x0000000001f8f6cc                P_NoiseAlert
                0x0000000001f8f6f4                P_CheckMissileRange
                0x0000000001f8f8ec                P_TryWalk
                0x0000000001f8fe58                A_KeenDie
                0x0000000001f8ff00                A_Look
                0x0000000001f900a0                A_KeepChasing
                0x0000000001f900c8                A_FaceTarget
                0x0000000001f90158                A_Chase
                0x0000000001f9065c                A_PosAttack
                0x0000000001f90718                A_SPosAttack
                0x0000000001f907e0                A_CPosAttack
                0x0000000001f9089c                A_CPosRefire
                0x0000000001f90938                A_SpidRefire
                0x0000000001f909c8                A_BspiAttack
                0x0000000001f909f8                A_TroopAttack
                0x0000000001f90a7c                A_SargAttack
                0x0000000001f90af0                A_HeadAttack
                0x0000000001f90b78                A_CyberAttack
                0x0000000001f90ba8                A_BruisAttack
                0x0000000001f90c28                A_SkelMissile
                0x0000000001f90c9c                A_Tracer
                0x0000000001f90e68                A_SkelWhoosh
                0x0000000001f90e94                A_SkelFist
                0x0000000001f90f1c                A_VileChase
                0x0000000001f9114c                A_VileStart
                0x0000000001f91160                A_Fire
                0x0000000001f91248                A_StartFire
                0x0000000001f91264                A_FireCrackle
                0x0000000001f91280                A_VileTarget
                0x0000000001f91300                A_VileAttack
                0x0000000001f91434                A_FatRaise
                0x0000000001f91454                A_FatAttack1
                0x0000000001f914f0                A_FatAttack2
                0x0000000001f9158c                A_FatAttack3
                0x0000000001f9166c                A_SkullAttack
                0x0000000001f9178c                A_PainShootSkull
                0x0000000001f91990                A_PainAttack
                0x0000000001f919b8                A_PainDie
                0x0000000001f91a04                A_Scream
                0x0000000001f91a98                A_XScream
                0x0000000001f91aac                A_Pain
                0x0000000001f91ac8                A_Fall
                0x0000000001f91ae0                A_Explode
                0x0000000001f91af8                A_BossDeath
                0x0000000001f91d64                A_Hoof
                0x0000000001f91d80                A_Metal
                0x0000000001f91d9c                A_BabyMetal
                0x0000000001f91db8                A_OpenShotgun2
                0x0000000001f91dd0                A_LoadShotgun2
                0x0000000001f91de8                A_CloseShotgun2
                0x0000000001f91e14                P_SpawnBrainTargets
                0x0000000001f91ef8                A_BrainAwake
                0x0000000001f91f10                A_BrainPain
                0x0000000001f91f28                A_BrainScream
                0x0000000001f91fdc                A_BrainExplode
                0x0000000001f92078                A_BrainDie
                0x0000000001f92088                A_BrainSpit
                0x0000000001f92188                A_SpawnSound
                0x0000000001f921c8                A_SpawnFly
                0x0000000001f921e8                A_PlayerScream
                0x0000000001f92220                A_Die
                0x0000000001f9223c                A_Detonate
                0x0000000001f92258                A_Mushroom
                0x0000000001f9233c                A_Spawn
                0x0000000001f92378                A_Turn
                0x0000000001f923ac                A_Face
                0x0000000001f923d8                A_Scratch
                0x0000000001f9243c                A_PlaySound
                0x0000000001f92460                A_RandomJump
                0x0000000001f92490                A_LineEffect
                0x0000000001f92548                P_BecomeVisible
                0x0000000001f92568                P_IncreaseVisibility
                0x0000000001f92608                P_DecreaseVisibility
 .text          0x0000000001f926b4     0x1354 /home/jbrawley/Desktop/rockbox-photo-cf-support/build/apps/plugins/doom/p_floor.o
                0x0000000001f926b4                T_MovePlane
                0x0000000001f92918                T_MoveFloor
                0x0000000001f92b34                T_MoveElevator
                0x0000000001f92c54                EV_DoFloor
                0x0000000001f9322c                EV_DoChange
                0x0000000001f932e4                EV_BuildStairs
                0x0000000001f9367c                EV_DoDonut
                0x0000000001f93850                EV_DoElevator
 .text          0x0000000001f93a08     0x165c /home/jbrawley/Desktop/rockbox-photo-cf-support/build/apps/plugins/doom/p_inter.o
                0x0000000001f93a08                P_GiveAmmo
                0x0000000001f93b54                P_GiveWeapon
                0x0000000001f93c9c                P_GiveBody
                0x0000000001f93ce0                P_GiveArmor
                0x0000000001f93d08                P_GiveCard
                0x0000000001f93d28                P_GivePower
                0x0000000001f93de8                P_TouchSpecialThing
                0x0000000001f9476c                P_DamageMobj
 .text          0x0000000001f95064      0x648 /home/jbrawley/Desktop/rockbox-photo-cf-support/build/apps/plugins/doom/p_lights.o
                0x0000000001f95064                T_StrobeFlash
                0x0000000001f950a4                T_Glow
                0x0000000001f95128                T_FireFlicker
                0x0000000001f95188                T_LightFlash
                0x0000000001f95204                P_SpawnFireFlicker
                0x0000000001f9526c                P_SpawnLightFlash
                0x0000000001f952f0                P_SpawnStrobeFlash
                0x0000000001f9539c                P_SpawnGlowingLight
                0x0000000001f95400                EV_StartLightStrobing
                0x0000000001f95468                EV_TurnTagLightsOff
                0x0000000001f954fc                EV_LightTurnOn
                0x0000000001f955d0                EV_LightTurnOnPartway
 .text          0x0000000001f956ac     0x33f4 /home/jbrawley/Desktop/rockbox-photo-cf-support/build/apps/plugins/doom/p_map.o
                0x0000000001f956ac                PIT_StompThing
                0x0000000001f957f4                PTR_AimTraverse
                0x0000000001f95b44                PTR_NoWayTraverse
                0x0000000001f95fb0                PTR_SlideTraverse
                0x0000000001f960a0                PTR_ShootTraverse
                0x0000000001f96be8                PTR_UseTraverse
                0x0000000001f96c9c                PIT_RadiusAttack
                0x0000000001f96da8                P_GetFriction
                0x0000000001f96ecc                P_GetMoveFactor
                0x0000000001f96f64                P_TeleportMove
                0x0000000001f97160                Check_Sides
                0x0000000001f97270                P_CheckPosition
                0x0000000001f974d8                P_TryMove
                0x0000000001f978f0                P_ApplyTorque
                0x0000000001f97a14                P_ThingHeightClip
                0x0000000001f97ac4                PIT_ChangeSector
                0x0000000001f97c44                P_HitSlideLine
                0x0000000001f97f14                P_SlideMove
                0x0000000001f98224                P_AimLineAttack
                0x0000000001f98304                P_LineAttack
                0x0000000001f983b8                P_UseLines
                0x0000000001f98494                P_RadiusAttack
                0x0000000001f98548                P_ChangeSector
                0x0000000001f985d0                P_CheckSector
                0x0000000001f98688                P_AddSecnode
                0x0000000001f9873c                PIT_GetSectors
                0x0000000001f987f4                P_DelSecnode
                0x0000000001f98854                P_DelSeclist
                0x0000000001f98874                P_CreateSecNodeList
                0x0000000001f98a64                P_MapStart
                0x0000000001f98a8c                P_MapEnd
 .text          0x0000000001f98aa0     0x1058 /home/jbrawley/Desktop/rockbox-photo-cf-support/build/apps/plugins/doom/p_maputl.o
                0x0000000001f98c58                P_AproxDistance
                0x0000000001f98c80                P_PointOnLineSide
                0x0000000001f98d34                P_BoxOnLineSide
                0x0000000001f98e38                P_PointOnDivlineSide
                0x0000000001f98f04                P_MakeDivline
                0x0000000001f98f30                P_InterceptVector
                0x0000000001f98ffc                PIT_AddLineIntercepts
                0x0000000001f99108                PIT_AddThingIntercepts
                0x0000000001f991f8                P_LineOpening
                0x0000000001f992b8                P_UnsetThingPosition
                0x0000000001f9933c                P_SetThingPosition
                0x0000000001f99488                ThingIsOnLine
                0x0000000001f99568                P_BlockLinesIterator
                0x0000000001f99578                P_BlockThingsIterator
                0x0000000001f9958c                P_TraverseIntercepts
                0x0000000001f99638                P_PathTraverse
 .text          0x0000000001f99af8      0x650 /home/jbrawley/Desktop/rockbox-photo-cf-support/build/apps/plugins/doom/p_plats.o
                0x0000000001f99af8                P_ActivateInStasis
                0x0000000001f99b78                EV_StopPlat
                0x0000000001f99be0                P_AddActivePlat
                0x0000000001f99c30                EV_DoPlat
                0x0000000001f99eec                P_RemoveActivePlat
                0x0000000001f99f30                T_PlatRaise
                0x0000000001f9a114                P_RemoveAllActivePlats
 .text          0x0000000001f9a148     0x1214 /home/jbrawley/Desktop/rockbox-photo-cf-support/build/apps/plugins/doom/p_pspr.o
                0x0000000001f9a430                P_SwitchWeapon
                0x0000000001f9a604                P_WeaponPreferred
                0x0000000001f9a6cc                P_CheckAmmo
                0x0000000001f9a7e4                P_DropWeapon
                0x0000000001f9a804                A_WeaponReady
                0x0000000001f9a95c                A_ReFire
                0x0000000001f9a9a4                A_CheckReload
                0x0000000001f9a9a8                A_Lower
                0x0000000001f9a9f0                A_Raise
                0x0000000001f9aa2c                A_GunFlash
                0x0000000001f9aa50                A_Punch
                0x0000000001f9ab8c                A_Saw
                0x0000000001f9ad44                A_FireMissile
                0x0000000001f9ad80                A_FireBFG
                0x0000000001f9adc8                A_FireOldBFG
                0x0000000001f9adcc                A_FirePlasma
                0x0000000001f9ae20                P_GunShot
                0x0000000001f9aeac                A_FirePistol
                0x0000000001f9af1c                A_FireShotgun
                0x0000000001f9af94                A_FireShotgun2
                0x0000000001f9b098                A_FireCGun
                0x0000000001f9b18c                A_Light0
                0x0000000001f9b198                A_Light1
                0x0000000001f9b1a4                A_Light2
                0x0000000001f9b1b0                A_BFGSpray
                0x0000000001f9b2b4                A_BFGsound
                0x0000000001f9b2cc                P_SetupPsprites
                0x0000000001f9b2e4                P_MovePsprites
 .text          0x0000000001f9b35c     0x21b8 /home/jbrawley/Desktop/rockbox-photo-cf-support/build/apps/plugins/doom/p_setup.o
                0x0000000001f9b404                P_CreateBlockMap
                0x0000000001f9be04                P_GroupLines
                0x0000000001f9c110                P_RemoveSlimeTrails
                0x0000000001f9c2fc                P_SetupLevel
                0x0000000001f9d4f4                P_Init
 .text          0x0000000001f9d514      0xc54 /home/jbrawley/Desktop/rockbox-photo-cf-support/build/apps/plugins/doom/p_sight.o
                0x0000000001f9dea0                P_CheckSight
 .text          0x0000000001f9e168     0x47a4 /home/jbrawley/Desktop/rockbox-photo-cf-support/build/apps/plugins/doom/p_spec.o
                0x0000000001f9e168                T_Scroll
                0x0000000001f9e4ac                PIT_PushThing
                0x0000000001f9e694                T_Pusher
                0x0000000001f9e8c4                P_InitPicAnims
                0x0000000001f9ea90                getSide
                0x0000000001f9ead0                getSector
                0x0000000001f9eb14                twoSided
                0x0000000001f9eb64                getNextSector
                0x0000000001f9ebbc                P_FindLowestFloorSurrounding
                0x0000000001f9ec50                P_FindHighestFloorSurrounding
                0x0000000001f9ecf0                P_FindNextHighestFloor
                0x0000000001f9ee20                P_FindNextLowestFloor
                0x0000000001f9ef50                P_FindNextLowestCeiling
                0x0000000001f9f080                P_FindNextHighestCeiling
                0x0000000001f9f1b0                P_FindLowestCeilingSurrounding
                0x0000000001f9f24c                P_FindHighestCeilingSurrounding
                0x0000000001f9f2e8                P_FindShortestTextureAround
                0x0000000001f9f3c4                P_FindShortestUpperAround
                0x0000000001f9f4a0                P_FindModelFloorSector
                0x0000000001f9f5b8                P_FindModelCeilingSector
                0x0000000001f9f6d0                P_FindSectorFromLineTag
                0x0000000001f9f788                P_FindLineFromLineTag
                0x0000000001f9f840                P_FindMinSurroundingLight
                0x0000000001f9f8d0                P_CanUnlockGenDoor
                0x0000000001f9fbc8                P_SectorActive
                0x0000000001f9fc44                P_CheckTag
                0x0000000001f9ffcc                P_IsSecret
                0x0000000001f9ffe8                P_WasSecret
                0x0000000001fa0004                P_CrossSpecialLine
                0x0000000001fa1120                P_ShootSpecialLine
                0x0000000001fa1488                P_PlayerInSpecialSector
                0x0000000001fa172c                P_UpdateSpecials
                0x0000000001fa19c0                P_SpawnSpecials
                0x0000000001fa28c8                P_GetPushThing
 .text          0x0000000001fa290c     0x170c /home/jbrawley/Desktop/rockbox-photo-cf-support/build/apps/plugins/doom/p_switch.o
                0x0000000001fa290c                P_InitSwitchList
                0x0000000001fa2a24                P_StartButton
                0x0000000001fa2abc                P_ChangeSwitchTexture
                0x0000000001fa2cb8                P_UseSpecialLine
 .text          0x0000000001fa4018     0x2234 /home/jbrawley/Desktop/rockbox-photo-cf-support/build/apps/plugins/doom/p_mobj.o
                0x0000000001fa4018                P_SpawnMobj
                0x0000000001fa4218                P_RemoveMobj
                0x0000000001fa4364                P_SetMobjState
                0x0000000001fa44ec                P_ExplodeMissile
                0x0000000001fa4578                P_XYMovement
                0x0000000001fa4b7c                P_NightmareRespawn
                0x0000000001fa4ce8                P_MobjThinker
                0x0000000001fa5454                P_FindDoomedNum
                0x0000000001fa5588                P_RespawnSpecials
                0x0000000001fa570c                P_SpawnPlayer
                0x0000000001fa58e0                P_SpawnMapThing
                0x0000000001fa5d80                P_SpawnPuff
                0x0000000001fa5e14                P_SpawnBlood
                0x0000000001fa5ec0                P_CheckMissileSpawn
                0x0000000001fa5f70                P_SpawnMissile
                0x0000000001fa60bc                P_SpawnPlayerMissile
 .text          0x0000000001fa624c      0x7e0 /home/jbrawley/Desktop/rockbox-photo-cf-support/build/apps/plugins/doom/p_telept.o
                0x0000000001fa624c                EV_Teleport
                0x0000000001fa6464                EV_SilentTeleport
                0x0000000001fa666c                EV_SilentLineTeleport
 .text          0x0000000001fa6a2c      0x2c8 /home/jbrawley/Desktop/rockbox-photo-cf-support/build/apps/plugins/doom/p_tick.o
                0x0000000001fa6a2c                P_RemoveThinkerDelayed
                0x0000000001fa6a64                P_InitThinkers
                0x0000000001fa6aa0                P_UpdateThinker
                0x0000000001fa6b44                P_AddThinker
                0x0000000001fa6b74                P_RemoveThinker
                0x0000000001fa6b98                P_SetTarget
                0x0000000001fa6bc4                P_Ticker
 .text          0x0000000001fa6cf4     0x1a1c /home/jbrawley/Desktop/rockbox-photo-cf-support/build/apps/plugins/doom/p_saveg.o
                0x0000000001fa6cf4                P_ArchivePlayers
                0x0000000001fa6dd8                P_UnArchivePlayers
                0x0000000001fa6e8c                P_ArchiveWorld
                0x0000000001fa7054                P_UnArchiveWorld
                0x0000000001fa71d8                P_ThinkerToIndex
                0x0000000001fa7230                P_IndexToThinker
                0x0000000001fa7268                P_ArchiveThinkers
                0x0000000001fa74dc                P_UnArchiveThinkers
                0x0000000001fa7824                P_ArchiveSpecials
                0x0000000001fa7f20                P_UnArchiveSpecials
                0x0000000001fa8440                P_ArchiveRNG
                0x0000000001fa847c                P_UnArchiveRNG
                0x0000000001fa84b0                P_ArchiveMap
                0x0000000001fa85b8                P_UnArchiveMap
 .text          0x0000000001fa8710      0x7a8 /home/jbrawley/Desktop/rockbox-photo-cf-support/build/apps/plugins/doom/p_user.o
                0x0000000001fa8710                P_Thrust
                0x0000000001fa8778                P_Bob
                0x0000000001fa87d8                P_CalcHeight
                0x0000000001fa899c                P_MovePlayer
                0x0000000001fa8adc                P_DeathThink
                0x0000000001fa8be8                P_PlayerThink
 .text          0x0000000001fa8eb8      0xc30 /home/jbrawley/Desktop/rockbox-photo-cf-support/build/apps/plugins/doom/r_bsp.o
                0x0000000001fa8eb8                R_ClearDrawSegs
                0x0000000001fa8ed4                R_ClipWallSegment
                0x0000000001fa8fec                R_ClearClipSegs
                0x0000000001fa9010                R_FakeFlat
                0x0000000001fa92fc                R_RenderBSPNode
 .text          0x0000000001fa9ae8     0x1b20 /home/jbrawley/Desktop/rockbox-photo-cf-support/build/apps/plugins/doom/r_data.o
                0x0000000001fa9de0                R_DrawColumnInCache
                0x0000000001fa9e7c                R_GenerateComposite
                0x0000000001faa124                R_GetColumn
                0x0000000001faa208                R_InitTextures
                0x0000000001faa7a0                R_InitFlats
                0x0000000001faa848                R_InitSpriteLumps
                0x0000000001faa970                R_InitColormaps
                0x0000000001faaa34                R_ColormapNumForName
                0x0000000001faaa90                R_InitTranMap
                0x0000000001faaf58                R_InitData
                0x0000000001faafbc                R_FlatNumForName
                0x0000000001fab004                R_CheckTextureNumForName
                0x0000000001fab018                R_TextureNumForName
                0x0000000001fab068                isAnim
                0x0000000001fab0c8                R_PrecacheLevel
                0x0000000001fab5a8                R_SetPatchNum
 .text          0x0000000001fab608      0xbc4 /home/jbrawley/Desktop/rockbox-photo-cf-support/build/apps/plugins/doom/r_draw.o
                0x0000000001fab608                R_DrawColumn
                0x0000000001fab7b8                R_DrawTLColumn
                0x0000000001fab954                R_DrawFuzzColumn
                0x0000000001faba04                R_DrawTranslatedColumn
                0x0000000001faba94                R_InitTranslationTables
                0x0000000001fabc0c                R_DrawSpan
                0x0000000001fabc9c                R_InitBuffer
                0x0000000001fabd34                R_FillBackScreen
                0x0000000001fac030                R_VideoErase
                0x0000000001fac05c                R_DrawViewBorder
 .text          0x0000000001fac1cc      0xf40 /home/jbrawley/Desktop/rockbox-photo-cf-support/build/apps/plugins/doom/r_main.o
                0x0000000001fac1cc                R_PointOnSide
                0x0000000001fac290                R_PointOnSegSide
                0x0000000001fac360                R_PointToAngle
                0x0000000001fac4d4                R_PointToAngle2
                0x0000000001fac630                R_InitLightTables
                0x0000000001fac744                R_SetViewSize
                0x0000000001fac764                R_ExecuteSetViewSize
                0x0000000001facda4                R_Init
                0x0000000001face4c                R_PointInSubsector
                0x0000000001facec4                R_SetupFrame
                0x0000000001fad0d0                R_RenderPlayerView
 .text          0x0000000001fad10c      0xc18 /home/jbrawley/Desktop/rockbox-photo-cf-support/build/apps/plugins/doom/r_plane.o
                0x0000000001fad368                R_InitPlanes
                0x0000000001fad36c                R_ClearPlanes
                0x0000000001fad548                R_DupPlane
                0x0000000001fad5e0                R_FindPlane
                0x0000000001fad6fc                R_CheckPlane
                0x0000000001fad784                R_DrawPlanes
 .text          0x0000000001fadd24     0x19b0 /home/jbrawley/Desktop/rockbox-photo-cf-support/build/apps/plugins/doom/r_segs.o
                0x0000000001fade14                R_RenderMaskedSegRange
                0x0000000001fae268                R_StoreWallRange
 .text          0x0000000001faf6d4       0x14 /home/jbrawley/Desktop/rockbox-photo-cf-support/build/apps/plugins/doom/r_sky.o
                0x0000000001faf6d4                R_InitSkyMap
 .text          0x0000000001faf6e8     0x196c /home/jbrawley/Desktop/rockbox-photo-cf-support/build/apps/plugins/doom/r_things.o
                0x0000000001faf938                R_InitSpriteDefs
                0x0000000001fafcd0                R_InitSprites
                0x0000000001fafcf0                R_ClearSprites
                0x0000000001fafd04                R_NewVisSprite
                0x0000000001fafd70                R_DrawMaskedColumn
                0x0000000001fafed4                R_DrawVisSprite
                0x0000000001fb010c                R_ProjectSprite
                0x0000000001fb06fc                R_AddSprites
                0x0000000001fb07b0                R_DrawPSprite
                0x0000000001fb09a8                R_DrawPlayerSprites
                0x0000000001fb0a88                R_SortVisSprites
                0x0000000001fb0b24                R_DrawSprite
                0x0000000001fb0fa8                R_DrawMasked
 .text          0x0000000001fb1054     0x2a98 /home/jbrawley/Desktop/rockbox-photo-cf-support/build/apps/plugins/doom/wi_stuff.o
                0x0000000001fb1574                WI_levelNameLump
                0x0000000001fb15fc                WI_Responder
                0x0000000001fb1604                WI_drawLF
                0x0000000001fb16d8                WI_drawEL
                0x0000000001fb17ac                WI_drawOnLnode
                0x0000000001fb1914                WI_initAnimatedBack
                0x0000000001fb1a20                WI_updateAnimatedBack
                0x0000000001fb1b9c                WI_drawAnimatedBack
                0x0000000001fb1c64                WI_initNoState
                0x0000000001fb1c90                WI_updateNoState
                0x0000000001fb1cbc                WI_initShowNextLoc
                0x0000000001fb1d24                WI_updateShowNextLoc
                0x0000000001fb1d98                WI_drawShowNextLoc
                0x0000000001fb1e98                WI_drawNoState
                0x0000000001fb1eac                WI_fragSum
                0x0000000001fb1f10                WI_initDeathmatchStats
                0x0000000001fb1fc8                WI_updateDeathmatchStats
                0x0000000001fb2268                WI_drawDeathmatchStats
                0x0000000001fb254c                WI_initNetgameStats
                0x0000000001fb2624                WI_updateNetgameStats
                0x0000000001fb2b00                WI_drawNetgameStats
                0x0000000001fb2eb0                WI_initStats
                0x0000000001fb2f48                WI_updateStats
                0x0000000001fb33ac                WI_drawStats
                0x0000000001fb34d4                WI_checkForAccelerate
                0x0000000001fb355c                WI_Ticker
                0x0000000001fb3620                WI_loadData
                0x0000000001fb37dc                WI_unloadData
                0x0000000001fb3958                WI_End
                0x0000000001fb39b8                WI_Drawer
                0x0000000001fb3a1c                WI_initVariables
                0x0000000001fb3aa4                WI_Start
 .text          0x0000000001fb3aec      0xca4 /home/jbrawley/Desktop/rockbox-photo-cf-support/build/apps/plugins/doom/v_video.o
                0x0000000001fb3aec                V_InitColorTranslation
                0x0000000001fb3b28                V_MarkRect
                0x0000000001fb3b74                V_CopyRect
                0x0000000001fb3ccc                V_DrawBlock
                0x0000000001fb3e84                V_DrawBackground
                0x0000000001fb3f54                V_GetBlock
                0x0000000001fb3fb0                V_Init
                0x0000000001fb4004                V_DrawMemPatch
                0x0000000001fb4594                V_DrawNumPatch
                0x0000000001fb45f4                V_NamePatchWidth
                0x0000000001fb4624                V_NamePatchHeight
                0x0000000001fb4654                V_PatchToBlock
                0x0000000001fb4714                V_SetPalette
                0x0000000001fb4724                V_FillRect
 .text          0x0000000001fb4790      0x570 /home/jbrawley/Desktop/rockbox-photo-cf-support/build/apps/plugins/doom/st_lib.o
                0x0000000001fb49ac                STlib_init
                0x0000000001fb49b0                STlib_initNum
                0x0000000001fb49e4                STlib_updateNum
                0x0000000001fb49f8                STlib_initPercent
                0x0000000001fb4a34                STlib_updatePercent
                0x0000000001fb4afc                STlib_initMultIcon
                0x0000000001fb4b28                STlib_updateMultIcon
                0x0000000001fb4c0c                STlib_initBinIcon
                0x0000000001fb4c38                STlib_updateBinIcon
 .text          0x0000000001fb4d00     0x142c /home/jbrawley/Desktop/rockbox-photo-cf-support/build/apps/plugins/doom/st_stuff.o
                0x0000000001fb5124                ST_refreshBackground
                0x0000000001fb513c                ST_Responder
                0x0000000001fb51a0                ST_calcPainOffset
                0x0000000001fb5208                ST_updateFaceWidget
                0x0000000001fb56d4                ST_updateWidgets
                0x0000000001fb585c                ST_Ticker
                0x0000000001fb58a0                ST_doPaletteStuff
                0x0000000001fb594c                ST_drawWidgets
                0x0000000001fb5bfc                ST_doRefresh
                0x0000000001fb5c28                ST_diffDraw
                0x0000000001fb5c30                ST_Drawer
                0x0000000001fb5c80                ST_loadData
                0x0000000001fb5c88                ST_unloadData
                0x0000000001fb5c90                ST_initData
                0x0000000001fb5d40                ST_createWidgets
                0x0000000001fb6080                ST_Start
                0x0000000001fb60bc                ST_Stop
                0x0000000001fb60e8                ST_Init
 .text          0x0000000001fb612c     0x29a4 /home/jbrawley/Desktop/rockbox-photo-cf-support/build/apps/plugins/doom/hu_stuff.o
                0x0000000001fb612c                HU_Init
                0x0000000001fb6588                HU_Stop
                0x0000000001fb659c                HU_Start
                0x0000000001fb6db4                HU_MoveHud
                0x0000000001fb6ef8                HU_Erase
                0x0000000001fb6f48                HU_Drawer
                0x0000000001fb81f8                HU_Ticker
                0x0000000001fb84a8                HU_queueChatChar
                0x0000000001fb84ec                HU_dequeueChatChar
                0x0000000001fb851c                HU_Responder
 .text          0x0000000001fb8ad0      0xfb8 /home/jbrawley/Desktop/rockbox-photo-cf-support/build/apps/plugins/doom/hu_lib.o
                0x0000000001fb8ad0                HUlib_init
                0x0000000001fb8ad4                HUlib_clearTextLine
                0x0000000001fb8af0                HUlib_initTextLine
                0x0000000001fb8b24                HUlib_addCharToTextLine
                0x0000000001fb8b84                HUlib_delCharFromTextLine
                0x0000000001fb8bb8                HUlib_drawTextLine
                0x0000000001fb8d84                HUlib_eraseTextLine
                0x0000000001fb8d88                HUlib_initSText
                0x0000000001fb8e08                HUlib_addLineToSText
                0x0000000001fb8e84                HUlib_addMessageToSText
                0x0000000001fb9000                HUlib_drawSText
                0x0000000001fb9064                HUlib_eraseSText
                0x0000000001fb90cc                HUlib_initMText
                0x0000000001fb918c                HUlib_addLineToMText
                0x0000000001fb9210                HUlib_addMessageToMText
                0x0000000001fb937c                HUlib_drawMBg
                0x0000000001fb95dc                HUlib_drawMText
                0x0000000001fb96c4                HUlib_eraseMText
                0x0000000001fb9804                HUlib_initIText
                0x0000000001fb984c                HUlib_delCharFromIText
                0x0000000001fb9884                HUlib_eraseLineFromIText
                0x0000000001fb98c8                HUlib_resetIText
                0x0000000001fb98e8                HUlib_addPrefixToIText
                0x0000000001fb995c                HUlib_keyInIText
                0x0000000001fb9a34                HUlib_drawIText
                0x0000000001fb9a4c                HUlib_eraseIText
 .text          0x0000000001fb9a88      0xd80 /home/jbrawley/Desktop/rockbox-photo-cf-support/build/apps/plugins/doom/s_sound.o
                0x0000000001fb9c28                S_Init
                0x0000000001fb9d20                S_PauseSound
                0x0000000001fb9d78                S_ResumeSound
                0x0000000001fb9dd0                S_SetMusicVolume
                0x0000000001fb9de8                S_SetSfxVolume
                0x0000000001fb9e40                S_StopMusic
                0x0000000001fb9fa0                S_ChangeMusic
                0x0000000001fb9fb8                S_StartMusic
                0x0000000001fb9fd4                S_StopChannel
                0x0000000001fba088                S_Start
                0x0000000001fba1a0                S_StopSound
                0x0000000001fba21c                S_StartSoundAtVolume
                0x0000000001fba6b4                S_StartSound
                0x0000000001fba6c4                S_UpdateSounds
                0x0000000001fba7ec                S_AdjustSoundParams
 .text          0x0000000001fba808      0x578 /home/jbrawley/Desktop/rockbox-photo-cf-support/build/apps/plugins/doom/z_zone.o
                0x0000000001fba808                Z_DumpHistory
                0x0000000001fba80c                Z_Close
                0x0000000001fba828                Z_Init
                0x0000000001fba8bc                Z_Free
                0x0000000001fba994                Z_Malloc
                0x0000000001fbab68                Z_FreeTags
                0x0000000001fbabec                Z_ChangeTag
                0x0000000001fbabf4                Z_Realloc
                0x0000000001fbac54                Z_Calloc
                0x0000000001fbaca0                Z_Strdup
                0x0000000001fbacec                Z_CheckHeap
 .text          0x0000000001fbad80      0x1a8 /home/jbrawley/Desktop/rockbox-photo-cf-support/build/apps/plugins/doom/z_bmalloc.o
                0x0000000001fbad80                Z_BMalloc
                0x0000000001fbae60                Z_BFree
 .text          0x0000000001fbaf28     0x10a4 /home/jbrawley/Desktop/rockbox-photo-cf-support/build/apps/plugins/doom/d_main.o
                0x0000000001fbaf88                D_PostEvent
                0x0000000001fbb00c                D_PageTicker
                0x0000000001fbb038                D_PageDrawer
                0x0000000001fbb4a0                D_Display
                0x0000000001fbb4b8                D_AdvanceDemo
                0x0000000001fbb4cc                D_DoAdvanceDemo
                0x0000000001fbb5e0                D_StartTitle
                0x0000000001fbb61c                D_AddFile
                0x0000000001fbb6cc                D_DoomMainSetup
                0x0000000001fbbe7c                D_DoomMain
 .text          0x0000000001fbbfcc      0x628 /home/jbrawley/Desktop/rockbox-photo-cf-support/build/apps/plugins/doom/m_misc.o
                0x0000000001fbbfcc                M_DrawText
                0x0000000001fbc078                M_WriteFile
                0x0000000001fbc0e8                M_ReadFile
                0x0000000001fbc190                M_SaveDefaults
                0x0000000001fbc270                M_LookupDefault
                0x0000000001fbc31c                M_LoadDefaults
                0x0000000001fbc464                M_DoScreenShot
                0x0000000001fbc4e0                M_ScreenShot
 .text          0x0000000001fbc5f4       0x58 /home/jbrawley/Desktop/rockbox-photo-cf-support/build/apps/plugins/doom/m_bbox.o
                0x0000000001fbc5f4                M_ClearBox
                0x0000000001fbc610                M_AddToBox
 .text          0x0000000001fbc64c      0x150 /home/jbrawley/Desktop/rockbox-photo-cf-support/build/apps/plugins/doom/i_system.o
                0x0000000001fbc64c                doomtime
                0x0000000001fbc664                I_GetTime
                0x0000000001fbc674                I_Init
                0x0000000001fbc6c0                I_Quit
                0x0000000001fbc700                I_WaitVBL
                0x0000000001fbc714                I_Error
 .text          0x0000000001fbc79c      0x744 /home/jbrawley/Desktop/rockbox-photo-cf-support/build/apps/plugins/doom/i_sound.o
                0x0000000001fbc87c                getsfx
                0x0000000001fbc928                addsfx
                0x0000000001fbc9b8                I_UpdateSoundParams
                0x0000000001fbc9bc                I_SetChannels
                0x0000000001fbca84                I_SetSfxVolume
                0x0000000001fbca94                I_SetMusicVolume
                0x0000000001fbcaa4                I_GetSfxLumpNum
                0x0000000001fbcaec                I_StartSound
                0x0000000001fbcb1c                I_StopSound
                0x0000000001fbcb38                I_SoundIsPlaying
                0x0000000001fbcb58                I_UpdateSound
                0x0000000001fbcc48                get_more
                0x0000000001fbcc78                I_SubmitSound
                0x0000000001fbccb4                I_ShutdownSound
                0x0000000001fbcce8                I_InitSound
                0x0000000001fbce2c                I_InitMusic
                0x0000000001fbce30                I_ShutdownMusic
                0x0000000001fbce34                I_PlaySong
                0x0000000001fbce58                I_PauseSong
                0x0000000001fbce5c                I_ResumeSong
                0x0000000001fbce60                I_StopSong
                0x0000000001fbce80                I_UnRegisterSong
                0x0000000001fbce84                I_RegisterSong
                0x0000000001fbce8c                I_QrySongPlaying
                0x0000000001fbced0                I_HandleSoundTimer
                0x0000000001fbced4                I_SoundSetTimer
                0x0000000001fbcedc                I_SoundDelTimer
 .text          0x0000000001fbcee0      0x550 /home/jbrawley/Desktop/rockbox-photo-cf-support/build/apps/plugins/doom/i_video.o
                0x0000000001fbcee0                I_ShutdownGraphics
                0x0000000001fbcef4                I_StartTic
                0x0000000001fbd204                I_FinishUpdate
                0x0000000001fbd284                I_ReadScreen
                0x0000000001fbd2a8                I_SetPalette
                0x0000000001fbd3e8                I_InitGraphics
 .text          0x0000000001fbd430      0xda0 /home/jbrawley/Desktop/rockbox-photo-cf-support/build/apps/plugins/doom/w_wad.o
                0x0000000001fbd6a8                ExtractFileBase
                0x0000000001fbd7b0                AddDefaultExtension
                0x0000000001fbd83c                W_LumpNameHash
                0x0000000001fbd96c                W_CheckNumForName
                0x0000000001fbda14                W_GetNumForName
                0x0000000001fbda58                W_Init
                0x0000000001fbdf0c                W_LumpLength
                0x0000000001fbdf4c                W_ReadLump
                0x0000000001fbdfd0                W_CacheLumpNum
                0x0000000001fbe098                W_CacheLumpNumPadded
                0x0000000001fbe174                W_UnlockLumpNum
 .text          0x0000000001fbe1d0      0xf70 /home/jbrawley/Desktop/rockbox-photo-cf-support/build/apps/plugins/doom/rockdoom.o
                0x0000000001fbe2a0                list_action_callback
                0x0000000001fbe2ac                my_open
                0x0000000001fbe350                printf
                0x0000000001fbe434                my_close
                0x0000000001fbe4f8                fileexists
                0x0000000001fbe524                my_strtok
                0x0000000001fbe5cc                Dhandle_ver
                0x0000000001fbe88c                Dbuild_base
                0x0000000001fbe930                Dbuild_filelistm
                0x0000000001fbead4                Oset_keys
                0x0000000001fbebb8                menuchoice
                0x0000000001fbec48                doom_menu
                0x0000000001fbeeb4                plugin_start
 .text          0x0000000001fbf140     0x367c /home/jbrawley/Desktop/rockbox-photo-cf-support/build/apps/plugins/doom/d_deh.o
                0x0000000001fbf140                deh_procCheat
                0x0000000001fbf144                deh_procError
                0x0000000001fbf430                strlwr
                0x0000000001fbf474                dehfgets
                0x0000000001fbf54c                dehfeof
                0x0000000001fbf5e8                deh_procSprite
                0x0000000001fbf6e0                deh_procPars
                0x0000000001fbf97c                deh_procBexCodePointers
                0x0000000001fbfc28                dehfgetc
                0x0000000001fbfc9c                ProcessDehFile
                0x0000000001fc0124                getConvertedDEHBits
                0x0000000001fc0178                setMobjInfoValue
                0x0000000001fc0184                deh_procStringSub
                0x0000000001fc0430                deh_procText
                0x0000000001fc0980                dehReformatStr
                0x0000000001fc09cc                rstrip
                0x0000000001fc0a50                ptr_lstrip
                0x0000000001fc0a8c                deh_GetData
                0x0000000001fc0bd0                deh_procThing
                0x0000000001fc0fb8                deh_procFrame
                0x0000000001fc141c                deh_procPointer
                0x0000000001fc1758                deh_procSounds
                0x0000000001fc1b0c                deh_procAmmo
                0x0000000001fc1d04                deh_procWeapon
                0x0000000001fc2010                deh_procMisc
                0x0000000001fc2474                deh_procStrings
 .text          0x0000000001fc27bc      0x214 /home/jbrawley/Desktop/rockbox-photo-cf-support/build/apps/plugins/plugin_crt0.o
                0x0000000001fc27d4                plugin__start
                0x0000000001fc2924                rb_atexit
                0x0000000001fc2944                exit
                0x0000000001fc2964                _exit
                0x0000000001fc297c                exit_on_usb
 .text.memcpy   0x0000000001fc29d0       0x14 /home/jbrawley/Desktop/rockbox-photo-cf-support/build/apps/plugins/libplugin.a(gcc-support.o)
                0x0000000001fc29d0                memcpy
 .text.backlight_ignore_timeout
                0x0000000001fc29e4       0x58 /home/jbrawley/Desktop/rockbox-photo-cf-support/build/apps/plugins/libplugin.a(helper.o)
                0x0000000001fc29e4                backlight_ignore_timeout
 .text.backlight_use_settings
                0x0000000001fc2a3c       0x3c /home/jbrawley/Desktop/rockbox-photo-cf-support/build/apps/plugins/libplugin.a(helper.o)
                0x0000000001fc2a3c                backlight_use_settings
 .text.strncpy  0x0000000001fc2a78       0x38 /home/jbrawley/Desktop/rockbox-photo-cf-support/build/apps/plugins/libplugin.a(strncpy.o)
                0x0000000001fc2a78                strncpy
 .text          0x0000000001fc2ab0       0x1c /home/jbrawley/Desktop/rockbox-photo-cf-support/build/lib/libsetjmp.a(setjmp.o)
                0x0000000001fc2ab0                setjmp
                0x0000000001fc2abc                longjmp
 .text          0x0000000001fc2acc      0x114 /usr/local/lib/gcc/arm-elf-eabi/4.9.4/libgcc.a(_udivsi3.o)
                0x0000000001fc2acc                __udivsi3
                0x0000000001fc2acc                __aeabi_uidiv
                0x0000000001fc2bc0                __aeabi_uidivmod
 .text          0x0000000001fc2be0      0x148 /usr/local/lib/gcc/arm-elf-eabi/4.9.4/libgcc.a(_divsi3.o)
                0x0000000001fc2be0                __aeabi_idiv
                0x0000000001fc2be0                __divsi3
                0x0000000001fc2d08                __aeabi_idivmod
 .text          0x0000000001fc2d28        0x4 /usr/local/lib/gcc/arm-elf-eabi/4.9.4/libgcc.a(_dvmd_tls.o)
                0x0000000001fc2d28                __aeabi_ldiv0
                0x0000000001fc2d28                __aeabi_idiv0
 .text          0x0000000001fc2d2c      0x2ac /usr/local/lib/gcc/arm-elf-eabi/4.9.4/libgcc.a(_arm_addsubsf3.o)
                0x0000000001fc2d2c                __aeabi_frsub
                0x0000000001fc2d34                __subsf3
                0x0000000001fc2d34                __aeabi_fsub
                0x0000000001fc2d38                __aeabi_fadd
                0x0000000001fc2d38                __addsf3
                0x0000000001fc2ef4                __aeabi_ui2f
                0x0000000001fc2ef4                __floatunsisf
                0x0000000001fc2efc                __aeabi_i2f
                0x0000000001fc2efc                __floatsisf
                0x0000000001fc2f1c                __floatundisf
                0x0000000001fc2f1c                __aeabi_ul2f
                0x0000000001fc2f2c                __floatdisf
                0x0000000001fc2f2c                __aeabi_l2f
 .text          0x0000000001fc2fd8      0x2f8 /usr/local/lib/gcc/arm-elf-eabi/4.9.4/libgcc.a(_arm_muldivsf3.o)
                0x0000000001fc2fd8                __mulsf3
                0x0000000001fc2fd8                __aeabi_fmul
                0x0000000001fc3170                __divsf3
                0x0000000001fc3170                __aeabi_fdiv
 .text          0x0000000001fc32d0      0x114 /usr/local/lib/gcc/arm-elf-eabi/4.9.4/libgcc.a(_arm_cmpsf2.o)
                0x0000000001fc32d0                __gtsf2
                0x0000000001fc32d0                __gesf2
                0x0000000001fc32d8                __lesf2
                0x0000000001fc32d8                __ltsf2
                0x0000000001fc32e0                __nesf2
                0x0000000001fc32e0                __eqsf2
                0x0000000001fc32e0                __cmpsf2
                0x0000000001fc3344                __aeabi_cfrcmple
                0x0000000001fc3354                __aeabi_cfcmple
                0x0000000001fc3354                __aeabi_cfcmpeq
                0x0000000001fc336c                __aeabi_fcmpeq
                0x0000000001fc3384                __aeabi_fcmplt
                0x0000000001fc339c                __aeabi_fcmple
                0x0000000001fc33b4                __aeabi_fcmpge
                0x0000000001fc33cc                __aeabi_fcmpgt
 .text          0x0000000001fc33e4       0x5c /usr/local/lib/gcc/arm-elf-eabi/4.9.4/libgcc.a(_arm_fixsfsi.o)
                0x0000000001fc33e4                __fixsfsi
                0x0000000001fc33e4                __aeabi_f2iz
 .text          0x0000000001fc3440       0x48 /usr/local/lib/gcc/arm-elf-eabi/4.9.4/libgcc.a(_aeabi_ldivmod.o)
                0x0000000001fc3440                __aeabi_ldivmod
 .text          0x0000000001fc3488       0x3c /usr/local/lib/gcc/arm-elf-eabi/4.9.4/libgcc.a(_aeabi_uldivmod.o)
                0x0000000001fc3488                __aeabi_uldivmod
 .text          0x0000000001fc34c4       0x84 /usr/local/lib/gcc/arm-elf-eabi/4.9.4/libgcc.a(bpabi.o)
                0x0000000001fc34c4                __gnu_ldivmod_helper
                0x0000000001fc3508                __gnu_uldivmod_helper
 .text          0x0000000001fc3548      0x178 /usr/local/lib/gcc/arm-elf-eabi/4.9.4/libgcc.a(_divdi3.o)
                0x0000000001fc3548                __divdi3
 .text          0x0000000001fc36c0      0x120 /usr/local/lib/gcc/arm-elf-eabi/4.9.4/libgcc.a(_udivdi3.o)
                0x0000000001fc36c0                __udivdi3
 .text          0x0000000001fc37e0       0x28 /usr/local/lib/gcc/arm-elf-eabi/4.9.4/libgcc.a(_clzdi2.o)
                0x0000000001fc37e0                __clzdi2
 .text          0x0000000001fc3808       0x48 /usr/local/lib/gcc/arm-elf-eabi/4.9.4/libgcc.a(_clzsi2.o)
                0x0000000001fc3808                __clzsi2
 *(.glue_7)
 .glue_7        0x0000000001fc3850        0x0 linker stubs
 *(.glue_7t)
 .glue_7t       0x0000000001fc3850        0x0 linker stubs

.vfp11_veneer   0x0000000001fc3850        0x0
 .vfp11_veneer  0x0000000001fc3850        0x0 linker stubs

.v4_bx          0x0000000001fc3850        0x0
 .v4_bx         0x0000000001fc3850        0x0 linker stubs

.iplt           0x0000000001fc3850        0x0
 .iplt          0x0000000001fc3850        0x0 /home/jbrawley/Desktop/rockbox-photo-cf-support/build/apps/plugins/doom/../../../firmware/libc/sscanf.o

.rodata         0x0000000001fc3850     0xb100
 *(.rodata*)
 .rodata.str1.4
                0x0000000001fc3850      0x44d /home/jbrawley/Desktop/rockbox-photo-cf-support/build/apps/plugins/doom/info.o
 *fill*         0x0000000001fc3c9d        0x3 
 .rodata        0x0000000001fc3ca0       0x44 /home/jbrawley/Desktop/rockbox-photo-cf-support/build/apps/plugins/doom/dstrings.o
                0x0000000001fc3ca0                NUM_QUITMESSAGES
                0x0000000001fc3ca4                endmsg
 .rodata.str1.4
                0x0000000001fc3ce4      0x36f /home/jbrawley/Desktop/rockbox-photo-cf-support/build/apps/plugins/doom/dstrings.o
 *fill*         0x0000000001fc4053        0x1 
 .rodata.str1.4
                0x0000000001fc4054       0xaf /home/jbrawley/Desktop/rockbox-photo-cf-support/build/apps/plugins/doom/tables.o
 *fill*         0x0000000001fc4103        0x1 
 .rodata        0x0000000001fc4104       0x9e /home/jbrawley/Desktop/rockbox-photo-cf-support/build/apps/plugins/doom/f_finale.o
 *fill*         0x0000000001fc41a2        0x2 
 .rodata.str1.4
                0x0000000001fc41a4       0x3b /home/jbrawley/Desktop/rockbox-photo-cf-support/build/apps/plugins/doom/f_finale.o
 *fill*         0x0000000001fc41df        0x1 
 .rodata        0x0000000001fc41e0       0x7c /home/jbrawley/Desktop/rockbox-photo-cf-support/build/apps/plugins/doom/g_game.o
 .rodata.str1.4
                0x0000000001fc425c      0x46f /home/jbrawley/Desktop/rockbox-photo-cf-support/build/apps/plugins/doom/g_game.o
                                        0x487 (size before relaxing)
 *fill*         0x0000000001fc46cb        0x1 
 .rodata.str1.4
                0x0000000001fc46cc      0x1fe /home/jbrawley/Desktop/rockbox-photo-cf-support/build/apps/plugins/doom/m_menu.o
                                        0x22e (size before relaxing)
 *fill*         0x0000000001fc48ca        0x2 
 .rodata        0x0000000001fc48cc      0x100 /home/jbrawley/Desktop/rockbox-photo-cf-support/build/apps/plugins/doom/m_random.o
 .rodata.str1.4
                0x0000000001fc49cc        0x6 /home/jbrawley/Desktop/rockbox-photo-cf-support/build/apps/plugins/doom/am_map.o
 *fill*         0x0000000001fc49d2        0x2 
 .rodata        0x0000000001fc49d4        0xc /home/jbrawley/Desktop/rockbox-photo-cf-support/build/apps/plugins/doom/p_genlin.o
 .rodata        0x0000000001fc49e0       0x40 /home/jbrawley/Desktop/rockbox-photo-cf-support/build/apps/plugins/doom/p_enemy.o
 .rodata        0x0000000001fc4a20       0x18 /home/jbrawley/Desktop/rockbox-photo-cf-support/build/apps/plugins/doom/p_inter.o
 .rodata.str1.4
                0x0000000001fc4a38       0x27 /home/jbrawley/Desktop/rockbox-photo-cf-support/build/apps/plugins/doom/p_inter.o
 *fill*         0x0000000001fc4a5f        0x1 
 .rodata.str1.4
                0x0000000001fc4a60       0x45 /home/jbrawley/Desktop/rockbox-photo-cf-support/build/apps/plugins/doom/p_map.o
 *fill*         0x0000000001fc4aa5        0x3 
 .rodata        0x0000000001fc4aa8       0x24 /home/jbrawley/Desktop/rockbox-photo-cf-support/build/apps/plugins/doom/p_pspr.o
 .rodata.str1.4
                0x0000000001fc4acc       0xfd /home/jbrawley/Desktop/rockbox-photo-cf-support/build/apps/plugins/doom/p_setup.o
                                        0x105 (size before relaxing)
 *fill*         0x0000000001fc4bc9        0x3 
 .rodata.str1.4
                0x0000000001fc4bcc       0x4b /home/jbrawley/Desktop/rockbox-photo-cf-support/build/apps/plugins/doom/p_spec.o
 *fill*         0x0000000001fc4c17        0x1 
 .rodata.str1.4
                0x0000000001fc4c18       0x31 /home/jbrawley/Desktop/rockbox-photo-cf-support/build/apps/plugins/doom/p_switch.o
 *fill*         0x0000000001fc4c49        0x3 
 .rodata.str1.4
                0x0000000001fc4c4c       0x7e /home/jbrawley/Desktop/rockbox-photo-cf-support/build/apps/plugins/doom/p_mobj.o
 *fill*         0x0000000001fc4cca        0x2 
 .rodata.str1.4
                0x0000000001fc4ccc       0x67 /home/jbrawley/Desktop/rockbox-photo-cf-support/build/apps/plugins/doom/p_saveg.o
 *fill*         0x0000000001fc4d33        0x1 
 .rodata        0x0000000001fc4d34       0xc0 /home/jbrawley/Desktop/rockbox-photo-cf-support/build/apps/plugins/doom/r_bsp.o
 .rodata.str1.4
                0x0000000001fc4df4      0x22a /home/jbrawley/Desktop/rockbox-photo-cf-support/build/apps/plugins/doom/r_data.o
                                        0x232 (size before relaxing)
 *fill*         0x0000000001fc501e        0x2 
 .rodata.str1.4
                0x0000000001fc5020       0x53 /home/jbrawley/Desktop/rockbox-photo-cf-support/build/apps/plugins/doom/r_draw.o
 *fill*         0x0000000001fc5073        0x1 
 .rodata.str1.4
                0x0000000001fc5074       0x7a /home/jbrawley/Desktop/rockbox-photo-cf-support/build/apps/plugins/doom/r_main.o
 *fill*         0x0000000001fc50ee        0x2 
 .rodata.str1.4
                0x0000000001fc50f0       0xa5 /home/jbrawley/Desktop/rockbox-photo-cf-support/build/apps/plugins/doom/r_things.o
 *fill*         0x0000000001fc5195        0x3 
 .rodata        0x0000000001fc5198      0x1d8 /home/jbrawley/Desktop/rockbox-photo-cf-support/build/apps/plugins/doom/wi_stuff.o
 .rodata.str1.4
                0x0000000001fc5370       0x7f /home/jbrawley/Desktop/rockbox-photo-cf-support/build/apps/plugins/doom/wi_stuff.o
 *fill*         0x0000000001fc53ef        0x1 
 .rodata        0x0000000001fc53f0      0x560 /home/jbrawley/Desktop/rockbox-photo-cf-support/build/apps/plugins/doom/v_video.o
                0x0000000001fc5450                gammatable
 .rodata.str1.4
                0x0000000001fc5950       0xe4 /home/jbrawley/Desktop/rockbox-photo-cf-support/build/apps/plugins/doom/v_video.o
 .rodata.str1.4
                0x0000000001fc5a34        0x9 /home/jbrawley/Desktop/rockbox-photo-cf-support/build/apps/plugins/doom/st_lib.o
 *fill*         0x0000000001fc5a3d        0x3 
 .rodata.str1.4
                0x0000000001fc5a40       0xad /home/jbrawley/Desktop/rockbox-photo-cf-support/build/apps/plugins/doom/st_stuff.o
 *fill*         0x0000000001fc5aed        0x3 
 .rodata        0x0000000001fc5af0       0x80 /home/jbrawley/Desktop/rockbox-photo-cf-support/build/apps/plugins/doom/hu_stuff.o
                0x0000000001fc5af0                english_shiftxform
 .rodata.str1.4
                0x0000000001fc5b70      0x1f0 /home/jbrawley/Desktop/rockbox-photo-cf-support/build/apps/plugins/doom/hu_stuff.o
                                        0x20c (size before relaxing)
 .rodata        0x0000000001fc5d60       0x24 /home/jbrawley/Desktop/rockbox-photo-cf-support/build/apps/plugins/doom/s_sound.o
 .rodata.str1.4
                0x0000000001fc5d84       0xd4 /home/jbrawley/Desktop/rockbox-photo-cf-support/build/apps/plugins/doom/s_sound.o
 .rodata.str1.4
                0x0000000001fc5e58       0x75 /home/jbrawley/Desktop/rockbox-photo-cf-support/build/apps/plugins/doom/z_zone.o
 *fill*         0x0000000001fc5ecd        0x3 
 .rodata.str1.4
                0x0000000001fc5ed0       0x1d /home/jbrawley/Desktop/rockbox-photo-cf-support/build/apps/plugins/doom/z_bmalloc.o
 *fill*         0x0000000001fc5eed        0x3 
 .rodata.str1.4
                0x0000000001fc5ef0      0x56f /home/jbrawley/Desktop/rockbox-photo-cf-support/build/apps/plugins/doom/sounds.o
                                        0x577 (size before relaxing)
 *fill*         0x0000000001fc645f        0x1 
 .rodata        0x0000000001fc6460      0x1d8 /home/jbrawley/Desktop/rockbox-photo-cf-support/build/apps/plugins/doom/d_main.o
 .rodata.str1.4
                0x0000000001fc6638      0x43e /home/jbrawley/Desktop/rockbox-photo-cf-support/build/apps/plugins/doom/d_main.o
                                        0x44e (size before relaxing)
 *fill*         0x0000000001fc6a76        0x2 
 .rodata.str1.4
                0x0000000001fc6a78      0xcdc /home/jbrawley/Desktop/rockbox-photo-cf-support/build/apps/plugins/doom/m_misc.o
                                        0xd08 (size before relaxing)
 .rodata.str1.4
                0x0000000001fc7754      0xcdc /home/jbrawley/Desktop/rockbox-photo-cf-support/build/apps/plugins/doom/i_system.o
                                          0x4 (size before relaxing)
 .rodata.str1.4
                0x0000000001fc7754       0x91 /home/jbrawley/Desktop/rockbox-photo-cf-support/build/apps/plugins/doom/i_sound.o
 *fill*         0x0000000001fc77e5        0x3 
 .rodata.str1.4
                0x0000000001fc77e8       0x1a /home/jbrawley/Desktop/rockbox-photo-cf-support/build/apps/plugins/doom/i_video.o
                                         0x22 (size before relaxing)
 *fill*         0x0000000001fc7802        0x2 
 .rodata.str1.4
                0x0000000001fc7804      0x11a /home/jbrawley/Desktop/rockbox-photo-cf-support/build/apps/plugins/doom/w_wad.o
                                        0x15e (size before relaxing)
 *fill*         0x0000000001fc791e        0x2 
 .rodata        0x0000000001fc7920      0x278 /home/jbrawley/Desktop/rockbox-photo-cf-support/build/apps/plugins/doom/rockdoom.o
                0x0000000001fc7948                wads_builtin
                0x0000000001fc7a1c                versions_builtin
 .rodata.str1.4
                0x0000000001fc7b98      0x2f5 /home/jbrawley/Desktop/rockbox-photo-cf-support/build/apps/plugins/doom/rockdoom.o
                                        0x305 (size before relaxing)
 *fill*         0x0000000001fc7e8d        0x3 
 .rodata        0x0000000001fc7e90     0x12cc /home/jbrawley/Desktop/rockbox-photo-cf-support/build/apps/plugins/doom/d_deh.o
                0x0000000001fc8f28                mapnamest
                0x0000000001fc8fa8                mapnamesp
                0x0000000001fc9028                mapnames2
                0x0000000001fc90a8                mapnames
 .rodata.str1.4
                0x0000000001fc915c     0x57f4 /home/jbrawley/Desktop/rockbox-photo-cf-support/build/apps/plugins/doom/d_deh.o
                                       0x5a42 (size before relaxing)

.ARM.exidx      0x0000000001fce950        0x8
 .ARM.exidx     0x0000000001fce950        0x8 /usr/local/lib/gcc/arm-elf-eabi/4.9.4/libgcc.a(_divdi3.o)
 .ARM.exidx     0x0000000001fce958        0x0 /usr/local/lib/gcc/arm-elf-eabi/4.9.4/libgcc.a(_udivdi3.o)
                                          0x8 (size before relaxing)

.rel.dyn        0x0000000001fce958        0x0
 .rel.iplt      0x0000000001fce958        0x0 /home/jbrawley/Desktop/rockbox-photo-cf-support/build/apps/plugins/doom/../../../firmware/libc/sscanf.o

.data           0x0000000001fce958     0xf550
 *(.data*)
 .data          0x0000000001fce958     0xa9f4 /home/jbrawley/Desktop/rockbox-photo-cf-support/build/apps/plugins/doom/info.o
                0x0000000001fce958                mobjinfo
                0x0000000001fd26b0                states
                0x0000000001fd911c                sprnames
 .data          0x0000000001fd934c       0x20 /home/jbrawley/Desktop/rockbox-photo-cf-support/build/apps/plugins/doom/doomstat.o
                0x0000000001fd934c                rockblock
                0x0000000001fd9350                enable_sound
                0x0000000001fd9354                default_distfriend
                0x0000000001fd9358                distfriend
                0x0000000001fd935c                default_monster_friction
                0x0000000001fd9360                default_monster_infighting
                0x0000000001fd9364                default_compatibility_level
                0x0000000001fd9368                compatibility_level
 .data          0x0000000001fd936c        0x4 /home/jbrawley/Desktop/rockbox-photo-cf-support/build/apps/plugins/doom/d_net.o
                0x0000000001fd936c                ticdup
 .data          0x0000000001fd9370       0xd8 /home/jbrawley/Desktop/rockbox-photo-cf-support/build/apps/plugins/doom/d_items.o
                0x0000000001fd9370                weaponinfo
 .data          0x0000000001fd9448      0x180 /home/jbrawley/Desktop/rockbox-photo-cf-support/build/apps/plugins/doom/g_game.o
                0x0000000001fd944c                sidemove
                0x0000000001fd9454                angleturn
                0x0000000001fd9460                forwardmove
                0x0000000001fd9468                cpars
                0x0000000001fd94e8                pars
                0x0000000001fd958c                DEMOMARKER
                0x0000000001fd9594                comp_lev_str
                0x0000000001fd95c0                key_help
                0x0000000001fd95c4                key_escape
 .data          0x0000000001fd95c8      0x49c /home/jbrawley/Desktop/rockbox-photo-cf-support/build/apps/plugins/doom/m_menu.o
                0x0000000001fd95c8                SoundDef
                0x0000000001fd95e0                OptionsDef
                0x0000000001fd95f8                ReadDef1
                0x0000000001fd9610                ReadDef2
                0x0000000001fd9628                MainDef
                0x0000000001fd9640                quitsounds2
                0x0000000001fd9660                quitsounds
                0x0000000001fd9680                NewDef
                0x0000000001fd9698                EpiDef
                0x0000000001fd96b0                LoadMenu
                0x0000000001fd9728                LoadDef
                0x0000000001fd9740                SaveDef
                0x0000000001fd9758                msgNames
                0x0000000001fd976c                skullName
                0x0000000001fd9780                MainMenu
                0x0000000001fd97f8                ReadMenu1
                0x0000000001fd980c                detailNames
                0x0000000001fd9820                SaveMenu
                0x0000000001fd9898                SoundMenu
                0x0000000001fd9910                ReadMenu2
                0x0000000001fd9924                OptionsMenu
                0x0000000001fd99b0                NewGameMenu
                0x0000000001fd9a14                EpisodeMenu
 .data          0x0000000001fd9a64        0x4 /home/jbrawley/Desktop/rockbox-photo-cf-support/build/apps/plugins/doom/m_random.o
                0x0000000001fd9a64                rngseed
 .data          0x0000000001fd9a68      0x214 /home/jbrawley/Desktop/rockbox-photo-cf-support/build/apps/plugins/doom/am_map.o
                0x0000000001fd9a9c                mapcolor_plyr
                0x0000000001fd9aac                player_arrow
                0x0000000001fd9b1c                cheat_player_arrow
                0x0000000001fd9bfc                cross_mark
                0x0000000001fd9c1c                thintriangle_guy
                0x0000000001fd9c4c                triangle_guy
 .data          0x0000000001fd9c7c        0x4 /home/jbrawley/Desktop/rockbox-photo-cf-support/build/apps/plugins/doom/p_enemy.o
                0x0000000001fd9c7c                TRACEANGLE
 .data          0x0000000001fd9c80       0x5c /home/jbrawley/Desktop/rockbox-photo-cf-support/build/apps/plugins/doom/p_inter.o
                0x0000000001fd9c80                clipammo
                0x0000000001fd9c90                maxhealth
                0x0000000001fd9c94                green_armor_class
                0x0000000001fd9c98                blue_armor_class
                0x0000000001fd9c9c                max_armor
                0x0000000001fd9ca0                soul_health
                0x0000000001fd9ca4                max_soul
                0x0000000001fd9ca8                mega_health
                0x0000000001fd9cac                maxammo
                0x0000000001fd9cbc                bfgcells
                0x0000000001fd9cc0                idkfa_armor_class
                0x0000000001fd9cc4                idkfa_armor
                0x0000000001fd9cc8                idfa_armor_class
                0x0000000001fd9ccc                idfa_armor
                0x0000000001fd9cd0                god_health
                0x0000000001fd9cd4                initial_bullets
                0x0000000001fd9cd8                initial_health
 .data          0x0000000001fd9cdc       0x14 /home/jbrawley/Desktop/rockbox-photo-cf-support/build/apps/plugins/doom/p_map.o
                0x0000000001fd9cdc                secnodezone
 .data          0x0000000001fd9cf0       0x50 /home/jbrawley/Desktop/rockbox-photo-cf-support/build/apps/plugins/doom/p_pspr.o
                0x0000000001fd9cf0                weapon_preferences
 .data          0x0000000001fd9d40        0x4 /home/jbrawley/Desktop/rockbox-photo-cf-support/build/apps/plugins/doom/p_setup.o
 .data          0x0000000001fd9d44        0x8 /home/jbrawley/Desktop/rockbox-photo-cf-support/build/apps/plugins/doom/r_data.o
                0x0000000001fd9d48                tran_filter_pct
 .data          0x0000000001fd9d4c        0x4 /home/jbrawley/Desktop/rockbox-photo-cf-support/build/apps/plugins/doom/r_main.o
                0x0000000001fd9d4c                validcount
 .data          0x0000000001fd9d50        0x4 /home/jbrawley/Desktop/rockbox-photo-cf-support/build/apps/plugins/doom/r_plane.o
 .data          0x0000000001fd9d54      0x584 /home/jbrawley/Desktop/rockbox-photo-cf-support/build/apps/plugins/doom/wi_stuff.o
 .data          0x0000000001fda2d8       0x18 /home/jbrawley/Desktop/rockbox-photo-cf-support/build/apps/plugins/doom/st_stuff.o
 .data          0x0000000001fda2f0       0x50 /home/jbrawley/Desktop/rockbox-photo-cf-support/build/apps/plugins/doom/hu_stuff.o
                0x0000000001fda2f4                hud_graph_keys
                0x0000000001fda2f8                plyrcoltran
                0x0000000001fda308                player_names
                0x0000000001fda318                chat_macros
 .data          0x0000000001fda340        0x8 /home/jbrawley/Desktop/rockbox-photo-cf-support/build/apps/plugins/doom/s_sound.o
                0x0000000001fda340                snd_MusicVolume
                0x0000000001fda344                snd_SfxVolume
 .data          0x0000000001fda348     0x1394 /home/jbrawley/Desktop/rockbox-photo-cf-support/build/apps/plugins/doom/sounds.o
                0x0000000001fda348                S_sfx
                0x0000000001fdb29c                S_music
 .data          0x0000000001fdb6dc        0x8 /home/jbrawley/Desktop/rockbox-photo-cf-support/build/apps/plugins/doom/d_main.o
                0x0000000001fdb6dc                wipegamestate
                0x0000000001fdb6e0                dehout
 .data          0x0000000001fdb6e4     0x2264 /home/jbrawley/Desktop/rockbox-photo-cf-support/build/apps/plugins/doom/m_misc.o
                0x0000000001fdb6e4                defaults
                0x0000000001fdd944                precache
 .data          0x0000000001fdd948        0x4 /home/jbrawley/Desktop/rockbox-photo-cf-support/build/apps/plugins/doom/i_sound.o
 .data          0x0000000001fdd94c       0x68 /home/jbrawley/Desktop/rockbox-photo-cf-support/build/apps/plugins/doom/rockdoom.o
                0x0000000001fdd94c                fpoint
 .data          0x0000000001fdd9b4      0x4f0 /home/jbrawley/Desktop/rockbox-photo-cf-support/build/apps/plugins/doom/d_deh.o
                0x0000000001fdd9c0                deh_newlevel
                0x0000000001fdd9c4                savegamename
                0x0000000001fdd9c8                startup5
                0x0000000001fdd9cc                startup4
                0x0000000001fdd9d0                startup3
                0x0000000001fdd9d4                startup2
                0x0000000001fdd9d8                startup1
                0x0000000001fdd9dc                bgcastcall
                0x0000000001fdd9e0                bgflat31
                0x0000000001fdd9e4                bgflat15
                0x0000000001fdd9e8                bgflat30
                0x0000000001fdd9ec                bgflat20
                0x0000000001fdd9f0                bgflat11
                0x0000000001fdd9f4                bgflat06
                0x0000000001fdd9f8                bgflatE4
                0x0000000001fdd9fc                bgflatE3
                0x0000000001fdda00                bgflatE2
                0x0000000001fdda04                bgflatE1
                0x0000000001fdda08                s_CC_HERO
                0x0000000001fdda0c                s_CC_CYBER
                0x0000000001fdda10                s_CC_SPIDER
                0x0000000001fdda14                s_CC_ARCH
                0x0000000001fdda18                s_CC_MANCU
                0x0000000001fdda1c                s_CC_REVEN
                0x0000000001fdda20                s_CC_PAIN
                0x0000000001fdda24                s_CC_ARACH
                0x0000000001fdda28                s_CC_BARON
                0x0000000001fdda2c                s_CC_HELL
                0x0000000001fdda30                s_CC_CACO
                0x0000000001fdda34                s_CC_LOST
                0x0000000001fdda38                s_CC_DEMON
                0x0000000001fdda3c                s_CC_IMP
                0x0000000001fdda40                s_CC_HEAVY
                0x0000000001fdda44                s_CC_SHOTGUN
                0x0000000001fdda48                s_CC_ZOMBIE
                0x0000000001fdda4c                s_T6TEXT
                0x0000000001fdda50                s_T5TEXT
                0x0000000001fdda54                s_T4TEXT
                0x0000000001fdda58                s_T3TEXT
                0x0000000001fdda5c                s_T2TEXT
                0x0000000001fdda60                s_T1TEXT
                0x0000000001fdda64                s_P6TEXT
                0x0000000001fdda68                s_P5TEXT
                0x0000000001fdda6c                s_P4TEXT
                0x0000000001fdda70                s_P3TEXT
                0x0000000001fdda74                s_P2TEXT
                0x0000000001fdda78                s_P1TEXT
                0x0000000001fdda7c                s_C6TEXT
                0x0000000001fdda80                s_C5TEXT
                0x0000000001fdda84                s_C4TEXT
                0x0000000001fdda88                s_C3TEXT
                0x0000000001fdda8c                s_C2TEXT
                0x0000000001fdda90                s_C1TEXT
                0x0000000001fdda94                s_E4TEXT
                0x0000000001fdda98                s_E3TEXT
                0x0000000001fdda9c                s_E2TEXT
                0x0000000001fddaa0                s_E1TEXT
                0x0000000001fddaa4                s_STSTR_COMPOFF
                0x0000000001fddaa8                s_STSTR_COMPON
                0x0000000001fddaac                s_STSTR_CLEV
                0x0000000001fddab0                s_STSTR_CHOPPERS
                0x0000000001fddab4                s_STSTR_BEHOLDX
                0x0000000001fddab8                s_STSTR_BEHOLD
                0x0000000001fddabc                s_STSTR_NCOFF
                0x0000000001fddac0                s_STSTR_NCON
                0x0000000001fddac4                s_STSTR_FAADDED
                0x0000000001fddac8                s_STSTR_KFAADDED
                0x0000000001fddacc                s_STSTR_DQDOFF
                0x0000000001fddad0                s_STSTR_DQDON
                0x0000000001fddad4                s_STSTR_NOMUS
                0x0000000001fddad8                s_STSTR_MUS
                0x0000000001fddadc                s_AMSTR_OVERLAYOFF
                0x0000000001fddae0                s_AMSTR_OVERLAYON
                0x0000000001fddae4                s_AMSTR_ROTATEOFF
                0x0000000001fddae8                s_AMSTR_ROTATEON
                0x0000000001fddaec                s_AMSTR_MARKSCLEARED
                0x0000000001fddaf0                s_AMSTR_MARKEDSPOT
                0x0000000001fddaf4                s_AMSTR_GRIDOFF
                0x0000000001fddaf8                s_AMSTR_GRIDON
                0x0000000001fddafc                s_AMSTR_FOLLOWOFF
                0x0000000001fddb00                s_AMSTR_FOLLOWON
                0x0000000001fddb04                s_HUSTR_PLRRED
                0x0000000001fddb08                s_HUSTR_PLRBROWN
                0x0000000001fddb0c                s_HUSTR_PLRINDIGO
                0x0000000001fddb10                s_HUSTR_PLRGREEN
                0x0000000001fddb14                s_HUSTR_MESSAGESENT
                0x0000000001fddb18                s_HUSTR_TALKTOSELF5
                0x0000000001fddb1c                s_HUSTR_TALKTOSELF4
                0x0000000001fddb20                s_HUSTR_TALKTOSELF3
                0x0000000001fddb24                s_HUSTR_TALKTOSELF2
                0x0000000001fddb28                s_HUSTR_TALKTOSELF1
                0x0000000001fddb2c                s_HUSTR_CHATMACRO0
                0x0000000001fddb30                s_HUSTR_CHATMACRO9
                0x0000000001fddb34                s_HUSTR_CHATMACRO8
                0x0000000001fddb38                s_HUSTR_CHATMACRO7
                0x0000000001fddb3c                s_HUSTR_CHATMACRO6
                0x0000000001fddb40                s_HUSTR_CHATMACRO5
                0x0000000001fddb44                s_HUSTR_CHATMACRO4
                0x0000000001fddb48                s_HUSTR_CHATMACRO3
                0x0000000001fddb4c                s_HUSTR_CHATMACRO2
                0x0000000001fddb50                s_HUSTR_CHATMACRO1
                0x0000000001fddb54                s_THUSTR_32
                0x0000000001fddb58                s_THUSTR_31
                0x0000000001fddb5c                s_THUSTR_30
                0x0000000001fddb60                s_THUSTR_29
                0x0000000001fddb64                s_THUSTR_28
                0x0000000001fddb68                s_THUSTR_27
                0x0000000001fddb6c                s_THUSTR_26
                0x0000000001fddb70                s_THUSTR_25
                0x0000000001fddb74                s_THUSTR_24
                0x0000000001fddb78                s_THUSTR_23
                0x0000000001fddb7c                s_THUSTR_22
                0x0000000001fddb80                s_THUSTR_21
                0x0000000001fddb84                s_THUSTR_20
                0x0000000001fddb88                s_THUSTR_19
                0x0000000001fddb8c                s_THUSTR_18
                0x0000000001fddb90                s_THUSTR_17
                0x0000000001fddb94                s_THUSTR_16
                0x0000000001fddb98                s_THUSTR_15
                0x0000000001fddb9c                s_THUSTR_14
                0x0000000001fddba0                s_THUSTR_13
                0x0000000001fddba4                s_THUSTR_12
                0x0000000001fddba8                s_THUSTR_11
                0x0000000001fddbac                s_THUSTR_10
                0x0000000001fddbb0                s_THUSTR_9
                0x0000000001fddbb4                s_THUSTR_8
                0x0000000001fddbb8                s_THUSTR_7
                0x0000000001fddbbc                s_THUSTR_6
                0x0000000001fddbc0                s_THUSTR_5
                0x0000000001fddbc4                s_THUSTR_4
                0x0000000001fddbc8                s_THUSTR_3
                0x0000000001fddbcc                s_THUSTR_2
                0x0000000001fddbd0                s_THUSTR_1
                0x0000000001fddbd4                s_PHUSTR_32
                0x0000000001fddbd8                s_PHUSTR_31
                0x0000000001fddbdc                s_PHUSTR_30
                0x0000000001fddbe0                s_PHUSTR_29
                0x0000000001fddbe4                s_PHUSTR_28
                0x0000000001fddbe8                s_PHUSTR_27
                0x0000000001fddbec                s_PHUSTR_26
                0x0000000001fddbf0                s_PHUSTR_25
                0x0000000001fddbf4                s_PHUSTR_24
                0x0000000001fddbf8                s_PHUSTR_23
                0x0000000001fddbfc                s_PHUSTR_22
                0x0000000001fddc00                s_PHUSTR_21
                0x0000000001fddc04                s_PHUSTR_20
                0x0000000001fddc08                s_PHUSTR_19
                0x0000000001fddc0c                s_PHUSTR_18
                0x0000000001fddc10                s_PHUSTR_17
                0x0000000001fddc14                s_PHUSTR_16
                0x0000000001fddc18                s_PHUSTR_15
                0x0000000001fddc1c                s_PHUSTR_14
                0x0000000001fddc20                s_PHUSTR_13
                0x0000000001fddc24                s_PHUSTR_12
                0x0000000001fddc28                s_PHUSTR_11
                0x0000000001fddc2c                s_PHUSTR_10
                0x0000000001fddc30                s_PHUSTR_9
                0x0000000001fddc34                s_PHUSTR_8
                0x0000000001fddc38                s_PHUSTR_7
                0x0000000001fddc3c                s_PHUSTR_6
                0x0000000001fddc40                s_PHUSTR_5
                0x0000000001fddc44                s_PHUSTR_4
                0x0000000001fddc48                s_PHUSTR_3
                0x0000000001fddc4c                s_PHUSTR_2
                0x0000000001fddc50                s_PHUSTR_1
                0x0000000001fddc54                s_HUSTR_32
                0x0000000001fddc58                s_HUSTR_31
                0x0000000001fddc5c                s_HUSTR_30
                0x0000000001fddc60                s_HUSTR_29
                0x0000000001fddc64                s_HUSTR_28
                0x0000000001fddc68                s_HUSTR_27
                0x0000000001fddc6c                s_HUSTR_26
                0x0000000001fddc70                s_HUSTR_25
                0x0000000001fddc74                s_HUSTR_24
                0x0000000001fddc78                s_HUSTR_23
                0x0000000001fddc7c                s_HUSTR_22
                0x0000000001fddc80                s_HUSTR_21
                0x0000000001fddc84                s_HUSTR_20
                0x0000000001fddc88                s_HUSTR_19
                0x0000000001fddc8c                s_HUSTR_18
                0x0000000001fddc90                s_HUSTR_17
                0x0000000001fddc94                s_HUSTR_16
                0x0000000001fddc98                s_HUSTR_15
                0x0000000001fddc9c                s_HUSTR_14
                0x0000000001fddca0                s_HUSTR_13
                0x0000000001fddca4                s_HUSTR_12
                0x0000000001fddca8                s_HUSTR_11
                0x0000000001fddcac                s_HUSTR_10
                0x0000000001fddcb0                s_HUSTR_9
                0x0000000001fddcb4                s_HUSTR_8
                0x0000000001fddcb8                s_HUSTR_7
                0x0000000001fddcbc                s_HUSTR_6
                0x0000000001fddcc0                s_HUSTR_5
                0x0000000001fddcc4                s_HUSTR_4
                0x0000000001fddcc8                s_HUSTR_3
                0x0000000001fddccc                s_HUSTR_2
                0x0000000001fddcd0                s_HUSTR_1
                0x0000000001fddcd4                s_HUSTR_E4M9
                0x0000000001fddcd8                s_HUSTR_E4M8
                0x0000000001fddcdc                s_HUSTR_E4M7
                0x0000000001fddce0                s_HUSTR_E4M6
                0x0000000001fddce4                s_HUSTR_E4M5
                0x0000000001fddce8                s_HUSTR_E4M4
                0x0000000001fddcec                s_HUSTR_E4M3
                0x0000000001fddcf0                s_HUSTR_E4M2
                0x0000000001fddcf4                s_HUSTR_E4M1
                0x0000000001fddcf8                s_HUSTR_E3M9
                0x0000000001fddcfc                s_HUSTR_E3M8
                0x0000000001fddd00                s_HUSTR_E3M7
                0x0000000001fddd04                s_HUSTR_E3M6
                0x0000000001fddd08                s_HUSTR_E3M5
                0x0000000001fddd0c                s_HUSTR_E3M4
                0x0000000001fddd10                s_HUSTR_E3M3
                0x0000000001fddd14                s_HUSTR_E3M2
                0x0000000001fddd18                s_HUSTR_E3M1
                0x0000000001fddd1c                s_HUSTR_E2M9
                0x0000000001fddd20                s_HUSTR_E2M8
                0x0000000001fddd24                s_HUSTR_E2M7
                0x0000000001fddd28                s_HUSTR_E2M6
                0x0000000001fddd2c                s_HUSTR_E2M5
                0x0000000001fddd30                s_HUSTR_E2M4
                0x0000000001fddd34                s_HUSTR_E2M3
                0x0000000001fddd38                s_HUSTR_E2M2
                0x0000000001fddd3c                s_HUSTR_E2M1
                0x0000000001fddd40                s_HUSTR_E1M9
                0x0000000001fddd44                s_HUSTR_E1M8
                0x0000000001fddd48                s_HUSTR_E1M7
                0x0000000001fddd4c                s_HUSTR_E1M6
                0x0000000001fddd50                s_HUSTR_E1M5
                0x0000000001fddd54                s_HUSTR_E1M4
                0x0000000001fddd58                s_HUSTR_E1M3
                0x0000000001fddd5c                s_HUSTR_E1M2
                0x0000000001fddd60                s_HUSTR_E1M1
                0x0000000001fddd64                s_HUSTR_MSGU
                0x0000000001fddd68                s_GGSAVED
                0x0000000001fddd6c                s_PD_ALL6
                0x0000000001fddd70                s_PD_ALL3
                0x0000000001fddd74                s_PD_ANY
                0x0000000001fddd78                s_PD_YELLOWS
                0x0000000001fddd7c                s_PD_REDS
                0x0000000001fddd80                s_PD_BLUES
                0x0000000001fddd84                s_PD_YELLOWC
                0x0000000001fddd88                s_PD_REDC
                0x0000000001fddd8c                s_PD_BLUEC
                0x0000000001fddd90                s_PD_YELLOWK
                0x0000000001fddd94                s_PD_REDK
                0x0000000001fddd98                s_PD_BLUEK
                0x0000000001fddd9c                s_PD_YELLOWO
                0x0000000001fddda0                s_PD_REDO
                0x0000000001fddda4                s_PD_BLUEO
                0x0000000001fddda8                s_GOTSHOTGUN2
                0x0000000001fdddac                s_GOTSHOTGUN
                0x0000000001fdddb0                s_GOTPLASMA
                0x0000000001fdddb4                s_GOTLAUNCHER
                0x0000000001fdddb8                s_GOTCHAINSAW
                0x0000000001fdddbc                s_GOTCHAINGUN
                0x0000000001fdddc0                s_GOTBFG9000
                0x0000000001fdddc4                s_GOTBACKPACK
                0x0000000001fdddc8                s_GOTSHELLBOX
                0x0000000001fdddcc                s_GOTSHELLS
                0x0000000001fdddd0                s_GOTCELLBOX
                0x0000000001fdddd4                s_GOTCELL
                0x0000000001fdddd8                s_GOTROCKBOX
                0x0000000001fddddc                s_GOTROCKET
                0x0000000001fddde0                s_GOTCLIPBOX
                0x0000000001fddde4                s_GOTCLIP
                0x0000000001fddde8                s_GOTMSPHERE
                0x0000000001fdddec                s_GOTVISOR
                0x0000000001fdddf0                s_GOTMAP
                0x0000000001fdddf4                s_GOTSUIT
                0x0000000001fdddf8                s_GOTINVIS
                0x0000000001fdddfc                s_GOTBERSERK
                0x0000000001fdde00                s_GOTINVUL
                0x0000000001fdde04                s_GOTREDSKULL
                0x0000000001fdde08                s_GOTYELWSKUL
                0x0000000001fdde0c                s_GOTBLUESKUL
                0x0000000001fdde10                s_GOTREDCARD
                0x0000000001fdde14                s_GOTYELWCARD
                0x0000000001fdde18                s_GOTBLUECARD
                0x0000000001fdde1c                s_GOTSUPER
                0x0000000001fdde20                s_GOTMEDIKIT
                0x0000000001fdde24                s_GOTMEDINEED
                0x0000000001fdde28                s_GOTSTIM
                0x0000000001fdde2c                s_GOTARMBONUS
                0x0000000001fdde30                s_GOTHTHBONUS
                0x0000000001fdde34                s_GOTMEGA
                0x0000000001fdde38                s_GOTARMOR
                0x0000000001fdde3c                s_EMPTYSTRING
                0x0000000001fdde40                s_GAMMALVL4
                0x0000000001fdde44                s_GAMMALVL3
                0x0000000001fdde48                s_GAMMALVL2
                0x0000000001fdde4c                s_GAMMALVL1
                0x0000000001fdde50                s_GAMMALVL0
                0x0000000001fdde54                s_DETAILLO
                0x0000000001fdde58                s_DETAILHI
                0x0000000001fdde5c                s_DOSY
                0x0000000001fdde60                s_ENDGAME
                0x0000000001fdde64                s_NETEND
                0x0000000001fdde68                s_MSGON
                0x0000000001fdde6c                s_MSGOFF
                0x0000000001fdde70                s_SWSTRING
                0x0000000001fdde74                s_NIGHTMARE
                0x0000000001fdde78                s_RESTARTLEVEL
                0x0000000001fdde7c                s_NEWGAME
                0x0000000001fdde80                s_QLPROMPT
                0x0000000001fdde84                s_QSPROMPT
                0x0000000001fdde88                s_SAVEDEAD
                0x0000000001fdde8c                s_QSAVESPOT
                0x0000000001fdde90                s_QUITMSG
                0x0000000001fdde94                s_PRESSYN
                0x0000000001fdde98                s_PRESSKEY
                0x0000000001fdde9c                s_D_CDROM
                0x0000000001fddea0                s_D_DEVSTR
 .data          0x0000000001fddea4        0x4 /home/jbrawley/Desktop/rockbox-photo-cf-support/build/apps/plugins/plugin_crt0.o
                0x0000000001fddea4                rb

.igot.plt       0x0000000001fddea8        0x0
 .igot.plt      0x0000000001fddea8        0x0 /home/jbrawley/Desktop/rockbox-photo-cf-support/build/apps/plugins/doom/../../../firmware/libc/sscanf.o

.ncdata         0x0000000011fddea8        0x8 load address 0x0000000001fddea8
                0x0000000011fddeb0                . = ALIGN (0x10)
 *fill*         0x0000000011fddea8        0x8 
 *(.ncdata*)
                0x0000000011fddeb0                . = ALIGN (0x10)
                0x0000000001fddeb0                bssaddr = (. - 0x10000000)
                0x0000000001fddeb0                iramcopy = (. - 0x10000000)

/DISCARD/
 *(.eh_frame)

.bss            0x0000000001fddeb0    0x194f8
                0x0000000001fddeb0                plugin_bss_start = .
                0x0000000001fddeb0                _plugin_bss_start = .
 *(.bss*)
 .bss           0x0000000001fddeb0        0x8 /home/jbrawley/Desktop/rockbox-photo-cf-support/build/apps/plugins/doom/doomstat.o
                0x0000000001fddeb0                pitched_sounds
                0x0000000001fddeb4                language
 .bss           0x0000000001fddeb8       0x18 /home/jbrawley/Desktop/rockbox-photo-cf-support/build/apps/plugins/doom/f_finale.o
 .bss           0x0000000001fdded0       0x14 /home/jbrawley/Desktop/rockbox-photo-cf-support/build/apps/plugins/doom/f_wipe.o
 .bss           0x0000000001fddee4        0xc /home/jbrawley/Desktop/rockbox-photo-cf-support/build/apps/plugins/doom/d_net.o
 .bss           0x0000000001fddef0      0xd18 /home/jbrawley/Desktop/rockbox-photo-cf-support/build/apps/plugins/doom/g_game.o
                0x0000000001fde72c                haswolflevels
                0x0000000001fde7a0                autorun
                0x0000000001fdec04                bodyque
 .bss           0x0000000001fdec08        0x4 /home/jbrawley/Desktop/rockbox-photo-cf-support/build/apps/plugins/doom/m_menu.o
 .bss           0x0000000001fdec0c       0xc8 /home/jbrawley/Desktop/rockbox-photo-cf-support/build/apps/plugins/doom/am_map.o
                0x0000000001fdec44                markpointnum
                0x0000000001fdec48                markpointnum_max
                0x0000000001fdec4c                markpoints
                0x0000000001fdecd0                ddt_cheating
 .bss           0x0000000001fdecd4       0x68 /home/jbrawley/Desktop/rockbox-photo-cf-support/build/apps/plugins/doom/p_enemy.o
 *fill*         0x0000000001fded3c        0x4 
 .bss           0x0000000001fded40       0x78 /home/jbrawley/Desktop/rockbox-photo-cf-support/build/apps/plugins/doom/p_map.o
                0x0000000001fdedb4                sector_list
 .bss           0x0000000001fdedb8        0xc /home/jbrawley/Desktop/rockbox-photo-cf-support/build/apps/plugins/doom/p_maputl.o
 .bss           0x0000000001fdedc4        0x4 /home/jbrawley/Desktop/rockbox-photo-cf-support/build/apps/plugins/doom/p_pspr.o
 .bss           0x0000000001fdedc8        0xc /home/jbrawley/Desktop/rockbox-photo-cf-support/build/apps/plugins/doom/p_setup.o
                0x0000000001fdedc8                usingGLNodes
                0x0000000001fdedcc                forceOldBsp
                0x0000000001fdedd0                firstglvertex
 .bss           0x0000000001fdedd4       0x3c /home/jbrawley/Desktop/rockbox-photo-cf-support/build/apps/plugins/doom/p_sight.o
 .bss           0x0000000001fdee10        0x4 /home/jbrawley/Desktop/rockbox-photo-cf-support/build/apps/plugins/doom/p_spec.o
 .bss           0x0000000001fdee14        0xc /home/jbrawley/Desktop/rockbox-photo-cf-support/build/apps/plugins/doom/p_switch.o
 .bss           0x0000000001fdee20        0x8 /home/jbrawley/Desktop/rockbox-photo-cf-support/build/apps/plugins/doom/p_mobj.o
 .bss           0x0000000001fdee28        0x4 /home/jbrawley/Desktop/rockbox-photo-cf-support/build/apps/plugins/doom/p_tick.o
 .bss           0x0000000001fdee2c        0x4 /home/jbrawley/Desktop/rockbox-photo-cf-support/build/apps/plugins/doom/p_saveg.o
 .bss           0x0000000001fdee30       0xb8 /home/jbrawley/Desktop/rockbox-photo-cf-support/build/apps/plugins/doom/r_bsp.o
 .bss           0x0000000001fdeee8        0x8 /home/jbrawley/Desktop/rockbox-photo-cf-support/build/apps/plugins/doom/r_data.o
 .bss           0x0000000001fdeef0       0xc4 /home/jbrawley/Desktop/rockbox-photo-cf-support/build/apps/plugins/doom/r_main.o
                0x0000000001fdeef0                viewangletox
 .bss           0x0000000001fdefb4      0xddc /home/jbrawley/Desktop/rockbox-photo-cf-support/build/apps/plugins/doom/r_plane.o
 .bss           0x0000000001fdfd90       0x70 /home/jbrawley/Desktop/rockbox-photo-cf-support/build/apps/plugins/doom/r_segs.o
 .bss           0x0000000001fdfe00      0x348 /home/jbrawley/Desktop/rockbox-photo-cf-support/build/apps/plugins/doom/r_things.o
 .bss           0x0000000001fe0148       0x80 /home/jbrawley/Desktop/rockbox-photo-cf-support/build/apps/plugins/doom/wi_stuff.o
 .bss           0x0000000001fe01c8      0x9fc /home/jbrawley/Desktop/rockbox-photo-cf-support/build/apps/plugins/doom/st_stuff.o
 .bss           0x0000000001fe0bc4    0x11ff9 /home/jbrawley/Desktop/rockbox-photo-cf-support/build/apps/plugins/doom/hu_stuff.o
 *fill*         0x0000000001ff2bbd        0x3 
 .bss           0x0000000001ff2bc0        0xc /home/jbrawley/Desktop/rockbox-photo-cf-support/build/apps/plugins/doom/s_sound.o
 .bss           0x0000000001ff2bcc       0x18 /home/jbrawley/Desktop/rockbox-photo-cf-support/build/apps/plugins/doom/d_main.o
                0x0000000001ff2bdc                singletics
                0x0000000001ff2be0                nomusicparm
 .bss           0x0000000001ff2be4        0x8 /home/jbrawley/Desktop/rockbox-photo-cf-support/build/apps/plugins/doom/m_misc.o
 .bss           0x0000000001ff2bec        0x4 /home/jbrawley/Desktop/rockbox-photo-cf-support/build/apps/plugins/doom/i_system.o
                0x0000000001ff2bec                doomtimer
 .bss           0x0000000001ff2bf0        0x4 /home/jbrawley/Desktop/rockbox-photo-cf-support/build/apps/plugins/doom/i_sound.o
 .bss           0x0000000001ff2bf4       0x10 /home/jbrawley/Desktop/rockbox-photo-cf-support/build/apps/plugins/doom/i_video.o
 .bss           0x0000000001ff2c04        0x8 /home/jbrawley/Desktop/rockbox-photo-cf-support/build/apps/plugins/doom/w_wad.o
                0x0000000001ff2c04                numwadfiles
                0x0000000001ff2c08                wadfiles
 .bss           0x0000000001ff2c0c       0x4c /home/jbrawley/Desktop/rockbox-photo-cf-support/build/apps/plugins/doom/rockdoom.o
                0x0000000001ff2c10                noprintf
 .bss           0x0000000001ff2c58     0x1344 /home/jbrawley/Desktop/rockbox-photo-cf-support/build/apps/plugins/doom/d_deh.o
                0x0000000001ff2c58                deh_pars
 .bss           0x0000000001ff3f9c       0x60 /home/jbrawley/Desktop/rockbox-photo-cf-support/build/apps/plugins/plugin_crt0.o
 *(COMMON)
 COMMON         0x0000000001ff3ffc       0xbc /home/jbrawley/Desktop/rockbox-photo-cf-support/build/apps/plugins/doom/doomstat.o
                0x0000000001ff3ffc                default_help_friends
                0x0000000001ff4000                default_monkeys
                0x0000000001ff4004                default_translucency
                0x0000000001ff4008                flashing_hom
                0x0000000001ff400c                demo_insurance
                0x0000000001ff4010                default_monster_avoid_hazards
                0x0000000001ff4014                default_monsters_remember
                0x0000000001ff4018                default_variable_friction
                0x0000000001ff401c                doom_weapon_toggles
                0x0000000001ff4020                default_player_bobbing
                0x0000000001ff4024                modifiedgame
                0x0000000001ff4028                default_allow_pushers
                0x0000000001ff402c                default_demo_insurance
                0x0000000001ff4030                default_monster_backing
                0x0000000001ff4034                default_comp
                0x0000000001ff40b4                default_weapon_recoil
 COMMON         0x0000000001ff40b8       0x10 /home/jbrawley/Desktop/rockbox-photo-cf-support/build/apps/plugins/doom/tables.o
                0x0000000001ff40b8                finesine
                0x0000000001ff40bc                tantoangle
                0x0000000001ff40c0                finecosine
                0x0000000001ff40c4                finetangent
 COMMON         0x0000000001ff40c8       0x1c /home/jbrawley/Desktop/rockbox-photo-cf-support/build/apps/plugins/doom/f_finale.o
                0x0000000001ff40c8                castonmelee
                0x0000000001ff40cc                castnum
                0x0000000001ff40d0                casttics
                0x0000000001ff40d4                castattacking
                0x0000000001ff40d8                caststate
                0x0000000001ff40dc                castframes
                0x0000000001ff40e0                castdeath
 COMMON         0x0000000001ff40e4      0x188 /home/jbrawley/Desktop/rockbox-photo-cf-support/build/apps/plugins/doom/d_net.o
                0x0000000001ff40e4                maketic
                0x0000000001ff40e8                netcmds
                0x0000000001ff4268                doomcom
 COMMON         0x0000000001ff426c      0x724 /home/jbrawley/Desktop/rockbox-photo-cf-support/build/apps/plugins/doom/g_game.o
                0x0000000001ff426c                timingdemo
                0x0000000001ff4270                paused
                0x0000000001ff4274                key_spy
                0x0000000001ff4278                totalitems
                0x0000000001ff427c                key_menu_enter
                0x0000000001ff4280                key_quicksave
                0x0000000001ff4284                key_backspace
                0x0000000001ff4288                key_weapontoggle
                0x0000000001ff428c                key_quickload
                0x0000000001ff4290                starttime
                0x0000000001ff4294                key_loadgame
                0x0000000001ff4298                key_zoomout
                0x0000000001ff429c                defaultskill
                0x0000000001ff42a0                key_weapon4
                0x0000000001ff42a4                mousebstrafe
                0x0000000001ff42a8                key_menu_left
                0x0000000001ff42ac                key_hud
                0x0000000001ff42b0                usergame
                0x0000000001ff42b4                respawnmonsters
                0x0000000001ff42b8                key_weapon1
                0x0000000001ff42bc                key_use
                0x0000000001ff42c0                joybfire
                0x0000000001ff42c4                consoleplayer
                0x0000000001ff42c8                key_strafeleft
                0x0000000001ff42cc                key_map_grid
                0x0000000001ff42d0                key_map_down
                0x0000000001ff42d4                key_menu_down
                0x0000000001ff42d8                players
                0x0000000001ff4758                key_quit
                0x0000000001ff475c                key_weapon7
                0x0000000001ff4760                totalsecret
                0x0000000001ff4764                key_map_up
                0x0000000001ff4768                key_messages
                0x0000000001ff476c                gamestate
                0x0000000001ff4770                statcopy
                0x0000000001ff4774                key_reverse
                0x0000000001ff4778                key_endgame
                0x0000000001ff477c                netgame
                0x0000000001ff4780                bodyquesize
                0x0000000001ff4784                totallive
                0x0000000001ff4788                key_setup
                0x0000000001ff478c                key_straferight
                0x0000000001ff4790                singledemo
                0x0000000001ff4794                key_map_follow
                0x0000000001ff4798                wminfo
                0x0000000001ff4864                joybspeed
                0x0000000001ff4868                noblit
                0x0000000001ff486c                key_menu_right
                0x0000000001ff4870                key_map_clear
                0x0000000001ff4874                mousebfire
                0x0000000001ff4878                key_map_right
                0x0000000001ff487c                key_weapon9
                0x0000000001ff4880                key_soundvolume
                0x0000000001ff4884                key_weapon3
                0x0000000001ff4888                key_enter
                0x0000000001ff488c                demoplayback
                0x0000000001ff4890                totalkills
                0x0000000001ff4894                gameskill
                0x0000000001ff4898                playeringame
                0x0000000001ff48a8                key_zoomin
                0x0000000001ff48ac                gameepisode
                0x0000000001ff48b0                key_map
                0x0000000001ff48b4                joybstrafe
                0x0000000001ff48b8                destination_keys
                0x0000000001ff48c8                key_fire
                0x0000000001ff48cc                key_menu_escape
                0x0000000001ff48d0                key_menu_up
                0x0000000001ff48d4                gametic
                0x0000000001ff48d8                joybuse
                0x0000000001ff48dc                key_weapon8
                0x0000000001ff48e0                key_savegame
                0x0000000001ff48e4                key_right
                0x0000000001ff48e8                key_map_overlay
                0x0000000001ff48ec                key_autorun
                0x0000000001ff48f0                levelstarttic
                0x0000000001ff48f4                key_map_mark
                0x0000000001ff48f8                fastdemo
                0x0000000001ff48fc                demorecording
                0x0000000001ff4900                totalleveltimes
                0x0000000001ff4904                key_menu_backspace
                0x0000000001ff4908                nodrawers
                0x0000000001ff490c                deathmatch
                0x0000000001ff4910                key_map_zoomout
                0x0000000001ff4914                displayplayer
                0x0000000001ff4918                key_map_left
                0x0000000001ff491c                key_weapon2
                0x0000000001ff4920                key_left
                0x0000000001ff4924                key_strafe
                0x0000000001ff4928                key_chat
                0x0000000001ff492c                longtics
                0x0000000001ff4930                key_pause
                0x0000000001ff4934                key_map_gobig
                0x0000000001ff4938                key_down
                0x0000000001ff493c                key_up
                0x0000000001ff4940                mousebforward
                0x0000000001ff4944                gamemap
                0x0000000001ff4948                gameaction
                0x0000000001ff494c                key_weapon5
                0x0000000001ff4950                key_weapon6
                0x0000000001ff4954                key_gamma
                0x0000000001ff4958                key_map_zoomin
                0x0000000001ff495c                savedescription
                0x0000000001ff497c                key_screenshot
                0x0000000001ff4980                key_speed
                0x0000000001ff4984                key_map_rotate
                0x0000000001ff4988                key_weapon
                0x0000000001ff498c                bodyqueslot
 COMMON         0x0000000001ff4990      0x280 /home/jbrawley/Desktop/rockbox-photo-cf-support/build/apps/plugins/doom/m_menu.o
                0x0000000001ff4990                whichSkull
                0x0000000001ff4994                systemvol
                0x0000000001ff4998                mouseSensitivity
                0x0000000001ff499c                saveOldString
                0x0000000001ff49b4                skullAnimCounter
                0x0000000001ff49b8                quickSaveSlot
                0x0000000001ff49bc                screenblocks
                0x0000000001ff49c0                read_e2
                0x0000000001ff49c4                saveSlot
                0x0000000001ff49c8                newgame_e
                0x0000000001ff49cc                messageNeedsInput
                0x0000000001ff49d0                messy
                0x0000000001ff49d4                episodes_e
                0x0000000001ff49d8                messageRoutine
                0x0000000001ff49dc                load_e
                0x0000000001ff49e0                messageLastMenuActive
                0x0000000001ff49e4                currentMenu
                0x0000000001ff49e8                menuactive
                0x0000000001ff49ec                main_e
                0x0000000001ff49f0                read_e
                0x0000000001ff49f4                sound_e
                0x0000000001ff49f8                options_e
                0x0000000001ff49fc                messx
                0x0000000001ff4a00                screenSize
                0x0000000001ff4a04                endstring
                0x0000000001ff4ab0                saveStringEnter
                0x0000000001ff4ab4                itemOn
                0x0000000001ff4ab8                saveCharIndex
                0x0000000001ff4abc                messageString
                0x0000000001ff4ac0                epi
                0x0000000001ff4ac4                tempstring
                0x0000000001ff4b14                savegamestrings
                0x0000000001ff4c04                inhelpscreens
                0x0000000001ff4c08                showMessages
                0x0000000001ff4c0c                messageToPrint
 COMMON         0x0000000001ff4c10        0x8 /home/jbrawley/Desktop/rockbox-photo-cf-support/build/apps/plugins/doom/m_argv.o
                0x0000000001ff4c10                myargv
                0x0000000001ff4c14                myargc
 COMMON         0x0000000001ff4c18      0x100 /home/jbrawley/Desktop/rockbox-photo-cf-support/build/apps/plugins/doom/m_random.o
                0x0000000001ff4c18                rng
 COMMON         0x0000000001ff4d18       0x60 /home/jbrawley/Desktop/rockbox-photo-cf-support/build/apps/plugins/doom/am_map.o
                0x0000000001ff4d18                mapcolor_fchg
                0x0000000001ff4d1c                mapcolor_unsn
                0x0000000001ff4d20                mapcolor_rdor
                0x0000000001ff4d24                mapcolor_ykey
                0x0000000001ff4d28                mapcolor_flat
                0x0000000001ff4d2c                mapcolor_ydor
                0x0000000001ff4d30                mapcolor_rkey
                0x0000000001ff4d34                mapcolor_wall
                0x0000000001ff4d38                mapcolor_secr
                0x0000000001ff4d3c                mapcolor_clsd
                0x0000000001ff4d40                mapcolor_cchg
                0x0000000001ff4d44                mapcolor_frnd
                0x0000000001ff4d48                mapcolor_item
                0x0000000001ff4d4c                automapmode
                0x0000000001ff4d50                mapcolor_hair
                0x0000000001ff4d54                mapcolor_sngl
                0x0000000001ff4d58                mapcolor_sprt
                0x0000000001ff4d5c                mapcolor_grid
                0x0000000001ff4d60                mapcolor_bkey
                0x0000000001ff4d64                map_secret_after
                0x0000000001ff4d68                mapcolor_tele
                0x0000000001ff4d6c                mapcolor_exit
                0x0000000001ff4d70                mapcolor_bdor
                0x0000000001ff4d74                mapcolor_back
 COMMON         0x0000000001ff4d78        0x4 /home/jbrawley/Desktop/rockbox-photo-cf-support/build/apps/plugins/doom/p_ceilng.o
                0x0000000001ff4d78                activeceilings
 COMMON         0x0000000001ff4d7c       0x24 /home/jbrawley/Desktop/rockbox-photo-cf-support/build/apps/plugins/doom/p_enemy.o
                0x0000000001ff4d7c                brain
                0x0000000001ff4d84                numbraintargets
                0x0000000001ff4d88                viletryx
                0x0000000001ff4d8c                corpsehit
                0x0000000001ff4d90                viletryy
                0x0000000001ff4d94                vileobj
                0x0000000001ff4d98                numbraintargets_alloc
                0x0000000001ff4d9c                braintargets
 COMMON         0x0000000001ff4da0       0x4c /home/jbrawley/Desktop/rockbox-photo-cf-support/build/apps/plugins/doom/p_map.o
                0x0000000001ff4da0                tmceilingz
                0x0000000001ff4da4                blockline
                0x0000000001ff4da8                ceilingline
                0x0000000001ff4dac                tmfloorz
                0x0000000001ff4db0                attackrange
                0x0000000001ff4db4                usething
                0x0000000001ff4db8                shootz
                0x0000000001ff4dbc                tmbbox
                0x0000000001ff4dcc                linetarget
                0x0000000001ff4dd0                tmdropoffz
                0x0000000001ff4dd4                felldown
                0x0000000001ff4dd8                numspechit
                0x0000000001ff4ddc                floatok
                0x0000000001ff4de0                floorline
                0x0000000001ff4de4                la_damage
                0x0000000001ff4de8                spechit
 COMMON         0x0000000001ff4dec       0x28 /home/jbrawley/Desktop/rockbox-photo-cf-support/build/apps/plugins/doom/p_maputl.o
                0x0000000001ff4dec                openbacksector
                0x0000000001ff4df0                openbottom
                0x0000000001ff4df4                openrange
                0x0000000001ff4df8                trace
                0x0000000001ff4e08                opentop
                0x0000000001ff4e0c                openfrontsector
                0x0000000001ff4e10                lowfloor
 COMMON         0x0000000001ff4e14        0x4 /home/jbrawley/Desktop/rockbox-photo-cf-support/build/apps/plugins/doom/p_plats.o
                0x0000000001ff4e14                activeplats
 COMMON         0x0000000001ff4e18        0x4 /home/jbrawley/Desktop/rockbox-photo-cf-support/build/apps/plugins/doom/p_pspr.o
                0x0000000001ff4e18                lastshottic
 COMMON         0x0000000001ff4e1c       0x8c /home/jbrawley/Desktop/rockbox-photo-cf-support/build/apps/plugins/doom/p_setup.o
                0x0000000001ff4e1c                sectors
                0x0000000001ff4e20                bmapwidth
                0x0000000001ff4e24                vertexes
                0x0000000001ff4e28                deathmatch_p
                0x0000000001ff4e2c                bmaporgy
                0x0000000001ff4e30                numsides
                0x0000000001ff4e34                blockmaplump
                0x0000000001ff4e38                rejectmatrix
                0x0000000001ff4e3c                numvertexes
                0x0000000001ff4e40                playerstarts
                0x0000000001ff4e68                numsectors
                0x0000000001ff4e6c                num_deathmatchstarts
                0x0000000001ff4e70                deathmatchstarts
                0x0000000001ff4e74                bmaporgx
                0x0000000001ff4e78                subsectors
                0x0000000001ff4e7c                segs
                0x0000000001ff4e80                numsegs
                0x0000000001ff4e84                bmapheight
                0x0000000001ff4e88                numlines
                0x0000000001ff4e8c                nodes
                0x0000000001ff4e90                numnodes
                0x0000000001ff4e94                sides
                0x0000000001ff4e98                blockmap
                0x0000000001ff4e9c                blocklinks
                0x0000000001ff4ea0                numsubsectors
                0x0000000001ff4ea4                lines
 COMMON         0x0000000001ff4ea8       0x1c /home/jbrawley/Desktop/rockbox-photo-cf-support/build/apps/plugins/doom/p_spec.o
                0x0000000001ff4ea8                levelTimeCount
                0x0000000001ff4eac                levelFragLimit
                0x0000000001ff4eb0                levelTimer
                0x0000000001ff4eb4                anims
                0x0000000001ff4eb8                lastanim
                0x0000000001ff4ebc                tmpusher
                0x0000000001ff4ec0                levelFragLimitCount
 COMMON         0x0000000001ff4ec4      0x140 /home/jbrawley/Desktop/rockbox-photo-cf-support/build/apps/plugins/doom/p_switch.o
                0x0000000001ff4ec4                buttonlist
 COMMON         0x0000000001ff5004      0x708 /home/jbrawley/Desktop/rockbox-photo-cf-support/build/apps/plugins/doom/p_mobj.o
                0x0000000001ff5004                iquehead
                0x0000000001ff5008                iquetail
                0x0000000001ff500c                itemrespawntime
                0x0000000001ff520c                itemrespawnque
 COMMON         0x0000000001ff570c       0x64 /home/jbrawley/Desktop/rockbox-photo-cf-support/build/apps/plugins/doom/p_tick.o
                0x0000000001ff570c                thinkerclasscap
                0x0000000001ff5754                thinkercap
                0x0000000001ff576c                leveltime
 COMMON         0x0000000001ff5770        0x8 /home/jbrawley/Desktop/rockbox-photo-cf-support/build/apps/plugins/doom/p_saveg.o
                0x0000000001ff5770                specials_e
                0x0000000001ff5774                save_p
 COMMON         0x0000000001ff5778        0x4 /home/jbrawley/Desktop/rockbox-photo-cf-support/build/apps/plugins/doom/p_user.o
                0x0000000001ff5778                onground
 COMMON         0x0000000001ff577c       0x20 /home/jbrawley/Desktop/rockbox-photo-cf-support/build/apps/plugins/doom/r_bsp.o
                0x0000000001ff577c                sidedef
                0x0000000001ff5780                maxdrawsegs
                0x0000000001ff5784                linedef
                0x0000000001ff5788                frontsector
                0x0000000001ff578c                ds_p
                0x0000000001ff5790                backsector
                0x0000000001ff5794                curline
                0x0000000001ff5798                drawsegs
 COMMON         0x0000000001ff579c       0x3c /home/jbrawley/Desktop/rockbox-photo-cf-support/build/apps/plugins/doom/r_data.o
                0x0000000001ff579c                numflats
                0x0000000001ff57a0                textureheight
                0x0000000001ff57a4                firstflat
                0x0000000001ff57a8                flattranslation
                0x0000000001ff57ac                lastspritelump
                0x0000000001ff57b0                spritewidth
                0x0000000001ff57b4                lastflat
                0x0000000001ff57b8                texturetranslation
                0x0000000001ff57bc                numtextures
                0x0000000001ff57c0                spriteoffset
                0x0000000001ff57c4                firstcolormaplump
                0x0000000001ff57c8                firstspritelump
                0x0000000001ff57cc                lastcolormaplump
                0x0000000001ff57d0                spritetopoffset
                0x0000000001ff57d4                numspritelumps
 COMMON         0x0000000001ff57d8       0x20 /home/jbrawley/Desktop/rockbox-photo-cf-support/build/apps/plugins/doom/r_draw.o
                0x0000000001ff57d8                viewwidth
                0x0000000001ff57dc                playernumtotrans
                0x0000000001ff57e0                translationtables
                0x0000000001ff57e4                viewheight
                0x0000000001ff57e8                scaledviewwidth
                0x0000000001ff57ec                dc_translation
                0x0000000001ff57f0                viewwindowy
                0x0000000001ff57f4                viewwindowx
 COMMON         0x0000000001ff57f8      0x3d8 /home/jbrawley/Desktop/rockbox-photo-cf-support/build/apps/plugins/doom/r_main.o
                0x0000000001ff57f8                projection
                0x0000000001ff57fc                viewcos
                0x0000000001ff5800                fixedcolormap
                0x0000000001ff5804                zlight
                0x0000000001ff5808                extralight
                0x0000000001ff580c                viewy
                0x0000000001ff5810                setsizeneeded
                0x0000000001ff5814                xtoviewangle
                0x0000000001ff5b88                scalelight
                0x0000000001ff5b8c                colfunc
                0x0000000001ff5b90                clipangle
                0x0000000001ff5b94                c_zlight
                0x0000000001ff5b98                projectiony
                0x0000000001ff5b9c                fullcolormap
                0x0000000001ff5ba0                viewsin
                0x0000000001ff5ba4                viewplayer
                0x0000000001ff5ba8                viewz
                0x0000000001ff5bac                numcolormaps
                0x0000000001ff5bb0                colormaps
                0x0000000001ff5bb4                viewangleoffset
                0x0000000001ff5bb8                setblocks
                0x0000000001ff5bbc                centeryfrac
                0x0000000001ff5bc0                viewangle
                0x0000000001ff5bc4                c_scalelight
                0x0000000001ff5bc8                viewx
                0x0000000001ff5bcc                centerxfrac
 COMMON         0x0000000001ff5bd0      0x9b4 /home/jbrawley/Desktop/rockbox-photo-cf-support/build/apps/plugins/doom/r_plane.o
                0x0000000001ff5bd0                ceilingplane
                0x0000000001ff5bd4                lastopening
                0x0000000001ff5bd8                distscale
                0x0000000001ff5f48                openings
                0x0000000001ff5f4c                floorclip
                0x0000000001ff6104                ceilingclip
                0x0000000001ff62bc                yslope
                0x0000000001ff657c                maxopenings
                0x0000000001ff6580                floorplane
 COMMON         0x0000000001ff6584       0x24 /home/jbrawley/Desktop/rockbox-photo-cf-support/build/apps/plugins/doom/r_segs.o
                0x0000000001ff6584                rw_x
                0x0000000001ff6588                rw_stopx
                0x0000000001ff658c                markfloor
                0x0000000001ff6590                walllights
                0x0000000001ff6594                segtextured
                0x0000000001ff6598                rw_normalangle
                0x0000000001ff659c                rw_distance
                0x0000000001ff65a0                rw_angle1
                0x0000000001ff65a4                markceiling
 COMMON         0x0000000001ff65a8        0xc /home/jbrawley/Desktop/rockbox-photo-cf-support/build/apps/plugins/doom/r_sky.o
                0x0000000001ff65a8                skytexture
                0x0000000001ff65ac                skyflatnum
                0x0000000001ff65b0                skytexturemid
 COMMON         0x0000000001ff65b4      0x394 /home/jbrawley/Desktop/rockbox-photo-cf-support/build/apps/plugins/doom/r_things.o
                0x0000000001ff65b4                pspritescale
                0x0000000001ff65b8                sprites
                0x0000000001ff65bc                spryscale
                0x0000000001ff65c0                screenheightarray
                0x0000000001ff6778                mceilingclip
                0x0000000001ff677c                pspriteyscale
                0x0000000001ff6780                numsprites
                0x0000000001ff6784                pspriteiscale
                0x0000000001ff6788                sprtopscreen
                0x0000000001ff678c                mfloorclip
                0x0000000001ff6790                negonearray
 COMMON         0x0000000001ff6948        0x4 /home/jbrawley/Desktop/rockbox-photo-cf-support/build/apps/plugins/doom/wi_stuff.o
                0x0000000001ff6948                acceleratestage
 COMMON         0x0000000001ff694c       0x40 /home/jbrawley/Desktop/rockbox-photo-cf-support/build/apps/plugins/doom/v_video.o
                0x0000000001ff694c                colrngs
                0x0000000001ff6978                dirtybox
                0x0000000001ff6988                usegamma
 COMMON         0x0000000001ff698c        0x8 /home/jbrawley/Desktop/rockbox-photo-cf-support/build/apps/plugins/doom/st_lib.o
                0x0000000001ff698c                sts_pct_always_gray
                0x0000000001ff6990                sts_always_red
 COMMON         0x0000000001ff6994       0x24 /home/jbrawley/Desktop/rockbox-photo-cf-support/build/apps/plugins/doom/st_stuff.o
                0x0000000001ff6994                ammo_yellow
                0x0000000001ff6998                armor_red
                0x0000000001ff699c                health_green
                0x0000000001ff69a0                armor_yellow
                0x0000000001ff69a4                health_yellow
                0x0000000001ff69a8                health_red
                0x0000000001ff69ac                sts_traditional_keys
                0x0000000001ff69b0                armor_green
                0x0000000001ff69b4                ammo_red
 COMMON         0x0000000001ff69b8      0x864 /home/jbrawley/Desktop/rockbox-photo-cf-support/build/apps/plugins/doom/hu_stuff.o
                0x0000000001ff69b8                hudcolor_list
                0x0000000001ff69bc                hu_font
                0x0000000001ff7128                shiftxform
                0x0000000001ff712c                hud_displayed
                0x0000000001ff7130                hu_msgbg
                0x0000000001ff71e4                hudcolor_titl
                0x0000000001ff71e8                hudcolor_mesg
                0x0000000001ff71ec                hud_distributed
                0x0000000001ff71f0                hu_fontk
                0x0000000001ff71f4                chat_on
                0x0000000001ff71f8                hud_list_bgon
                0x0000000001ff71fc                hud_nosecrets
                0x0000000001ff7200                hud_msg_lines
                0x0000000001ff7204                hudcolor_xyco
                0x0000000001ff7208                hu_font2
                0x0000000001ff720c                message_dontfuckwithme
                0x0000000001ff7210                hud_active
                0x0000000001ff7214                chat_char
                0x0000000001ff7218                hudcolor_chat
 COMMON         0x0000000001ff721c        0xc /home/jbrawley/Desktop/rockbox-photo-cf-support/build/apps/plugins/doom/s_sound.o
                0x0000000001ff721c                idmusnum
                0x0000000001ff7220                default_numChannels
                0x0000000001ff7224                numChannels
 COMMON         0x0000000001ff7228       0x40 /home/jbrawley/Desktop/rockbox-photo-cf-support/build/apps/plugins/doom/d_main.o
                0x0000000001ff7228                debugfile
                0x0000000001ff722c                startmap
                0x0000000001ff7230                doomexit
                0x0000000001ff7234                ffmap
                0x0000000001ff7238                startskill
                0x0000000001ff723c                respawnparm
                0x0000000001ff7240                clrespawnparm
                0x0000000001ff7244                nomonsters
                0x0000000001ff7248                clnomonsters
                0x0000000001ff724c                devparm
                0x0000000001ff7250                fastparm
                0x0000000001ff7254                clfastparm
                0x0000000001ff7258                autostart
                0x0000000001ff725c                advancedemo
                0x0000000001ff7260                startepisode
                0x0000000001ff7264                basetic
 COMMON         0x0000000001ff7268       0x20 /home/jbrawley/Desktop/rockbox-photo-cf-support/build/apps/plugins/doom/m_misc.o
                0x0000000001ff7268                usemouse
                0x0000000001ff726c                X_opt
                0x0000000001ff7270                snd_device
                0x0000000001ff7274                numdefaults
                0x0000000001ff7278                mus_pause_opt
                0x0000000001ff727c                musserver_filename
                0x0000000001ff7280                map_point_coordinates
                0x0000000001ff7284                sndserver_filename
 COMMON         0x0000000001ff7288        0xc /home/jbrawley/Desktop/rockbox-photo-cf-support/build/apps/plugins/doom/i_sound.o
                0x0000000001ff7288                mixbuffer
                0x0000000001ff728c                steptable
                0x0000000001ff7290                vol_lookup
 COMMON         0x0000000001ff7294      0x114 /home/jbrawley/Desktop/rockbox-photo-cf-support/build/apps/plugins/doom/rockdoom.o
                0x0000000001ff7294                addon
                0x0000000001ff735c                namemap
                0x0000000001ff7378                filearray
                0x0000000001ff739c                argvlist
                0x0000000001ff73a8                . = ALIGN (0x4)

.ncbss          0x0000000011ff73a8        0x8 load address 0x0000000001ff73a8
                0x0000000011ff73b0                . = ALIGN (0x10)
 *fill*         0x0000000011ff73a8        0x8 
 *(.ncbss*)
                0x0000000011ff73b0                . = ALIGN (0x10)
                0x0000000001ff73b0                pluginendaddr = (. - 0x10000000)

.pluginend      0x0000000001ff73b0        0x0
                0x0000000001ff73b0                _plugin_end_addr = .
                0x0000000001ff73b0                plugin_end_addr = .

.iram           0x000000004000c000       0xf8 load address 0x0000000001fddeb0
                0x000000004000c000                iramstart = .
 *(.icode)
 *(.irodata)
 .irodata       0x000000004000c000       0xc8 /home/jbrawley/Desktop/rockbox-photo-cf-support/build/apps/plugins/doom/r_draw.o
 *(.idata)
 .idata         0x000000004000c0c8       0x18 /home/jbrawley/Desktop/rockbox-photo-cf-support/build/apps/plugins/doom/doomstat.o
                0x000000004000c0c8                monster_friction
                0x000000004000c0cc                monster_infighting
                0x000000004000c0d0                variable_friction
                0x000000004000c0d4                allow_pushers
                0x000000004000c0d8                gamemission
                0x000000004000c0dc                gamemode
 .idata         0x000000004000c0e0        0xc /home/jbrawley/Desktop/rockbox-photo-cf-support/build/apps/plugins/doom/d_main.o
 .idata         0x000000004000c0ec        0xc /home/jbrawley/Desktop/rockbox-photo-cf-support/build/apps/plugins/doom/i_video.o
                0x000000004000c0f8                iramend = .

.ibss           0x000000004000c0f8     0x1a28 load address 0x0000000001fddfa8
                0x000000004000c0f8                iedata = .
 *(.ibss)
 .ibss          0x000000004000c0f8       0xa0 /home/jbrawley/Desktop/rockbox-photo-cf-support/build/apps/plugins/doom/doomstat.o
                0x000000004000c0f8                monkeys
                0x000000004000c0fc                help_friends
                0x000000004000c100                monster_avoid_hazards
                0x000000004000c104                monster_backing
                0x000000004000c108                monsters_remember
                0x000000004000c10c                player_bobbing
                0x000000004000c110                weapon_recoil
                0x000000004000c114                general_translucency
                0x000000004000c118                comp
 .ibss          0x000000004000c198      0xf38 /home/jbrawley/Desktop/rockbox-photo-cf-support/build/apps/plugins/doom/p_mobj.o
                0x000000004000c198                i
                0x000000004000c19c                seenstate_tab
 .ibss          0x000000004000d0d0      0x194 /home/jbrawley/Desktop/rockbox-photo-cf-support/build/apps/plugins/doom/r_bsp.o
                0x000000004000d0d0                solidcol
                0x000000004000d1ac                tempsec
 .ibss          0x000000004000d264      0x11c /home/jbrawley/Desktop/rockbox-photo-cf-support/build/apps/plugins/doom/r_draw.o
                0x000000004000d264                dc_yl
                0x000000004000d268                dc_yh
                0x000000004000d26c                topleft
                0x000000004000d270                dc_x
                0x000000004000d274                dc_iscale
                0x000000004000d278                dc_texturemid
                0x000000004000d27c                dc_texheight
                0x000000004000d280                dc_colormap
                0x000000004000d284                dc_source
                0x000000004000d288                tranmap
                0x000000004000d358                ds_x1
                0x000000004000d35c                ds_x2
                0x000000004000d360                ds_xfrac
                0x000000004000d364                ds_yfrac
                0x000000004000d368                ds_source
                0x000000004000d36c                ds_colormap
                0x000000004000d370                ds_y
                0x000000004000d374                ds_xstep
                0x000000004000d378                ds_ystep
                0x000000004000d37c                main_tranmap
 .ibss          0x000000004000d380        0x8 /home/jbrawley/Desktop/rockbox-photo-cf-support/build/apps/plugins/doom/r_main.o
                0x000000004000d380                centery
                0x000000004000d384                centerx
 .ibss          0x000000004000d388      0x200 /home/jbrawley/Desktop/rockbox-photo-cf-support/build/apps/plugins/doom/r_plane.o
 .ibss          0x000000004000d588        0x4 /home/jbrawley/Desktop/rockbox-photo-cf-support/build/apps/plugins/doom/r_segs.o
                0x000000004000d588                fake_contrast
 .ibss          0x000000004000d58c       0x18 /home/jbrawley/Desktop/rockbox-photo-cf-support/build/apps/plugins/doom/v_video.o
                0x000000004000d58c                d_screens
 .ibss          0x000000004000d5a4       0x10 /home/jbrawley/Desktop/rockbox-photo-cf-support/build/apps/plugins/doom/z_zone.o
 .ibss          0x000000004000d5b4      0x360 /home/jbrawley/Desktop/rockbox-photo-cf-support/build/apps/plugins/doom/i_sound.o
                0x000000004000d5b4                channelinfo
 .ibss          0x000000004000d914      0x200 /home/jbrawley/Desktop/rockbox-photo-cf-support/build/apps/plugins/doom/i_video.o
 .ibss          0x000000004000db14        0xc /home/jbrawley/Desktop/rockbox-photo-cf-support/build/apps/plugins/doom/w_wad.o
                0x000000004000db14                numlumps
                0x000000004000db18                lumpinfo
                0x000000004000db1c                lumpcache
                0x000000004000db20                . = ALIGN (0x4)
                0x000000004000db20                iend = .
                0x0000000001ff73b0                loadendaddr = MAX (plugin_end_addr, (LOADADDR (.iram) + SIZEOF (.iram)))

.pluginloadend  0x0000000001ff73b0        0x0
                0x0000000001ff73b0                _plugin_load_end_addr = .
                0x0000000001ff73b0                plugin_load_end_addr = .

.comment        0x0000000000000000       0x11
 *(.comment)
 .comment       0x0000000000000000       0x11 /home/jbrawley/Desktop/rockbox-photo-cf-support/build/apps/plugins/doom/../../../firmware/libc/sscanf.o
                                         0x12 (size before relaxing)
 .comment       0x0000000000000011       0x12 /home/jbrawley/Desktop/rockbox-photo-cf-support/build/apps/plugins/doom/info.o
 .comment       0x0000000000000011       0x12 /home/jbrawley/Desktop/rockbox-photo-cf-support/build/apps/plugins/doom/doomdef.o
 .comment       0x0000000000000011       0x12 /home/jbrawley/Desktop/rockbox-photo-cf-support/build/apps/plugins/doom/doomstat.o
 .comment       0x0000000000000011       0x12 /home/jbrawley/Desktop/rockbox-photo-cf-support/build/apps/plugins/doom/dstrings.o
 .comment       0x0000000000000011       0x12 /home/jbrawley/Desktop/rockbox-photo-cf-support/build/apps/plugins/doom/tables.o
 .comment       0x0000000000000011       0x12 /home/jbrawley/Desktop/rockbox-photo-cf-support/build/apps/plugins/doom/f_finale.o
 .comment       0x0000000000000011       0x12 /home/jbrawley/Desktop/rockbox-photo-cf-support/build/apps/plugins/doom/f_wipe.o
 .comment       0x0000000000000011       0x12 /home/jbrawley/Desktop/rockbox-photo-cf-support/build/apps/plugins/doom/d_net.o
 .comment       0x0000000000000011       0x12 /home/jbrawley/Desktop/rockbox-photo-cf-support/build/apps/plugins/doom/d_items.o
 .comment       0x0000000000000011       0x12 /home/jbrawley/Desktop/rockbox-photo-cf-support/build/apps/plugins/doom/g_game.o
 .comment       0x0000000000000011       0x12 /home/jbrawley/Desktop/rockbox-photo-cf-support/build/apps/plugins/doom/m_menu.o
 .comment       0x0000000000000011       0x12 /home/jbrawley/Desktop/rockbox-photo-cf-support/build/apps/plugins/doom/m_argv.o
 .comment       0x0000000000000011       0x12 /home/jbrawley/Desktop/rockbox-photo-cf-support/build/apps/plugins/doom/m_cheat.o
 .comment       0x0000000000000011       0x12 /home/jbrawley/Desktop/rockbox-photo-cf-support/build/apps/plugins/doom/m_random.o
 .comment       0x0000000000000011       0x12 /home/jbrawley/Desktop/rockbox-photo-cf-support/build/apps/plugins/doom/am_map.o
 .comment       0x0000000000000011       0x12 /home/jbrawley/Desktop/rockbox-photo-cf-support/build/apps/plugins/doom/p_ceilng.o
 .comment       0x0000000000000011       0x12 /home/jbrawley/Desktop/rockbox-photo-cf-support/build/apps/plugins/doom/p_doors.o
 .comment       0x0000000000000011       0x12 /home/jbrawley/Desktop/rockbox-photo-cf-support/build/apps/plugins/doom/p_genlin.o
 .comment       0x0000000000000011       0x12 /home/jbrawley/Desktop/rockbox-photo-cf-support/build/apps/plugins/doom/p_enemy.o
 .comment       0x0000000000000011       0x12 /home/jbrawley/Desktop/rockbox-photo-cf-support/build/apps/plugins/doom/p_floor.o
 .comment       0x0000000000000011       0x12 /home/jbrawley/Desktop/rockbox-photo-cf-support/build/apps/plugins/doom/p_inter.o
 .comment       0x0000000000000011       0x12 /home/jbrawley/Desktop/rockbox-photo-cf-support/build/apps/plugins/doom/p_lights.o
 .comment       0x0000000000000011       0x12 /home/jbrawley/Desktop/rockbox-photo-cf-support/build/apps/plugins/doom/p_map.o
 .comment       0x0000000000000011       0x12 /home/jbrawley/Desktop/rockbox-photo-cf-support/build/apps/plugins/doom/p_maputl.o
 .comment       0x0000000000000011       0x12 /home/jbrawley/Desktop/rockbox-photo-cf-support/build/apps/plugins/doom/p_plats.o
 .comment       0x0000000000000011       0x12 /home/jbrawley/Desktop/rockbox-photo-cf-support/build/apps/plugins/doom/p_pspr.o
 .comment       0x0000000000000011       0x12 /home/jbrawley/Desktop/rockbox-photo-cf-support/build/apps/plugins/doom/p_setup.o
 .comment       0x0000000000000011       0x12 /home/jbrawley/Desktop/rockbox-photo-cf-support/build/apps/plugins/doom/p_sight.o
 .comment       0x0000000000000011       0x12 /home/jbrawley/Desktop/rockbox-photo-cf-support/build/apps/plugins/doom/p_spec.o
 .comment       0x0000000000000011       0x12 /home/jbrawley/Desktop/rockbox-photo-cf-support/build/apps/plugins/doom/p_switch.o
 .comment       0x0000000000000011       0x12 /home/jbrawley/Desktop/rockbox-photo-cf-support/build/apps/plugins/doom/p_mobj.o
 .comment       0x0000000000000011       0x12 /home/jbrawley/Desktop/rockbox-photo-cf-support/build/apps/plugins/doom/p_telept.o
 .comment       0x0000000000000011       0x12 /home/jbrawley/Desktop/rockbox-photo-cf-support/build/apps/plugins/doom/p_tick.o
 .comment       0x0000000000000011       0x12 /home/jbrawley/Desktop/rockbox-photo-cf-support/build/apps/plugins/doom/p_saveg.o
 .comment       0x0000000000000011       0x12 /home/jbrawley/Desktop/rockbox-photo-cf-support/build/apps/plugins/doom/p_user.o
 .comment       0x0000000000000011       0x12 /home/jbrawley/Desktop/rockbox-photo-cf-support/build/apps/plugins/doom/r_bsp.o
 .comment       0x0000000000000011       0x12 /home/jbrawley/Desktop/rockbox-photo-cf-support/build/apps/plugins/doom/r_data.o
 .comment       0x0000000000000011       0x12 /home/jbrawley/Desktop/rockbox-photo-cf-support/build/apps/plugins/doom/r_draw.o
 .comment       0x0000000000000011       0x12 /home/jbrawley/Desktop/rockbox-photo-cf-support/build/apps/plugins/doom/r_main.o
 .comment       0x0000000000000011       0x12 /home/jbrawley/Desktop/rockbox-photo-cf-support/build/apps/plugins/doom/r_plane.o
 .comment       0x0000000000000011       0x12 /home/jbrawley/Desktop/rockbox-photo-cf-support/build/apps/plugins/doom/r_segs.o
 .comment       0x0000000000000011       0x12 /home/jbrawley/Desktop/rockbox-photo-cf-support/build/apps/plugins/doom/r_sky.o
 .comment       0x0000000000000011       0x12 /home/jbrawley/Desktop/rockbox-photo-cf-support/build/apps/plugins/doom/r_things.o
 .comment       0x0000000000000011       0x12 /home/jbrawley/Desktop/rockbox-photo-cf-support/build/apps/plugins/doom/wi_stuff.o
 .comment       0x0000000000000011       0x12 /home/jbrawley/Desktop/rockbox-photo-cf-support/build/apps/plugins/doom/v_video.o
 .comment       0x0000000000000011       0x12 /home/jbrawley/Desktop/rockbox-photo-cf-support/build/apps/plugins/doom/st_lib.o
 .comment       0x0000000000000011       0x12 /home/jbrawley/Desktop/rockbox-photo-cf-support/build/apps/plugins/doom/st_stuff.o
 .comment       0x0000000000000011       0x12 /home/jbrawley/Desktop/rockbox-photo-cf-support/build/apps/plugins/doom/hu_stuff.o
 .comment       0x0000000000000011       0x12 /home/jbrawley/Desktop/rockbox-photo-cf-support/build/apps/plugins/doom/hu_lib.o
 .comment       0x0000000000000011       0x12 /home/jbrawley/Desktop/rockbox-photo-cf-support/build/apps/plugins/doom/s_sound.o
 .comment       0x0000000000000011       0x12 /home/jbrawley/Desktop/rockbox-photo-cf-support/build/apps/plugins/doom/z_zone.o
 .comment       0x0000000000000011       0x12 /home/jbrawley/Desktop/rockbox-photo-cf-support/build/apps/plugins/doom/z_bmalloc.o
 .comment       0x0000000000000011       0x12 /home/jbrawley/Desktop/rockbox-photo-cf-support/build/apps/plugins/doom/sounds.o
 .comment       0x0000000000000011       0x12 /home/jbrawley/Desktop/rockbox-photo-cf-support/build/apps/plugins/doom/d_main.o
 .comment       0x0000000000000011       0x12 /home/jbrawley/Desktop/rockbox-photo-cf-support/build/apps/plugins/doom/m_misc.o
 .comment       0x0000000000000011       0x12 /home/jbrawley/Desktop/rockbox-photo-cf-support/build/apps/plugins/doom/m_bbox.o
 .comment       0x0000000000000011       0x12 /home/jbrawley/Desktop/rockbox-photo-cf-support/build/apps/plugins/doom/i_system.o
 .comment       0x0000000000000011       0x12 /home/jbrawley/Desktop/rockbox-photo-cf-support/build/apps/plugins/doom/i_sound.o
 .comment       0x0000000000000011       0x12 /home/jbrawley/Desktop/rockbox-photo-cf-support/build/apps/plugins/doom/i_video.o
 .comment       0x0000000000000011       0x12 /home/jbrawley/Desktop/rockbox-photo-cf-support/build/apps/plugins/doom/w_wad.o
 .comment       0x0000000000000011       0x12 /home/jbrawley/Desktop/rockbox-photo-cf-support/build/apps/plugins/doom/rockdoom.o
 .comment       0x0000000000000011       0x12 /home/jbrawley/Desktop/rockbox-photo-cf-support/build/apps/plugins/doom/d_deh.o
 .comment       0x0000000000000011       0x12 /home/jbrawley/Desktop/rockbox-photo-cf-support/build/apps/plugins/plugin_crt0.o
 .comment       0x0000000000000011       0x12 /home/jbrawley/Desktop/rockbox-photo-cf-support/build/apps/plugins/libplugin.a(gcc-support.o)
 .comment       0x0000000000000011       0x12 /home/jbrawley/Desktop/rockbox-photo-cf-support/build/apps/plugins/libplugin.a(helper.o)
 .comment       0x0000000000000011       0x12 /home/jbrawley/Desktop/rockbox-photo-cf-support/build/apps/plugins/libplugin.a(strncpy.o)
 .comment       0x0000000000000011       0x12 /usr/local/lib/gcc/arm-elf-eabi/4.9.4/libgcc.a(bpabi.o)
 .comment       0x0000000000000011       0x12 /usr/local/lib/gcc/arm-elf-eabi/4.9.4/libgcc.a(_divdi3.o)
 .comment       0x0000000000000011       0x12 /usr/local/lib/gcc/arm-elf-eabi/4.9.4/libgcc.a(_udivdi3.o)
OUTPUT(/home/jbrawley/Desktop/rockbox-photo-cf-support/build/apps/plugins/doom/doom.elf elf32-littlearm)

.ARM.attributes
                0x0000000000000000       0x2e
 .ARM.attributes
                0x0000000000000000       0x30 /home/jbrawley/Desktop/rockbox-photo-cf-support/build/apps/plugins/doom/../../../firmware/libc/sscanf.o
 .ARM.attributes
                0x0000000000000030       0x30 /home/jbrawley/Desktop/rockbox-photo-cf-support/build/apps/plugins/doom/info.o
 .ARM.attributes
                0x0000000000000060       0x30 /home/jbrawley/Desktop/rockbox-photo-cf-support/build/apps/plugins/doom/doomdef.o
 .ARM.attributes
                0x0000000000000090       0x30 /home/jbrawley/Desktop/rockbox-photo-cf-support/build/apps/plugins/doom/doomstat.o
 .ARM.attributes
                0x00000000000000c0       0x30 /home/jbrawley/Desktop/rockbox-photo-cf-support/build/apps/plugins/doom/dstrings.o
 .ARM.attributes
                0x00000000000000f0       0x30 /home/jbrawley/Desktop/rockbox-photo-cf-support/build/apps/plugins/doom/tables.o
 .ARM.attributes
                0x0000000000000120       0x30 /home/jbrawley/Desktop/rockbox-photo-cf-support/build/apps/plugins/doom/f_finale.o
 .ARM.attributes
                0x0000000000000150       0x30 /home/jbrawley/Desktop/rockbox-photo-cf-support/build/apps/plugins/doom/f_wipe.o
 .ARM.attributes
                0x0000000000000180       0x30 /home/jbrawley/Desktop/rockbox-photo-cf-support/build/apps/plugins/doom/d_net.o
 .ARM.attributes
                0x00000000000001b0       0x30 /home/jbrawley/Desktop/rockbox-photo-cf-support/build/apps/plugins/doom/d_items.o
 .ARM.attributes
                0x00000000000001e0       0x30 /home/jbrawley/Desktop/rockbox-photo-cf-support/build/apps/plugins/doom/g_game.o
 .ARM.attributes
                0x0000000000000210       0x30 /home/jbrawley/Desktop/rockbox-photo-cf-support/build/apps/plugins/doom/m_menu.o
 .ARM.attributes
                0x0000000000000240       0x30 /home/jbrawley/Desktop/rockbox-photo-cf-support/build/apps/plugins/doom/m_argv.o
 .ARM.attributes
                0x0000000000000270       0x30 /home/jbrawley/Desktop/rockbox-photo-cf-support/build/apps/plugins/doom/m_cheat.o
 .ARM.attributes
                0x00000000000002a0       0x30 /home/jbrawley/Desktop/rockbox-photo-cf-support/build/apps/plugins/doom/m_random.o
 .ARM.attributes
                0x00000000000002d0       0x30 /home/jbrawley/Desktop/rockbox-photo-cf-support/build/apps/plugins/doom/am_map.o
 .ARM.attributes
                0x0000000000000300       0x30 /home/jbrawley/Desktop/rockbox-photo-cf-support/build/apps/plugins/doom/p_ceilng.o
 .ARM.attributes
                0x0000000000000330       0x30 /home/jbrawley/Desktop/rockbox-photo-cf-support/build/apps/plugins/doom/p_doors.o
 .ARM.attributes
                0x0000000000000360       0x30 /home/jbrawley/Desktop/rockbox-photo-cf-support/build/apps/plugins/doom/p_genlin.o
 .ARM.attributes
                0x0000000000000390       0x30 /home/jbrawley/Desktop/rockbox-photo-cf-support/build/apps/plugins/doom/p_enemy.o
 .ARM.attributes
                0x00000000000003c0       0x30 /home/jbrawley/Desktop/rockbox-photo-cf-support/build/apps/plugins/doom/p_floor.o
 .ARM.attributes
                0x00000000000003f0       0x30 /home/jbrawley/Desktop/rockbox-photo-cf-support/build/apps/plugins/doom/p_inter.o
 .ARM.attributes
                0x0000000000000420       0x30 /home/jbrawley/Desktop/rockbox-photo-cf-support/build/apps/plugins/doom/p_lights.o
 .ARM.attributes
                0x0000000000000450       0x30 /home/jbrawley/Desktop/rockbox-photo-cf-support/build/apps/plugins/doom/p_map.o
 .ARM.attributes
                0x0000000000000480       0x30 /home/jbrawley/Desktop/rockbox-photo-cf-support/build/apps/plugins/doom/p_maputl.o
 .ARM.attributes
                0x00000000000004b0       0x30 /home/jbrawley/Desktop/rockbox-photo-cf-support/build/apps/plugins/doom/p_plats.o
 .ARM.attributes
                0x00000000000004e0       0x30 /home/jbrawley/Desktop/rockbox-photo-cf-support/build/apps/plugins/doom/p_pspr.o
 .ARM.attributes
                0x0000000000000510       0x30 /home/jbrawley/Desktop/rockbox-photo-cf-support/build/apps/plugins/doom/p_setup.o
 .ARM.attributes
                0x0000000000000540       0x30 /home/jbrawley/Desktop/rockbox-photo-cf-support/build/apps/plugins/doom/p_sight.o
 .ARM.attributes
                0x0000000000000570       0x30 /home/jbrawley/Desktop/rockbox-photo-cf-support/build/apps/plugins/doom/p_spec.o
 .ARM.attributes
                0x00000000000005a0       0x30 /home/jbrawley/Desktop/rockbox-photo-cf-support/build/apps/plugins/doom/p_switch.o
 .ARM.attributes
                0x00000000000005d0       0x30 /home/jbrawley/Desktop/rockbox-photo-cf-support/build/apps/plugins/doom/p_mobj.o
 .ARM.attributes
                0x0000000000000600       0x30 /home/jbrawley/Desktop/rockbox-photo-cf-support/build/apps/plugins/doom/p_telept.o
 .ARM.attributes
                0x0000000000000630       0x30 /home/jbrawley/Desktop/rockbox-photo-cf-support/build/apps/plugins/doom/p_tick.o
 .ARM.attributes
                0x0000000000000660       0x30 /home/jbrawley/Desktop/rockbox-photo-cf-support/build/apps/plugins/doom/p_saveg.o
 .ARM.attributes
                0x0000000000000690       0x30 /home/jbrawley/Desktop/rockbox-photo-cf-support/build/apps/plugins/doom/p_user.o
 .ARM.attributes
                0x00000000000006c0       0x30 /home/jbrawley/Desktop/rockbox-photo-cf-support/build/apps/plugins/doom/r_bsp.o
 .ARM.attributes
                0x00000000000006f0       0x30 /home/jbrawley/Desktop/rockbox-photo-cf-support/build/apps/plugins/doom/r_data.o
 .ARM.attributes
                0x0000000000000720       0x30 /home/jbrawley/Desktop/rockbox-photo-cf-support/build/apps/plugins/doom/r_draw.o
 .ARM.attributes
                0x0000000000000750       0x30 /home/jbrawley/Desktop/rockbox-photo-cf-support/build/apps/plugins/doom/r_main.o
 .ARM.attributes
                0x0000000000000780       0x30 /home/jbrawley/Desktop/rockbox-photo-cf-support/build/apps/plugins/doom/r_plane.o
 .ARM.attributes
                0x00000000000007b0       0x30 /home/jbrawley/Desktop/rockbox-photo-cf-support/build/apps/plugins/doom/r_segs.o
 .ARM.attributes
                0x00000000000007e0       0x30 /home/jbrawley/Desktop/rockbox-photo-cf-support/build/apps/plugins/doom/r_sky.o
 .ARM.attributes
                0x0000000000000810       0x30 /home/jbrawley/Desktop/rockbox-photo-cf-support/build/apps/plugins/doom/r_things.o
 .ARM.attributes
                0x0000000000000840       0x30 /home/jbrawley/Desktop/rockbox-photo-cf-support/build/apps/plugins/doom/wi_stuff.o
 .ARM.attributes
                0x0000000000000870       0x30 /home/jbrawley/Desktop/rockbox-photo-cf-support/build/apps/plugins/doom/v_video.o
 .ARM.attributes
                0x00000000000008a0       0x30 /home/jbrawley/Desktop/rockbox-photo-cf-support/build/apps/plugins/doom/st_lib.o
 .ARM.attributes
                0x00000000000008d0       0x30 /home/jbrawley/Desktop/rockbox-photo-cf-support/build/apps/plugins/doom/st_stuff.o
 .ARM.attributes
                0x0000000000000900       0x30 /home/jbrawley/Desktop/rockbox-photo-cf-support/build/apps/plugins/doom/hu_stuff.o
 .ARM.attributes
                0x0000000000000930       0x30 /home/jbrawley/Desktop/rockbox-photo-cf-support/build/apps/plugins/doom/hu_lib.o
 .ARM.attributes
                0x0000000000000960       0x30 /home/jbrawley/Desktop/rockbox-photo-cf-support/build/apps/plugins/doom/s_sound.o
 .ARM.attributes
                0x0000000000000990       0x30 /home/jbrawley/Desktop/rockbox-photo-cf-support/build/apps/plugins/doom/z_zone.o
 .ARM.attributes
                0x00000000000009c0       0x30 /home/jbrawley/Desktop/rockbox-photo-cf-support/build/apps/plugins/doom/z_bmalloc.o
 .ARM.attributes
                0x00000000000009f0       0x30 /home/jbrawley/Desktop/rockbox-photo-cf-support/build/apps/plugins/doom/sounds.o
 .ARM.attributes
                0x0000000000000a20       0x30 /home/jbrawley/Desktop/rockbox-photo-cf-support/build/apps/plugins/doom/d_main.o
 .ARM.attributes
                0x0000000000000a50       0x30 /home/jbrawley/Desktop/rockbox-photo-cf-support/build/apps/plugins/doom/m_misc.o
 .ARM.attributes
                0x0000000000000a80       0x30 /home/jbrawley/Desktop/rockbox-photo-cf-support/build/apps/plugins/doom/m_bbox.o
 .ARM.attributes
                0x0000000000000ab0       0x30 /home/jbrawley/Desktop/rockbox-photo-cf-support/build/apps/plugins/doom/i_system.o
 .ARM.attributes
                0x0000000000000ae0       0x30 /home/jbrawley/Desktop/rockbox-photo-cf-support/build/apps/plugins/doom/i_sound.o
 .ARM.attributes
                0x0000000000000b10       0x30 /home/jbrawley/Desktop/rockbox-photo-cf-support/build/apps/plugins/doom/i_video.o
 .ARM.attributes
                0x0000000000000b40       0x30 /home/jbrawley/Desktop/rockbox-photo-cf-support/build/apps/plugins/doom/w_wad.o
 .ARM.attributes
                0x0000000000000b70       0x30 /home/jbrawley/Desktop/rockbox-photo-cf-support/build/apps/plugins/doom/rockdoom.o
 .ARM.attributes
                0x0000000000000ba0       0x30 /home/jbrawley/Desktop/rockbox-photo-cf-support/build/apps/plugins/doom/d_deh.o
 .ARM.attributes
                0x0000000000000bd0       0x30 /home/jbrawley/Desktop/rockbox-photo-cf-support/build/apps/plugins/plugin_crt0.o
 .ARM.attributes
                0x0000000000000c00       0x30 /home/jbrawley/Desktop/rockbox-photo-cf-support/build/apps/plugins/libplugin.a(gcc-support.o)
 .ARM.attributes
                0x0000000000000c30       0x30 /home/jbrawley/Desktop/rockbox-photo-cf-support/build/apps/plugins/libplugin.a(helper.o)
 .ARM.attributes
                0x0000000000000c60       0x30 /home/jbrawley/Desktop/rockbox-photo-cf-support/build/apps/plugins/libplugin.a(strncpy.o)
 .ARM.attributes
                0x0000000000000c90       0x20 /home/jbrawley/Desktop/rockbox-photo-cf-support/build/lib/libsetjmp.a(setjmp.o)
 .ARM.attributes
                0x0000000000000cb0       0x18 /usr/local/lib/gcc/arm-elf-eabi/4.9.4/libgcc.a(_udivsi3.o)
 .ARM.attributes
                0x0000000000000cc8       0x18 /usr/local/lib/gcc/arm-elf-eabi/4.9.4/libgcc.a(_divsi3.o)
 .ARM.attributes
                0x0000000000000ce0       0x18 /usr/local/lib/gcc/arm-elf-eabi/4.9.4/libgcc.a(_dvmd_tls.o)
 .ARM.attributes
                0x0000000000000cf8       0x18 /usr/local/lib/gcc/arm-elf-eabi/4.9.4/libgcc.a(_arm_addsubsf3.o)
 .ARM.attributes
                0x0000000000000d10       0x18 /usr/local/lib/gcc/arm-elf-eabi/4.9.4/libgcc.a(_arm_muldivsf3.o)
 .ARM.attributes
                0x0000000000000d28       0x18 /usr/local/lib/gcc/arm-elf-eabi/4.9.4/libgcc.a(_arm_cmpsf2.o)
 .ARM.attributes
                0x0000000000000d40       0x18 /usr/local/lib/gcc/arm-elf-eabi/4.9.4/libgcc.a(_arm_fixsfsi.o)
 .ARM.attributes
                0x0000000000000d58       0x18 /usr/local/lib/gcc/arm-elf-eabi/4.9.4/libgcc.a(_aeabi_ldivmod.o)
 .ARM.attributes
                0x0000000000000d70       0x18 /usr/local/lib/gcc/arm-elf-eabi/4.9.4/libgcc.a(_aeabi_uldivmod.o)
 .ARM.attributes
                0x0000000000000d88       0x30 /usr/local/lib/gcc/arm-elf-eabi/4.9.4/libgcc.a(bpabi.o)
 .ARM.attributes
                0x0000000000000db8       0x30 /usr/local/lib/gcc/arm-elf-eabi/4.9.4/libgcc.a(_divdi3.o)
 .ARM.attributes
                0x0000000000000de8       0x30 /usr/local/lib/gcc/arm-elf-eabi/4.9.4/libgcc.a(_udivdi3.o)
 .ARM.attributes
                0x0000000000000e18       0x18 /usr/local/lib/gcc/arm-elf-eabi/4.9.4/libgcc.a(_clzdi2.o)
 .ARM.attributes
                0x0000000000000e30       0x18 /usr/local/lib/gcc/arm-elf-eabi/4.9.4/libgcc.a(_clzsi2.o)

.debug_frame    0x0000000000000000      0x180
 .debug_frame   0x0000000000000000       0x20 /usr/local/lib/gcc/arm-elf-eabi/4.9.4/libgcc.a(_udivsi3.o)
 .debug_frame   0x0000000000000020       0x20 /usr/local/lib/gcc/arm-elf-eabi/4.9.4/libgcc.a(_divsi3.o)
 .debug_frame   0x0000000000000040       0x28 /usr/local/lib/gcc/arm-elf-eabi/4.9.4/libgcc.a(_aeabi_ldivmod.o)
 .debug_frame   0x0000000000000068       0x28 /usr/local/lib/gcc/arm-elf-eabi/4.9.4/libgcc.a(_aeabi_uldivmod.o)
 .debug_frame   0x0000000000000090       0x68 /usr/local/lib/gcc/arm-elf-eabi/4.9.4/libgcc.a(bpabi.o)
 .debug_frame   0x00000000000000f8       0x48 /usr/local/lib/gcc/arm-elf-eabi/4.9.4/libgcc.a(_divdi3.o)
 .debug_frame   0x0000000000000140       0x40 /usr/local/lib/gcc/arm-elf-eabi/4.9.4/libgcc.a(_udivdi3.o)

.debug_line     0x0000000000000000      0x7fa
 .debug_line    0x0000000000000000       0x7e /usr/local/lib/gcc/arm-elf-eabi/4.9.4/libgcc.a(_udivsi3.o)
 .debug_line    0x000000000000007e       0x8a /usr/local/lib/gcc/arm-elf-eabi/4.9.4/libgcc.a(_divsi3.o)
 .debug_line    0x0000000000000108       0x61 /usr/local/lib/gcc/arm-elf-eabi/4.9.4/libgcc.a(_dvmd_tls.o)
 .debug_line    0x0000000000000169      0x117 /usr/local/lib/gcc/arm-elf-eabi/4.9.4/libgcc.a(_arm_addsubsf3.o)
 .debug_line    0x0000000000000280      0x123 /usr/local/lib/gcc/arm-elf-eabi/4.9.4/libgcc.a(_arm_muldivsf3.o)
 .debug_line    0x00000000000003a3       0xa2 /usr/local/lib/gcc/arm-elf-eabi/4.9.4/libgcc.a(_arm_cmpsf2.o)
 .debug_line    0x0000000000000445       0x78 /usr/local/lib/gcc/arm-elf-eabi/4.9.4/libgcc.a(_arm_fixsfsi.o)
 .debug_line    0x00000000000004bd       0x65 /usr/local/lib/gcc/arm-elf-eabi/4.9.4/libgcc.a(_aeabi_ldivmod.o)
 .debug_line    0x0000000000000522       0x64 /usr/local/lib/gcc/arm-elf-eabi/4.9.4/libgcc.a(_aeabi_uldivmod.o)
 .debug_line    0x0000000000000586       0x65 /usr/local/lib/gcc/arm-elf-eabi/4.9.4/libgcc.a(bpabi.o)
 .debug_line    0x00000000000005eb       0x9e /usr/local/lib/gcc/arm-elf-eabi/4.9.4/libgcc.a(_divdi3.o)
 .debug_line    0x0000000000000689       0x98 /usr/local/lib/gcc/arm-elf-eabi/4.9.4/libgcc.a(_udivdi3.o)
 .debug_line    0x0000000000000721       0x6b /usr/local/lib/gcc/arm-elf-eabi/4.9.4/libgcc.a(_clzdi2.o)
 .debug_line    0x000000000000078c       0x6e /usr/local/lib/gcc/arm-elf-eabi/4.9.4/libgcc.a(_clzsi2.o)

.debug_info     0x0000000000000000      0xb68
 .debug_info    0x0000000000000000       0x88 /usr/local/lib/gcc/arm-elf-eabi/4.9.4/libgcc.a(_udivsi3.o)
 .debug_info    0x0000000000000088       0x88 /usr/local/lib/gcc/arm-elf-eabi/4.9.4/libgcc.a(_divsi3.o)
 .debug_info    0x0000000000000110       0x88 /usr/local/lib/gcc/arm-elf-eabi/4.9.4/libgcc.a(_dvmd_tls.o)
 .debug_info    0x0000000000000198       0x89 /usr/local/lib/gcc/arm-elf-eabi/4.9.4/libgcc.a(_arm_addsubsf3.o)
 .debug_info    0x0000000000000221       0x89 /usr/local/lib/gcc/arm-elf-eabi/4.9.4/libgcc.a(_arm_muldivsf3.o)
 .debug_info    0x00000000000002aa       0x89 /usr/local/lib/gcc/arm-elf-eabi/4.9.4/libgcc.a(_arm_cmpsf2.o)
 .debug_info    0x0000000000000333       0x89 /usr/local/lib/gcc/arm-elf-eabi/4.9.4/libgcc.a(_arm_fixsfsi.o)
 .debug_info    0x00000000000003bc       0x84 /usr/local/lib/gcc/arm-elf-eabi/4.9.4/libgcc.a(_aeabi_ldivmod.o)
 .debug_info    0x0000000000000440       0x84 /usr/local/lib/gcc/arm-elf-eabi/4.9.4/libgcc.a(_aeabi_uldivmod.o)
 .debug_info    0x00000000000004c4      0x164 /usr/local/lib/gcc/arm-elf-eabi/4.9.4/libgcc.a(bpabi.o)
 .debug_info    0x0000000000000628      0x269 /usr/local/lib/gcc/arm-elf-eabi/4.9.4/libgcc.a(_divdi3.o)
 .debug_info    0x0000000000000891      0x1c7 /usr/local/lib/gcc/arm-elf-eabi/4.9.4/libgcc.a(_udivdi3.o)
 .debug_info    0x0000000000000a58       0x88 /usr/local/lib/gcc/arm-elf-eabi/4.9.4/libgcc.a(_clzdi2.o)
 .debug_info    0x0000000000000ae0       0x88 /usr/local/lib/gcc/arm-elf-eabi/4.9.4/libgcc.a(_clzsi2.o)

.debug_abbrev   0x0000000000000000      0x37d
 .debug_abbrev  0x0000000000000000       0x14 /usr/local/lib/gcc/arm-elf-eabi/4.9.4/libgcc.a(_udivsi3.o)
 .debug_abbrev  0x0000000000000014       0x14 /usr/local/lib/gcc/arm-elf-eabi/4.9.4/libgcc.a(_divsi3.o)
 .debug_abbrev  0x0000000000000028       0x14 /usr/local/lib/gcc/arm-elf-eabi/4.9.4/libgcc.a(_dvmd_tls.o)
 .debug_abbrev  0x000000000000003c       0x14 /usr/local/lib/gcc/arm-elf-eabi/4.9.4/libgcc.a(_arm_addsubsf3.o)
 .debug_abbrev  0x0000000000000050       0x14 /usr/local/lib/gcc/arm-elf-eabi/4.9.4/libgcc.a(_arm_muldivsf3.o)
 .debug_abbrev  0x0000000000000064       0x14 /usr/local/lib/gcc/arm-elf-eabi/4.9.4/libgcc.a(_arm_cmpsf2.o)
 .debug_abbrev  0x0000000000000078       0x14 /usr/local/lib/gcc/arm-elf-eabi/4.9.4/libgcc.a(_arm_fixsfsi.o)
 .debug_abbrev  0x000000000000008c       0x14 /usr/local/lib/gcc/arm-elf-eabi/4.9.4/libgcc.a(_aeabi_ldivmod.o)
 .debug_abbrev  0x00000000000000a0       0x14 /usr/local/lib/gcc/arm-elf-eabi/4.9.4/libgcc.a(_aeabi_uldivmod.o)
 .debug_abbrev  0x00000000000000b4       0xb7 /usr/local/lib/gcc/arm-elf-eabi/4.9.4/libgcc.a(bpabi.o)
 .debug_abbrev  0x000000000000016b      0x123 /usr/local/lib/gcc/arm-elf-eabi/4.9.4/libgcc.a(_divdi3.o)
 .debug_abbrev  0x000000000000028e       0xc7 /usr/local/lib/gcc/arm-elf-eabi/4.9.4/libgcc.a(_udivdi3.o)
 .debug_abbrev  0x0000000000000355       0x14 /usr/local/lib/gcc/arm-elf-eabi/4.9.4/libgcc.a(_clzdi2.o)
 .debug_abbrev  0x0000000000000369       0x14 /usr/local/lib/gcc/arm-elf-eabi/4.9.4/libgcc.a(_clzsi2.o)

.debug_aranges  0x0000000000000000      0x1c0
 .debug_aranges
                0x0000000000000000       0x20 /usr/local/lib/gcc/arm-elf-eabi/4.9.4/libgcc.a(_udivsi3.o)
 .debug_aranges
                0x0000000000000020       0x20 /usr/local/lib/gcc/arm-elf-eabi/4.9.4/libgcc.a(_divsi3.o)
 .debug_aranges
                0x0000000000000040       0x20 /usr/local/lib/gcc/arm-elf-eabi/4.9.4/libgcc.a(_dvmd_tls.o)
 .debug_aranges
                0x0000000000000060       0x20 /usr/local/lib/gcc/arm-elf-eabi/4.9.4/libgcc.a(_arm_addsubsf3.o)
 .debug_aranges
                0x0000000000000080       0x20 /usr/local/lib/gcc/arm-elf-eabi/4.9.4/libgcc.a(_arm_muldivsf3.o)
 .debug_aranges
                0x00000000000000a0       0x20 /usr/local/lib/gcc/arm-elf-eabi/4.9.4/libgcc.a(_arm_cmpsf2.o)
 .debug_aranges
                0x00000000000000c0       0x20 /usr/local/lib/gcc/arm-elf-eabi/4.9.4/libgcc.a(_arm_fixsfsi.o)
 .debug_aranges
                0x00000000000000e0       0x20 /usr/local/lib/gcc/arm-elf-eabi/4.9.4/libgcc.a(_aeabi_ldivmod.o)
 .debug_aranges
                0x0000000000000100       0x20 /usr/local/lib/gcc/arm-elf-eabi/4.9.4/libgcc.a(_aeabi_uldivmod.o)
 .debug_aranges
                0x0000000000000120       0x20 /usr/local/lib/gcc/arm-elf-eabi/4.9.4/libgcc.a(bpabi.o)
 .debug_aranges
                0x0000000000000140       0x20 /usr/local/lib/gcc/arm-elf-eabi/4.9.4/libgcc.a(_divdi3.o)
 .debug_aranges
                0x0000000000000160       0x20 /usr/local/lib/gcc/arm-elf-eabi/4.9.4/libgcc.a(_udivdi3.o)
 .debug_aranges
                0x0000000000000180       0x20 /usr/local/lib/gcc/arm-elf-eabi/4.9.4/libgcc.a(_clzdi2.o)
 .debug_aranges
                0x00000000000001a0       0x20 /usr/local/lib/gcc/arm-elf-eabi/4.9.4/libgcc.a(_clzsi2.o)

.debug_loc      0x0000000000000000      0x500
 .debug_loc     0x0000000000000000       0xa0 /usr/local/lib/gcc/arm-elf-eabi/4.9.4/libgcc.a(bpabi.o)
 .debug_loc     0x00000000000000a0      0x27d /usr/local/lib/gcc/arm-elf-eabi/4.9.4/libgcc.a(_divdi3.o)
 .debug_loc     0x000000000000031d      0x1e3 /usr/local/lib/gcc/arm-elf-eabi/4.9.4/libgcc.a(_udivdi3.o)

.debug_str      0x0000000000000000      0x287
 .debug_str     0x0000000000000000      0x152 /usr/local/lib/gcc/arm-elf-eabi/4.9.4/libgcc.a(bpabi.o)
 .debug_str     0x0000000000000152      0x135 /usr/local/lib/gcc/arm-elf-eabi/4.9.4/libgcc.a(_divdi3.o)
                                        0x1dd (size before relaxing)
 .debug_str     0x0000000000000287      0x1ba /usr/local/lib/gcc/arm-elf-eabi/4.9.4/libgcc.a(_udivdi3.o)

.debug_ranges   0x0000000000000000       0x18
 .debug_ranges  0x0000000000000000       0x18 /usr/local/lib/gcc/arm-elf-eabi/4.9.4/libgcc.a(_udivdi3.o)
