Archive member included to satisfy reference by file (symbol)

/home/jbrawley/Desktop/rockbox-photo-cf-support/build/apps/plugins/libplugin.a(gcc-support.o)
                              /home/jbrawley/Desktop/rockbox-photo-cf-support/build/apps/plugins/invadrox.o (memcmp)
/home/jbrawley/Desktop/rockbox-photo-cf-support/build/apps/plugins/libplugin.a(helper.o)
                              /home/jbrawley/Desktop/rockbox-photo-cf-support/build/apps/plugins/invadrox.o (backlight_ignore_timeout)
/home/jbrawley/Desktop/rockbox-photo-cf-support/build/apps/plugins/libplugin.a(highscore.o)
                              /home/jbrawley/Desktop/rockbox-photo-cf-support/build/apps/plugins/invadrox.o (highscore_save)
/home/jbrawley/Desktop/rockbox-photo-cf-support/build/apps/plugins/bitmaps/libpluginbitmaps.a(invadrox_fire.8x8x1.o)
                              /home/jbrawley/Desktop/rockbox-photo-cf-support/build/apps/plugins/invadrox.o (invadrox_fire)
/home/jbrawley/Desktop/rockbox-photo-cf-support/build/apps/plugins/bitmaps/libpluginbitmaps.a(invadrox_aliens.24x24x16.o)
                              /home/jbrawley/Desktop/rockbox-photo-cf-support/build/apps/plugins/invadrox.o (invadrox_aliens)
/home/jbrawley/Desktop/rockbox-photo-cf-support/build/apps/plugins/bitmaps/libpluginbitmaps.a(invadrox_alien_explode.13x7x16.o)
                              /home/jbrawley/Desktop/rockbox-photo-cf-support/build/apps/plugins/invadrox.o (invadrox_alien_explode)
/home/jbrawley/Desktop/rockbox-photo-cf-support/build/apps/plugins/bitmaps/libpluginbitmaps.a(invadrox_ships.16x24x16.o)
                              /home/jbrawley/Desktop/rockbox-photo-cf-support/build/apps/plugins/invadrox.o (invadrox_ships)
/home/jbrawley/Desktop/rockbox-photo-cf-support/build/apps/plugins/bitmaps/libpluginbitmaps.a(invadrox_bombs.9x42x16.o)
                              /home/jbrawley/Desktop/rockbox-photo-cf-support/build/apps/plugins/invadrox.o (invadrox_bombs)
/home/jbrawley/Desktop/rockbox-photo-cf-support/build/apps/plugins/bitmaps/libpluginbitmaps.a(invadrox_shield.22x16x16.o)
                              /home/jbrawley/Desktop/rockbox-photo-cf-support/build/apps/plugins/invadrox.o (invadrox_shield)
/home/jbrawley/Desktop/rockbox-photo-cf-support/build/apps/plugins/bitmaps/libpluginbitmaps.a(invadrox_ufo.16x7x16.o)
                              /home/jbrawley/Desktop/rockbox-photo-cf-support/build/apps/plugins/invadrox.o (invadrox_ufo)
/home/jbrawley/Desktop/rockbox-photo-cf-support/build/apps/plugins/bitmaps/libpluginbitmaps.a(invadrox_ufo_explode.21x8x16.o)
                              /home/jbrawley/Desktop/rockbox-photo-cf-support/build/apps/plugins/invadrox.o (invadrox_ufo_explode)
/home/jbrawley/Desktop/rockbox-photo-cf-support/build/apps/plugins/bitmaps/libpluginbitmaps.a(invadrox_numbers.50x7x16.o)
                              /home/jbrawley/Desktop/rockbox-photo-cf-support/build/apps/plugins/invadrox.o (invadrox_numbers)
/home/jbrawley/Desktop/rockbox-photo-cf-support/build/apps/plugins/bitmaps/libpluginbitmaps.a(invadrox_background.220x176x16.o)
                              /home/jbrawley/Desktop/rockbox-photo-cf-support/build/apps/plugins/invadrox.o (invadrox_background)
/home/jbrawley/Desktop/rockbox-photo-cf-support/build/lib/libsetjmp.a(setjmp.o)
                              /home/jbrawley/Desktop/rockbox-photo-cf-support/build/apps/plugins/plugin_crt0.o (setjmp)
/usr/local/lib/gcc/arm-elf-eabi/4.9.4/libgcc.a(_divsi3.o)
                              /home/jbrawley/Desktop/rockbox-photo-cf-support/build/apps/plugins/invadrox.o (__aeabi_idiv)
/usr/local/lib/gcc/arm-elf-eabi/4.9.4/libgcc.a(_dvmd_tls.o)
                              /usr/local/lib/gcc/arm-elf-eabi/4.9.4/libgcc.a(_divsi3.o) (__aeabi_idiv0)

Allocating common symbols
Common symbol       size              file

aliens_right        0x1               /home/jbrawley/Desktop/rockbox-photo-cf-support/build/apps/plugins/invadrox.o
ytab                0x2c0             /home/jbrawley/Desktop/rockbox-photo-cf-support/build/apps/plugins/invadrox.o
screen_white        0x2               /home/jbrawley/Desktop/rockbox-photo-cf-support/build/apps/plugins/invadrox.o
gamespeed           0x4               /home/jbrawley/Desktop/rockbox-photo-cf-support/build/apps/plugins/invadrox.o
ship_x              0x4               /home/jbrawley/Desktop/rockbox-photo-cf-support/build/apps/plugins/invadrox.o
ufo_state           0x4               /home/jbrawley/Desktop/rockbox-photo-cf-support/build/apps/plugins/invadrox.o
ufo_x               0x4               /home/jbrawley/Desktop/rockbox-photo-cf-support/build/apps/plugins/invadrox.o
max_bombs           0x4               /home/jbrawley/Desktop/rockbox-photo-cf-support/build/apps/plugins/invadrox.o
fire_target         0x4               /home/jbrawley/Desktop/rockbox-photo-cf-support/build/apps/plugins/invadrox.o
curr_alien          0x4               /home/jbrawley/Desktop/rockbox-photo-cf-support/build/apps/plugins/invadrox.o
ship_hit            0x1               /home/jbrawley/Desktop/rockbox-photo-cf-support/build/apps/plugins/invadrox.o
hit_right_border    0x1               /home/jbrawley/Desktop/rockbox-photo-cf-support/build/apps/plugins/invadrox.o
hit_left_border     0x1               /home/jbrawley/Desktop/rockbox-photo-cf-support/build/apps/plugins/invadrox.o
bombs               0x40              /home/jbrawley/Desktop/rockbox-photo-cf-support/build/apps/plugins/invadrox.o
ship_frame          0x4               /home/jbrawley/Desktop/rockbox-photo-cf-support/build/apps/plugins/invadrox.o
old_ship_x          0x4               /home/jbrawley/Desktop/rockbox-photo-cf-support/build/apps/plugins/invadrox.o
hiscore             0x28              /home/jbrawley/Desktop/rockbox-photo-cf-support/build/apps/plugins/invadrox.o
level_finished      0x1               /home/jbrawley/Desktop/rockbox-photo-cf-support/build/apps/plugins/invadrox.o
ship_acc            0x4               /home/jbrawley/Desktop/rockbox-photo-cf-support/build/apps/plugins/invadrox.o
aliens              0x294             /home/jbrawley/Desktop/rockbox-photo-cf-support/build/apps/plugins/invadrox.o
screen_green        0x2               /home/jbrawley/Desktop/rockbox-photo-cf-support/build/apps/plugins/invadrox.o
aliens_paralyzed    0x4               /home/jbrawley/Desktop/rockbox-photo-cf-support/build/apps/plugins/invadrox.o
fire_x              0x4               /home/jbrawley/Desktop/rockbox-photo-cf-support/build/apps/plugins/invadrox.o
ship_frame_counter  0x4               /home/jbrawley/Desktop/rockbox-photo-cf-support/build/apps/plugins/invadrox.o
ship_dir            0x4               /home/jbrawley/Desktop/rockbox-photo-cf-support/build/apps/plugins/invadrox.o
aliens_down         0x1               /home/jbrawley/Desktop/rockbox-photo-cf-support/build/apps/plugins/invadrox.o
fire                0x4               /home/jbrawley/Desktop/rockbox-photo-cf-support/build/apps/plugins/invadrox.o
max_ship_speed      0x4               /home/jbrawley/Desktop/rockbox-photo-cf-support/build/apps/plugins/invadrox.o
fire_y              0x4               /home/jbrawley/Desktop/rockbox-photo-cf-support/build/apps/plugins/invadrox.o

Discarded input sections

 .text          0x0000000000000000        0x0 /home/jbrawley/Desktop/rockbox-photo-cf-support/build/apps/plugins/libplugin.a(gcc-support.o)
 .data          0x0000000000000000        0x0 /home/jbrawley/Desktop/rockbox-photo-cf-support/build/apps/plugins/libplugin.a(gcc-support.o)
 .bss           0x0000000000000000        0x0 /home/jbrawley/Desktop/rockbox-photo-cf-support/build/apps/plugins/libplugin.a(gcc-support.o)
 .text.__div0   0x0000000000000000       0x14 /home/jbrawley/Desktop/rockbox-photo-cf-support/build/apps/plugins/libplugin.a(gcc-support.o)
 .text.memcpy   0x0000000000000000       0x14 /home/jbrawley/Desktop/rockbox-photo-cf-support/build/apps/plugins/libplugin.a(gcc-support.o)
 .text.memset   0x0000000000000000       0x14 /home/jbrawley/Desktop/rockbox-photo-cf-support/build/apps/plugins/libplugin.a(gcc-support.o)
 .text.memmove  0x0000000000000000       0x14 /home/jbrawley/Desktop/rockbox-photo-cf-support/build/apps/plugins/libplugin.a(gcc-support.o)
 .text          0x0000000000000000        0x0 /home/jbrawley/Desktop/rockbox-photo-cf-support/build/apps/plugins/libplugin.a(helper.o)
 .data          0x0000000000000000        0x0 /home/jbrawley/Desktop/rockbox-photo-cf-support/build/apps/plugins/libplugin.a(helper.o)
 .bss           0x0000000000000000        0x0 /home/jbrawley/Desktop/rockbox-photo-cf-support/build/apps/plugins/libplugin.a(helper.o)
 .text.talk_val
                0x0000000000000000       0x1c /home/jbrawley/Desktop/rockbox-photo-cf-support/build/apps/plugins/libplugin.a(helper.o)
 .text.backlight_force_on
                0x0000000000000000       0x34 /home/jbrawley/Desktop/rockbox-photo-cf-support/build/apps/plugins/libplugin.a(helper.o)
 .text.sw_poweroff_disable
                0x0000000000000000       0x3c /home/jbrawley/Desktop/rockbox-photo-cf-support/build/apps/plugins/libplugin.a(helper.o)
 .text.sw_poweroff_restore
                0x0000000000000000       0x20 /home/jbrawley/Desktop/rockbox-photo-cf-support/build/apps/plugins/libplugin.a(helper.o)
 .text.remote_backlight_force_on
                0x0000000000000000        0x4 /home/jbrawley/Desktop/rockbox-photo-cf-support/build/apps/plugins/libplugin.a(helper.o)
 .text.remote_backlight_ignore_timeout
                0x0000000000000000        0x4 /home/jbrawley/Desktop/rockbox-photo-cf-support/build/apps/plugins/libplugin.a(helper.o)
 .text.remote_backlight_use_settings
                0x0000000000000000        0x4 /home/jbrawley/Desktop/rockbox-photo-cf-support/build/apps/plugins/libplugin.a(helper.o)
 .text.buttonlight_force_on
                0x0000000000000000        0x4 /home/jbrawley/Desktop/rockbox-photo-cf-support/build/apps/plugins/libplugin.a(helper.o)
 .text.buttonlight_force_off
                0x0000000000000000        0x4 /home/jbrawley/Desktop/rockbox-photo-cf-support/build/apps/plugins/libplugin.a(helper.o)
 .text.buttonlight_ignore_timeout
                0x0000000000000000        0x4 /home/jbrawley/Desktop/rockbox-photo-cf-support/build/apps/plugins/libplugin.a(helper.o)
 .text.buttonlight_use_settings
                0x0000000000000000        0x4 /home/jbrawley/Desktop/rockbox-photo-cf-support/build/apps/plugins/libplugin.a(helper.o)
 .text.backlight_brightness_set
                0x0000000000000000       0x14 /home/jbrawley/Desktop/rockbox-photo-cf-support/build/apps/plugins/libplugin.a(helper.o)
 .text.backlight_brightness_use_setting
                0x0000000000000000       0x1c /home/jbrawley/Desktop/rockbox-photo-cf-support/build/apps/plugins/libplugin.a(helper.o)
 .text.buttonlight_brightness_set
                0x0000000000000000        0x4 /home/jbrawley/Desktop/rockbox-photo-cf-support/build/apps/plugins/libplugin.a(helper.o)
 .text.buttonlight_brightness_use_setting
                0x0000000000000000        0x4 /home/jbrawley/Desktop/rockbox-photo-cf-support/build/apps/plugins/libplugin.a(helper.o)
 .data.original_sw_poweroff_state
                0x0000000000000000        0x1 /home/jbrawley/Desktop/rockbox-photo-cf-support/build/apps/plugins/libplugin.a(helper.o)
 .text          0x0000000000000000        0x0 /home/jbrawley/Desktop/rockbox-photo-cf-support/build/apps/plugins/libplugin.a(highscore.o)
 .data          0x0000000000000000        0x0 /home/jbrawley/Desktop/rockbox-photo-cf-support/build/apps/plugins/libplugin.a(highscore.o)
 .bss           0x0000000000000000        0x0 /home/jbrawley/Desktop/rockbox-photo-cf-support/build/apps/plugins/libplugin.a(highscore.o)
 .text.highscore_show
                0x0000000000000000      0x32c /home/jbrawley/Desktop/rockbox-photo-cf-support/build/apps/plugins/libplugin.a(highscore.o)
 .text          0x0000000000000000        0x0 /home/jbrawley/Desktop/rockbox-photo-cf-support/build/apps/plugins/bitmaps/libpluginbitmaps.a(invadrox_fire.8x8x1.o)
 .data          0x0000000000000000        0x0 /home/jbrawley/Desktop/rockbox-photo-cf-support/build/apps/plugins/bitmaps/libpluginbitmaps.a(invadrox_fire.8x8x1.o)
 .bss           0x0000000000000000        0x0 /home/jbrawley/Desktop/rockbox-photo-cf-support/build/apps/plugins/bitmaps/libpluginbitmaps.a(invadrox_fire.8x8x1.o)
 .text          0x0000000000000000        0x0 /home/jbrawley/Desktop/rockbox-photo-cf-support/build/apps/plugins/bitmaps/libpluginbitmaps.a(invadrox_aliens.24x24x16.o)
 .data          0x0000000000000000        0x0 /home/jbrawley/Desktop/rockbox-photo-cf-support/build/apps/plugins/bitmaps/libpluginbitmaps.a(invadrox_aliens.24x24x16.o)
 .bss           0x0000000000000000        0x0 /home/jbrawley/Desktop/rockbox-photo-cf-support/build/apps/plugins/bitmaps/libpluginbitmaps.a(invadrox_aliens.24x24x16.o)
 .text          0x0000000000000000        0x0 /home/jbrawley/Desktop/rockbox-photo-cf-support/build/apps/plugins/bitmaps/libpluginbitmaps.a(invadrox_alien_explode.13x7x16.o)
 .data          0x0000000000000000        0x0 /home/jbrawley/Desktop/rockbox-photo-cf-support/build/apps/plugins/bitmaps/libpluginbitmaps.a(invadrox_alien_explode.13x7x16.o)
 .bss           0x0000000000000000        0x0 /home/jbrawley/Desktop/rockbox-photo-cf-support/build/apps/plugins/bitmaps/libpluginbitmaps.a(invadrox_alien_explode.13x7x16.o)
 .text          0x0000000000000000        0x0 /home/jbrawley/Desktop/rockbox-photo-cf-support/build/apps/plugins/bitmaps/libpluginbitmaps.a(invadrox_ships.16x24x16.o)
 .data          0x0000000000000000        0x0 /home/jbrawley/Desktop/rockbox-photo-cf-support/build/apps/plugins/bitmaps/libpluginbitmaps.a(invadrox_ships.16x24x16.o)
 .bss           0x0000000000000000        0x0 /home/jbrawley/Desktop/rockbox-photo-cf-support/build/apps/plugins/bitmaps/libpluginbitmaps.a(invadrox_ships.16x24x16.o)
 .text          0x0000000000000000        0x0 /home/jbrawley/Desktop/rockbox-photo-cf-support/build/apps/plugins/bitmaps/libpluginbitmaps.a(invadrox_bombs.9x42x16.o)
 .data          0x0000000000000000        0x0 /home/jbrawley/Desktop/rockbox-photo-cf-support/build/apps/plugins/bitmaps/libpluginbitmaps.a(invadrox_bombs.9x42x16.o)
 .bss           0x0000000000000000        0x0 /home/jbrawley/Desktop/rockbox-photo-cf-support/build/apps/plugins/bitmaps/libpluginbitmaps.a(invadrox_bombs.9x42x16.o)
 .text          0x0000000000000000        0x0 /home/jbrawley/Desktop/rockbox-photo-cf-support/build/apps/plugins/bitmaps/libpluginbitmaps.a(invadrox_shield.22x16x16.o)
 .data          0x0000000000000000        0x0 /home/jbrawley/Desktop/rockbox-photo-cf-support/build/apps/plugins/bitmaps/libpluginbitmaps.a(invadrox_shield.22x16x16.o)
 .bss           0x0000000000000000        0x0 /home/jbrawley/Desktop/rockbox-photo-cf-support/build/apps/plugins/bitmaps/libpluginbitmaps.a(invadrox_shield.22x16x16.o)
 .text          0x0000000000000000        0x0 /home/jbrawley/Desktop/rockbox-photo-cf-support/build/apps/plugins/bitmaps/libpluginbitmaps.a(invadrox_ufo.16x7x16.o)
 .data          0x0000000000000000        0x0 /home/jbrawley/Desktop/rockbox-photo-cf-support/build/apps/plugins/bitmaps/libpluginbitmaps.a(invadrox_ufo.16x7x16.o)
 .bss           0x0000000000000000        0x0 /home/jbrawley/Desktop/rockbox-photo-cf-support/build/apps/plugins/bitmaps/libpluginbitmaps.a(invadrox_ufo.16x7x16.o)
 .text          0x0000000000000000        0x0 /home/jbrawley/Desktop/rockbox-photo-cf-support/build/apps/plugins/bitmaps/libpluginbitmaps.a(invadrox_ufo_explode.21x8x16.o)
 .data          0x0000000000000000        0x0 /home/jbrawley/Desktop/rockbox-photo-cf-support/build/apps/plugins/bitmaps/libpluginbitmaps.a(invadrox_ufo_explode.21x8x16.o)
 .bss           0x0000000000000000        0x0 /home/jbrawley/Desktop/rockbox-photo-cf-support/build/apps/plugins/bitmaps/libpluginbitmaps.a(invadrox_ufo_explode.21x8x16.o)
 .text          0x0000000000000000        0x0 /home/jbrawley/Desktop/rockbox-photo-cf-support/build/apps/plugins/bitmaps/libpluginbitmaps.a(invadrox_numbers.50x7x16.o)
 .data          0x0000000000000000        0x0 /home/jbrawley/Desktop/rockbox-photo-cf-support/build/apps/plugins/bitmaps/libpluginbitmaps.a(invadrox_numbers.50x7x16.o)
 .bss           0x0000000000000000        0x0 /home/jbrawley/Desktop/rockbox-photo-cf-support/build/apps/plugins/bitmaps/libpluginbitmaps.a(invadrox_numbers.50x7x16.o)
 .text          0x0000000000000000        0x0 /home/jbrawley/Desktop/rockbox-photo-cf-support/build/apps/plugins/bitmaps/libpluginbitmaps.a(invadrox_background.220x176x16.o)
 .data          0x0000000000000000        0x0 /home/jbrawley/Desktop/rockbox-photo-cf-support/build/apps/plugins/bitmaps/libpluginbitmaps.a(invadrox_background.220x176x16.o)
 .bss           0x0000000000000000        0x0 /home/jbrawley/Desktop/rockbox-photo-cf-support/build/apps/plugins/bitmaps/libpluginbitmaps.a(invadrox_background.220x176x16.o)
 .data          0x0000000000000000        0x0 /home/jbrawley/Desktop/rockbox-photo-cf-support/build/lib/libsetjmp.a(setjmp.o)
 .bss           0x0000000000000000        0x0 /home/jbrawley/Desktop/rockbox-photo-cf-support/build/lib/libsetjmp.a(setjmp.o)
 .data          0x0000000000000000        0x0 /usr/local/lib/gcc/arm-elf-eabi/4.9.4/libgcc.a(_divsi3.o)
 .bss           0x0000000000000000        0x0 /usr/local/lib/gcc/arm-elf-eabi/4.9.4/libgcc.a(_divsi3.o)
 .data          0x0000000000000000        0x0 /usr/local/lib/gcc/arm-elf-eabi/4.9.4/libgcc.a(_dvmd_tls.o)
 .bss           0x0000000000000000        0x0 /usr/local/lib/gcc/arm-elf-eabi/4.9.4/libgcc.a(_dvmd_tls.o)

Memory Configuration

Name             Origin             Length             Attributes
PLUGIN_RAM       0x0000000001f80000 0x0000000000080000
PLUGIN_IRAM      0x000000004000c000 0x000000000000c000
*default*        0x0000000000000000 0xffffffffffffffff

Linker script and memory map

LOAD /home/jbrawley/Desktop/rockbox-photo-cf-support/build/apps/plugins/invadrox.o
LOAD /home/jbrawley/Desktop/rockbox-photo-cf-support/build/apps/plugins/plugin_crt0.o
LOAD /home/jbrawley/Desktop/rockbox-photo-cf-support/build/apps/plugins/libplugin.a
LOAD /home/jbrawley/Desktop/rockbox-photo-cf-support/build/apps/plugins/bitmaps/libpluginbitmaps.a
LOAD /home/jbrawley/Desktop/rockbox-photo-cf-support/build/lib/libsetjmp.a
LOAD /home/jbrawley/Desktop/rockbox-photo-cf-support/build/lib/libfixedpoint.a
LOAD /usr/local/lib/gcc/arm-elf-eabi/4.9.4/libgcc.a

.header         0x0000000001f80000       0x1c
                0x0000000001f80000                _plugin_start_addr = .
                0x0000000001f80000                plugin_start_addr = .
 *(.header)
 .header        0x0000000001f80000       0x1c /home/jbrawley/Desktop/rockbox-photo-cf-support/build/apps/plugins/plugin_crt0.o
                0x0000000001f80000                __header

.text           0x0000000001f8001c     0x243c
 *(.text*)
 .text          0x0000000001f8001c     0x1c84 /home/jbrawley/Desktop/rockbox-photo-cf-support/build/apps/plugins/invadrox.o
                0x0000000001f80894                plugin_start
 .text          0x0000000001f81ca0      0x214 /home/jbrawley/Desktop/rockbox-photo-cf-support/build/apps/plugins/plugin_crt0.o
                0x0000000001f81cb8                plugin__start
                0x0000000001f81e08                rb_atexit
                0x0000000001f81e28                exit
                0x0000000001f81e48                _exit
                0x0000000001f81e60                exit_on_usb
 .text.memcmp   0x0000000001f81eb4       0x14 /home/jbrawley/Desktop/rockbox-photo-cf-support/build/apps/plugins/libplugin.a(gcc-support.o)
                0x0000000001f81eb4                memcmp
 .text.backlight_ignore_timeout
                0x0000000001f81ec8       0x58 /home/jbrawley/Desktop/rockbox-photo-cf-support/build/apps/plugins/libplugin.a(helper.o)
                0x0000000001f81ec8                backlight_ignore_timeout
 .text.backlight_use_settings
                0x0000000001f81f20       0x3c /home/jbrawley/Desktop/rockbox-photo-cf-support/build/apps/plugins/libplugin.a(helper.o)
                0x0000000001f81f20                backlight_use_settings
 .text.highscore_save
                0x0000000001f81f5c      0x120 /home/jbrawley/Desktop/rockbox-photo-cf-support/build/apps/plugins/libplugin.a(highscore.o)
                0x0000000001f81f5c                highscore_save
 .text.highscore_load
                0x0000000001f8207c      0x17c /home/jbrawley/Desktop/rockbox-photo-cf-support/build/apps/plugins/libplugin.a(highscore.o)
                0x0000000001f8207c                highscore_load
 .text.highscore_would_update
                0x0000000001f821f8       0x2c /home/jbrawley/Desktop/rockbox-photo-cf-support/build/apps/plugins/libplugin.a(highscore.o)
                0x0000000001f821f8                highscore_would_update
 .text.highscore_update
                0x0000000001f82224       0xcc /home/jbrawley/Desktop/rockbox-photo-cf-support/build/apps/plugins/libplugin.a(highscore.o)
                0x0000000001f82224                highscore_update
 .text          0x0000000001f822f0       0x1c /home/jbrawley/Desktop/rockbox-photo-cf-support/build/lib/libsetjmp.a(setjmp.o)
                0x0000000001f822f0                setjmp
                0x0000000001f822fc                longjmp
 .text          0x0000000001f8230c      0x148 /usr/local/lib/gcc/arm-elf-eabi/4.9.4/libgcc.a(_divsi3.o)
                0x0000000001f8230c                __aeabi_idiv
                0x0000000001f8230c                __divsi3
                0x0000000001f82434                __aeabi_idivmod
 .text          0x0000000001f82454        0x4 /usr/local/lib/gcc/arm-elf-eabi/4.9.4/libgcc.a(_dvmd_tls.o)
                0x0000000001f82454                __aeabi_ldiv0
                0x0000000001f82454                __aeabi_idiv0
 *(.glue_7)
 .glue_7        0x0000000001f82458        0x0 linker stubs
 *(.glue_7t)
 .glue_7t       0x0000000001f82458        0x0 linker stubs

.vfp11_veneer   0x0000000001f82458        0x0
 .vfp11_veneer  0x0000000001f82458        0x0 linker stubs

.v4_bx          0x0000000001f82458        0x0
 .v4_bx         0x0000000001f82458        0x0 linker stubs

.iplt           0x0000000001f82458        0x0
 .iplt          0x0000000001f82458        0x0 /home/jbrawley/Desktop/rockbox-photo-cf-support/build/apps/plugins/invadrox.o

.rodata         0x0000000001f82458    0x142b4
 *(.rodata*)
 .rodata.str1.1
                0x0000000001f82458       0x3b /home/jbrawley/Desktop/rockbox-photo-cf-support/build/apps/plugins/invadrox.o
 .rodata.str1.1
                0x0000000001f82493       0x29 /home/jbrawley/Desktop/rockbox-photo-cf-support/build/apps/plugins/libplugin.a(highscore.o)
 .rodata        0x0000000001f824bc       0x20 /home/jbrawley/Desktop/rockbox-photo-cf-support/build/apps/plugins/bitmaps/libpluginbitmaps.a(invadrox_fire.8x8x1.o)
                0x0000000001f824bc                bm_invadrox_fire
                0x0000000001f824d4                invadrox_fire
 .rodata        0x0000000001f824dc      0x498 /home/jbrawley/Desktop/rockbox-photo-cf-support/build/apps/plugins/bitmaps/libpluginbitmaps.a(invadrox_aliens.24x24x16.o)
                0x0000000001f824dc                bm_invadrox_aliens
                0x0000000001f824f4                invadrox_aliens
 .rodata        0x0000000001f82974       0xce /home/jbrawley/Desktop/rockbox-photo-cf-support/build/apps/plugins/bitmaps/libpluginbitmaps.a(invadrox_alien_explode.13x7x16.o)
                0x0000000001f82974                bm_invadrox_alien_explode
                0x0000000001f8298c                invadrox_alien_explode
 *fill*         0x0000000001f82a42        0x2 
 .rodata        0x0000000001f82a44      0x318 /home/jbrawley/Desktop/rockbox-photo-cf-support/build/apps/plugins/bitmaps/libpluginbitmaps.a(invadrox_ships.16x24x16.o)
                0x0000000001f82a44                bm_invadrox_ships
                0x0000000001f82a5c                invadrox_ships
 .rodata        0x0000000001f82d5c      0x30c /home/jbrawley/Desktop/rockbox-photo-cf-support/build/apps/plugins/bitmaps/libpluginbitmaps.a(invadrox_bombs.9x42x16.o)
                0x0000000001f82d5c                bm_invadrox_bombs
                0x0000000001f82d74                invadrox_bombs
 .rodata        0x0000000001f83068      0x2d8 /home/jbrawley/Desktop/rockbox-photo-cf-support/build/apps/plugins/bitmaps/libpluginbitmaps.a(invadrox_shield.22x16x16.o)
                0x0000000001f83068                bm_invadrox_shield
                0x0000000001f83080                invadrox_shield
 .rodata        0x0000000001f83340       0xf8 /home/jbrawley/Desktop/rockbox-photo-cf-support/build/apps/plugins/bitmaps/libpluginbitmaps.a(invadrox_ufo.16x7x16.o)
                0x0000000001f83340                bm_invadrox_ufo
                0x0000000001f83358                invadrox_ufo
 .rodata        0x0000000001f83438      0x168 /home/jbrawley/Desktop/rockbox-photo-cf-support/build/apps/plugins/bitmaps/libpluginbitmaps.a(invadrox_ufo_explode.21x8x16.o)
                0x0000000001f83438                bm_invadrox_ufo_explode
                0x0000000001f83450                invadrox_ufo_explode
 .rodata        0x0000000001f835a0      0x2d4 /home/jbrawley/Desktop/rockbox-photo-cf-support/build/apps/plugins/bitmaps/libpluginbitmaps.a(invadrox_numbers.50x7x16.o)
                0x0000000001f835a0                bm_invadrox_numbers
                0x0000000001f835b8                invadrox_numbers
 .rodata        0x0000000001f83874    0x12e98 /home/jbrawley/Desktop/rockbox-photo-cf-support/build/apps/plugins/bitmaps/libpluginbitmaps.a(invadrox_background.220x176x16.o)
                0x0000000001f83874                bm_invadrox_background
                0x0000000001f8388c                invadrox_background

.rel.dyn        0x0000000001f9670c        0x0
 .rel.iplt      0x0000000001f9670c        0x0 /home/jbrawley/Desktop/rockbox-photo-cf-support/build/apps/plugins/invadrox.o

.data           0x0000000001f9670c       0x18
 *(.data*)
 .data          0x0000000001f9670c       0x14 /home/jbrawley/Desktop/rockbox-photo-cf-support/build/apps/plugins/invadrox.o
                0x0000000001f9670c                lives
                0x0000000001f96714                scores
 .data          0x0000000001f96720        0x4 /home/jbrawley/Desktop/rockbox-photo-cf-support/build/apps/plugins/plugin_crt0.o
                0x0000000001f96720                rb

.igot.plt       0x0000000001f96724        0x0
 .igot.plt      0x0000000001f96724        0x0 /home/jbrawley/Desktop/rockbox-photo-cf-support/build/apps/plugins/invadrox.o

.ncdata         0x0000000011f96724        0xc load address 0x0000000001f96724
                0x0000000011f96730                . = ALIGN (0x10)
 *fill*         0x0000000011f96724        0xc 
 *(.ncdata*)
                0x0000000011f96730                . = ALIGN (0x10)
                0x0000000001f96730                bssaddr = (. - 0x10000000)
                0x0000000001f96730                iramcopy = (. - 0x10000000)

/DISCARD/
 *(.eh_frame)

.bss            0x0000000001f96730      0x698
                0x0000000001f96730                plugin_bss_start = .
                0x0000000001f96730                _plugin_bss_start = .
 *(.bss*)
 .bss           0x0000000001f96730       0x19 /home/jbrawley/Desktop/rockbox-photo-cf-support/build/apps/plugins/invadrox.o
                0x0000000001f96730                score
                0x0000000001f96734                level
                0x0000000001f96748                game_over
 *fill*         0x0000000001f96749        0x3 
 .bss           0x0000000001f9674c       0x60 /home/jbrawley/Desktop/rockbox-photo-cf-support/build/apps/plugins/plugin_crt0.o
 .bss.highscore_updated
                0x0000000001f967ac        0x1 /home/jbrawley/Desktop/rockbox-photo-cf-support/build/apps/plugins/libplugin.a(highscore.o)
 *(COMMON)
 *fill*         0x0000000001f967ad        0x3 
 COMMON         0x0000000001f967b0      0x618 /home/jbrawley/Desktop/rockbox-photo-cf-support/build/apps/plugins/invadrox.o
                0x0000000001f967b0                aliens_right
                0x0000000001f967b4                ytab
                0x0000000001f96a74                screen_white
                0x0000000001f96a78                gamespeed
                0x0000000001f96a7c                ship_x
                0x0000000001f96a80                ufo_state
                0x0000000001f96a84                ufo_x
                0x0000000001f96a88                max_bombs
                0x0000000001f96a8c                fire_target
                0x0000000001f96a90                curr_alien
                0x0000000001f96a94                ship_hit
                0x0000000001f96a95                hit_right_border
                0x0000000001f96a96                hit_left_border
                0x0000000001f96a98                bombs
                0x0000000001f96ad8                ship_frame
                0x0000000001f96adc                old_ship_x
                0x0000000001f96ae0                hiscore
                0x0000000001f96b08                level_finished
                0x0000000001f96b0c                ship_acc
                0x0000000001f96b10                aliens
                0x0000000001f96da4                screen_green
                0x0000000001f96da8                aliens_paralyzed
                0x0000000001f96dac                fire_x
                0x0000000001f96db0                ship_frame_counter
                0x0000000001f96db4                ship_dir
                0x0000000001f96db8                aliens_down
                0x0000000001f96dbc                fire
                0x0000000001f96dc0                max_ship_speed
                0x0000000001f96dc4                fire_y
                0x0000000001f96dc8                . = ALIGN (0x4)

.ncbss          0x0000000011f96dc8        0x8 load address 0x0000000001f96dc8
                0x0000000011f96dd0                . = ALIGN (0x10)
 *fill*         0x0000000011f96dc8        0x8 
 *(.ncbss*)
                0x0000000011f96dd0                . = ALIGN (0x10)
                0x0000000001f96dd0                pluginendaddr = (. - 0x10000000)

.pluginend      0x0000000001f96dd0        0x0
                0x0000000001f96dd0                _plugin_end_addr = .
                0x0000000001f96dd0                plugin_end_addr = .

.iram           0x000000004000c000        0x0 load address 0x0000000001f96730
                0x000000004000c000                iramstart = .
 *(.icode)
 *(.irodata)
 *(.idata)
                0x000000004000c000                iramend = .

.ibss           0x000000004000c000        0x0
                0x000000004000c000                iedata = .
 *(.ibss)
                0x000000004000c000                . = ALIGN (0x4)
                0x000000004000c000                iend = .
                0x0000000001f96dd0                loadendaddr = MAX (plugin_end_addr, (LOADADDR (.iram) + SIZEOF (.iram)))

.pluginloadend  0x0000000001f96dd0        0x0
                0x0000000001f96dd0                _plugin_load_end_addr = .
                0x0000000001f96dd0                plugin_load_end_addr = .

.comment        0x0000000000000000       0x11
 *(.comment)
 .comment       0x0000000000000000       0x11 /home/jbrawley/Desktop/rockbox-photo-cf-support/build/apps/plugins/invadrox.o
                                         0x12 (size before relaxing)
 .comment       0x0000000000000011       0x12 /home/jbrawley/Desktop/rockbox-photo-cf-support/build/apps/plugins/plugin_crt0.o
 .comment       0x0000000000000011       0x12 /home/jbrawley/Desktop/rockbox-photo-cf-support/build/apps/plugins/libplugin.a(gcc-support.o)
 .comment       0x0000000000000011       0x12 /home/jbrawley/Desktop/rockbox-photo-cf-support/build/apps/plugins/libplugin.a(helper.o)
 .comment       0x0000000000000011       0x12 /home/jbrawley/Desktop/rockbox-photo-cf-support/build/apps/plugins/libplugin.a(highscore.o)
 .comment       0x0000000000000011       0x12 /home/jbrawley/Desktop/rockbox-photo-cf-support/build/apps/plugins/bitmaps/libpluginbitmaps.a(invadrox_fire.8x8x1.o)
 .comment       0x0000000000000011       0x12 /home/jbrawley/Desktop/rockbox-photo-cf-support/build/apps/plugins/bitmaps/libpluginbitmaps.a(invadrox_aliens.24x24x16.o)
 .comment       0x0000000000000011       0x12 /home/jbrawley/Desktop/rockbox-photo-cf-support/build/apps/plugins/bitmaps/libpluginbitmaps.a(invadrox_alien_explode.13x7x16.o)
 .comment       0x0000000000000011       0x12 /home/jbrawley/Desktop/rockbox-photo-cf-support/build/apps/plugins/bitmaps/libpluginbitmaps.a(invadrox_ships.16x24x16.o)
 .comment       0x0000000000000011       0x12 /home/jbrawley/Desktop/rockbox-photo-cf-support/build/apps/plugins/bitmaps/libpluginbitmaps.a(invadrox_bombs.9x42x16.o)
 .comment       0x0000000000000011       0x12 /home/jbrawley/Desktop/rockbox-photo-cf-support/build/apps/plugins/bitmaps/libpluginbitmaps.a(invadrox_shield.22x16x16.o)
 .comment       0x0000000000000011       0x12 /home/jbrawley/Desktop/rockbox-photo-cf-support/build/apps/plugins/bitmaps/libpluginbitmaps.a(invadrox_ufo.16x7x16.o)
 .comment       0x0000000000000011       0x12 /home/jbrawley/Desktop/rockbox-photo-cf-support/build/apps/plugins/bitmaps/libpluginbitmaps.a(invadrox_ufo_explode.21x8x16.o)
 .comment       0x0000000000000011       0x12 /home/jbrawley/Desktop/rockbox-photo-cf-support/build/apps/plugins/bitmaps/libpluginbitmaps.a(invadrox_numbers.50x7x16.o)
 .comment       0x0000000000000011       0x12 /home/jbrawley/Desktop/rockbox-photo-cf-support/build/apps/plugins/bitmaps/libpluginbitmaps.a(invadrox_background.220x176x16.o)
OUTPUT(/home/jbrawley/Desktop/rockbox-photo-cf-support/build/apps/plugins/invadrox.elf elf32-littlearm)

.ARM.attributes
                0x0000000000000000       0x2e
 .ARM.attributes
                0x0000000000000000       0x30 /home/jbrawley/Desktop/rockbox-photo-cf-support/build/apps/plugins/invadrox.o
 .ARM.attributes
                0x0000000000000030       0x30 /home/jbrawley/Desktop/rockbox-photo-cf-support/build/apps/plugins/plugin_crt0.o
 .ARM.attributes
                0x0000000000000060       0x30 /home/jbrawley/Desktop/rockbox-photo-cf-support/build/apps/plugins/libplugin.a(gcc-support.o)
 .ARM.attributes
                0x0000000000000090       0x30 /home/jbrawley/Desktop/rockbox-photo-cf-support/build/apps/plugins/libplugin.a(helper.o)
 .ARM.attributes
                0x00000000000000c0       0x30 /home/jbrawley/Desktop/rockbox-photo-cf-support/build/apps/plugins/libplugin.a(highscore.o)
 .ARM.attributes
                0x00000000000000f0       0x30 /home/jbrawley/Desktop/rockbox-photo-cf-support/build/apps/plugins/bitmaps/libpluginbitmaps.a(invadrox_fire.8x8x1.o)
 .ARM.attributes
                0x0000000000000120       0x30 /home/jbrawley/Desktop/rockbox-photo-cf-support/build/apps/plugins/bitmaps/libpluginbitmaps.a(invadrox_aliens.24x24x16.o)
 .ARM.attributes
                0x0000000000000150       0x30 /home/jbrawley/Desktop/rockbox-photo-cf-support/build/apps/plugins/bitmaps/libpluginbitmaps.a(invadrox_alien_explode.13x7x16.o)
 .ARM.attributes
                0x0000000000000180       0x30 /home/jbrawley/Desktop/rockbox-photo-cf-support/build/apps/plugins/bitmaps/libpluginbitmaps.a(invadrox_ships.16x24x16.o)
 .ARM.attributes
                0x00000000000001b0       0x30 /home/jbrawley/Desktop/rockbox-photo-cf-support/build/apps/plugins/bitmaps/libpluginbitmaps.a(invadrox_bombs.9x42x16.o)
 .ARM.attributes
                0x00000000000001e0       0x30 /home/jbrawley/Desktop/rockbox-photo-cf-support/build/apps/plugins/bitmaps/libpluginbitmaps.a(invadrox_shield.22x16x16.o)
 .ARM.attributes
                0x0000000000000210       0x30 /home/jbrawley/Desktop/rockbox-photo-cf-support/build/apps/plugins/bitmaps/libpluginbitmaps.a(invadrox_ufo.16x7x16.o)
 .ARM.attributes
                0x0000000000000240       0x30 /home/jbrawley/Desktop/rockbox-photo-cf-support/build/apps/plugins/bitmaps/libpluginbitmaps.a(invadrox_ufo_explode.21x8x16.o)
 .ARM.attributes
                0x0000000000000270       0x30 /home/jbrawley/Desktop/rockbox-photo-cf-support/build/apps/plugins/bitmaps/libpluginbitmaps.a(invadrox_numbers.50x7x16.o)
 .ARM.attributes
                0x00000000000002a0       0x30 /home/jbrawley/Desktop/rockbox-photo-cf-support/build/apps/plugins/bitmaps/libpluginbitmaps.a(invadrox_background.220x176x16.o)
 .ARM.attributes
                0x00000000000002d0       0x20 /home/jbrawley/Desktop/rockbox-photo-cf-support/build/lib/libsetjmp.a(setjmp.o)
 .ARM.attributes
                0x00000000000002f0       0x18 /usr/local/lib/gcc/arm-elf-eabi/4.9.4/libgcc.a(_divsi3.o)
 .ARM.attributes
                0x0000000000000308       0x18 /usr/local/lib/gcc/arm-elf-eabi/4.9.4/libgcc.a(_dvmd_tls.o)

.debug_frame    0x0000000000000000       0x20
 .debug_frame   0x0000000000000000       0x20 /usr/local/lib/gcc/arm-elf-eabi/4.9.4/libgcc.a(_divsi3.o)

.debug_line     0x0000000000000000       0xeb
 .debug_line    0x0000000000000000       0x8a /usr/local/lib/gcc/arm-elf-eabi/4.9.4/libgcc.a(_divsi3.o)
 .debug_line    0x000000000000008a       0x61 /usr/local/lib/gcc/arm-elf-eabi/4.9.4/libgcc.a(_dvmd_tls.o)

.debug_info     0x0000000000000000      0x110
 .debug_info    0x0000000000000000       0x88 /usr/local/lib/gcc/arm-elf-eabi/4.9.4/libgcc.a(_divsi3.o)
 .debug_info    0x0000000000000088       0x88 /usr/local/lib/gcc/arm-elf-eabi/4.9.4/libgcc.a(_dvmd_tls.o)

.debug_abbrev   0x0000000000000000       0x28
 .debug_abbrev  0x0000000000000000       0x14 /usr/local/lib/gcc/arm-elf-eabi/4.9.4/libgcc.a(_divsi3.o)
 .debug_abbrev  0x0000000000000014       0x14 /usr/local/lib/gcc/arm-elf-eabi/4.9.4/libgcc.a(_dvmd_tls.o)

.debug_aranges  0x0000000000000000       0x40
 .debug_aranges
                0x0000000000000000       0x20 /usr/local/lib/gcc/arm-elf-eabi/4.9.4/libgcc.a(_divsi3.o)
 .debug_aranges
                0x0000000000000020       0x20 /usr/local/lib/gcc/arm-elf-eabi/4.9.4/libgcc.a(_dvmd_tls.o)
