Archive member included to satisfy reference by file (symbol)

/home/jbrawley/Desktop/rockbox-photo-cf-support/build/lib/rbcodec/codecs/libspeex.a(bits.o)
                              /home/jbrawley/Desktop/rockbox-photo-cf-support/build/lib/rbcodec/codecs/speex.o (speex_bits_set_bit_buffer)
/home/jbrawley/Desktop/rockbox-photo-cf-support/build/lib/rbcodec/codecs/libspeex.a(modes.o)
                              /home/jbrawley/Desktop/rockbox-photo-cf-support/build/lib/rbcodec/codecs/speex.o (speex_nb_mode)
/home/jbrawley/Desktop/rockbox-photo-cf-support/build/lib/rbcodec/codecs/libspeex.a(modes_wb.o)
                              /home/jbrawley/Desktop/rockbox-photo-cf-support/build/lib/rbcodec/codecs/speex.o (speex_lib_get_mode)
/home/jbrawley/Desktop/rockbox-photo-cf-support/build/lib/rbcodec/codecs/libspeex.a(nb_celp.o)
                              /home/jbrawley/Desktop/rockbox-photo-cf-support/build/lib/rbcodec/codecs/libspeex.a(modes.o) (nb_decoder_init)
/home/jbrawley/Desktop/rockbox-photo-cf-support/build/lib/rbcodec/codecs/libspeex.a(quant_lsp.o)
                              /home/jbrawley/Desktop/rockbox-photo-cf-support/build/lib/rbcodec/codecs/libspeex.a(modes.o) (lsp_unquant_nb)
/home/jbrawley/Desktop/rockbox-photo-cf-support/build/lib/rbcodec/codecs/libspeex.a(sb_celp.o)
                              /home/jbrawley/Desktop/rockbox-photo-cf-support/build/lib/rbcodec/codecs/libspeex.a(modes_wb.o) (sb_decoder_init)
/home/jbrawley/Desktop/rockbox-photo-cf-support/build/lib/rbcodec/codecs/libspeex.a(speex.o)
                              /home/jbrawley/Desktop/rockbox-photo-cf-support/build/lib/rbcodec/codecs/speex.o (speex_decoder_init)
/home/jbrawley/Desktop/rockbox-photo-cf-support/build/lib/rbcodec/codecs/libspeex.a(speex_callbacks.o)
                              /home/jbrawley/Desktop/rockbox-photo-cf-support/build/lib/rbcodec/codecs/libspeex.a(nb_celp.o) (speex_inband_handler)
/home/jbrawley/Desktop/rockbox-photo-cf-support/build/lib/rbcodec/codecs/libspeex.a(oggframing.o)
                              /home/jbrawley/Desktop/rockbox-photo-cf-support/build/lib/rbcodec/codecs/speex.o (spx_ogg_page_granulepos)
/home/jbrawley/Desktop/rockbox-photo-cf-support/build/lib/rbcodec/codecs/libspeex.a(stereo.o)
                              /home/jbrawley/Desktop/rockbox-photo-cf-support/build/lib/rbcodec/codecs/speex.o (speex_stereo_state_init)
/home/jbrawley/Desktop/rockbox-photo-cf-support/build/lib/rbcodec/codecs/libspeex.a(speex_header.o)
                              /home/jbrawley/Desktop/rockbox-photo-cf-support/build/lib/rbcodec/codecs/speex.o (speex_packet_to_header)
/home/jbrawley/Desktop/rockbox-photo-cf-support/build/lib/rbcodec/codecs/libspeex.a(filters_arm4.o)
                              /home/jbrawley/Desktop/rockbox-photo-cf-support/build/lib/rbcodec/codecs/libspeex.a(nb_celp.o) (iir_mem16)
/home/jbrawley/Desktop/rockbox-photo-cf-support/build/lib/rbcodec/codecs/libspeex.a(cb_search.o)
                              /home/jbrawley/Desktop/rockbox-photo-cf-support/build/lib/rbcodec/codecs/libspeex.a(modes.o) (split_cb_shape_sign_unquant)
/home/jbrawley/Desktop/rockbox-photo-cf-support/build/lib/rbcodec/codecs/libspeex.a(exc_10_16_table.o)
                              /home/jbrawley/Desktop/rockbox-photo-cf-support/build/lib/rbcodec/codecs/libspeex.a(modes.o) (exc_10_16_table)
/home/jbrawley/Desktop/rockbox-photo-cf-support/build/lib/rbcodec/codecs/libspeex.a(exc_10_32_table.o)
                              /home/jbrawley/Desktop/rockbox-photo-cf-support/build/lib/rbcodec/codecs/libspeex.a(modes.o) (exc_10_32_table)
/home/jbrawley/Desktop/rockbox-photo-cf-support/build/lib/rbcodec/codecs/libspeex.a(exc_20_32_table.o)
                              /home/jbrawley/Desktop/rockbox-photo-cf-support/build/lib/rbcodec/codecs/libspeex.a(modes.o) (exc_20_32_table)
/home/jbrawley/Desktop/rockbox-photo-cf-support/build/lib/rbcodec/codecs/libspeex.a(exc_5_256_table.o)
                              /home/jbrawley/Desktop/rockbox-photo-cf-support/build/lib/rbcodec/codecs/libspeex.a(modes.o) (exc_5_256_table)
/home/jbrawley/Desktop/rockbox-photo-cf-support/build/lib/rbcodec/codecs/libspeex.a(exc_5_64_table.o)
                              /home/jbrawley/Desktop/rockbox-photo-cf-support/build/lib/rbcodec/codecs/libspeex.a(modes.o) (exc_5_64_table)
/home/jbrawley/Desktop/rockbox-photo-cf-support/build/lib/rbcodec/codecs/libspeex.a(exc_8_128_table.o)
                              /home/jbrawley/Desktop/rockbox-photo-cf-support/build/lib/rbcodec/codecs/libspeex.a(modes.o) (exc_8_128_table)
/home/jbrawley/Desktop/rockbox-photo-cf-support/build/lib/rbcodec/codecs/libspeex.a(filters.o)
                              /home/jbrawley/Desktop/rockbox-photo-cf-support/build/lib/rbcodec/codecs/libspeex.a(nb_celp.o) (bw_lpc)
/home/jbrawley/Desktop/rockbox-photo-cf-support/build/lib/rbcodec/codecs/libspeex.a(gain_table.o)
                              /home/jbrawley/Desktop/rockbox-photo-cf-support/build/lib/rbcodec/codecs/libspeex.a(modes.o) (gain_cdbk_nb)
/home/jbrawley/Desktop/rockbox-photo-cf-support/build/lib/rbcodec/codecs/libspeex.a(gain_table_lbr.o)
                              /home/jbrawley/Desktop/rockbox-photo-cf-support/build/lib/rbcodec/codecs/libspeex.a(modes.o) (gain_cdbk_lbr)
/home/jbrawley/Desktop/rockbox-photo-cf-support/build/lib/rbcodec/codecs/libspeex.a(hexc_10_32_table.o)
                              /home/jbrawley/Desktop/rockbox-photo-cf-support/build/lib/rbcodec/codecs/libspeex.a(modes_wb.o) (hexc_10_32_table)
/home/jbrawley/Desktop/rockbox-photo-cf-support/build/lib/rbcodec/codecs/libspeex.a(hexc_table.o)
                              /home/jbrawley/Desktop/rockbox-photo-cf-support/build/lib/rbcodec/codecs/libspeex.a(modes_wb.o) (hexc_table)
/home/jbrawley/Desktop/rockbox-photo-cf-support/build/lib/rbcodec/codecs/libspeex.a(high_lsp_tables.o)
                              /home/jbrawley/Desktop/rockbox-photo-cf-support/build/lib/rbcodec/codecs/libspeex.a(quant_lsp.o) (high_lsp_cdbk2)
/home/jbrawley/Desktop/rockbox-photo-cf-support/build/lib/rbcodec/codecs/libspeex.a(lsp.o)
                              /home/jbrawley/Desktop/rockbox-photo-cf-support/build/lib/rbcodec/codecs/libspeex.a(nb_celp.o) (lsp_to_lpc)
/home/jbrawley/Desktop/rockbox-photo-cf-support/build/lib/rbcodec/codecs/libspeex.a(lsp_tables_nb.o)
                              /home/jbrawley/Desktop/rockbox-photo-cf-support/build/lib/rbcodec/codecs/libspeex.a(quant_lsp.o) (cdbk_nb_high2)
/home/jbrawley/Desktop/rockbox-photo-cf-support/build/lib/rbcodec/codecs/libspeex.a(ltp.o)
                              /home/jbrawley/Desktop/rockbox-photo-cf-support/build/lib/rbcodec/codecs/libspeex.a(filters.o) (inner_prod)
/home/jbrawley/Desktop/rockbox-photo-cf-support/build/lib/rbcodec/codecs/libcodec.a(codeclib.o)
                              /home/jbrawley/Desktop/rockbox-photo-cf-support/build/lib/rbcodec/codecs/speex.o (codec_init)
/usr/local/lib/gcc/arm-elf-eabi/4.9.4/libgcc.a(_divsi3.o)
                              /home/jbrawley/Desktop/rockbox-photo-cf-support/build/lib/rbcodec/codecs/speex.o (__aeabi_idiv)
/usr/local/lib/gcc/arm-elf-eabi/4.9.4/libgcc.a(_dvmd_tls.o)
                              /usr/local/lib/gcc/arm-elf-eabi/4.9.4/libgcc.a(_divsi3.o) (__aeabi_idiv0)
/usr/local/lib/gcc/arm-elf-eabi/4.9.4/libgcc.a(_aeabi_ldivmod.o)
                              /home/jbrawley/Desktop/rockbox-photo-cf-support/build/lib/rbcodec/codecs/speex.o (__aeabi_ldivmod)
/usr/local/lib/gcc/arm-elf-eabi/4.9.4/libgcc.a(bpabi.o)
                              /usr/local/lib/gcc/arm-elf-eabi/4.9.4/libgcc.a(_aeabi_ldivmod.o) (__gnu_ldivmod_helper)
/usr/local/lib/gcc/arm-elf-eabi/4.9.4/libgcc.a(_divdi3.o)
                              /usr/local/lib/gcc/arm-elf-eabi/4.9.4/libgcc.a(bpabi.o) (__divdi3)
/usr/local/lib/gcc/arm-elf-eabi/4.9.4/libgcc.a(_udivdi3.o)
                              /usr/local/lib/gcc/arm-elf-eabi/4.9.4/libgcc.a(bpabi.o) (__udivdi3)
/usr/local/lib/gcc/arm-elf-eabi/4.9.4/libgcc.a(_clzdi2.o)
                              /usr/local/lib/gcc/arm-elf-eabi/4.9.4/libgcc.a(_divdi3.o) (__clzdi2)
/usr/local/lib/gcc/arm-elf-eabi/4.9.4/libgcc.a(_clzsi2.o)
                              /usr/local/lib/gcc/arm-elf-eabi/4.9.4/libgcc.a(_clzdi2.o) (__clzsi2)

Discarded input sections

 .data          0x0000000000000000        0x0 /home/jbrawley/Desktop/rockbox-photo-cf-support/build/lib/rbcodec/codecs/speex.o
 .bss           0x0000000000000000        0x0 /home/jbrawley/Desktop/rockbox-photo-cf-support/build/lib/rbcodec/codecs/speex.o
 .bss           0x0000000000000000        0x0 /home/jbrawley/Desktop/rockbox-photo-cf-support/build/lib/rbcodec/codecs/codec_crt0.o
 .data          0x0000000000000000        0x0 /home/jbrawley/Desktop/rockbox-photo-cf-support/build/lib/rbcodec/codecs/libspeex.a(bits.o)
 .bss           0x0000000000000000        0x0 /home/jbrawley/Desktop/rockbox-photo-cf-support/build/lib/rbcodec/codecs/libspeex.a(bits.o)
 .text          0x0000000000000000        0x8 /home/jbrawley/Desktop/rockbox-photo-cf-support/build/lib/rbcodec/codecs/libspeex.a(modes.o)
 .data          0x0000000000000000        0x0 /home/jbrawley/Desktop/rockbox-photo-cf-support/build/lib/rbcodec/codecs/libspeex.a(modes.o)
 .bss           0x0000000000000000        0x0 /home/jbrawley/Desktop/rockbox-photo-cf-support/build/lib/rbcodec/codecs/libspeex.a(modes.o)
 .data          0x0000000000000000        0x0 /home/jbrawley/Desktop/rockbox-photo-cf-support/build/lib/rbcodec/codecs/libspeex.a(modes_wb.o)
 .bss           0x0000000000000000        0x0 /home/jbrawley/Desktop/rockbox-photo-cf-support/build/lib/rbcodec/codecs/libspeex.a(modes_wb.o)
 .data          0x0000000000000000        0x0 /home/jbrawley/Desktop/rockbox-photo-cf-support/build/lib/rbcodec/codecs/libspeex.a(nb_celp.o)
 .bss           0x0000000000000000        0x0 /home/jbrawley/Desktop/rockbox-photo-cf-support/build/lib/rbcodec/codecs/libspeex.a(nb_celp.o)
 .data          0x0000000000000000        0x0 /home/jbrawley/Desktop/rockbox-photo-cf-support/build/lib/rbcodec/codecs/libspeex.a(quant_lsp.o)
 .bss           0x0000000000000000        0x0 /home/jbrawley/Desktop/rockbox-photo-cf-support/build/lib/rbcodec/codecs/libspeex.a(quant_lsp.o)
 .data          0x0000000000000000        0x0 /home/jbrawley/Desktop/rockbox-photo-cf-support/build/lib/rbcodec/codecs/libspeex.a(sb_celp.o)
 .bss           0x0000000000000000        0x0 /home/jbrawley/Desktop/rockbox-photo-cf-support/build/lib/rbcodec/codecs/libspeex.a(sb_celp.o)
 .data          0x0000000000000000        0x0 /home/jbrawley/Desktop/rockbox-photo-cf-support/build/lib/rbcodec/codecs/libspeex.a(speex.o)
 .bss           0x0000000000000000        0x0 /home/jbrawley/Desktop/rockbox-photo-cf-support/build/lib/rbcodec/codecs/libspeex.a(speex.o)
 .data          0x0000000000000000        0x0 /home/jbrawley/Desktop/rockbox-photo-cf-support/build/lib/rbcodec/codecs/libspeex.a(speex_callbacks.o)
 .bss           0x0000000000000000        0x0 /home/jbrawley/Desktop/rockbox-photo-cf-support/build/lib/rbcodec/codecs/libspeex.a(speex_callbacks.o)
 .data          0x0000000000000000        0x0 /home/jbrawley/Desktop/rockbox-photo-cf-support/build/lib/rbcodec/codecs/libspeex.a(oggframing.o)
 .bss           0x0000000000000000        0x0 /home/jbrawley/Desktop/rockbox-photo-cf-support/build/lib/rbcodec/codecs/libspeex.a(oggframing.o)
 .data          0x0000000000000000        0x0 /home/jbrawley/Desktop/rockbox-photo-cf-support/build/lib/rbcodec/codecs/libspeex.a(stereo.o)
 .data          0x0000000000000000        0x0 /home/jbrawley/Desktop/rockbox-photo-cf-support/build/lib/rbcodec/codecs/libspeex.a(speex_header.o)
 .data          0x0000000000000000        0x0 /home/jbrawley/Desktop/rockbox-photo-cf-support/build/lib/rbcodec/codecs/libspeex.a(filters_arm4.o)
 .bss           0x0000000000000000        0x0 /home/jbrawley/Desktop/rockbox-photo-cf-support/build/lib/rbcodec/codecs/libspeex.a(filters_arm4.o)
 .data          0x0000000000000000        0x0 /home/jbrawley/Desktop/rockbox-photo-cf-support/build/lib/rbcodec/codecs/libspeex.a(cb_search.o)
 .bss           0x0000000000000000        0x0 /home/jbrawley/Desktop/rockbox-photo-cf-support/build/lib/rbcodec/codecs/libspeex.a(cb_search.o)
 .text          0x0000000000000000        0x0 /home/jbrawley/Desktop/rockbox-photo-cf-support/build/lib/rbcodec/codecs/libspeex.a(exc_10_16_table.o)
 .data          0x0000000000000000        0x0 /home/jbrawley/Desktop/rockbox-photo-cf-support/build/lib/rbcodec/codecs/libspeex.a(exc_10_16_table.o)
 .bss           0x0000000000000000        0x0 /home/jbrawley/Desktop/rockbox-photo-cf-support/build/lib/rbcodec/codecs/libspeex.a(exc_10_16_table.o)
 .text          0x0000000000000000        0x0 /home/jbrawley/Desktop/rockbox-photo-cf-support/build/lib/rbcodec/codecs/libspeex.a(exc_10_32_table.o)
 .data          0x0000000000000000        0x0 /home/jbrawley/Desktop/rockbox-photo-cf-support/build/lib/rbcodec/codecs/libspeex.a(exc_10_32_table.o)
 .bss           0x0000000000000000        0x0 /home/jbrawley/Desktop/rockbox-photo-cf-support/build/lib/rbcodec/codecs/libspeex.a(exc_10_32_table.o)
 .text          0x0000000000000000        0x0 /home/jbrawley/Desktop/rockbox-photo-cf-support/build/lib/rbcodec/codecs/libspeex.a(exc_20_32_table.o)
 .data          0x0000000000000000        0x0 /home/jbrawley/Desktop/rockbox-photo-cf-support/build/lib/rbcodec/codecs/libspeex.a(exc_20_32_table.o)
 .bss           0x0000000000000000        0x0 /home/jbrawley/Desktop/rockbox-photo-cf-support/build/lib/rbcodec/codecs/libspeex.a(exc_20_32_table.o)
 .text          0x0000000000000000        0x0 /home/jbrawley/Desktop/rockbox-photo-cf-support/build/lib/rbcodec/codecs/libspeex.a(exc_5_256_table.o)
 .data          0x0000000000000000        0x0 /home/jbrawley/Desktop/rockbox-photo-cf-support/build/lib/rbcodec/codecs/libspeex.a(exc_5_256_table.o)
 .bss           0x0000000000000000        0x0 /home/jbrawley/Desktop/rockbox-photo-cf-support/build/lib/rbcodec/codecs/libspeex.a(exc_5_256_table.o)
 .text          0x0000000000000000        0x0 /home/jbrawley/Desktop/rockbox-photo-cf-support/build/lib/rbcodec/codecs/libspeex.a(exc_5_64_table.o)
 .data          0x0000000000000000        0x0 /home/jbrawley/Desktop/rockbox-photo-cf-support/build/lib/rbcodec/codecs/libspeex.a(exc_5_64_table.o)
 .bss           0x0000000000000000        0x0 /home/jbrawley/Desktop/rockbox-photo-cf-support/build/lib/rbcodec/codecs/libspeex.a(exc_5_64_table.o)
 .text          0x0000000000000000        0x0 /home/jbrawley/Desktop/rockbox-photo-cf-support/build/lib/rbcodec/codecs/libspeex.a(exc_8_128_table.o)
 .data          0x0000000000000000        0x0 /home/jbrawley/Desktop/rockbox-photo-cf-support/build/lib/rbcodec/codecs/libspeex.a(exc_8_128_table.o)
 .bss           0x0000000000000000        0x0 /home/jbrawley/Desktop/rockbox-photo-cf-support/build/lib/rbcodec/codecs/libspeex.a(exc_8_128_table.o)
 .data          0x0000000000000000        0x0 /home/jbrawley/Desktop/rockbox-photo-cf-support/build/lib/rbcodec/codecs/libspeex.a(filters.o)
 .bss           0x0000000000000000        0x0 /home/jbrawley/Desktop/rockbox-photo-cf-support/build/lib/rbcodec/codecs/libspeex.a(filters.o)
 .text          0x0000000000000000        0x0 /home/jbrawley/Desktop/rockbox-photo-cf-support/build/lib/rbcodec/codecs/libspeex.a(gain_table.o)
 .data          0x0000000000000000        0x0 /home/jbrawley/Desktop/rockbox-photo-cf-support/build/lib/rbcodec/codecs/libspeex.a(gain_table.o)
 .bss           0x0000000000000000        0x0 /home/jbrawley/Desktop/rockbox-photo-cf-support/build/lib/rbcodec/codecs/libspeex.a(gain_table.o)
 .text          0x0000000000000000        0x0 /home/jbrawley/Desktop/rockbox-photo-cf-support/build/lib/rbcodec/codecs/libspeex.a(gain_table_lbr.o)
 .data          0x0000000000000000        0x0 /home/jbrawley/Desktop/rockbox-photo-cf-support/build/lib/rbcodec/codecs/libspeex.a(gain_table_lbr.o)
 .bss           0x0000000000000000        0x0 /home/jbrawley/Desktop/rockbox-photo-cf-support/build/lib/rbcodec/codecs/libspeex.a(gain_table_lbr.o)
 .text          0x0000000000000000        0x0 /home/jbrawley/Desktop/rockbox-photo-cf-support/build/lib/rbcodec/codecs/libspeex.a(hexc_10_32_table.o)
 .data          0x0000000000000000        0x0 /home/jbrawley/Desktop/rockbox-photo-cf-support/build/lib/rbcodec/codecs/libspeex.a(hexc_10_32_table.o)
 .bss           0x0000000000000000        0x0 /home/jbrawley/Desktop/rockbox-photo-cf-support/build/lib/rbcodec/codecs/libspeex.a(hexc_10_32_table.o)
 .text          0x0000000000000000        0x0 /home/jbrawley/Desktop/rockbox-photo-cf-support/build/lib/rbcodec/codecs/libspeex.a(hexc_table.o)
 .data          0x0000000000000000        0x0 /home/jbrawley/Desktop/rockbox-photo-cf-support/build/lib/rbcodec/codecs/libspeex.a(hexc_table.o)
 .bss           0x0000000000000000        0x0 /home/jbrawley/Desktop/rockbox-photo-cf-support/build/lib/rbcodec/codecs/libspeex.a(hexc_table.o)
 .text          0x0000000000000000        0x0 /home/jbrawley/Desktop/rockbox-photo-cf-support/build/lib/rbcodec/codecs/libspeex.a(high_lsp_tables.o)
 .data          0x0000000000000000        0x0 /home/jbrawley/Desktop/rockbox-photo-cf-support/build/lib/rbcodec/codecs/libspeex.a(high_lsp_tables.o)
 .bss           0x0000000000000000        0x0 /home/jbrawley/Desktop/rockbox-photo-cf-support/build/lib/rbcodec/codecs/libspeex.a(high_lsp_tables.o)
 .data          0x0000000000000000        0x0 /home/jbrawley/Desktop/rockbox-photo-cf-support/build/lib/rbcodec/codecs/libspeex.a(lsp.o)
 .bss           0x0000000000000000        0x0 /home/jbrawley/Desktop/rockbox-photo-cf-support/build/lib/rbcodec/codecs/libspeex.a(lsp.o)
 .text          0x0000000000000000        0x0 /home/jbrawley/Desktop/rockbox-photo-cf-support/build/lib/rbcodec/codecs/libspeex.a(lsp_tables_nb.o)
 .data          0x0000000000000000        0x0 /home/jbrawley/Desktop/rockbox-photo-cf-support/build/lib/rbcodec/codecs/libspeex.a(lsp_tables_nb.o)
 .bss           0x0000000000000000        0x0 /home/jbrawley/Desktop/rockbox-photo-cf-support/build/lib/rbcodec/codecs/libspeex.a(lsp_tables_nb.o)
 .data          0x0000000000000000        0x0 /home/jbrawley/Desktop/rockbox-photo-cf-support/build/lib/rbcodec/codecs/libspeex.a(ltp.o)
 .bss           0x0000000000000000        0x0 /home/jbrawley/Desktop/rockbox-photo-cf-support/build/lib/rbcodec/codecs/libspeex.a(ltp.o)
 .text          0x0000000000000000        0x0 /home/jbrawley/Desktop/rockbox-photo-cf-support/build/lib/rbcodec/codecs/libcodec.a(codeclib.o)
 .data          0x0000000000000000        0x0 /home/jbrawley/Desktop/rockbox-photo-cf-support/build/lib/rbcodec/codecs/libcodec.a(codeclib.o)
 .text.codec_calloc
                0x0000000000000000       0x48 /home/jbrawley/Desktop/rockbox-photo-cf-support/build/lib/rbcodec/codecs/libcodec.a(codeclib.o)
 .text.codec_strlen
                0x0000000000000000       0x24 /home/jbrawley/Desktop/rockbox-photo-cf-support/build/lib/rbcodec/codecs/libcodec.a(codeclib.o)
 .text.strcpy   0x0000000000000000       0x24 /home/jbrawley/Desktop/rockbox-photo-cf-support/build/lib/rbcodec/codecs/libcodec.a(codeclib.o)
 .text.strcat   0x0000000000000000       0x24 /home/jbrawley/Desktop/rockbox-photo-cf-support/build/lib/rbcodec/codecs/libcodec.a(codeclib.o)
 .text.strcmp   0x0000000000000000       0x24 /home/jbrawley/Desktop/rockbox-photo-cf-support/build/lib/rbcodec/codecs/libcodec.a(codeclib.o)
 .text.qsort    0x0000000000000000       0x24 /home/jbrawley/Desktop/rockbox-photo-cf-support/build/lib/rbcodec/codecs/libcodec.a(codeclib.o)
 .irodata       0x0000000000000000      0x200 /home/jbrawley/Desktop/rockbox-photo-cf-support/build/lib/rbcodec/codecs/libcodec.a(codeclib.o)
 .data          0x0000000000000000        0x0 /usr/local/lib/gcc/arm-elf-eabi/4.9.4/libgcc.a(_divsi3.o)
 .bss           0x0000000000000000        0x0 /usr/local/lib/gcc/arm-elf-eabi/4.9.4/libgcc.a(_divsi3.o)
 .data          0x0000000000000000        0x0 /usr/local/lib/gcc/arm-elf-eabi/4.9.4/libgcc.a(_dvmd_tls.o)
 .bss           0x0000000000000000        0x0 /usr/local/lib/gcc/arm-elf-eabi/4.9.4/libgcc.a(_dvmd_tls.o)
 .data          0x0000000000000000        0x0 /usr/local/lib/gcc/arm-elf-eabi/4.9.4/libgcc.a(_aeabi_ldivmod.o)
 .bss           0x0000000000000000        0x0 /usr/local/lib/gcc/arm-elf-eabi/4.9.4/libgcc.a(_aeabi_ldivmod.o)
 .data          0x0000000000000000        0x0 /usr/local/lib/gcc/arm-elf-eabi/4.9.4/libgcc.a(bpabi.o)
 .bss           0x0000000000000000        0x0 /usr/local/lib/gcc/arm-elf-eabi/4.9.4/libgcc.a(bpabi.o)
 .data          0x0000000000000000        0x0 /usr/local/lib/gcc/arm-elf-eabi/4.9.4/libgcc.a(_divdi3.o)
 .bss           0x0000000000000000        0x0 /usr/local/lib/gcc/arm-elf-eabi/4.9.4/libgcc.a(_divdi3.o)
 .ARM.extab     0x0000000000000000        0x0 /usr/local/lib/gcc/arm-elf-eabi/4.9.4/libgcc.a(_divdi3.o)
 .data          0x0000000000000000        0x0 /usr/local/lib/gcc/arm-elf-eabi/4.9.4/libgcc.a(_udivdi3.o)
 .bss           0x0000000000000000        0x0 /usr/local/lib/gcc/arm-elf-eabi/4.9.4/libgcc.a(_udivdi3.o)
 .ARM.extab     0x0000000000000000        0x0 /usr/local/lib/gcc/arm-elf-eabi/4.9.4/libgcc.a(_udivdi3.o)
 .data          0x0000000000000000        0x0 /usr/local/lib/gcc/arm-elf-eabi/4.9.4/libgcc.a(_clzdi2.o)
 .bss           0x0000000000000000        0x0 /usr/local/lib/gcc/arm-elf-eabi/4.9.4/libgcc.a(_clzdi2.o)
 .data          0x0000000000000000        0x0 /usr/local/lib/gcc/arm-elf-eabi/4.9.4/libgcc.a(_clzsi2.o)
 .bss           0x0000000000000000        0x0 /usr/local/lib/gcc/arm-elf-eabi/4.9.4/libgcc.a(_clzsi2.o)

Memory Configuration

Name             Origin             Length             Attributes
PLUGIN_RAM       0x0000000001e80000 0x0000000000100000
PLUGIN_IRAM      0x000000004000c000 0x000000000000c000
*default*        0x0000000000000000 0xffffffffffffffff

Linker script and memory map

LOAD /home/jbrawley/Desktop/rockbox-photo-cf-support/build/lib/rbcodec/codecs/speex.o
LOAD /home/jbrawley/Desktop/rockbox-photo-cf-support/build/lib/rbcodec/codecs/codec_crt0.o
LOAD /home/jbrawley/Desktop/rockbox-photo-cf-support/build/lib/rbcodec/codecs/libspeex.a
LOAD /home/jbrawley/Desktop/rockbox-photo-cf-support/build/lib/rbcodec/codecs/libcodec.a
LOAD /home/jbrawley/Desktop/rockbox-photo-cf-support/build/lib/libfixedpoint.a
LOAD /usr/local/lib/gcc/arm-elf-eabi/4.9.4/libgcc.a

.header         0x0000000001e80000       0x20
                0x0000000001e80000                _plugin_start_addr = .
                0x0000000001e80000                plugin_start_addr = .
 *(.header)
 .header        0x0000000001e80000       0x20 /home/jbrawley/Desktop/rockbox-photo-cf-support/build/lib/rbcodec/codecs/speex.o
                0x0000000001e80000                __header

.text           0x0000000001e80020     0x84a0
 *(.text*)
 .text          0x0000000001e80020      0xbac /home/jbrawley/Desktop/rockbox-photo-cf-support/build/lib/rbcodec/codecs/speex.o
                0x0000000001e80070                codec_run
                0x0000000001e80bc4                codec_main
 .text.unlikely
                0x0000000001e80bcc       0xac /home/jbrawley/Desktop/rockbox-photo-cf-support/build/lib/rbcodec/codecs/speex.o
 .text          0x0000000001e80c78       0xec /home/jbrawley/Desktop/rockbox-photo-cf-support/build/lib/rbcodec/codecs/codec_crt0.o
                0x0000000001e80c78                _start
                0x0000000001e80c80                codec_start
                0x0000000001e80d50                __div0
 .text          0x0000000001e80d64      0x350 /home/jbrawley/Desktop/rockbox-photo-cf-support/build/lib/rbcodec/codecs/libspeex.a(bits.o)
                0x0000000001e80d64                speex_bits_set_bit_buffer
                0x0000000001e80d8c                speex_bits_destroy
                0x0000000001e80da8                speex_bits_read_from
                0x0000000001e80e44                speex_bits_read_whole_bytes
                0x0000000001e80f3c                speex_bits_unpack_unsigned
                0x0000000001e80fe4                speex_bits_peek
                0x0000000001e81038                speex_bits_advance
                0x0000000001e81090                speex_bits_remaining
 .text          0x0000000001e810b4       0x80 /home/jbrawley/Desktop/rockbox-photo-cf-support/build/lib/rbcodec/codecs/libspeex.a(modes_wb.o)
                0x0000000001e810b4                wb_mode_query
                0x0000000001e8111c                speex_lib_get_mode
 .text          0x0000000001e81134     0x1b9c /home/jbrawley/Desktop/rockbox-photo-cf-support/build/lib/rbcodec/codecs/libspeex.a(nb_celp.o)
                0x0000000001e81134                nb_decoder_init
                0x0000000001e81280                nb_decoder_destroy
                0x0000000001e81284                nb_decode
                0x0000000001e82860                nb_decoder_ctl
 .text          0x0000000001e82cd0      0x308 /home/jbrawley/Desktop/rockbox-photo-cf-support/build/lib/rbcodec/codecs/libspeex.a(quant_lsp.o)
                0x0000000001e82cd0                lsp_unquant_nb
                0x0000000001e82e28                lsp_unquant_lbr
                0x0000000001e82f0c                lsp_unquant_high
 .text          0x0000000001e82fd8     0x1270 /home/jbrawley/Desktop/rockbox-photo-cf-support/build/lib/rbcodec/codecs/libspeex.a(sb_celp.o)
                0x0000000001e8314c                sb_decoder_init
                0x0000000001e83240                sb_decoder_destroy
                0x0000000001e83254                sb_decode
                0x0000000001e83d38                sb_decoder_ctl
 .text          0x0000000001e84248      0x120 /home/jbrawley/Desktop/rockbox-photo-cf-support/build/lib/rbcodec/codecs/libspeex.a(speex.o)
                0x0000000001e84248                speex_decoder_init
                0x0000000001e84250                speex_decoder_destroy
                0x0000000001e8425c                speex_decode_native
                0x0000000001e84268                speex_decode_int
                0x0000000001e84274                speex_decoder_ctl
                0x0000000001e84280                nb_mode_query
                0x0000000001e842e4                speex_lib_ctl
 .text          0x0000000001e84368       0xc0 /home/jbrawley/Desktop/rockbox-photo-cf-support/build/lib/rbcodec/codecs/libspeex.a(speex_callbacks.o)
                0x0000000001e84368                speex_inband_handler
                0x0000000001e843fc                speex_default_user_handler
 .text          0x0000000001e84428     0x12e8 /home/jbrawley/Desktop/rockbox-photo-cf-support/build/lib/rbcodec/codecs/libspeex.a(oggframing.o)
                0x0000000001e845d4                spx_ogg_page_version
                0x0000000001e845e0                spx_ogg_page_continued
                0x0000000001e845f0                spx_ogg_page_bos
                0x0000000001e84600                spx_ogg_page_eos
                0x0000000001e84610                spx_ogg_page_granulepos
                0x0000000001e846e4                spx_ogg_page_serialno
                0x0000000001e8470c                spx_ogg_page_pageno
                0x0000000001e84734                spx_ogg_page_packets
                0x0000000001e84774                spx_ogg_stream_init
                0x0000000001e847dc                spx_ogg_stream_clear
                0x0000000001e84834                spx_ogg_stream_destroy
                0x0000000001e84864                spx_ogg_page_checksum_set
                0x0000000001e84938                spx_ogg_stream_packetin
                0x0000000001e84ad4                spx_ogg_stream_flush
                0x0000000001e84e08                spx_ogg_stream_pageout
                0x0000000001e84e78                spx_ogg_stream_eos
                0x0000000001e84e80                spx_ogg_sync_init
                0x0000000001e84eac                spx_ogg_sync_clear
                0x0000000001e84eec                spx_ogg_sync_destroy
                0x0000000001e84f1c                spx_ogg_alloc_buffer
                0x0000000001e84f68                spx_ogg_sync_buffer
                0x0000000001e85004                spx_ogg_sync_wrote
                0x0000000001e85020                spx_ogg_sync_pageseek
                0x0000000001e851f8                spx_ogg_sync_pageout
                0x0000000001e8524c                spx_ogg_stream_pagein
                0x0000000001e8560c                spx_ogg_sync_reset
                0x0000000001e8562c                spx_ogg_stream_reset
                0x0000000001e85680                spx_ogg_stream_reset_serialno
                0x0000000001e856d8                spx_ogg_stream_packetout
                0x0000000001e856e0                spx_ogg_stream_packetpeek
                0x0000000001e856e8                spx_ogg_packet_clear
 .text          0x0000000001e85710      0x444 /home/jbrawley/Desktop/rockbox-photo-cf-support/build/lib/rbcodec/codecs/libspeex.a(stereo.o)
                0x0000000001e85710                speex_stereo_state_init
                0x0000000001e85748                speex_stereo_state_reset
                0x0000000001e85778                speex_stereo_state_destroy
                0x0000000001e8577c                speex_decode_stereo_int
                0x0000000001e85a0c                speex_std_stereo_request_handler
 .text          0x0000000001e85b54       0x60 /home/jbrawley/Desktop/rockbox-photo-cf-support/build/lib/rbcodec/codecs/libspeex.a(speex_header.o)
                0x0000000001e85b54                speex_packet_to_header
 .text          0x0000000001e85bb4      0x3b0 /home/jbrawley/Desktop/rockbox-photo-cf-support/build/lib/rbcodec/codecs/libspeex.a(filters_arm4.o)
                0x0000000001e85bb4                iir_mem16
                0x0000000001e85d54                qmf_synth
                0x0000000001e85f1c                signal_mul
 .text          0x0000000001e85f64      0x1d0 /home/jbrawley/Desktop/rockbox-photo-cf-support/build/lib/rbcodec/codecs/libspeex.a(cb_search.o)
                0x0000000001e85f64                split_cb_shape_sign_unquant
                0x0000000001e860d4                noise_codebook_unquant
 .text          0x0000000001e86134      0xf30 /home/jbrawley/Desktop/rockbox-photo-cf-support/build/lib/rbcodec/codecs/libspeex.a(filters.o)
                0x0000000001e862f4                normalize16
                0x0000000001e86398                bw_lpc
                0x0000000001e863e4                sanitize_values32
                0x0000000001e86414                highpass
                0x0000000001e86514                compute_rms16
                0x0000000001e8682c                multicomb
 .text          0x0000000001e87064      0x774 /home/jbrawley/Desktop/rockbox-photo-cf-support/build/lib/rbcodec/codecs/libspeex.a(lsp.o)
                0x0000000001e87064                lsp_to_lpc
                0x0000000001e875c8                lsp_enforce_margin
                0x0000000001e87680                lsp_interpolate
 .text          0x0000000001e877d8      0x5dc /home/jbrawley/Desktop/rockbox-photo-cf-support/build/lib/rbcodec/codecs/libspeex.a(ltp.o)
                0x0000000001e877d8                inner_prod
                0x0000000001e87878                pitch_xcorr
                0x0000000001e879e4                pitch_unquant_3tap
                0x0000000001e87d3c                forced_pitch_unquant
 .text.codec_init
                0x0000000001e87db4       0x40 /home/jbrawley/Desktop/rockbox-photo-cf-support/build/lib/rbcodec/codecs/libcodec.a(codeclib.o)
                0x0000000001e87db4                codec_init
 .text.codec_set_replaygain
                0x0000000001e87df4       0x54 /home/jbrawley/Desktop/rockbox-photo-cf-support/build/lib/rbcodec/codecs/libcodec.a(codeclib.o)
                0x0000000001e87df4                codec_set_replaygain
 .text.codec_malloc
                0x0000000001e87e48       0x3c /home/jbrawley/Desktop/rockbox-photo-cf-support/build/lib/rbcodec/codecs/libcodec.a(codeclib.o)
                0x0000000001e87e48                codec_malloc
 .text.codec_free
                0x0000000001e87e84        0x4 /home/jbrawley/Desktop/rockbox-photo-cf-support/build/lib/rbcodec/codecs/libcodec.a(codeclib.o)
                0x0000000001e87e84                codec_free
 .text.codec_realloc
                0x0000000001e87e88       0x64 /home/jbrawley/Desktop/rockbox-photo-cf-support/build/lib/rbcodec/codecs/libcodec.a(codeclib.o)
                0x0000000001e87e88                codec_realloc
 .text.memcpy   0x0000000001e87eec       0x24 /home/jbrawley/Desktop/rockbox-photo-cf-support/build/lib/rbcodec/codecs/libcodec.a(codeclib.o)
                0x0000000001e87eec                memcpy
 .text.memset   0x0000000001e87f10       0x24 /home/jbrawley/Desktop/rockbox-photo-cf-support/build/lib/rbcodec/codecs/libcodec.a(codeclib.o)
                0x0000000001e87f10                memset
 .text.memcmp   0x0000000001e87f34       0x24 /home/jbrawley/Desktop/rockbox-photo-cf-support/build/lib/rbcodec/codecs/libcodec.a(codeclib.o)
                0x0000000001e87f34                memcmp
 .text.memchr   0x0000000001e87f58       0x24 /home/jbrawley/Desktop/rockbox-photo-cf-support/build/lib/rbcodec/codecs/libcodec.a(codeclib.o)
                0x0000000001e87f58                memchr
 .text.memmove  0x0000000001e87f7c       0x24 /home/jbrawley/Desktop/rockbox-photo-cf-support/build/lib/rbcodec/codecs/libcodec.a(codeclib.o)
                0x0000000001e87f7c                memmove
 .text          0x0000000001e87fa0      0x148 /usr/local/lib/gcc/arm-elf-eabi/4.9.4/libgcc.a(_divsi3.o)
                0x0000000001e87fa0                __aeabi_idiv
                0x0000000001e87fa0                __divsi3
                0x0000000001e880c8                __aeabi_idivmod
 .text          0x0000000001e880e8        0x4 /usr/local/lib/gcc/arm-elf-eabi/4.9.4/libgcc.a(_dvmd_tls.o)
                0x0000000001e880e8                __aeabi_ldiv0
                0x0000000001e880e8                __aeabi_idiv0
 .text          0x0000000001e880ec       0x48 /usr/local/lib/gcc/arm-elf-eabi/4.9.4/libgcc.a(_aeabi_ldivmod.o)
                0x0000000001e880ec                __aeabi_ldivmod
 .text          0x0000000001e88134       0x84 /usr/local/lib/gcc/arm-elf-eabi/4.9.4/libgcc.a(bpabi.o)
                0x0000000001e88134                __gnu_ldivmod_helper
                0x0000000001e88178                __gnu_uldivmod_helper
 .text          0x0000000001e881b8      0x178 /usr/local/lib/gcc/arm-elf-eabi/4.9.4/libgcc.a(_divdi3.o)
                0x0000000001e881b8                __divdi3
 .text          0x0000000001e88330      0x120 /usr/local/lib/gcc/arm-elf-eabi/4.9.4/libgcc.a(_udivdi3.o)
                0x0000000001e88330                __udivdi3
 .text          0x0000000001e88450       0x28 /usr/local/lib/gcc/arm-elf-eabi/4.9.4/libgcc.a(_clzdi2.o)
                0x0000000001e88450                __clzdi2
 .text          0x0000000001e88478       0x48 /usr/local/lib/gcc/arm-elf-eabi/4.9.4/libgcc.a(_clzsi2.o)
                0x0000000001e88478                __clzsi2
 *(.glue_7)
 .glue_7        0x0000000001e884c0        0x0 linker stubs
 *(.glue_7t)
 .glue_7t       0x0000000001e884c0        0x0 linker stubs

.vfp11_veneer   0x0000000001e884c0        0x0
 .vfp11_veneer  0x0000000001e884c0        0x0 linker stubs

.v4_bx          0x0000000001e884c0        0x0
 .v4_bx         0x0000000001e884c0        0x0 linker stubs

.iplt           0x0000000001e884c0        0x0
 .iplt          0x0000000001e884c0        0x0 /home/jbrawley/Desktop/rockbox-photo-cf-support/build/lib/rbcodec/codecs/speex.o

.rodata         0x0000000001e884c0      0xa6a
 *(.rodata*)
 .rodata        0x0000000001e884c0      0x318 /home/jbrawley/Desktop/rockbox-photo-cf-support/build/lib/rbcodec/codecs/libspeex.a(modes.o)
                0x0000000001e884c0                speex_nb_mode
 .rodata.str1.4
                0x0000000001e887d8        0xb /home/jbrawley/Desktop/rockbox-photo-cf-support/build/lib/rbcodec/codecs/libspeex.a(modes.o)
 *fill*         0x0000000001e887e3        0x1 
 .rodata        0x0000000001e887e4      0x28c /home/jbrawley/Desktop/rockbox-photo-cf-support/build/lib/rbcodec/codecs/libspeex.a(modes_wb.o)
                0x0000000001e887e4                speex_mode_list
                0x0000000001e887f0                speex_uwb_mode
                0x0000000001e888ac                speex_wb_mode
 .rodata.str1.4
                0x0000000001e88a70       0x39 /home/jbrawley/Desktop/rockbox-photo-cf-support/build/lib/rbcodec/codecs/libspeex.a(modes_wb.o)
 *fill*         0x0000000001e88aa9        0x3 
 .rodata        0x0000000001e88aac       0x24 /home/jbrawley/Desktop/rockbox-photo-cf-support/build/lib/rbcodec/codecs/libspeex.a(nb_celp.o)
                0x0000000001e88aac                attenuation
 .rodata.str1.4
                0x0000000001e88ad0       0x11 /home/jbrawley/Desktop/rockbox-photo-cf-support/build/lib/rbcodec/codecs/libspeex.a(speex.o)
 *fill*         0x0000000001e88ae1        0x3 
 .rodata        0x0000000001e88ae4      0x400 /home/jbrawley/Desktop/rockbox-photo-cf-support/build/lib/rbcodec/codecs/libspeex.a(oggframing.o)
 .rodata.str1.4
                0x0000000001e88ee4        0x5 /home/jbrawley/Desktop/rockbox-photo-cf-support/build/lib/rbcodec/codecs/libspeex.a(oggframing.o)
 *fill*         0x0000000001e88ee9        0x3 
 .rodata        0x0000000001e88eec        0x8 /home/jbrawley/Desktop/rockbox-photo-cf-support/build/lib/rbcodec/codecs/libspeex.a(stereo.o)
 .rodata.str1.4
                0x0000000001e88ef4        0xc /home/jbrawley/Desktop/rockbox-photo-cf-support/build/lib/rbcodec/codecs/libspeex.a(speex_header.o)
                                          0x9 (size before relaxing)
 .rodata        0x0000000001e88f00       0x2a /home/jbrawley/Desktop/rockbox-photo-cf-support/build/lib/rbcodec/codecs/libspeex.a(filters.o)

.ARM.exidx      0x0000000001e88f2c        0x8
 .ARM.exidx     0x0000000001e88f2c        0x8 /usr/local/lib/gcc/arm-elf-eabi/4.9.4/libgcc.a(_divdi3.o)
 .ARM.exidx     0x0000000001e88f34        0x0 /usr/local/lib/gcc/arm-elf-eabi/4.9.4/libgcc.a(_udivdi3.o)
                                          0x8 (size before relaxing)

.data           0x0000000001e88f34        0x4
 *(.data*)
 .data          0x0000000001e88f34        0x4 /home/jbrawley/Desktop/rockbox-photo-cf-support/build/lib/rbcodec/codecs/codec_crt0.o
                0x0000000001e88f34                ci

.igot.plt       0x0000000001e88f38        0x0
 .igot.plt      0x0000000001e88f38        0x0 /home/jbrawley/Desktop/rockbox-photo-cf-support/build/lib/rbcodec/codecs/speex.o

.ncdata         0x0000000011e88f38        0x8 load address 0x0000000001e88f38
                0x0000000011e88f40                . = ALIGN (0x10)
 *fill*         0x0000000011e88f38        0x8 
 *(.ncdata*)
                0x0000000011e88f40                . = ALIGN (0x10)
                0x0000000001e88f40                bssaddr = (. - 0x10000000)
                0x0000000001e88f40                iramcopy = (. - 0x10000000)

/DISCARD/
 *(.eh_frame)

.bss            0x0000000001e88f40       0x74
                0x0000000001e88f40                plugin_bss_start = .
                0x0000000001e88f40                _plugin_bss_start = .
 *(.bss*)
 .bss           0x0000000001e88f40       0x18 /home/jbrawley/Desktop/rockbox-photo-cf-support/build/lib/rbcodec/codecs/libspeex.a(stereo.o)
 .bss           0x0000000001e88f58       0x50 /home/jbrawley/Desktop/rockbox-photo-cf-support/build/lib/rbcodec/codecs/libspeex.a(speex_header.o)
 .bss           0x0000000001e88fa8        0xc /home/jbrawley/Desktop/rockbox-photo-cf-support/build/lib/rbcodec/codecs/libcodec.a(codeclib.o)
 *(COMMON)
                0x0000000001e88fb4                . = ALIGN (0x4)

.ncbss          0x0000000011e88fb4        0xc load address 0x0000000001e88fb4
                0x0000000011e88fc0                . = ALIGN (0x10)
 *fill*         0x0000000011e88fb4        0xc 
 *(.ncbss*)
                0x0000000011e88fc0                . = ALIGN (0x10)
                0x0000000001e88fc0                pluginendaddr = (. - 0x10000000)

.pluginend      0x0000000001e88fc0        0x0
                0x0000000001e88fc0                _plugin_end_addr = .
                0x0000000001e88fc0                plugin_end_addr = .

.iram           0x000000004000c000     0x2368 load address 0x0000000001e88f40
                0x000000004000c000                iramstart = .
 *(.icode)
 *(.irodata)
 .irodata       0x000000004000c000       0xa6 /home/jbrawley/Desktop/rockbox-photo-cf-support/build/lib/rbcodec/codecs/libspeex.a(nb_celp.o)
                0x000000004000c000                ol_gain_table
                0x000000004000c080                exc_gain_quant_scal3
                0x000000004000c090                exc_gain_quant_scal1
                0x000000004000c094                exc_gain_quant_scal1_bound
                0x000000004000c098                exc_gain_quant_scal3_bound
 *fill*         0x000000004000c0a6        0x2 
 .irodata       0x000000004000c0a8       0xa0 /home/jbrawley/Desktop/rockbox-photo-cf-support/build/lib/rbcodec/codecs/libspeex.a(sb_celp.o)
 .irodata       0x000000004000c148       0xa0 /home/jbrawley/Desktop/rockbox-photo-cf-support/build/lib/rbcodec/codecs/libspeex.a(exc_10_16_table.o)
                0x000000004000c148                exc_10_16_table
 .irodata       0x000000004000c1e8      0x140 /home/jbrawley/Desktop/rockbox-photo-cf-support/build/lib/rbcodec/codecs/libspeex.a(exc_10_32_table.o)
                0x000000004000c1e8                exc_10_32_table
 .irodata       0x000000004000c328      0x280 /home/jbrawley/Desktop/rockbox-photo-cf-support/build/lib/rbcodec/codecs/libspeex.a(exc_20_32_table.o)
                0x000000004000c328                exc_20_32_table
 .irodata       0x000000004000c5a8      0x500 /home/jbrawley/Desktop/rockbox-photo-cf-support/build/lib/rbcodec/codecs/libspeex.a(exc_5_256_table.o)
                0x000000004000c5a8                exc_5_256_table
 .irodata       0x000000004000caa8      0x140 /home/jbrawley/Desktop/rockbox-photo-cf-support/build/lib/rbcodec/codecs/libspeex.a(exc_5_64_table.o)
                0x000000004000caa8                exc_5_64_table
 .irodata       0x000000004000cbe8      0x400 /home/jbrawley/Desktop/rockbox-photo-cf-support/build/lib/rbcodec/codecs/libspeex.a(exc_8_128_table.o)
                0x000000004000cbe8                exc_8_128_table
 .irodata       0x000000004000cfe8       0x3e /home/jbrawley/Desktop/rockbox-photo-cf-support/build/lib/rbcodec/codecs/libspeex.a(filters.o)
 *fill*         0x000000004000d026        0x2 
 .irodata       0x000000004000d028      0x200 /home/jbrawley/Desktop/rockbox-photo-cf-support/build/lib/rbcodec/codecs/libspeex.a(gain_table.o)
                0x000000004000d028                gain_cdbk_nb
 .irodata       0x000000004000d228       0x80 /home/jbrawley/Desktop/rockbox-photo-cf-support/build/lib/rbcodec/codecs/libspeex.a(gain_table_lbr.o)
                0x000000004000d228                gain_cdbk_lbr
 .irodata       0x000000004000d2a8      0x140 /home/jbrawley/Desktop/rockbox-photo-cf-support/build/lib/rbcodec/codecs/libspeex.a(hexc_10_32_table.o)
                0x000000004000d2a8                hexc_10_32_table
 .irodata       0x000000004000d3e8      0x400 /home/jbrawley/Desktop/rockbox-photo-cf-support/build/lib/rbcodec/codecs/libspeex.a(hexc_table.o)
                0x000000004000d3e8                hexc_table
 .irodata       0x000000004000d7e8      0x400 /home/jbrawley/Desktop/rockbox-photo-cf-support/build/lib/rbcodec/codecs/libspeex.a(high_lsp_tables.o)
                0x000000004000d7e8                high_lsp_cdbk2
                0x000000004000d9e8                high_lsp_cdbk
 .irodata       0x000000004000dbe8      0x780 /home/jbrawley/Desktop/rockbox-photo-cf-support/build/lib/rbcodec/codecs/libspeex.a(lsp_tables_nb.o)
                0x000000004000dbe8                cdbk_nb_high2
                0x000000004000dd28                cdbk_nb_high1
                0x000000004000de68                cdbk_nb_low2
                0x000000004000dfa8                cdbk_nb_low1
                0x000000004000e0e8                cdbk_nb
 *(.idata)
                0x000000004000e368                iramend = .

.rel.dyn        0x000000004000e368        0x0 load address 0x0000000001e8b2a8
 .rel.iplt      0x000000004000e368        0x0 /home/jbrawley/Desktop/rockbox-photo-cf-support/build/lib/rbcodec/codecs/speex.o

.ibss           0x000000004000e368     0x14dc load address 0x0000000001e8b2a8
                0x000000004000e368                iedata = .
 *(.ibss)
 .ibss          0x000000004000e368      0xa00 /home/jbrawley/Desktop/rockbox-photo-cf-support/build/lib/rbcodec/codecs/speex.o
 .ibss          0x000000004000ed68      0x624 /home/jbrawley/Desktop/rockbox-photo-cf-support/build/lib/rbcodec/codecs/libspeex.a(nb_celp.o)
 .ibss          0x000000004000f38c      0x4b8 /home/jbrawley/Desktop/rockbox-photo-cf-support/build/lib/rbcodec/codecs/libspeex.a(sb_celp.o)
                0x000000004000f844                . = ALIGN (0x4)
                0x000000004000f844                iend = .
                0x0000000001e8b2a8                loadendaddr = MAX (plugin_end_addr, (LOADADDR (.iram) + SIZEOF (.iram)))

.pluginloadend  0x0000000001e8b2a8        0x0
                0x0000000001e8b2a8                _plugin_load_end_addr = .
                0x0000000001e8b2a8                plugin_load_end_addr = .

.comment        0x0000000000000000       0x11
 *(.comment)
 .comment       0x0000000000000000       0x11 /home/jbrawley/Desktop/rockbox-photo-cf-support/build/lib/rbcodec/codecs/speex.o
                                         0x12 (size before relaxing)
 .comment       0x0000000000000011       0x12 /home/jbrawley/Desktop/rockbox-photo-cf-support/build/lib/rbcodec/codecs/codec_crt0.o
 .comment       0x0000000000000011       0x12 /home/jbrawley/Desktop/rockbox-photo-cf-support/build/lib/rbcodec/codecs/libspeex.a(bits.o)
 .comment       0x0000000000000011       0x12 /home/jbrawley/Desktop/rockbox-photo-cf-support/build/lib/rbcodec/codecs/libspeex.a(modes.o)
 .comment       0x0000000000000011       0x12 /home/jbrawley/Desktop/rockbox-photo-cf-support/build/lib/rbcodec/codecs/libspeex.a(modes_wb.o)
 .comment       0x0000000000000011       0x12 /home/jbrawley/Desktop/rockbox-photo-cf-support/build/lib/rbcodec/codecs/libspeex.a(nb_celp.o)
 .comment       0x0000000000000011       0x12 /home/jbrawley/Desktop/rockbox-photo-cf-support/build/lib/rbcodec/codecs/libspeex.a(quant_lsp.o)
 .comment       0x0000000000000011       0x12 /home/jbrawley/Desktop/rockbox-photo-cf-support/build/lib/rbcodec/codecs/libspeex.a(sb_celp.o)
 .comment       0x0000000000000011       0x12 /home/jbrawley/Desktop/rockbox-photo-cf-support/build/lib/rbcodec/codecs/libspeex.a(speex.o)
 .comment       0x0000000000000011       0x12 /home/jbrawley/Desktop/rockbox-photo-cf-support/build/lib/rbcodec/codecs/libspeex.a(speex_callbacks.o)
 .comment       0x0000000000000011       0x12 /home/jbrawley/Desktop/rockbox-photo-cf-support/build/lib/rbcodec/codecs/libspeex.a(oggframing.o)
 .comment       0x0000000000000011       0x12 /home/jbrawley/Desktop/rockbox-photo-cf-support/build/lib/rbcodec/codecs/libspeex.a(stereo.o)
 .comment       0x0000000000000011       0x12 /home/jbrawley/Desktop/rockbox-photo-cf-support/build/lib/rbcodec/codecs/libspeex.a(speex_header.o)
 .comment       0x0000000000000011       0x12 /home/jbrawley/Desktop/rockbox-photo-cf-support/build/lib/rbcodec/codecs/libspeex.a(cb_search.o)
 .comment       0x0000000000000011       0x12 /home/jbrawley/Desktop/rockbox-photo-cf-support/build/lib/rbcodec/codecs/libspeex.a(exc_10_16_table.o)
 .comment       0x0000000000000011       0x12 /home/jbrawley/Desktop/rockbox-photo-cf-support/build/lib/rbcodec/codecs/libspeex.a(exc_10_32_table.o)
 .comment       0x0000000000000011       0x12 /home/jbrawley/Desktop/rockbox-photo-cf-support/build/lib/rbcodec/codecs/libspeex.a(exc_20_32_table.o)
 .comment       0x0000000000000011       0x12 /home/jbrawley/Desktop/rockbox-photo-cf-support/build/lib/rbcodec/codecs/libspeex.a(exc_5_256_table.o)
 .comment       0x0000000000000011       0x12 /home/jbrawley/Desktop/rockbox-photo-cf-support/build/lib/rbcodec/codecs/libspeex.a(exc_5_64_table.o)
 .comment       0x0000000000000011       0x12 /home/jbrawley/Desktop/rockbox-photo-cf-support/build/lib/rbcodec/codecs/libspeex.a(exc_8_128_table.o)
 .comment       0x0000000000000011       0x12 /home/jbrawley/Desktop/rockbox-photo-cf-support/build/lib/rbcodec/codecs/libspeex.a(filters.o)
 .comment       0x0000000000000011       0x12 /home/jbrawley/Desktop/rockbox-photo-cf-support/build/lib/rbcodec/codecs/libspeex.a(gain_table.o)
 .comment       0x0000000000000011       0x12 /home/jbrawley/Desktop/rockbox-photo-cf-support/build/lib/rbcodec/codecs/libspeex.a(gain_table_lbr.o)
 .comment       0x0000000000000011       0x12 /home/jbrawley/Desktop/rockbox-photo-cf-support/build/lib/rbcodec/codecs/libspeex.a(hexc_10_32_table.o)
 .comment       0x0000000000000011       0x12 /home/jbrawley/Desktop/rockbox-photo-cf-support/build/lib/rbcodec/codecs/libspeex.a(hexc_table.o)
 .comment       0x0000000000000011       0x12 /home/jbrawley/Desktop/rockbox-photo-cf-support/build/lib/rbcodec/codecs/libspeex.a(high_lsp_tables.o)
 .comment       0x0000000000000011       0x12 /home/jbrawley/Desktop/rockbox-photo-cf-support/build/lib/rbcodec/codecs/libspeex.a(lsp.o)
 .comment       0x0000000000000011       0x12 /home/jbrawley/Desktop/rockbox-photo-cf-support/build/lib/rbcodec/codecs/libspeex.a(lsp_tables_nb.o)
 .comment       0x0000000000000011       0x12 /home/jbrawley/Desktop/rockbox-photo-cf-support/build/lib/rbcodec/codecs/libspeex.a(ltp.o)
 .comment       0x0000000000000011       0x12 /home/jbrawley/Desktop/rockbox-photo-cf-support/build/lib/rbcodec/codecs/libcodec.a(codeclib.o)
 .comment       0x0000000000000011       0x12 /usr/local/lib/gcc/arm-elf-eabi/4.9.4/libgcc.a(bpabi.o)
 .comment       0x0000000000000011       0x12 /usr/local/lib/gcc/arm-elf-eabi/4.9.4/libgcc.a(_divdi3.o)
 .comment       0x0000000000000011       0x12 /usr/local/lib/gcc/arm-elf-eabi/4.9.4/libgcc.a(_udivdi3.o)
OUTPUT(/home/jbrawley/Desktop/rockbox-photo-cf-support/build/lib/rbcodec/codecs/speex.elf elf32-littlearm)

.ARM.attributes
                0x0000000000000000       0x2e
 .ARM.attributes
                0x0000000000000000       0x30 /home/jbrawley/Desktop/rockbox-photo-cf-support/build/lib/rbcodec/codecs/speex.o
 .ARM.attributes
                0x0000000000000030       0x30 /home/jbrawley/Desktop/rockbox-photo-cf-support/build/lib/rbcodec/codecs/codec_crt0.o
 .ARM.attributes
                0x0000000000000060       0x30 /home/jbrawley/Desktop/rockbox-photo-cf-support/build/lib/rbcodec/codecs/libspeex.a(bits.o)
 .ARM.attributes
                0x0000000000000090       0x30 /home/jbrawley/Desktop/rockbox-photo-cf-support/build/lib/rbcodec/codecs/libspeex.a(modes.o)
 .ARM.attributes
                0x00000000000000c0       0x30 /home/jbrawley/Desktop/rockbox-photo-cf-support/build/lib/rbcodec/codecs/libspeex.a(modes_wb.o)
 .ARM.attributes
                0x00000000000000f0       0x30 /home/jbrawley/Desktop/rockbox-photo-cf-support/build/lib/rbcodec/codecs/libspeex.a(nb_celp.o)
 .ARM.attributes
                0x0000000000000120       0x30 /home/jbrawley/Desktop/rockbox-photo-cf-support/build/lib/rbcodec/codecs/libspeex.a(quant_lsp.o)
 .ARM.attributes
                0x0000000000000150       0x30 /home/jbrawley/Desktop/rockbox-photo-cf-support/build/lib/rbcodec/codecs/libspeex.a(sb_celp.o)
 .ARM.attributes
                0x0000000000000180       0x30 /home/jbrawley/Desktop/rockbox-photo-cf-support/build/lib/rbcodec/codecs/libspeex.a(speex.o)
 .ARM.attributes
                0x00000000000001b0       0x30 /home/jbrawley/Desktop/rockbox-photo-cf-support/build/lib/rbcodec/codecs/libspeex.a(speex_callbacks.o)
 .ARM.attributes
                0x00000000000001e0       0x30 /home/jbrawley/Desktop/rockbox-photo-cf-support/build/lib/rbcodec/codecs/libspeex.a(oggframing.o)
 .ARM.attributes
                0x0000000000000210       0x30 /home/jbrawley/Desktop/rockbox-photo-cf-support/build/lib/rbcodec/codecs/libspeex.a(stereo.o)
 .ARM.attributes
                0x0000000000000240       0x30 /home/jbrawley/Desktop/rockbox-photo-cf-support/build/lib/rbcodec/codecs/libspeex.a(speex_header.o)
 .ARM.attributes
                0x0000000000000270       0x20 /home/jbrawley/Desktop/rockbox-photo-cf-support/build/lib/rbcodec/codecs/libspeex.a(filters_arm4.o)
 .ARM.attributes
                0x0000000000000290       0x30 /home/jbrawley/Desktop/rockbox-photo-cf-support/build/lib/rbcodec/codecs/libspeex.a(cb_search.o)
 .ARM.attributes
                0x00000000000002c0       0x30 /home/jbrawley/Desktop/rockbox-photo-cf-support/build/lib/rbcodec/codecs/libspeex.a(exc_10_16_table.o)
 .ARM.attributes
                0x00000000000002f0       0x30 /home/jbrawley/Desktop/rockbox-photo-cf-support/build/lib/rbcodec/codecs/libspeex.a(exc_10_32_table.o)
 .ARM.attributes
                0x0000000000000320       0x30 /home/jbrawley/Desktop/rockbox-photo-cf-support/build/lib/rbcodec/codecs/libspeex.a(exc_20_32_table.o)
 .ARM.attributes
                0x0000000000000350       0x30 /home/jbrawley/Desktop/rockbox-photo-cf-support/build/lib/rbcodec/codecs/libspeex.a(exc_5_256_table.o)
 .ARM.attributes
                0x0000000000000380       0x30 /home/jbrawley/Desktop/rockbox-photo-cf-support/build/lib/rbcodec/codecs/libspeex.a(exc_5_64_table.o)
 .ARM.attributes
                0x00000000000003b0       0x30 /home/jbrawley/Desktop/rockbox-photo-cf-support/build/lib/rbcodec/codecs/libspeex.a(exc_8_128_table.o)
 .ARM.attributes
                0x00000000000003e0       0x30 /home/jbrawley/Desktop/rockbox-photo-cf-support/build/lib/rbcodec/codecs/libspeex.a(filters.o)
 .ARM.attributes
                0x0000000000000410       0x30 /home/jbrawley/Desktop/rockbox-photo-cf-support/build/lib/rbcodec/codecs/libspeex.a(gain_table.o)
 .ARM.attributes
                0x0000000000000440       0x30 /home/jbrawley/Desktop/rockbox-photo-cf-support/build/lib/rbcodec/codecs/libspeex.a(gain_table_lbr.o)
 .ARM.attributes
                0x0000000000000470       0x30 /home/jbrawley/Desktop/rockbox-photo-cf-support/build/lib/rbcodec/codecs/libspeex.a(hexc_10_32_table.o)
 .ARM.attributes
                0x00000000000004a0       0x30 /home/jbrawley/Desktop/rockbox-photo-cf-support/build/lib/rbcodec/codecs/libspeex.a(hexc_table.o)
 .ARM.attributes
                0x00000000000004d0       0x30 /home/jbrawley/Desktop/rockbox-photo-cf-support/build/lib/rbcodec/codecs/libspeex.a(high_lsp_tables.o)
 .ARM.attributes
                0x0000000000000500       0x30 /home/jbrawley/Desktop/rockbox-photo-cf-support/build/lib/rbcodec/codecs/libspeex.a(lsp.o)
 .ARM.attributes
                0x0000000000000530       0x30 /home/jbrawley/Desktop/rockbox-photo-cf-support/build/lib/rbcodec/codecs/libspeex.a(lsp_tables_nb.o)
 .ARM.attributes
                0x0000000000000560       0x30 /home/jbrawley/Desktop/rockbox-photo-cf-support/build/lib/rbcodec/codecs/libspeex.a(ltp.o)
 .ARM.attributes
                0x0000000000000590       0x30 /home/jbrawley/Desktop/rockbox-photo-cf-support/build/lib/rbcodec/codecs/libcodec.a(codeclib.o)
 .ARM.attributes
                0x00000000000005c0       0x18 /usr/local/lib/gcc/arm-elf-eabi/4.9.4/libgcc.a(_divsi3.o)
 .ARM.attributes
                0x00000000000005d8       0x18 /usr/local/lib/gcc/arm-elf-eabi/4.9.4/libgcc.a(_dvmd_tls.o)
 .ARM.attributes
                0x00000000000005f0       0x18 /usr/local/lib/gcc/arm-elf-eabi/4.9.4/libgcc.a(_aeabi_ldivmod.o)
 .ARM.attributes
                0x0000000000000608       0x30 /usr/local/lib/gcc/arm-elf-eabi/4.9.4/libgcc.a(bpabi.o)
 .ARM.attributes
                0x0000000000000638       0x30 /usr/local/lib/gcc/arm-elf-eabi/4.9.4/libgcc.a(_divdi3.o)
 .ARM.attributes
                0x0000000000000668       0x30 /usr/local/lib/gcc/arm-elf-eabi/4.9.4/libgcc.a(_udivdi3.o)
 .ARM.attributes
                0x0000000000000698       0x18 /usr/local/lib/gcc/arm-elf-eabi/4.9.4/libgcc.a(_clzdi2.o)
 .ARM.attributes
                0x00000000000006b0       0x18 /usr/local/lib/gcc/arm-elf-eabi/4.9.4/libgcc.a(_clzsi2.o)

.debug_frame    0x0000000000000000      0x138
 .debug_frame   0x0000000000000000       0x20 /usr/local/lib/gcc/arm-elf-eabi/4.9.4/libgcc.a(_divsi3.o)
 .debug_frame   0x0000000000000020       0x28 /usr/local/lib/gcc/arm-elf-eabi/4.9.4/libgcc.a(_aeabi_ldivmod.o)
 .debug_frame   0x0000000000000048       0x68 /usr/local/lib/gcc/arm-elf-eabi/4.9.4/libgcc.a(bpabi.o)
 .debug_frame   0x00000000000000b0       0x48 /usr/local/lib/gcc/arm-elf-eabi/4.9.4/libgcc.a(_divdi3.o)
 .debug_frame   0x00000000000000f8       0x40 /usr/local/lib/gcc/arm-elf-eabi/4.9.4/libgcc.a(_udivdi3.o)

.debug_line     0x0000000000000000      0x3c4
 .debug_line    0x0000000000000000       0x8a /usr/local/lib/gcc/arm-elf-eabi/4.9.4/libgcc.a(_divsi3.o)
 .debug_line    0x000000000000008a       0x61 /usr/local/lib/gcc/arm-elf-eabi/4.9.4/libgcc.a(_dvmd_tls.o)
 .debug_line    0x00000000000000eb       0x65 /usr/local/lib/gcc/arm-elf-eabi/4.9.4/libgcc.a(_aeabi_ldivmod.o)
 .debug_line    0x0000000000000150       0x65 /usr/local/lib/gcc/arm-elf-eabi/4.9.4/libgcc.a(bpabi.o)
 .debug_line    0x00000000000001b5       0x9e /usr/local/lib/gcc/arm-elf-eabi/4.9.4/libgcc.a(_divdi3.o)
 .debug_line    0x0000000000000253       0x98 /usr/local/lib/gcc/arm-elf-eabi/4.9.4/libgcc.a(_udivdi3.o)
 .debug_line    0x00000000000002eb       0x6b /usr/local/lib/gcc/arm-elf-eabi/4.9.4/libgcc.a(_clzdi2.o)
 .debug_line    0x0000000000000356       0x6e /usr/local/lib/gcc/arm-elf-eabi/4.9.4/libgcc.a(_clzsi2.o)

.debug_info     0x0000000000000000      0x838
 .debug_info    0x0000000000000000       0x88 /usr/local/lib/gcc/arm-elf-eabi/4.9.4/libgcc.a(_divsi3.o)
 .debug_info    0x0000000000000088       0x88 /usr/local/lib/gcc/arm-elf-eabi/4.9.4/libgcc.a(_dvmd_tls.o)
 .debug_info    0x0000000000000110       0x84 /usr/local/lib/gcc/arm-elf-eabi/4.9.4/libgcc.a(_aeabi_ldivmod.o)
 .debug_info    0x0000000000000194      0x164 /usr/local/lib/gcc/arm-elf-eabi/4.9.4/libgcc.a(bpabi.o)
 .debug_info    0x00000000000002f8      0x269 /usr/local/lib/gcc/arm-elf-eabi/4.9.4/libgcc.a(_divdi3.o)
 .debug_info    0x0000000000000561      0x1c7 /usr/local/lib/gcc/arm-elf-eabi/4.9.4/libgcc.a(_udivdi3.o)
 .debug_info    0x0000000000000728       0x88 /usr/local/lib/gcc/arm-elf-eabi/4.9.4/libgcc.a(_clzdi2.o)
 .debug_info    0x00000000000007b0       0x88 /usr/local/lib/gcc/arm-elf-eabi/4.9.4/libgcc.a(_clzsi2.o)

.debug_abbrev   0x0000000000000000      0x305
 .debug_abbrev  0x0000000000000000       0x14 /usr/local/lib/gcc/arm-elf-eabi/4.9.4/libgcc.a(_divsi3.o)
 .debug_abbrev  0x0000000000000014       0x14 /usr/local/lib/gcc/arm-elf-eabi/4.9.4/libgcc.a(_dvmd_tls.o)
 .debug_abbrev  0x0000000000000028       0x14 /usr/local/lib/gcc/arm-elf-eabi/4.9.4/libgcc.a(_aeabi_ldivmod.o)
 .debug_abbrev  0x000000000000003c       0xb7 /usr/local/lib/gcc/arm-elf-eabi/4.9.4/libgcc.a(bpabi.o)
 .debug_abbrev  0x00000000000000f3      0x123 /usr/local/lib/gcc/arm-elf-eabi/4.9.4/libgcc.a(_divdi3.o)
 .debug_abbrev  0x0000000000000216       0xc7 /usr/local/lib/gcc/arm-elf-eabi/4.9.4/libgcc.a(_udivdi3.o)
 .debug_abbrev  0x00000000000002dd       0x14 /usr/local/lib/gcc/arm-elf-eabi/4.9.4/libgcc.a(_clzdi2.o)
 .debug_abbrev  0x00000000000002f1       0x14 /usr/local/lib/gcc/arm-elf-eabi/4.9.4/libgcc.a(_clzsi2.o)

.debug_aranges  0x0000000000000000      0x100
 .debug_aranges
                0x0000000000000000       0x20 /usr/local/lib/gcc/arm-elf-eabi/4.9.4/libgcc.a(_divsi3.o)
 .debug_aranges
                0x0000000000000020       0x20 /usr/local/lib/gcc/arm-elf-eabi/4.9.4/libgcc.a(_dvmd_tls.o)
 .debug_aranges
                0x0000000000000040       0x20 /usr/local/lib/gcc/arm-elf-eabi/4.9.4/libgcc.a(_aeabi_ldivmod.o)
 .debug_aranges
                0x0000000000000060       0x20 /usr/local/lib/gcc/arm-elf-eabi/4.9.4/libgcc.a(bpabi.o)
 .debug_aranges
                0x0000000000000080       0x20 /usr/local/lib/gcc/arm-elf-eabi/4.9.4/libgcc.a(_divdi3.o)
 .debug_aranges
                0x00000000000000a0       0x20 /usr/local/lib/gcc/arm-elf-eabi/4.9.4/libgcc.a(_udivdi3.o)
 .debug_aranges
                0x00000000000000c0       0x20 /usr/local/lib/gcc/arm-elf-eabi/4.9.4/libgcc.a(_clzdi2.o)
 .debug_aranges
                0x00000000000000e0       0x20 /usr/local/lib/gcc/arm-elf-eabi/4.9.4/libgcc.a(_clzsi2.o)

.debug_loc      0x0000000000000000      0x500
 .debug_loc     0x0000000000000000       0xa0 /usr/local/lib/gcc/arm-elf-eabi/4.9.4/libgcc.a(bpabi.o)
 .debug_loc     0x00000000000000a0      0x27d /usr/local/lib/gcc/arm-elf-eabi/4.9.4/libgcc.a(_divdi3.o)
 .debug_loc     0x000000000000031d      0x1e3 /usr/local/lib/gcc/arm-elf-eabi/4.9.4/libgcc.a(_udivdi3.o)

.debug_str      0x0000000000000000      0x287
 .debug_str     0x0000000000000000      0x152 /usr/local/lib/gcc/arm-elf-eabi/4.9.4/libgcc.a(bpabi.o)
 .debug_str     0x0000000000000152      0x135 /usr/local/lib/gcc/arm-elf-eabi/4.9.4/libgcc.a(_divdi3.o)
                                        0x1dd (size before relaxing)
 .debug_str     0x0000000000000287      0x1ba /usr/local/lib/gcc/arm-elf-eabi/4.9.4/libgcc.a(_udivdi3.o)

.debug_ranges   0x0000000000000000       0x18
 .debug_ranges  0x0000000000000000       0x18 /usr/local/lib/gcc/arm-elf-eabi/4.9.4/libgcc.a(_udivdi3.o)
