Archive member included to satisfy reference by file (symbol)

/home/jbrawley/Desktop/rockbox-photo-cf-support/build/apps/plugins/libplugin.a(gcc-support.o)
                              /home/jbrawley/Desktop/rockbox-photo-cf-support/build/apps/plugins/chessbox/gnuchess.o (memcpy)
/home/jbrawley/Desktop/rockbox-photo-cf-support/build/apps/plugins/libplugin.a(playback_control.o)
                              /home/jbrawley/Desktop/rockbox-photo-cf-support/build/apps/plugins/chessbox/chessbox.o (playback_control)
/home/jbrawley/Desktop/rockbox-photo-cf-support/build/apps/plugins/bitmaps/libpluginbitmaps.a(chessbox_pieces.176x176x16.o)
                              /home/jbrawley/Desktop/rockbox-photo-cf-support/build/apps/plugins/chessbox/chessbox.o (chessbox_pieces)
/home/jbrawley/Desktop/rockbox-photo-cf-support/build/lib/libsetjmp.a(setjmp.o)
                              /home/jbrawley/Desktop/rockbox-photo-cf-support/build/apps/plugins/plugin_crt0.o (setjmp)
/usr/local/lib/gcc/arm-elf-eabi/4.9.4/libgcc.a(_divsi3.o)
                              /home/jbrawley/Desktop/rockbox-photo-cf-support/build/apps/plugins/chessbox/gnuchess.o (__aeabi_idiv)
/usr/local/lib/gcc/arm-elf-eabi/4.9.4/libgcc.a(_dvmd_tls.o)
                              /usr/local/lib/gcc/arm-elf-eabi/4.9.4/libgcc.a(_divsi3.o) (__aeabi_idiv0)

Allocating common symbols
Common symbol       size              file

TCminutes           0x2               /home/jbrawley/Desktop/rockbox-photo-cf-support/build/apps/plugins/chessbox/gnuchess.o
xwndw               0x2               /home/jbrawley/Desktop/rockbox-photo-cf-support/build/apps/plugins/chessbox/gnuchess.o
HasKnight           0x4               /home/jbrawley/Desktop/rockbox-photo-cf-support/build/apps/plugins/chessbox/gnuchess.o
bking               0x2               /home/jbrawley/Desktop/rockbox-photo-cf-support/build/apps/plugins/chessbox/gnuchess.o
PWEAKH              0x2               /home/jbrawley/Desktop/rockbox-photo-cf-support/build/apps/plugins/chessbox/gnuchess.o
BishopBonus         0x2               /home/jbrawley/Desktop/rockbox-photo-cf-support/build/apps/plugins/chessbox/gnuchess.o
PrVar               0x3c              /home/jbrawley/Desktop/rockbox-photo-cf-support/build/apps/plugins/chessbox/gnuchess.o
Mwpawn              0x80              /home/jbrawley/Desktop/rockbox-photo-cf-support/build/apps/plugins/chessbox/gnuchess.o
emtl                0x4               /home/jbrawley/Desktop/rockbox-photo-cf-support/build/apps/plugins/chessbox/gnuchess.o
hashcode            0x1c00            /home/jbrawley/Desktop/rockbox-photo-cf-support/build/apps/plugins/chessbox/gnuchess.o
HasBishop           0x4               /home/jbrawley/Desktop/rockbox-photo-cf-support/build/apps/plugins/chessbox/gnuchess.o
Developed           0x4               /home/jbrawley/Desktop/rockbox-photo-cf-support/build/apps/plugins/chessbox/gnuchess.o
PBLOK               0x2               /home/jbrawley/Desktop/rockbox-photo-cf-support/build/apps/plugins/chessbox/gnuchess.o
TimeControl         0xc               /home/jbrawley/Desktop/rockbox-photo-cf-support/build/apps/plugins/chessbox/gnuchess.o
killr1              0x3c              /home/jbrawley/Desktop/rockbox-photo-cf-support/build/apps/plugins/chessbox/gnuchess.o
PDOUBLED            0x2               /home/jbrawley/Desktop/rockbox-photo-cf-support/build/apps/plugins/chessbox/gnuchess.o
reverse             0x2               /home/jbrawley/Desktop/rockbox-photo-cf-support/build/apps/plugins/chessbox/gnuchess.o
KHOPN               0x2               /home/jbrawley/Desktop/rockbox-photo-cf-support/build/apps/plugins/chessbox/gnuchess.o
mtl                 0x4               /home/jbrawley/Desktop/rockbox-photo-cf-support/build/apps/plugins/chessbox/gnuchess.o
KMOVD               0x2               /home/jbrawley/Desktop/rockbox-photo-cf-support/build/apps/plugins/chessbox/gnuchess.o
HasPawn             0x4               /home/jbrawley/Desktop/rockbox-photo-cf-support/build/apps/plugins/chessbox/gnuchess.o
PEDRNK2B            0x2               /home/jbrawley/Desktop/rockbox-photo-cf-support/build/apps/plugins/chessbox/gnuchess.o
EnemyKing           0x2               /home/jbrawley/Desktop/rockbox-photo-cf-support/build/apps/plugins/chessbox/gnuchess.o
quit                0x2               /home/jbrawley/Desktop/rockbox-photo-cf-support/build/apps/plugins/chessbox/gnuchess.o
hashflag            0x2               /home/jbrawley/Desktop/rockbox-photo-cf-support/build/apps/plugins/chessbox/gnuchess.o
INCscore            0x2               /home/jbrawley/Desktop/rockbox-photo-cf-support/build/apps/plugins/chessbox/gnuchess.o
Game50              0x2               /home/jbrawley/Desktop/rockbox-photo-cf-support/build/apps/plugins/chessbox/gnuchess.o
epsquare            0x2               /home/jbrawley/Desktop/rockbox-photo-cf-support/build/apps/plugins/chessbox/gnuchess.o
wking               0x2               /home/jbrawley/Desktop/rockbox-photo-cf-support/build/apps/plugins/chessbox/gnuchess.o
player              0x2               /home/jbrawley/Desktop/rockbox-photo-cf-support/build/apps/plugins/chessbox/gnuchess.o
HashCnt             0x4               /home/jbrawley/Desktop/rockbox-photo-cf-support/build/apps/plugins/chessbox/gnuchess.o
lpost               0x2               /home/jbrawley/Desktop/rockbox-photo-cf-support/build/apps/plugins/chessbox/gnuchess.o
ATAKD               0x2               /home/jbrawley/Desktop/rockbox-photo-cf-support/build/apps/plugins/chessbox/gnuchess.o
c2                  0x2               /home/jbrawley/Desktop/rockbox-photo-cf-support/build/apps/plugins/chessbox/gnuchess.o
board               0x80              /home/jbrawley/Desktop/rockbox-photo-cf-support/build/apps/plugins/chessbox/gnuchess.o
TOsquare            0x2               /home/jbrawley/Desktop/rockbox-photo-cf-support/build/apps/plugins/chessbox/gnuchess.o
BISHOPSTRONG        0x2               /home/jbrawley/Desktop/rockbox-photo-cf-support/build/apps/plugins/chessbox/gnuchess.o
locn                0x80              /home/jbrawley/Desktop/rockbox-photo-cf-support/build/apps/plugins/chessbox/gnuchess.o
Swag3               0x2               /home/jbrawley/Desktop/rockbox-photo-cf-support/build/apps/plugins/chessbox/gnuchess.o
rcptr               0x2               /home/jbrawley/Desktop/rockbox-photo-cf-support/build/apps/plugins/chessbox/gnuchess.o
EvalNodes           0x4               /home/jbrawley/Desktop/rockbox-photo-cf-support/build/apps/plugins/chessbox/gnuchess.o
Swag1               0x2               /home/jbrawley/Desktop/rockbox-photo-cf-support/build/apps/plugins/chessbox/gnuchess.o
PAWNSHIELD          0x2               /home/jbrawley/Desktop/rockbox-photo-cf-support/build/apps/plugins/chessbox/gnuchess.o
MaxSearchDepth      0x2               /home/jbrawley/Desktop/rockbox-photo-cf-support/build/apps/plugins/chessbox/gnuchess.o
evrate              0x4               /home/jbrawley/Desktop/rockbox-photo-cf-support/build/apps/plugins/chessbox/gnuchess.o
KNIGHTSTRONG        0x2               /home/jbrawley/Desktop/rockbox-photo-cf-support/build/apps/plugins/chessbox/gnuchess.o
OperatorTime        0x2               /home/jbrawley/Desktop/rockbox-photo-cf-support/build/apps/plugins/chessbox/gnuchess.o
castld              0x4               /home/jbrawley/Desktop/rockbox-photo-cf-support/build/apps/plugins/chessbox/gnuchess.o
Tscore              0x3c              /home/jbrawley/Desktop/rockbox-photo-cf-support/build/apps/plugins/chessbox/gnuchess.o
FROMsquare          0x2               /home/jbrawley/Desktop/rockbox-photo-cf-support/build/apps/plugins/chessbox/gnuchess.o
column              0x80              /home/jbrawley/Desktop/rockbox-photo-cf-support/build/apps/plugins/chessbox/gnuchess.o
ExtraTime           0x4               /home/jbrawley/Desktop/rockbox-photo-cf-support/build/apps/plugins/chessbox/gnuchess.o
Pindex              0x80              /home/jbrawley/Desktop/rockbox-photo-cf-support/build/apps/plugins/chessbox/gnuchess.o
Sdepth              0x2               /home/jbrawley/Desktop/rockbox-photo-cf-support/build/apps/plugins/chessbox/gnuchess.o
ChkFlag             0x3c              /home/jbrawley/Desktop/rockbox-photo-cf-support/build/apps/plugins/chessbox/gnuchess.o
KHOPNX              0x2               /home/jbrawley/Desktop/rockbox-photo-cf-support/build/apps/plugins/chessbox/gnuchess.o
kingmoved           0x4               /home/jbrawley/Desktop/rockbox-photo-cf-support/build/apps/plugins/chessbox/gnuchess.o
svalue              0x80              /home/jbrawley/Desktop/rockbox-photo-cf-support/build/apps/plugins/chessbox/gnuchess.o
CptrFlag            0x3c              /home/jbrawley/Desktop/rockbox-photo-cf-support/build/apps/plugins/chessbox/gnuchess.o
stage2              0x2               /home/jbrawley/Desktop/rockbox-photo-cf-support/build/apps/plugins/chessbox/gnuchess.o
ttable              0xc000            /home/jbrawley/Desktop/rockbox-photo-cf-support/build/apps/plugins/chessbox/gnuchess.o
HasQueen            0x4               /home/jbrawley/Desktop/rockbox-photo-cf-support/build/apps/plugins/chessbox/gnuchess.o
mvstr2              0x5               /home/jbrawley/Desktop/rockbox-photo-cf-support/build/apps/plugins/chessbox/gnuchess.o
opponent            0x2               /home/jbrawley/Desktop/rockbox-photo-cf-support/build/apps/plugins/chessbox/gnuchess.o
GameList            0x1000            /home/jbrawley/Desktop/rockbox-photo-cf-support/build/apps/plugins/chessbox/gnuchess.o
Mbpawn              0x80              /home/jbrawley/Desktop/rockbox-photo-cf-support/build/apps/plugins/chessbox/gnuchess.o
computer            0x2               /home/jbrawley/Desktop/rockbox-photo-cf-support/build/apps/plugins/chessbox/gnuchess.o
loghandler          0x4               /home/jbrawley/Desktop/rockbox-photo-cf-support/build/apps/plugins/chessbox/chessbox_pgn.o
KCASTLD             0x2               /home/jbrawley/Desktop/rockbox-photo-cf-support/build/apps/plugins/chessbox/gnuchess.o
stage               0x2               /home/jbrawley/Desktop/rockbox-photo-cf-support/build/apps/plugins/chessbox/gnuchess.o
GameCnt             0x1               /home/jbrawley/Desktop/rockbox-photo-cf-support/build/apps/plugins/chessbox/gnuchess.o
force               0x2               /home/jbrawley/Desktop/rockbox-photo-cf-support/build/apps/plugins/chessbox/gnuchess.o
Bwindow             0x2               /home/jbrawley/Desktop/rockbox-photo-cf-support/build/apps/plugins/chessbox/gnuchess.o
TCmoves             0x2               /home/jbrawley/Desktop/rockbox-photo-cf-support/build/apps/plugins/chessbox/gnuchess.o
history             0x2000            /home/jbrawley/Desktop/rockbox-photo-cf-support/build/apps/plugins/chessbox/gnuchess.o
PawnStorm           0x2               /home/jbrawley/Desktop/rockbox-photo-cf-support/build/apps/plugins/chessbox/gnuchess.o
Tree                0x3a98            /home/jbrawley/Desktop/rockbox-photo-cf-support/build/apps/plugins/chessbox/gnuchess.o
dither              0x2               /home/jbrawley/Desktop/rockbox-photo-cf-support/build/apps/plugins/chessbox/gnuchess.o
NodeCnt             0x4               /home/jbrawley/Desktop/rockbox-photo-cf-support/build/apps/plugins/chessbox/gnuchess.o
atak                0x100             /home/jbrawley/Desktop/rockbox-photo-cf-support/build/apps/plugins/chessbox/gnuchess.o
easy                0x2               /home/jbrawley/Desktop/rockbox-photo-cf-support/build/apps/plugins/chessbox/gnuchess.o
PawnCnt             0x20              /home/jbrawley/Desktop/rockbox-photo-cf-support/build/apps/plugins/chessbox/gnuchess.o
TCflag              0x2               /home/jbrawley/Desktop/rockbox-photo-cf-support/build/apps/plugins/chessbox/gnuchess.o
mvstr3              0x6               /home/jbrawley/Desktop/rockbox-photo-cf-support/build/apps/plugins/chessbox/gnuchess.o
c1                  0x2               /home/jbrawley/Desktop/rockbox-photo-cf-support/build/apps/plugins/chessbox/gnuchess.o
atk2                0x4               /home/jbrawley/Desktop/rockbox-photo-cf-support/build/apps/plugins/chessbox/gnuchess.o
killr0              0x3c              /home/jbrawley/Desktop/rockbox-photo-cf-support/build/apps/plugins/chessbox/gnuchess.o
ptbl                0x4               /home/jbrawley/Desktop/rockbox-photo-cf-support/build/apps/plugins/chessbox/gnuchess.o
ft                  0x4               /home/jbrawley/Desktop/rockbox-photo-cf-support/build/apps/plugins/chessbox/gnuchess.o
RHOPNX              0x2               /home/jbrawley/Desktop/rockbox-photo-cf-support/build/apps/plugins/chessbox/gnuchess.o
KNIGHTPOST          0x2               /home/jbrawley/Desktop/rockbox-photo-cf-support/build/apps/plugins/chessbox/gnuchess.o
root                0x4               /home/jbrawley/Desktop/rockbox-photo-cf-support/build/apps/plugins/chessbox/gnuchess.o
pmtl                0x4               /home/jbrawley/Desktop/rockbox-photo-cf-support/build/apps/plugins/chessbox/gnuchess.o
RookBonus           0x2               /home/jbrawley/Desktop/rockbox-photo-cf-support/build/apps/plugins/chessbox/gnuchess.o
cputimer            0x4               /home/jbrawley/Desktop/rockbox-photo-cf-support/build/apps/plugins/chessbox/gnuchess.o
TrPnt               0x3c              /home/jbrawley/Desktop/rockbox-photo-cf-support/build/apps/plugins/chessbox/gnuchess.o
hashkey             0x2               /home/jbrawley/Desktop/rockbox-photo-cf-support/build/apps/plugins/chessbox/gnuchess.o
zwndw               0x2               /home/jbrawley/Desktop/rockbox-photo-cf-support/build/apps/plugins/chessbox/gnuchess.o
PieceCnt            0x4               /home/jbrawley/Desktop/rockbox-photo-cf-support/build/apps/plugins/chessbox/gnuchess.o
KSFTY               0x2               /home/jbrawley/Desktop/rockbox-photo-cf-support/build/apps/plugins/chessbox/gnuchess.o
PC2                 0x4               /home/jbrawley/Desktop/rockbox-photo-cf-support/build/apps/plugins/chessbox/gnuchess.o
RHOPN               0x2               /home/jbrawley/Desktop/rockbox-photo-cf-support/build/apps/plugins/chessbox/gnuchess.o
PV                  0x2               /home/jbrawley/Desktop/rockbox-photo-cf-support/build/apps/plugins/chessbox/gnuchess.o
PawnBonus           0x2               /home/jbrawley/Desktop/rockbox-photo-cf-support/build/apps/plugins/chessbox/gnuchess.o
killr3              0x3c              /home/jbrawley/Desktop/rockbox-photo-cf-support/build/apps/plugins/chessbox/gnuchess.o
bufleft             0x4               /home/jbrawley/Desktop/rockbox-photo-cf-support/build/apps/plugins/chessbox/chessbox_pgn.o
timeout             0x2               /home/jbrawley/Desktop/rockbox-photo-cf-support/build/apps/plugins/chessbox/gnuchess.o
Swag0               0x2               /home/jbrawley/Desktop/rockbox-photo-cf-support/build/apps/plugins/chessbox/gnuchess.o
KATAK               0x2               /home/jbrawley/Desktop/rockbox-photo-cf-support/build/apps/plugins/chessbox/gnuchess.o
mvstr1              0x5               /home/jbrawley/Desktop/rockbox-photo-cf-support/build/apps/plugins/chessbox/gnuchess.o
KBNKsq              0x2               /home/jbrawley/Desktop/rockbox-photo-cf-support/build/apps/plugins/chessbox/gnuchess.o
HasRook             0x4               /home/jbrawley/Desktop/rockbox-photo-cf-support/build/apps/plugins/chessbox/gnuchess.o
color               0x80              /home/jbrawley/Desktop/rockbox-photo-cf-support/build/apps/plugins/chessbox/gnuchess.o
HUNGX               0x2               /home/jbrawley/Desktop/rockbox-photo-cf-support/build/apps/plugins/chessbox/gnuchess.o
PADVNCM             0x2               /home/jbrawley/Desktop/rockbox-photo-cf-support/build/apps/plugins/chessbox/gnuchess.o
Mbishop             0x100             /home/jbrawley/Desktop/rockbox-photo-cf-support/build/apps/plugins/chessbox/gnuchess.o
hung                0x4               /home/jbrawley/Desktop/rockbox-photo-cf-support/build/apps/plugins/chessbox/gnuchess.o
time0               0x4               /home/jbrawley/Desktop/rockbox-photo-cf-support/build/apps/plugins/chessbox/gnuchess.o
ResponseTime        0x4               /home/jbrawley/Desktop/rockbox-photo-cf-support/build/apps/plugins/chessbox/gnuchess.o
Xscore              0x2               /home/jbrawley/Desktop/rockbox-photo-cf-support/build/apps/plugins/chessbox/gnuchess.o
killr2              0x3c              /home/jbrawley/Desktop/rockbox-photo-cf-support/build/apps/plugins/chessbox/gnuchess.o
XRAY                0x2               /home/jbrawley/Desktop/rockbox-photo-cf-support/build/apps/plugins/chessbox/gnuchess.o
et                  0x4               /home/jbrawley/Desktop/rockbox-photo-cf-support/build/apps/plugins/chessbox/gnuchess.o
Awindow             0x2               /home/jbrawley/Desktop/rockbox-photo-cf-support/build/apps/plugins/chessbox/gnuchess.o
et0                 0x4               /home/jbrawley/Desktop/rockbox-photo-cf-support/build/apps/plugins/chessbox/gnuchess.o
ETnodes             0x4               /home/jbrawley/Desktop/rockbox-photo-cf-support/build/apps/plugins/chessbox/gnuchess.o
contempt            0x2               /home/jbrawley/Desktop/rockbox-photo-cf-support/build/apps/plugins/chessbox/gnuchess.o
Zbmtl               0x2               /home/jbrawley/Desktop/rockbox-photo-cf-support/build/apps/plugins/chessbox/gnuchess.o
post                0x2               /home/jbrawley/Desktop/rockbox-photo-cf-support/build/apps/plugins/chessbox/gnuchess.o
slk                 0x2               /home/jbrawley/Desktop/rockbox-photo-cf-support/build/apps/plugins/chessbox/gnuchess.o
beep                0x2               /home/jbrawley/Desktop/rockbox-photo-cf-support/build/apps/plugins/chessbox/gnuchess.o
Zscore              0x2               /home/jbrawley/Desktop/rockbox-photo-cf-support/build/apps/plugins/chessbox/gnuchess.o
Pscore              0x3c              /home/jbrawley/Desktop/rockbox-photo-cf-support/build/apps/plugins/chessbox/gnuchess.o
hashbd              0x4               /home/jbrawley/Desktop/rockbox-photo-cf-support/build/apps/plugins/chessbox/gnuchess.o
Level               0x4               /home/jbrawley/Desktop/rockbox-photo-cf-support/build/apps/plugins/chessbox/gnuchess.o
Threat              0x3c              /home/jbrawley/Desktop/rockbox-photo-cf-support/build/apps/plugins/chessbox/gnuchess.o
PINVAL              0x2               /home/jbrawley/Desktop/rockbox-photo-cf-support/build/apps/plugins/chessbox/gnuchess.o
PieceList           0x40              /home/jbrawley/Desktop/rockbox-photo-cf-support/build/apps/plugins/chessbox/gnuchess.o
withbook            0x1               /home/jbrawley/Desktop/rockbox-photo-cf-support/build/apps/plugins/chessbox/gnuchess.o
PawnThreat          0x3c              /home/jbrawley/Desktop/rockbox-photo-cf-support/build/apps/plugins/chessbox/gnuchess.o
InChk               0x2               /home/jbrawley/Desktop/rockbox-photo-cf-support/build/apps/plugins/chessbox/gnuchess.o
bothsides           0x2               /home/jbrawley/Desktop/rockbox-photo-cf-support/build/apps/plugins/chessbox/gnuchess.o
atk1                0x4               /home/jbrawley/Desktop/rockbox-photo-cf-support/build/apps/plugins/chessbox/gnuchess.o
Mking               0x100             /home/jbrawley/Desktop/rockbox-photo-cf-support/build/apps/plugins/chessbox/gnuchess.o
PADVNCI             0x2               /home/jbrawley/Desktop/rockbox-photo-cf-support/build/apps/plugins/chessbox/gnuchess.o
PC1                 0x4               /home/jbrawley/Desktop/rockbox-photo-cf-support/build/apps/plugins/chessbox/gnuchess.o
Kfield              0x100             /home/jbrawley/Desktop/rockbox-photo-cf-support/build/apps/plugins/chessbox/gnuchess.o
Swag4               0x2               /home/jbrawley/Desktop/rockbox-photo-cf-support/build/apps/plugins/chessbox/gnuchess.o
Zwmtl               0x2               /home/jbrawley/Desktop/rockbox-photo-cf-support/build/apps/plugins/chessbox/gnuchess.o
plugin_mode         0x2               /home/jbrawley/Desktop/rockbox-photo-cf-support/build/apps/plugins/chessbox/chessbox.o
mate                0x2               /home/jbrawley/Desktop/rockbox-photo-cf-support/build/apps/plugins/chessbox/gnuchess.o
hint                0x2               /home/jbrawley/Desktop/rockbox-photo-cf-support/build/apps/plugins/chessbox/gnuchess.o
HUNGP               0x2               /home/jbrawley/Desktop/rockbox-photo-cf-support/build/apps/plugins/chessbox/gnuchess.o
row                 0x80              /home/jbrawley/Desktop/rockbox-photo-cf-support/build/apps/plugins/chessbox/gnuchess.o
Mknight             0x100             /home/jbrawley/Desktop/rockbox-photo-cf-support/build/apps/plugins/chessbox/gnuchess.o
Swag2               0x2               /home/jbrawley/Desktop/rockbox-photo-cf-support/build/apps/plugins/chessbox/gnuchess.o

Discarded input sections

 COMMON         0x0000000000000000        0x2 /home/jbrawley/Desktop/rockbox-photo-cf-support/build/apps/plugins/chessbox/chessbox.o
 .text          0x0000000000000000        0x0 /home/jbrawley/Desktop/rockbox-photo-cf-support/build/apps/plugins/chessbox/opening.o
 .bss           0x0000000000000000        0x0 /home/jbrawley/Desktop/rockbox-photo-cf-support/build/apps/plugins/chessbox/opening.o
 .text          0x0000000000000000        0x0 /home/jbrawley/Desktop/rockbox-photo-cf-support/build/apps/plugins/libplugin.a(gcc-support.o)
 .data          0x0000000000000000        0x0 /home/jbrawley/Desktop/rockbox-photo-cf-support/build/apps/plugins/libplugin.a(gcc-support.o)
 .bss           0x0000000000000000        0x0 /home/jbrawley/Desktop/rockbox-photo-cf-support/build/apps/plugins/libplugin.a(gcc-support.o)
 .text.__div0   0x0000000000000000       0x14 /home/jbrawley/Desktop/rockbox-photo-cf-support/build/apps/plugins/libplugin.a(gcc-support.o)
 .text.memset   0x0000000000000000       0x14 /home/jbrawley/Desktop/rockbox-photo-cf-support/build/apps/plugins/libplugin.a(gcc-support.o)
 .text.memmove  0x0000000000000000       0x14 /home/jbrawley/Desktop/rockbox-photo-cf-support/build/apps/plugins/libplugin.a(gcc-support.o)
 .text.memcmp   0x0000000000000000       0x14 /home/jbrawley/Desktop/rockbox-photo-cf-support/build/apps/plugins/libplugin.a(gcc-support.o)
 .text          0x0000000000000000        0x0 /home/jbrawley/Desktop/rockbox-photo-cf-support/build/apps/plugins/libplugin.a(playback_control.o)
 .data          0x0000000000000000        0x0 /home/jbrawley/Desktop/rockbox-photo-cf-support/build/apps/plugins/libplugin.a(playback_control.o)
 .bss           0x0000000000000000        0x0 /home/jbrawley/Desktop/rockbox-photo-cf-support/build/apps/plugins/libplugin.a(playback_control.o)
 .text.playback_control_init
                0x0000000000000000       0x10 /home/jbrawley/Desktop/rockbox-photo-cf-support/build/apps/plugins/libplugin.a(playback_control.o)
 .text          0x0000000000000000        0x0 /home/jbrawley/Desktop/rockbox-photo-cf-support/build/apps/plugins/bitmaps/libpluginbitmaps.a(chessbox_pieces.176x176x16.o)
 .data          0x0000000000000000        0x0 /home/jbrawley/Desktop/rockbox-photo-cf-support/build/apps/plugins/bitmaps/libpluginbitmaps.a(chessbox_pieces.176x176x16.o)
 .bss           0x0000000000000000        0x0 /home/jbrawley/Desktop/rockbox-photo-cf-support/build/apps/plugins/bitmaps/libpluginbitmaps.a(chessbox_pieces.176x176x16.o)
 .data          0x0000000000000000        0x0 /home/jbrawley/Desktop/rockbox-photo-cf-support/build/lib/libsetjmp.a(setjmp.o)
 .bss           0x0000000000000000        0x0 /home/jbrawley/Desktop/rockbox-photo-cf-support/build/lib/libsetjmp.a(setjmp.o)
 .data          0x0000000000000000        0x0 /usr/local/lib/gcc/arm-elf-eabi/4.9.4/libgcc.a(_divsi3.o)
 .bss           0x0000000000000000        0x0 /usr/local/lib/gcc/arm-elf-eabi/4.9.4/libgcc.a(_divsi3.o)
 .data          0x0000000000000000        0x0 /usr/local/lib/gcc/arm-elf-eabi/4.9.4/libgcc.a(_dvmd_tls.o)
 .bss           0x0000000000000000        0x0 /usr/local/lib/gcc/arm-elf-eabi/4.9.4/libgcc.a(_dvmd_tls.o)

Memory Configuration

Name             Origin             Length             Attributes
PLUGIN_RAM       0x0000000001f80000 0x0000000000080000
PLUGIN_IRAM      0x000000004000c000 0x000000000000c000
*default*        0x0000000000000000 0xffffffffffffffff

Linker script and memory map

LOAD /home/jbrawley/Desktop/rockbox-photo-cf-support/build/apps/plugins/chessbox/chessbox.o
LOAD /home/jbrawley/Desktop/rockbox-photo-cf-support/build/apps/plugins/chessbox/gnuchess.o
LOAD /home/jbrawley/Desktop/rockbox-photo-cf-support/build/apps/plugins/chessbox/opening.o
LOAD /home/jbrawley/Desktop/rockbox-photo-cf-support/build/apps/plugins/chessbox/chessbox_pgn.o
LOAD /home/jbrawley/Desktop/rockbox-photo-cf-support/build/apps/plugins/plugin_crt0.o
LOAD /home/jbrawley/Desktop/rockbox-photo-cf-support/build/apps/plugins/libplugin.a
LOAD /home/jbrawley/Desktop/rockbox-photo-cf-support/build/apps/plugins/bitmaps/libpluginbitmaps.a
LOAD /home/jbrawley/Desktop/rockbox-photo-cf-support/build/lib/libsetjmp.a
LOAD /home/jbrawley/Desktop/rockbox-photo-cf-support/build/lib/libfixedpoint.a
LOAD /usr/local/lib/gcc/arm-elf-eabi/4.9.4/libgcc.a

.header         0x0000000001f80000       0x1c
                0x0000000001f80000                _plugin_start_addr = .
                0x0000000001f80000                plugin_start_addr = .
 *(.header)
 .header        0x0000000001f80000       0x1c /home/jbrawley/Desktop/rockbox-photo-cf-support/build/apps/plugins/plugin_crt0.o
                0x0000000001f80000                __header

.text           0x0000000001f8001c     0xddac
 *(.text*)
 .text          0x0000000001f8001c     0x2464 /home/jbrawley/Desktop/rockbox-photo-cf-support/build/apps/plugins/chessbox/chessbox.o
                0x0000000001f81804                cb_talk
                0x0000000001f81a00                plugin_start
 .text          0x0000000001f82480     0x8b94 /home/jbrawley/Desktop/rockbox-photo-cf-support/build/apps/plugins/chessbox/gnuchess.o
                0x0000000001f82550                ScoreKPK
                0x0000000001f82784                ScoreKBNK
                0x0000000001f82904                KingScan
                0x0000000001f82fac                BRscan
                0x0000000001f83224                trapped
                0x0000000001f83590                SqValue
                0x0000000001f843d4                UpdateWeights
                0x0000000001f84864                ScoreLoneKing
                0x0000000001f84ab4                ScorePosition
                0x0000000001f84eb4                distance
                0x0000000001f84f18                BlendBoard
                0x0000000001f84f74                CopyBoard
                0x0000000001f84f94                ProbeTTable
                0x0000000001f85084                PutInTTable
                0x0000000001f85120                ZeroTTable
                0x0000000001f85138                LinkMove
                0x0000000001f85384                GenMoves
                0x0000000001f8574c                CaptureList
                0x0000000001f85bbc                UpdateHashbd
                0x0000000001f85c5c                UpdatePieceList
                0x0000000001f85cc8                InitializeStats
                0x0000000001f85ed0                EnPassant
                0x0000000001f85f38                pick
                0x0000000001f85ffc                OpeningBook
                0x0000000001f861c0                repetition
                0x0000000001f862e4                SqAtakd
                0x0000000001f86604                castle
                0x0000000001f86898                MoveList
                0x0000000001f86b1c                MakeMove
                0x0000000001f8709c                UnmakeMove
                0x0000000001f87444                ataks
                0x0000000001f8767c                ExaminePosition
                0x0000000001f88830                evaluate
                0x0000000001f88b70                ElapsedTime
                0x0000000001f88cb4                search
                0x0000000001f89a28                SetTimeControl
                0x0000000001f89ac0                NewGame
                0x0000000001f89e40                GNUChess_Initialize
                0x0000000001f89eac                algbr
                0x0000000001f8a068                SelectMove
                0x0000000001f8ace8                VerifyMove
 .text          0x0000000001f8b014     0x278c /home/jbrawley/Desktop/rockbox-photo-cf-support/build/apps/plugins/chessbox/chessbox_pgn.o
                0x0000000001f8b4f0                pgn_list_games
                0x0000000001f8b6b4                pgn_show_game_list
                0x0000000001f8b884                pgn_parse_game
                0x0000000001f8c844                pgn_init_game
                0x0000000001f8ca10                pgn_append_ply
                0x0000000001f8cae0                pgn_set_result
                0x0000000001f8cb10                pgn_store_game
 .text          0x0000000001f8d7a0      0x214 /home/jbrawley/Desktop/rockbox-photo-cf-support/build/apps/plugins/plugin_crt0.o
                0x0000000001f8d7b8                plugin__start
                0x0000000001f8d908                rb_atexit
                0x0000000001f8d928                exit
                0x0000000001f8d948                _exit
                0x0000000001f8d960                exit_on_usb
 .text.memcpy   0x0000000001f8d9b4       0x14 /home/jbrawley/Desktop/rockbox-photo-cf-support/build/apps/plugins/libplugin.a(gcc-support.o)
                0x0000000001f8d9b4                memcpy
 .text.prevtrack
                0x0000000001f8d9c8       0x28 /home/jbrawley/Desktop/rockbox-photo-cf-support/build/apps/plugins/libplugin.a(playback_control.o)
 .text.stop     0x0000000001f8d9f0       0x28 /home/jbrawley/Desktop/rockbox-photo-cf-support/build/apps/plugins/libplugin.a(playback_control.o)
 .text.nexttrack
                0x0000000001f8da18       0x28 /home/jbrawley/Desktop/rockbox-photo-cf-support/build/apps/plugins/libplugin.a(playback_control.o)
 .text.volume   0x0000000001f8da40       0x48 /home/jbrawley/Desktop/rockbox-photo-cf-support/build/apps/plugins/libplugin.a(playback_control.o)
 .text.shuffle  0x0000000001f8da88       0x50 /home/jbrawley/Desktop/rockbox-photo-cf-support/build/apps/plugins/libplugin.a(playback_control.o)
 .text.play     0x0000000001f8dad8       0xa0 /home/jbrawley/Desktop/rockbox-photo-cf-support/build/apps/plugins/libplugin.a(playback_control.o)
 .text.repeat_mode
                0x0000000001f8db78       0x98 /home/jbrawley/Desktop/rockbox-photo-cf-support/build/apps/plugins/libplugin.a(playback_control.o)
 .text.playback_control
                0x0000000001f8dc10       0x50 /home/jbrawley/Desktop/rockbox-photo-cf-support/build/apps/plugins/libplugin.a(playback_control.o)
                0x0000000001f8dc10                playback_control
 .text          0x0000000001f8dc60       0x1c /home/jbrawley/Desktop/rockbox-photo-cf-support/build/lib/libsetjmp.a(setjmp.o)
                0x0000000001f8dc60                setjmp
                0x0000000001f8dc6c                longjmp
 .text          0x0000000001f8dc7c      0x148 /usr/local/lib/gcc/arm-elf-eabi/4.9.4/libgcc.a(_divsi3.o)
                0x0000000001f8dc7c                __aeabi_idiv
                0x0000000001f8dc7c                __divsi3
                0x0000000001f8dda4                __aeabi_idivmod
 .text          0x0000000001f8ddc4        0x4 /usr/local/lib/gcc/arm-elf-eabi/4.9.4/libgcc.a(_dvmd_tls.o)
                0x0000000001f8ddc4                __aeabi_ldiv0
                0x0000000001f8ddc4                __aeabi_idiv0
 *(.glue_7)
 .glue_7        0x0000000001f8ddc8        0x0 linker stubs
 *(.glue_7t)
 .glue_7t       0x0000000001f8ddc8        0x0 linker stubs

.vfp11_veneer   0x0000000001f8ddc8        0x0
 .vfp11_veneer  0x0000000001f8ddc8        0x0 linker stubs

.v4_bx          0x0000000001f8ddc8        0x0
 .v4_bx         0x0000000001f8ddc8        0x0 linker stubs

.iplt           0x0000000001f8ddc8        0x0
 .iplt          0x0000000001f8ddc8        0x0 /home/jbrawley/Desktop/rockbox-photo-cf-support/build/apps/plugins/chessbox/chessbox.o

.rodata         0x0000000001f8ddc8     0x6620
 *(.rodata*)
 .rodata        0x0000000001f8ddc8       0x44 /home/jbrawley/Desktop/rockbox-photo-cf-support/build/apps/plugins/chessbox/chessbox.o
 .rodata.str1.4
                0x0000000001f8de0c       0x32 /home/jbrawley/Desktop/rockbox-photo-cf-support/build/apps/plugins/chessbox/chessbox.o
 *fill*         0x0000000001f8de3e        0x2 
 .rodata.str1.4
                0x0000000001f8de40       0x2c /home/jbrawley/Desktop/rockbox-photo-cf-support/build/apps/plugins/chessbox/gnuchess.o
 .rodata        0x0000000001f8de6c       0x2a /home/jbrawley/Desktop/rockbox-photo-cf-support/build/apps/plugins/chessbox/chessbox_pgn.o
 *fill*         0x0000000001f8de96        0x2 
 .rodata.str1.4
                0x0000000001f8de98      0x1f4 /home/jbrawley/Desktop/rockbox-photo-cf-support/build/apps/plugins/chessbox/chessbox_pgn.o
                                        0x203 (size before relaxing)
 .rodata.stop_item
                0x0000000001f8e08c        0xc /home/jbrawley/Desktop/rockbox-photo-cf-support/build/apps/plugins/libplugin.a(playback_control.o)
                0x0000000001f8e08c                stop_item
 .rodata.nexttrack_item_
                0x0000000001f8e098        0xc /home/jbrawley/Desktop/rockbox-photo-cf-support/build/apps/plugins/libplugin.a(playback_control.o)
 .rodata.playpause_item__
                0x0000000001f8e0a4        0x4 /home/jbrawley/Desktop/rockbox-photo-cf-support/build/apps/plugins/libplugin.a(playback_control.o)
 .rodata.prevtrack_item_
                0x0000000001f8e0a8        0xc /home/jbrawley/Desktop/rockbox-photo-cf-support/build/apps/plugins/libplugin.a(playback_control.o)
 .rodata.playback_control_menu
                0x0000000001f8e0b4        0xc /home/jbrawley/Desktop/rockbox-photo-cf-support/build/apps/plugins/libplugin.a(playback_control.o)
                0x0000000001f8e0b4                playback_control_menu
 .rodata.prevtrack_item__
                0x0000000001f8e0c0        0x4 /home/jbrawley/Desktop/rockbox-photo-cf-support/build/apps/plugins/libplugin.a(playback_control.o)
 .rodata.playback_control_menu__
                0x0000000001f8e0c4        0xc /home/jbrawley/Desktop/rockbox-photo-cf-support/build/apps/plugins/libplugin.a(playback_control.o)
 .rodata.nexttrack_item
                0x0000000001f8e0d0        0xc /home/jbrawley/Desktop/rockbox-photo-cf-support/build/apps/plugins/libplugin.a(playback_control.o)
                0x0000000001f8e0d0                nexttrack_item
 .rodata.volume_item__
                0x0000000001f8e0dc        0x4 /home/jbrawley/Desktop/rockbox-photo-cf-support/build/apps/plugins/libplugin.a(playback_control.o)
 .rodata.repeat_mode_item
                0x0000000001f8e0e0        0xc /home/jbrawley/Desktop/rockbox-photo-cf-support/build/apps/plugins/libplugin.a(playback_control.o)
                0x0000000001f8e0e0                repeat_mode_item
 .rodata.volume_item_
                0x0000000001f8e0ec        0xc /home/jbrawley/Desktop/rockbox-photo-cf-support/build/apps/plugins/libplugin.a(playback_control.o)
 .rodata.str1.1
                0x0000000001f8e0f8       0x16 /home/jbrawley/Desktop/rockbox-photo-cf-support/build/apps/plugins/libplugin.a(playback_control.o)
 *fill*         0x0000000001f8e10e        0x2 
 .rodata.prevtrack_item
                0x0000000001f8e110        0xc /home/jbrawley/Desktop/rockbox-photo-cf-support/build/apps/plugins/libplugin.a(playback_control.o)
                0x0000000001f8e110                prevtrack_item
 .rodata.stop_item_
                0x0000000001f8e11c        0xc /home/jbrawley/Desktop/rockbox-photo-cf-support/build/apps/plugins/libplugin.a(playback_control.o)
 .rodata.stop_item__
                0x0000000001f8e128        0x4 /home/jbrawley/Desktop/rockbox-photo-cf-support/build/apps/plugins/libplugin.a(playback_control.o)
 .rodata.nexttrack_item__
                0x0000000001f8e12c        0x4 /home/jbrawley/Desktop/rockbox-photo-cf-support/build/apps/plugins/libplugin.a(playback_control.o)
 .rodata.shuffle_item__
                0x0000000001f8e130        0x4 /home/jbrawley/Desktop/rockbox-photo-cf-support/build/apps/plugins/libplugin.a(playback_control.o)
 .rodata.shuffle_item_
                0x0000000001f8e134        0xc /home/jbrawley/Desktop/rockbox-photo-cf-support/build/apps/plugins/libplugin.a(playback_control.o)
 .rodata.playpause_item_
                0x0000000001f8e140        0xc /home/jbrawley/Desktop/rockbox-photo-cf-support/build/apps/plugins/libplugin.a(playback_control.o)
 .rodata.repeat_mode_item_
                0x0000000001f8e14c        0xc /home/jbrawley/Desktop/rockbox-photo-cf-support/build/apps/plugins/libplugin.a(playback_control.o)
 .rodata.volume_item
                0x0000000001f8e158        0xc /home/jbrawley/Desktop/rockbox-photo-cf-support/build/apps/plugins/libplugin.a(playback_control.o)
                0x0000000001f8e158                volume_item
 .rodata.repeat_mode_item__
                0x0000000001f8e164        0x4 /home/jbrawley/Desktop/rockbox-photo-cf-support/build/apps/plugins/libplugin.a(playback_control.o)
 .rodata.shuffle_item
                0x0000000001f8e168        0xc /home/jbrawley/Desktop/rockbox-photo-cf-support/build/apps/plugins/libplugin.a(playback_control.o)
                0x0000000001f8e168                shuffle_item
 .rodata.playpause_item
                0x0000000001f8e174        0xc /home/jbrawley/Desktop/rockbox-photo-cf-support/build/apps/plugins/libplugin.a(playback_control.o)
                0x0000000001f8e174                playpause_item
 .rodata        0x0000000001f8e180     0x6268 /home/jbrawley/Desktop/rockbox-photo-cf-support/build/apps/plugins/bitmaps/libpluginbitmaps.a(chessbox_pieces.176x176x16.o)
                0x0000000001f8e180                bm_chessbox_pieces
                0x0000000001f8e198                chessbox_pieces

.rel.dyn        0x0000000001f943e8        0x0
 .rel.iplt      0x0000000001f943e8        0x0 /home/jbrawley/Desktop/rockbox-photo-cf-support/build/apps/plugins/chessbox/chessbox.o

.data           0x0000000001f943e8     0x7224
 *(.data*)
 .data          0x0000000001f943e8       0x5c /home/jbrawley/Desktop/rockbox-photo-cf-support/build/apps/plugins/chessbox/chessbox.o
                0x0000000001f943ec                level_string
 .data          0x0000000001f94444      0x7f4 /home/jbrawley/Desktop/rockbox-photo-cf-support/build/apps/plugins/chessbox/gnuchess.o
                0x0000000001f94444                KBNK
                0x0000000001f944c4                map
                0x0000000001f94544                Dstart
                0x0000000001f94554                Dstop
                0x0000000001f94564                Dir
                0x0000000001f94584                unmap
                0x0000000001f94674                Kthreat
                0x0000000001f94694                control
                0x0000000001f946a4                sweep
                0x0000000001f946b4                Dpwn
                0x0000000001f946bc                ISOLANI
                0x0000000001f946cc                BACKWARD
                0x0000000001f946dc                PassedPawn2
                0x0000000001f946ec                PassedPawn1
                0x0000000001f946fc                PassedPawn0
                0x0000000001f9470c                PassedPawn3
                0x0000000001f9471c                BMBLTY
                0x0000000001f94738                RMBLTY
                0x0000000001f94754                rank7
                0x0000000001f9475c                otherside
                0x0000000001f94764                KingEnding
                0x0000000001f947e4                value
                0x0000000001f947f4                Dcode
                0x0000000001f948e4                Pdir
                0x0000000001f94928                pbit
                0x0000000001f94938                pknight
                0x0000000001f949b8                pbishop
                0x0000000001f94a38                KingOpening
                0x0000000001f94ab8                PawnAdvance
                0x0000000001f94b38                Stboard
                0x0000000001f94bb8                Stcolor
 .data          0x0000000001f94c38     0x6970 /home/jbrawley/Desktop/rockbox-photo-cf-support/build/apps/plugins/chessbox/opening.o
                0x0000000001f94c38                OBook
 .data          0x0000000001f9b5a8       0x44 /home/jbrawley/Desktop/rockbox-photo-cf-support/build/apps/plugins/chessbox/chessbox_pgn.o
                0x0000000001f9b5a8                kn_offs
                0x0000000001f9b5c8                rk_offs
                0x0000000001f9b5d8                bp_offs
                0x0000000001f9b5e8                pgn_file
 .data          0x0000000001f9b5ec        0x4 /home/jbrawley/Desktop/rockbox-photo-cf-support/build/apps/plugins/plugin_crt0.o
                0x0000000001f9b5ec                rb
 .data.playback_control_menu_
                0x0000000001f9b5f0       0x1c /home/jbrawley/Desktop/rockbox-photo-cf-support/build/apps/plugins/libplugin.a(playback_control.o)

.igot.plt       0x0000000001f9b60c        0x0
 .igot.plt      0x0000000001f9b60c        0x0 /home/jbrawley/Desktop/rockbox-photo-cf-support/build/apps/plugins/chessbox/chessbox.o

.ncdata         0x0000000011f9b60c        0x4 load address 0x0000000001f9b60c
                0x0000000011f9b610                . = ALIGN (0x10)
 *fill*         0x0000000011f9b60c        0x4 
 *(.ncdata*)
                0x0000000011f9b610                . = ALIGN (0x10)
                0x0000000001f9b610                bssaddr = (. - 0x10000000)
                0x0000000001f9b610                iramcopy = (. - 0x10000000)

/DISCARD/
 *(.eh_frame)

.bss            0x0000000001f9b610    0x15570
                0x0000000001f9b610                plugin_bss_start = .
                0x0000000001f9b610                _plugin_bss_start = .
 *(.bss*)
 .bss           0x0000000001f9b610        0xc /home/jbrawley/Desktop/rockbox-photo-cf-support/build/apps/plugins/chessbox/chessbox.o
                0x0000000001f9b610                wt_command
 .bss           0x0000000001f9b61c       0x2a /home/jbrawley/Desktop/rockbox-photo-cf-support/build/apps/plugins/chessbox/gnuchess.o
 *fill*         0x0000000001f9b646        0x2 
 .bss           0x0000000001f9b648        0x4 /home/jbrawley/Desktop/rockbox-photo-cf-support/build/apps/plugins/chessbox/chessbox_pgn.o
                0x0000000001f9b648                bufptr
 .bss           0x0000000001f9b64c       0x60 /home/jbrawley/Desktop/rockbox-photo-cf-support/build/apps/plugins/plugin_crt0.o
 .bss.parentvp  0x0000000001f9b6ac        0x4 /home/jbrawley/Desktop/rockbox-photo-cf-support/build/apps/plugins/libplugin.a(playback_control.o)
                0x0000000001f9b6ac                parentvp
 *(COMMON)
 COMMON         0x0000000001f9b6b0    0x154c6 /home/jbrawley/Desktop/rockbox-photo-cf-support/build/apps/plugins/chessbox/gnuchess.o
                0x0000000001f9b6b0                TCminutes
                0x0000000001f9b6b2                xwndw
                0x0000000001f9b6b4                HasKnight
                0x0000000001f9b6b8                bking
                0x0000000001f9b6ba                PWEAKH
                0x0000000001f9b6bc                BishopBonus
                0x0000000001f9b6c0                PrVar
                0x0000000001f9b6fc                Mwpawn
                0x0000000001f9b77c                emtl
                0x0000000001f9b780                hashcode
                0x0000000001f9d380                HasBishop
                0x0000000001f9d384                Developed
                0x0000000001f9d388                PBLOK
                0x0000000001f9d38c                TimeControl
                0x0000000001f9d398                killr1
                0x0000000001f9d3d4                PDOUBLED
                0x0000000001f9d3d6                reverse
                0x0000000001f9d3d8                KHOPN
                0x0000000001f9d3dc                mtl
                0x0000000001f9d3e0                KMOVD
                0x0000000001f9d3e4                HasPawn
                0x0000000001f9d3e8                PEDRNK2B
                0x0000000001f9d3ea                EnemyKing
                0x0000000001f9d3ec                quit
                0x0000000001f9d3ee                hashflag
                0x0000000001f9d3f0                INCscore
                0x0000000001f9d3f2                Game50
                0x0000000001f9d3f4                epsquare
                0x0000000001f9d3f6                wking
                0x0000000001f9d3f8                player
                0x0000000001f9d3fc                HashCnt
                0x0000000001f9d400                lpost
                0x0000000001f9d402                ATAKD
                0x0000000001f9d404                c2
                0x0000000001f9d408                board
                0x0000000001f9d488                TOsquare
                0x0000000001f9d48a                BISHOPSTRONG
                0x0000000001f9d48c                locn
                0x0000000001f9d50c                Swag3
                0x0000000001f9d50e                rcptr
                0x0000000001f9d510                EvalNodes
                0x0000000001f9d514                Swag1
                0x0000000001f9d516                PAWNSHIELD
                0x0000000001f9d518                MaxSearchDepth
                0x0000000001f9d51c                evrate
                0x0000000001f9d520                KNIGHTSTRONG
                0x0000000001f9d522                OperatorTime
                0x0000000001f9d524                castld
                0x0000000001f9d528                Tscore
                0x0000000001f9d564                FROMsquare
                0x0000000001f9d568                column
                0x0000000001f9d5e8                ExtraTime
                0x0000000001f9d5ec                Pindex
                0x0000000001f9d66c                Sdepth
                0x0000000001f9d670                ChkFlag
                0x0000000001f9d6ac                KHOPNX
                0x0000000001f9d6b0                kingmoved
                0x0000000001f9d6b4                svalue
                0x0000000001f9d734                CptrFlag
                0x0000000001f9d770                stage2
                0x0000000001f9d774                ttable
                0x0000000001fa9774                HasQueen
                0x0000000001fa9778                mvstr2
                0x0000000001fa977e                opponent
                0x0000000001fa9780                GameList
                0x0000000001faa780                Mbpawn
                0x0000000001faa800                computer
                0x0000000001faa802                KCASTLD
                0x0000000001faa804                stage
                0x0000000001faa806                GameCnt
                0x0000000001faa808                force
                0x0000000001faa80a                Bwindow
                0x0000000001faa80c                TCmoves
                0x0000000001faa810                history
                0x0000000001fac810                PawnStorm
                0x0000000001fac814                Tree
                0x0000000001fb02ac                dither
                0x0000000001fb02b0                NodeCnt
                0x0000000001fb02b4                atak
                0x0000000001fb03b4                easy
                0x0000000001fb03b8                PawnCnt
                0x0000000001fb03d8                TCflag
                0x0000000001fb03dc                mvstr3
                0x0000000001fb03e2                c1
                0x0000000001fb03e4                atk2
                0x0000000001fb03e8                killr0
                0x0000000001fb0424                ptbl
                0x0000000001fb0428                ft
                0x0000000001fb042c                RHOPNX
                0x0000000001fb042e                KNIGHTPOST
                0x0000000001fb0430                root
                0x0000000001fb0434                pmtl
                0x0000000001fb0438                RookBonus
                0x0000000001fb043c                cputimer
                0x0000000001fb0440                TrPnt
                0x0000000001fb047c                hashkey
                0x0000000001fb047e                zwndw
                0x0000000001fb0480                PieceCnt
                0x0000000001fb0484                KSFTY
                0x0000000001fb0488                PC2
                0x0000000001fb048c                RHOPN
                0x0000000001fb048e                PV
                0x0000000001fb0490                PawnBonus
                0x0000000001fb0494                killr3
                0x0000000001fb04d0                timeout
                0x0000000001fb04d2                Swag0
                0x0000000001fb04d4                KATAK
                0x0000000001fb04d8                mvstr1
                0x0000000001fb04de                KBNKsq
                0x0000000001fb04e0                HasRook
                0x0000000001fb04e4                color
                0x0000000001fb0564                HUNGX
                0x0000000001fb0566                PADVNCM
                0x0000000001fb0568                Mbishop
                0x0000000001fb0668                hung
                0x0000000001fb066c                time0
                0x0000000001fb0670                ResponseTime
                0x0000000001fb0674                Xscore
                0x0000000001fb0678                killr2
                0x0000000001fb06b4                XRAY
                0x0000000001fb06b8                et
                0x0000000001fb06bc                Awindow
                0x0000000001fb06c0                et0
                0x0000000001fb06c4                ETnodes
                0x0000000001fb06c8                contempt
                0x0000000001fb06ca                Zbmtl
                0x0000000001fb06cc                post
                0x0000000001fb06ce                slk
                0x0000000001fb06d0                beep
                0x0000000001fb06d2                Zscore
                0x0000000001fb06d4                Pscore
                0x0000000001fb0710                hashbd
                0x0000000001fb0714                Level
                0x0000000001fb0718                Threat
                0x0000000001fb0754                PINVAL
                0x0000000001fb0758                PieceList
                0x0000000001fb0798                withbook
                0x0000000001fb079c                PawnThreat
                0x0000000001fb07d8                InChk
                0x0000000001fb07da                bothsides
                0x0000000001fb07dc                atk1
                0x0000000001fb07e0                Mking
                0x0000000001fb08e0                PADVNCI
                0x0000000001fb08e4                PC1
                0x0000000001fb08e8                Kfield
                0x0000000001fb09e8                Swag4
                0x0000000001fb09ea                Zwmtl
                0x0000000001fb09ec                mate
                0x0000000001fb09ee                hint
                0x0000000001fb09f0                HUNGP
                0x0000000001fb09f4                row
                0x0000000001fb0a74                Mknight
                0x0000000001fb0b74                Swag2
 *fill*         0x0000000001fb0b76        0x2 
 COMMON         0x0000000001fb0b78        0x8 /home/jbrawley/Desktop/rockbox-photo-cf-support/build/apps/plugins/chessbox/chessbox_pgn.o
                0x0000000001fb0b78                loghandler
                0x0000000001fb0b7c                bufleft
                0x0000000001fb0b80                . = ALIGN (0x4)

.ncbss          0x0000000011fb0b80        0x0 load address 0x0000000001fb0b80
                0x0000000011fb0b80                . = ALIGN (0x10)
 *(.ncbss*)
                0x0000000011fb0b80                . = ALIGN (0x10)
                0x0000000001fb0b80                pluginendaddr = (. - 0x10000000)

.pluginend      0x0000000001fb0b80        0x0
                0x0000000001fb0b80                _plugin_end_addr = .
                0x0000000001fb0b80                plugin_end_addr = .

.iram           0x000000004000c000        0x0 load address 0x0000000001f9b610
                0x000000004000c000                iramstart = .
 *(.icode)
 *(.irodata)
 *(.idata)
                0x000000004000c000                iramend = .

.ibss           0x000000004000c000        0x0
                0x000000004000c000                iedata = .
 *(.ibss)
                0x000000004000c000                . = ALIGN (0x4)
                0x000000004000c000                iend = .
                0x0000000001fb0b80                loadendaddr = MAX (plugin_end_addr, (LOADADDR (.iram) + SIZEOF (.iram)))

.pluginloadend  0x0000000001fb0b80        0x0
                0x0000000001fb0b80                _plugin_load_end_addr = .
                0x0000000001fb0b80                plugin_load_end_addr = .

.comment        0x0000000000000000       0x11
 *(.comment)
 .comment       0x0000000000000000       0x11 /home/jbrawley/Desktop/rockbox-photo-cf-support/build/apps/plugins/chessbox/chessbox.o
                                         0x12 (size before relaxing)
 .comment       0x0000000000000011       0x12 /home/jbrawley/Desktop/rockbox-photo-cf-support/build/apps/plugins/chessbox/gnuchess.o
 .comment       0x0000000000000011       0x12 /home/jbrawley/Desktop/rockbox-photo-cf-support/build/apps/plugins/chessbox/opening.o
 .comment       0x0000000000000011       0x12 /home/jbrawley/Desktop/rockbox-photo-cf-support/build/apps/plugins/chessbox/chessbox_pgn.o
 .comment       0x0000000000000011       0x12 /home/jbrawley/Desktop/rockbox-photo-cf-support/build/apps/plugins/plugin_crt0.o
 .comment       0x0000000000000011       0x12 /home/jbrawley/Desktop/rockbox-photo-cf-support/build/apps/plugins/libplugin.a(gcc-support.o)
 .comment       0x0000000000000011       0x12 /home/jbrawley/Desktop/rockbox-photo-cf-support/build/apps/plugins/libplugin.a(playback_control.o)
 .comment       0x0000000000000011       0x12 /home/jbrawley/Desktop/rockbox-photo-cf-support/build/apps/plugins/bitmaps/libpluginbitmaps.a(chessbox_pieces.176x176x16.o)
OUTPUT(/home/jbrawley/Desktop/rockbox-photo-cf-support/build/apps/plugins/chessbox/chessbox.elf elf32-littlearm)

.ARM.attributes
                0x0000000000000000       0x2e
 .ARM.attributes
                0x0000000000000000       0x30 /home/jbrawley/Desktop/rockbox-photo-cf-support/build/apps/plugins/chessbox/chessbox.o
 .ARM.attributes
                0x0000000000000030       0x30 /home/jbrawley/Desktop/rockbox-photo-cf-support/build/apps/plugins/chessbox/gnuchess.o
 .ARM.attributes
                0x0000000000000060       0x30 /home/jbrawley/Desktop/rockbox-photo-cf-support/build/apps/plugins/chessbox/opening.o
 .ARM.attributes
                0x0000000000000090       0x30 /home/jbrawley/Desktop/rockbox-photo-cf-support/build/apps/plugins/chessbox/chessbox_pgn.o
 .ARM.attributes
                0x00000000000000c0       0x30 /home/jbrawley/Desktop/rockbox-photo-cf-support/build/apps/plugins/plugin_crt0.o
 .ARM.attributes
                0x00000000000000f0       0x30 /home/jbrawley/Desktop/rockbox-photo-cf-support/build/apps/plugins/libplugin.a(gcc-support.o)
 .ARM.attributes
                0x0000000000000120       0x30 /home/jbrawley/Desktop/rockbox-photo-cf-support/build/apps/plugins/libplugin.a(playback_control.o)
 .ARM.attributes
                0x0000000000000150       0x30 /home/jbrawley/Desktop/rockbox-photo-cf-support/build/apps/plugins/bitmaps/libpluginbitmaps.a(chessbox_pieces.176x176x16.o)
 .ARM.attributes
                0x0000000000000180       0x20 /home/jbrawley/Desktop/rockbox-photo-cf-support/build/lib/libsetjmp.a(setjmp.o)
 .ARM.attributes
                0x00000000000001a0       0x18 /usr/local/lib/gcc/arm-elf-eabi/4.9.4/libgcc.a(_divsi3.o)
 .ARM.attributes
                0x00000000000001b8       0x18 /usr/local/lib/gcc/arm-elf-eabi/4.9.4/libgcc.a(_dvmd_tls.o)

.debug_frame    0x0000000000000000       0x20
 .debug_frame   0x0000000000000000       0x20 /usr/local/lib/gcc/arm-elf-eabi/4.9.4/libgcc.a(_divsi3.o)

.debug_line     0x0000000000000000       0xeb
 .debug_line    0x0000000000000000       0x8a /usr/local/lib/gcc/arm-elf-eabi/4.9.4/libgcc.a(_divsi3.o)
 .debug_line    0x000000000000008a       0x61 /usr/local/lib/gcc/arm-elf-eabi/4.9.4/libgcc.a(_dvmd_tls.o)

.debug_info     0x0000000000000000      0x110
 .debug_info    0x0000000000000000       0x88 /usr/local/lib/gcc/arm-elf-eabi/4.9.4/libgcc.a(_divsi3.o)
 .debug_info    0x0000000000000088       0x88 /usr/local/lib/gcc/arm-elf-eabi/4.9.4/libgcc.a(_dvmd_tls.o)

.debug_abbrev   0x0000000000000000       0x28
 .debug_abbrev  0x0000000000000000       0x14 /usr/local/lib/gcc/arm-elf-eabi/4.9.4/libgcc.a(_divsi3.o)
 .debug_abbrev  0x0000000000000014       0x14 /usr/local/lib/gcc/arm-elf-eabi/4.9.4/libgcc.a(_dvmd_tls.o)

.debug_aranges  0x0000000000000000       0x40
 .debug_aranges
                0x0000000000000000       0x20 /usr/local/lib/gcc/arm-elf-eabi/4.9.4/libgcc.a(_divsi3.o)
 .debug_aranges
                0x0000000000000020       0x20 /usr/local/lib/gcc/arm-elf-eabi/4.9.4/libgcc.a(_dvmd_tls.o)
