Archive member included to satisfy reference by file (symbol)

/home/jbrawley/Desktop/rockbox-photo-cf-support/build/lib/rbcodec/codecs/libspeex-voice.a(bits.o)
                              /home/jbrawley/Desktop/rockbox-photo-cf-support/build/apps/voice_thread.o (speex_bits_set_bit_buffer)
/home/jbrawley/Desktop/rockbox-photo-cf-support/build/lib/rbcodec/codecs/libspeex-voice.a(modes_wb.o)
                              /home/jbrawley/Desktop/rockbox-photo-cf-support/build/apps/voice_thread.o (speex_wb_mode)
/home/jbrawley/Desktop/rockbox-photo-cf-support/build/lib/rbcodec/codecs/libspeex-voice.a(quant_lsp.o)
                              /home/jbrawley/Desktop/rockbox-photo-cf-support/build/lib/rbcodec/codecs/libspeex-voice.a(modes_wb.o) (lsp_unquant_high)
/home/jbrawley/Desktop/rockbox-photo-cf-support/build/lib/rbcodec/codecs/libspeex-voice.a(sb_celp.o)
                              /home/jbrawley/Desktop/rockbox-photo-cf-support/build/lib/rbcodec/codecs/libspeex-voice.a(modes_wb.o) (sb_decoder_init)
/home/jbrawley/Desktop/rockbox-photo-cf-support/build/lib/rbcodec/codecs/libspeex-voice.a(speex.o)
                              /home/jbrawley/Desktop/rockbox-photo-cf-support/build/apps/voice_thread.o (speex_decoder_init)
/home/jbrawley/Desktop/rockbox-photo-cf-support/build/lib/rbcodec/codecs/libspeex-voice.a(filters_arm4.o)
                              /home/jbrawley/Desktop/rockbox-photo-cf-support/build/lib/rbcodec/codecs/libspeex-voice.a(sb_celp.o) (iir_mem16)
/home/jbrawley/Desktop/rockbox-photo-cf-support/build/lib/rbcodec/codecs/libspeex-voice.a(cb_search.o)
                              /home/jbrawley/Desktop/rockbox-photo-cf-support/build/lib/rbcodec/codecs/libspeex-voice.a(modes_wb.o) (split_cb_shape_sign_unquant)
/home/jbrawley/Desktop/rockbox-photo-cf-support/build/lib/rbcodec/codecs/libspeex-voice.a(filters.o)
                              /home/jbrawley/Desktop/rockbox-photo-cf-support/build/lib/rbcodec/codecs/libspeex-voice.a(sb_celp.o) (compute_rms16)
/home/jbrawley/Desktop/rockbox-photo-cf-support/build/lib/rbcodec/codecs/libspeex-voice.a(hexc_10_32_table.o)
                              /home/jbrawley/Desktop/rockbox-photo-cf-support/build/lib/rbcodec/codecs/libspeex-voice.a(modes_wb.o) (hexc_10_32_table)
/home/jbrawley/Desktop/rockbox-photo-cf-support/build/lib/rbcodec/codecs/libspeex-voice.a(hexc_table.o)
                              /home/jbrawley/Desktop/rockbox-photo-cf-support/build/lib/rbcodec/codecs/libspeex-voice.a(modes_wb.o) (hexc_table)
/home/jbrawley/Desktop/rockbox-photo-cf-support/build/lib/rbcodec/codecs/libspeex-voice.a(high_lsp_tables.o)
                              /home/jbrawley/Desktop/rockbox-photo-cf-support/build/lib/rbcodec/codecs/libspeex-voice.a(quant_lsp.o) (high_lsp_cdbk2)
/home/jbrawley/Desktop/rockbox-photo-cf-support/build/lib/rbcodec/codecs/libspeex-voice.a(lsp.o)
                              /home/jbrawley/Desktop/rockbox-photo-cf-support/build/lib/rbcodec/codecs/libspeex-voice.a(sb_celp.o) (lsp_to_lpc)
/home/jbrawley/Desktop/rockbox-photo-cf-support/build/lib/rbcodec/codecs/libspeex-voice.a(lsp_tables_nb.o)
                              /home/jbrawley/Desktop/rockbox-photo-cf-support/build/lib/rbcodec/codecs/libspeex-voice.a(quant_lsp.o) (cdbk_nb_high2)
/home/jbrawley/Desktop/rockbox-photo-cf-support/build/lib/rbcodec/codecs/libspeex-voice.a(ltp.o)
                              /home/jbrawley/Desktop/rockbox-photo-cf-support/build/lib/rbcodec/codecs/libspeex-voice.a(filters.o) (inner_prod)
/home/jbrawley/Desktop/rockbox-photo-cf-support/build/lib/rbcodec/codecs/libspeex-voice.a(modes.o)
                              /home/jbrawley/Desktop/rockbox-photo-cf-support/build/lib/rbcodec/codecs/libspeex-voice.a(modes_wb.o) (speex_nb_mode)
/home/jbrawley/Desktop/rockbox-photo-cf-support/build/lib/rbcodec/codecs/libspeex-voice.a(nb_celp.o)
                              /home/jbrawley/Desktop/rockbox-photo-cf-support/build/lib/rbcodec/codecs/libspeex-voice.a(modes.o) (nb_decoder_init)
/home/jbrawley/Desktop/rockbox-photo-cf-support/build/lib/rbcodec/codecs/libspeex-voice.a(speex_callbacks.o)
                              /home/jbrawley/Desktop/rockbox-photo-cf-support/build/lib/rbcodec/codecs/libspeex-voice.a(nb_celp.o) (speex_inband_handler)
/home/jbrawley/Desktop/rockbox-photo-cf-support/build/lib/rbcodec/codecs/libspeex-voice.a(exc_10_16_table.o)
                              /home/jbrawley/Desktop/rockbox-photo-cf-support/build/lib/rbcodec/codecs/libspeex-voice.a(modes.o) (exc_10_16_table)
/home/jbrawley/Desktop/rockbox-photo-cf-support/build/lib/rbcodec/codecs/libspeex-voice.a(exc_10_32_table.o)
                              /home/jbrawley/Desktop/rockbox-photo-cf-support/build/lib/rbcodec/codecs/libspeex-voice.a(modes.o) (exc_10_32_table)
/home/jbrawley/Desktop/rockbox-photo-cf-support/build/lib/rbcodec/codecs/libspeex-voice.a(exc_20_32_table.o)
                              /home/jbrawley/Desktop/rockbox-photo-cf-support/build/lib/rbcodec/codecs/libspeex-voice.a(modes.o) (exc_20_32_table)
/home/jbrawley/Desktop/rockbox-photo-cf-support/build/lib/rbcodec/codecs/libspeex-voice.a(exc_5_256_table.o)
                              /home/jbrawley/Desktop/rockbox-photo-cf-support/build/lib/rbcodec/codecs/libspeex-voice.a(modes.o) (exc_5_256_table)
/home/jbrawley/Desktop/rockbox-photo-cf-support/build/lib/rbcodec/codecs/libspeex-voice.a(exc_5_64_table.o)
                              /home/jbrawley/Desktop/rockbox-photo-cf-support/build/lib/rbcodec/codecs/libspeex-voice.a(modes.o) (exc_5_64_table)
/home/jbrawley/Desktop/rockbox-photo-cf-support/build/lib/rbcodec/codecs/libspeex-voice.a(exc_8_128_table.o)
                              /home/jbrawley/Desktop/rockbox-photo-cf-support/build/lib/rbcodec/codecs/libspeex-voice.a(modes.o) (exc_8_128_table)
/home/jbrawley/Desktop/rockbox-photo-cf-support/build/lib/rbcodec/codecs/libspeex-voice.a(gain_table.o)
                              /home/jbrawley/Desktop/rockbox-photo-cf-support/build/lib/rbcodec/codecs/libspeex-voice.a(modes.o) (gain_cdbk_nb)
/home/jbrawley/Desktop/rockbox-photo-cf-support/build/lib/rbcodec/codecs/libspeex-voice.a(gain_table_lbr.o)
                              /home/jbrawley/Desktop/rockbox-photo-cf-support/build/lib/rbcodec/codecs/libspeex-voice.a(modes.o) (gain_cdbk_lbr)
/home/jbrawley/Desktop/rockbox-photo-cf-support/build/lib/librbcodec.a(metadata.o)
                              /home/jbrawley/Desktop/rockbox-photo-cf-support/build/apps/playback.o (get_audio_base_codec_type)
/home/jbrawley/Desktop/rockbox-photo-cf-support/build/lib/librbcodec.a(id3tags.o)
                              /home/jbrawley/Desktop/rockbox-photo-cf-support/build/lib/librbcodec.a(metadata.o) (id3_get_num_genre)
/home/jbrawley/Desktop/rockbox-photo-cf-support/build/lib/librbcodec.a(mp3.o)
                              /home/jbrawley/Desktop/rockbox-photo-cf-support/build/lib/librbcodec.a(metadata.o) (get_mp3_metadata)
/home/jbrawley/Desktop/rockbox-photo-cf-support/build/lib/librbcodec.a(mp3data.o)
                              /home/jbrawley/Desktop/rockbox-photo-cf-support/build/lib/librbcodec.a(id3tags.o) (bytes2int)
/home/jbrawley/Desktop/rockbox-photo-cf-support/build/lib/librbcodec.a(compressor.o)
                              /home/jbrawley/Desktop/rockbox-photo-cf-support/build/apps/settings.o (dsp_set_compressor)
/home/jbrawley/Desktop/rockbox-photo-cf-support/build/lib/librbcodec.a(crossfeed.o)
                              /home/jbrawley/Desktop/rockbox-photo-cf-support/build/apps/plugin.o (dsp_set_crossfeed_type)
/home/jbrawley/Desktop/rockbox-photo-cf-support/build/lib/librbcodec.a(dsp_core.o)
                              /home/jbrawley/Desktop/rockbox-photo-cf-support/build/lib/librbcodec.a(compressor.o) (dsp_proc_activate)
/home/jbrawley/Desktop/rockbox-photo-cf-support/build/lib/librbcodec.a(pbe.o)
                              /home/jbrawley/Desktop/rockbox-photo-cf-support/build/apps/settings.o (dsp_pbe_precut)
/home/jbrawley/Desktop/rockbox-photo-cf-support/build/lib/librbcodec.a(afr.o)
                              /home/jbrawley/Desktop/rockbox-photo-cf-support/build/apps/settings.o (dsp_afr_enable)
/home/jbrawley/Desktop/rockbox-photo-cf-support/build/lib/librbcodec.a(surround.o)
                              /home/jbrawley/Desktop/rockbox-photo-cf-support/build/apps/settings.o (dsp_surround_set_balance)
/home/jbrawley/Desktop/rockbox-photo-cf-support/build/lib/librbcodec.a(dsp_filter.o)
                              /home/jbrawley/Desktop/rockbox-photo-cf-support/build/lib/librbcodec.a(crossfeed.o) (filter_shelf_coefs)
/home/jbrawley/Desktop/rockbox-photo-cf-support/build/lib/librbcodec.a(dsp_misc.o)
                              /home/jbrawley/Desktop/rockbox-photo-cf-support/build/apps/misc.o (dsp_replaygain_set_settings)
/home/jbrawley/Desktop/rockbox-photo-cf-support/build/lib/librbcodec.a(dsp_sample_io.o)
                              /home/jbrawley/Desktop/rockbox-photo-cf-support/build/lib/librbcodec.a(dsp_core.o) (dsp_sample_io_init)
/home/jbrawley/Desktop/rockbox-photo-cf-support/build/lib/librbcodec.a(dsp_sample_input.o)
                              /home/jbrawley/Desktop/rockbox-photo-cf-support/build/lib/librbcodec.a(dsp_core.o) (dsp_sample_input_format_change)
/home/jbrawley/Desktop/rockbox-photo-cf-support/build/lib/librbcodec.a(dsp_sample_output.o)
                              /home/jbrawley/Desktop/rockbox-photo-cf-support/build/lib/librbcodec.a(dsp_core.o) (dsp_sample_output_format_change)
/home/jbrawley/Desktop/rockbox-photo-cf-support/build/lib/librbcodec.a(eq.o)
                              /home/jbrawley/Desktop/rockbox-photo-cf-support/build/apps/menus/eq_menu.o (dsp_set_eq_precut)
/home/jbrawley/Desktop/rockbox-photo-cf-support/build/lib/librbcodec.a(resample.o)
                              /home/jbrawley/Desktop/rockbox-photo-cf-support/build/lib/librbcodec.a(dsp_core.o) (dsp_resample_init)
/home/jbrawley/Desktop/rockbox-photo-cf-support/build/lib/librbcodec.a(pga.o)
                              /home/jbrawley/Desktop/rockbox-photo-cf-support/build/lib/librbcodec.a(dsp_misc.o) (pga_set_gain)
/home/jbrawley/Desktop/rockbox-photo-cf-support/build/lib/librbcodec.a(tdspeed.o)
                              /home/jbrawley/Desktop/rockbox-photo-cf-support/build/apps/plugin.o (dsp_timestretch_enable)
/home/jbrawley/Desktop/rockbox-photo-cf-support/build/lib/librbcodec.a(dsp_arm.o)
                              /home/jbrawley/Desktop/rockbox-photo-cf-support/build/lib/librbcodec.a(crossfeed.o) (crossfeed_process)
/home/jbrawley/Desktop/rockbox-photo-cf-support/build/lib/librbcodec.a(replaygain.o)
                              /home/jbrawley/Desktop/rockbox-photo-cf-support/build/apps/screens.o (replaygain_itoa)
/home/jbrawley/Desktop/rockbox-photo-cf-support/build/lib/librbcodec.a(metadata_common.o)
                              /home/jbrawley/Desktop/rockbox-photo-cf-support/build/lib/librbcodec.a(id3tags.o) (get_itunes_int32)
/home/jbrawley/Desktop/rockbox-photo-cf-support/build/lib/librbcodec.a(a52.o)
                              /home/jbrawley/Desktop/rockbox-photo-cf-support/build/lib/librbcodec.a(metadata.o) (get_a52_metadata)
/home/jbrawley/Desktop/rockbox-photo-cf-support/build/lib/librbcodec.a(adx.o)
                              /home/jbrawley/Desktop/rockbox-photo-cf-support/build/lib/librbcodec.a(metadata.o) (get_adx_metadata)
/home/jbrawley/Desktop/rockbox-photo-cf-support/build/lib/librbcodec.a(aiff.o)
                              /home/jbrawley/Desktop/rockbox-photo-cf-support/build/lib/librbcodec.a(metadata.o) (get_aiff_metadata)
/home/jbrawley/Desktop/rockbox-photo-cf-support/build/lib/librbcodec.a(asap.o)
                              /home/jbrawley/Desktop/rockbox-photo-cf-support/build/lib/librbcodec.a(metadata.o) (get_asap_metadata)
/home/jbrawley/Desktop/rockbox-photo-cf-support/build/lib/librbcodec.a(asf.o)
                              /home/jbrawley/Desktop/rockbox-photo-cf-support/build/lib/librbcodec.a(metadata.o) (get_asf_metadata)
/home/jbrawley/Desktop/rockbox-photo-cf-support/build/lib/librbcodec.a(au.o)
                              /home/jbrawley/Desktop/rockbox-photo-cf-support/build/lib/librbcodec.a(metadata.o) (get_au_metadata)
/home/jbrawley/Desktop/rockbox-photo-cf-support/build/lib/librbcodec.a(ay.o)
                              /home/jbrawley/Desktop/rockbox-photo-cf-support/build/lib/librbcodec.a(metadata.o) (get_ay_metadata)
/home/jbrawley/Desktop/rockbox-photo-cf-support/build/lib/librbcodec.a(flac.o)
                              /home/jbrawley/Desktop/rockbox-photo-cf-support/build/lib/librbcodec.a(metadata.o) (get_flac_metadata)
/home/jbrawley/Desktop/rockbox-photo-cf-support/build/lib/librbcodec.a(gbs.o)
                              /home/jbrawley/Desktop/rockbox-photo-cf-support/build/lib/librbcodec.a(metadata.o) (get_gbs_metadata)
/home/jbrawley/Desktop/rockbox-photo-cf-support/build/lib/librbcodec.a(hes.o)
                              /home/jbrawley/Desktop/rockbox-photo-cf-support/build/lib/librbcodec.a(metadata.o) (get_hes_metadata)
/home/jbrawley/Desktop/rockbox-photo-cf-support/build/lib/librbcodec.a(kss.o)
                              /home/jbrawley/Desktop/rockbox-photo-cf-support/build/lib/librbcodec.a(metadata.o) (get_kss_metadata)
/home/jbrawley/Desktop/rockbox-photo-cf-support/build/lib/librbcodec.a(mod.o)
                              /home/jbrawley/Desktop/rockbox-photo-cf-support/build/lib/librbcodec.a(metadata.o) (get_mod_metadata)
/home/jbrawley/Desktop/rockbox-photo-cf-support/build/lib/librbcodec.a(monkeys.o)
                              /home/jbrawley/Desktop/rockbox-photo-cf-support/build/lib/librbcodec.a(metadata.o) (get_monkeys_metadata)
/home/jbrawley/Desktop/rockbox-photo-cf-support/build/lib/librbcodec.a(mp4.o)
                              /home/jbrawley/Desktop/rockbox-photo-cf-support/build/lib/librbcodec.a(metadata.o) (get_mp4_metadata)
/home/jbrawley/Desktop/rockbox-photo-cf-support/build/lib/librbcodec.a(mpc.o)
                              /home/jbrawley/Desktop/rockbox-photo-cf-support/build/lib/librbcodec.a(metadata.o) (get_musepack_metadata)
/home/jbrawley/Desktop/rockbox-photo-cf-support/build/lib/librbcodec.a(nsf.o)
                              /home/jbrawley/Desktop/rockbox-photo-cf-support/build/lib/librbcodec.a(metadata.o) (get_nsf_metadata)
/home/jbrawley/Desktop/rockbox-photo-cf-support/build/lib/librbcodec.a(ogg.o)
                              /home/jbrawley/Desktop/rockbox-photo-cf-support/build/lib/librbcodec.a(metadata.o) (get_ogg_metadata)
/home/jbrawley/Desktop/rockbox-photo-cf-support/build/lib/librbcodec.a(oma.o)
                              /home/jbrawley/Desktop/rockbox-photo-cf-support/build/lib/librbcodec.a(metadata.o) (get_oma_metadata)
/home/jbrawley/Desktop/rockbox-photo-cf-support/build/lib/librbcodec.a(rm.o)
                              /home/jbrawley/Desktop/rockbox-photo-cf-support/build/lib/librbcodec.a(metadata.o) (get_rm_metadata)
/home/jbrawley/Desktop/rockbox-photo-cf-support/build/lib/librbcodec.a(sgc.o)
                              /home/jbrawley/Desktop/rockbox-photo-cf-support/build/lib/librbcodec.a(metadata.o) (get_sgc_metadata)
/home/jbrawley/Desktop/rockbox-photo-cf-support/build/lib/librbcodec.a(sid.o)
                              /home/jbrawley/Desktop/rockbox-photo-cf-support/build/lib/librbcodec.a(metadata.o) (get_sid_metadata)
/home/jbrawley/Desktop/rockbox-photo-cf-support/build/lib/librbcodec.a(smaf.o)
                              /home/jbrawley/Desktop/rockbox-photo-cf-support/build/lib/librbcodec.a(metadata.o) (get_smaf_metadata)
/home/jbrawley/Desktop/rockbox-photo-cf-support/build/lib/librbcodec.a(spc.o)
                              /home/jbrawley/Desktop/rockbox-photo-cf-support/build/lib/librbcodec.a(metadata.o) (get_spc_metadata)
/home/jbrawley/Desktop/rockbox-photo-cf-support/build/lib/librbcodec.a(tta.o)
                              /home/jbrawley/Desktop/rockbox-photo-cf-support/build/lib/librbcodec.a(metadata.o) (get_tta_metadata)
/home/jbrawley/Desktop/rockbox-photo-cf-support/build/lib/librbcodec.a(vgm.o)
                              /home/jbrawley/Desktop/rockbox-photo-cf-support/build/lib/librbcodec.a(metadata.o) (get_vgm_metadata)
/home/jbrawley/Desktop/rockbox-photo-cf-support/build/lib/librbcodec.a(vorbis.o)
                              /home/jbrawley/Desktop/rockbox-photo-cf-support/build/lib/librbcodec.a(flac.o) (read_vorbis_tags)
/home/jbrawley/Desktop/rockbox-photo-cf-support/build/lib/librbcodec.a(vox.o)
                              /home/jbrawley/Desktop/rockbox-photo-cf-support/build/lib/librbcodec.a(metadata.o) (get_vox_metadata)
/home/jbrawley/Desktop/rockbox-photo-cf-support/build/lib/librbcodec.a(wave.o)
                              /home/jbrawley/Desktop/rockbox-photo-cf-support/build/lib/librbcodec.a(metadata.o) (get_wave_metadata)
/home/jbrawley/Desktop/rockbox-photo-cf-support/build/lib/librbcodec.a(wavpack.o)
                              /home/jbrawley/Desktop/rockbox-photo-cf-support/build/lib/librbcodec.a(metadata.o) (get_wavpack_metadata)
/home/jbrawley/Desktop/rockbox-photo-cf-support/build/lib/librbcodec.a(aac.o)
                              /home/jbrawley/Desktop/rockbox-photo-cf-support/build/lib/librbcodec.a(metadata.o) (get_aac_metadata)
/home/jbrawley/Desktop/rockbox-photo-cf-support/build/lib/librbcodec.a(channel_mode.o)
                              /home/jbrawley/Desktop/rockbox-photo-cf-support/build/lib/librbcodec.a(dsp_core.o) (CHANNEL_MODE_proc_db_entry)
/home/jbrawley/Desktop/rockbox-photo-cf-support/build/lib/librbcodec.a(ape.o)
                              /home/jbrawley/Desktop/rockbox-photo-cf-support/build/lib/librbcodec.a(monkeys.o) (read_ape_tags)
/home/jbrawley/Desktop/rockbox-photo-cf-support/build/firmware/libfirmware.a(ffs.o)
                              /home/jbrawley/Desktop/rockbox-photo-cf-support/build/apps/plugin.o (find_first_set_bit)
/home/jbrawley/Desktop/rockbox-photo-cf-support/build/firmware/libfirmware.a(memcpy.o)
                              /home/jbrawley/Desktop/rockbox-photo-cf-support/build/apps/action.o (memcpy)
/home/jbrawley/Desktop/rockbox-photo-cf-support/build/firmware/libfirmware.a(memmove.o)
                              /home/jbrawley/Desktop/rockbox-photo-cf-support/build/apps/buffering.o (memmove)
/home/jbrawley/Desktop/rockbox-photo-cf-support/build/firmware/libfirmware.a(memset.o)
                              /home/jbrawley/Desktop/rockbox-photo-cf-support/build/apps/menus/theme_menu.o (memset)
/home/jbrawley/Desktop/rockbox-photo-cf-support/build/firmware/libfirmware.a(strlen.o)
                              /home/jbrawley/Desktop/rockbox-photo-cf-support/build/apps/bookmark.o (strlen)
/home/jbrawley/Desktop/rockbox-photo-cf-support/build/firmware/libfirmware.a(ata_idle_notify.o)
                              /home/jbrawley/Desktop/rockbox-photo-cf-support/build/apps/plugin.o (register_storage_idle_func)
/home/jbrawley/Desktop/rockbox-photo-cf-support/build/firmware/libfirmware.a(events.o)
                              /home/jbrawley/Desktop/rockbox-photo-cf-support/build/apps/menus/plugin_menu.o (add_event)
/home/jbrawley/Desktop/rockbox-photo-cf-support/build/firmware/libfirmware.a(backlight.o)
                              /home/jbrawley/Desktop/rockbox-photo-cf-support/build/apps/main.o (backlight_init)
/home/jbrawley/Desktop/rockbox-photo-cf-support/build/firmware/libfirmware.a(buflib_mempool.o)
                              /home/jbrawley/Desktop/rockbox-photo-cf-support/build/apps/plugin.o (buflib_init)
/home/jbrawley/Desktop/rockbox-photo-cf-support/build/firmware/libfirmware.a(core_alloc.o)
                              /home/jbrawley/Desktop/rockbox-photo-cf-support/build/apps/main.o (core_allocator_init)
/home/jbrawley/Desktop/rockbox-photo-cf-support/build/firmware/libfirmware.a(general.o)
                              /home/jbrawley/Desktop/rockbox-photo-cf-support/build/apps/menus/recording_menu.o (round_value_to_list32)
/home/jbrawley/Desktop/rockbox-photo-cf-support/build/firmware/libfirmware.a(powermgmt.o)
                              /home/jbrawley/Desktop/rockbox-photo-cf-support/build/apps/debug_menu.o (battery_level)
/home/jbrawley/Desktop/rockbox-photo-cf-support/build/firmware/libfirmware.a(system.o)
                              /home/jbrawley/Desktop/rockbox-photo-cf-support/build/apps/debug_menu.o (get_cpu_boost_counter)
/home/jbrawley/Desktop/rockbox-photo-cf-support/build/firmware/libfirmware.a(usb.o)
                              /home/jbrawley/Desktop/rockbox-photo-cf-support/build/apps/settings.o (usb_set_mode)
/home/jbrawley/Desktop/rockbox-photo-cf-support/build/firmware/libfirmware.a(load_code.o)
                              /home/jbrawley/Desktop/rockbox-photo-cf-support/build/apps/plugin.o (lc_open)
/home/jbrawley/Desktop/rockbox-photo-cf-support/build/firmware/libfirmware.a(rolo.o)
                              /home/jbrawley/Desktop/rockbox-photo-cf-support/build/apps/misc.o (rolo_load)
/home/jbrawley/Desktop/rockbox-photo-cf-support/build/firmware/libfirmware.a(timer.o)
                              /home/jbrawley/Desktop/rockbox-photo-cf-support/build/apps/plugin.o (timer_register)
/home/jbrawley/Desktop/rockbox-photo-cf-support/build/firmware/libfirmware.a(panic.o)
                              /home/jbrawley/Desktop/rockbox-photo-cf-support/build/apps/main.o (panicf)
/home/jbrawley/Desktop/rockbox-photo-cf-support/build/firmware/libfirmware.a(strptokspn.o)
                              /home/jbrawley/Desktop/rockbox-photo-cf-support/build/apps/gui/splash.o (strptokspn_r)
/home/jbrawley/Desktop/rockbox-photo-cf-support/build/firmware/libfirmware.a(version.o)
                              /home/jbrawley/Desktop/rockbox-photo-cf-support/build/apps/main.o (rbversion)
/home/jbrawley/Desktop/rockbox-photo-cf-support/build/firmware/libfirmware.a(crc32.o)
                              /home/jbrawley/Desktop/rockbox-photo-cf-support/build/apps/bookmark.o (crc_32)
/home/jbrawley/Desktop/rockbox-photo-cf-support/build/firmware/libfirmware.a(loader_strerror.o)
                              /home/jbrawley/Desktop/rockbox-photo-cf-support/build/firmware/libfirmware.a(rolo.o) (loader_strerror)
/home/jbrawley/Desktop/rockbox-photo-cf-support/build/firmware/libfirmware.a(dir.o)
                              /home/jbrawley/Desktop/rockbox-photo-cf-support/build/apps/misc.o (opendir)
/home/jbrawley/Desktop/rockbox-photo-cf-support/build/firmware/libfirmware.a(file.o)
                              /home/jbrawley/Desktop/rockbox-photo-cf-support/build/apps/bookmark.o (close)
/home/jbrawley/Desktop/rockbox-photo-cf-support/build/firmware/libfirmware.a(file_internal.o)
                              /home/jbrawley/Desktop/rockbox-photo-cf-support/build/firmware/libfirmware.a(file.o) (filestr_alloc_cache)
/home/jbrawley/Desktop/rockbox-photo-cf-support/build/firmware/libfirmware.a(disk.o)
                              /home/jbrawley/Desktop/rockbox-photo-cf-support/build/apps/debug_menu.o (disk_partinfo)
/home/jbrawley/Desktop/rockbox-photo-cf-support/build/firmware/libfirmware.a(fileobj_mgr.o)
                              /home/jbrawley/Desktop/rockbox-photo-cf-support/build/firmware/libfirmware.a(file_internal.o) (fileobj_fileop_open)
/home/jbrawley/Desktop/rockbox-photo-cf-support/build/firmware/libfirmware.a(dircache.o)
                              /home/jbrawley/Desktop/rockbox-photo-cf-support/build/firmware/libfirmware.a(dir.o) (dircache_readdir_dirent)
/home/jbrawley/Desktop/rockbox-photo-cf-support/build/firmware/libfirmware.a(pathfuncs.o)
                              /home/jbrawley/Desktop/rockbox-photo-cf-support/build/apps/playlist.o (path_strip_drive)
/home/jbrawley/Desktop/rockbox-photo-cf-support/build/firmware/libfirmware.a(fdprintf.o)
                              /home/jbrawley/Desktop/rockbox-photo-cf-support/build/apps/playlist.o (fdprintf)
/home/jbrawley/Desktop/rockbox-photo-cf-support/build/firmware/libfirmware.a(linked_list.o)
                              /home/jbrawley/Desktop/rockbox-photo-cf-support/build/firmware/libfirmware.a(fileobj_mgr.o) (ll_insert_first)
/home/jbrawley/Desktop/rockbox-photo-cf-support/build/firmware/libfirmware.a(rb_namespace.o)
                              /home/jbrawley/Desktop/rockbox-photo-cf-support/build/firmware/libfirmware.a(disk.o) (root_mount_path)
/home/jbrawley/Desktop/rockbox-photo-cf-support/build/firmware/libfirmware.a(strcasecmp.o)
                              /home/jbrawley/Desktop/rockbox-photo-cf-support/build/apps/filetypes.o (strcasecmp)
/home/jbrawley/Desktop/rockbox-photo-cf-support/build/firmware/libfirmware.a(strcasestr.o)
                              /home/jbrawley/Desktop/rockbox-photo-cf-support/build/apps/playlist_viewer.o (strcasestr)
/home/jbrawley/Desktop/rockbox-photo-cf-support/build/firmware/libfirmware.a(strnatcmp.o)
                              /home/jbrawley/Desktop/rockbox-photo-cf-support/build/apps/filetree.o (strnatcmp)
/home/jbrawley/Desktop/rockbox-photo-cf-support/build/firmware/libfirmware.a(strlcat.o)
                              /home/jbrawley/Desktop/rockbox-photo-cf-support/build/apps/bookmark.o (strlcat)
/home/jbrawley/Desktop/rockbox-photo-cf-support/build/firmware/libfirmware.a(strlcpy.o)
                              /home/jbrawley/Desktop/rockbox-photo-cf-support/build/apps/filetypes.o (strlcpy)
/home/jbrawley/Desktop/rockbox-photo-cf-support/build/firmware/libfirmware.a(strmemccpy.o)
                              /home/jbrawley/Desktop/rockbox-photo-cf-support/build/apps/bookmark.o (strmemccpy)
/home/jbrawley/Desktop/rockbox-photo-cf-support/build/firmware/libfirmware.a(structec.o)
                              /home/jbrawley/Desktop/rockbox-photo-cf-support/build/apps/talk.o (structec_convert)
/home/jbrawley/Desktop/rockbox-photo-cf-support/build/firmware/libfirmware.a(timefuncs.o)
                              /home/jbrawley/Desktop/rockbox-photo-cf-support/build/firmware/libfirmware.a(dir.o) (dostime_mktime)
/home/jbrawley/Desktop/rockbox-photo-cf-support/build/firmware/libfirmware.a(unicode.o)
                              /home/jbrawley/Desktop/rockbox-photo-cf-support/build/apps/plugin.o (utf8encode)
/home/jbrawley/Desktop/rockbox-photo-cf-support/build/firmware/libfirmware.a(vuprintf.o)
                              /home/jbrawley/Desktop/rockbox-photo-cf-support/build/firmware/libfirmware.a(fdprintf.o) (vuprintf)
/home/jbrawley/Desktop/rockbox-photo-cf-support/build/firmware/libfirmware.a(atoi.o)
                              /home/jbrawley/Desktop/rockbox-photo-cf-support/build/apps/bookmark.o (atoi)
/home/jbrawley/Desktop/rockbox-photo-cf-support/build/firmware/libfirmware.a(errno.o)
                              /home/jbrawley/Desktop/rockbox-photo-cf-support/build/apps/misc.o (__errno)
/home/jbrawley/Desktop/rockbox-photo-cf-support/build/firmware/libfirmware.a(ctype.o)
                              /home/jbrawley/Desktop/rockbox-photo-cf-support/build/apps/filetypes.o (_ctype_)
/home/jbrawley/Desktop/rockbox-photo-cf-support/build/firmware/libfirmware.a(sprintf.o)
                              /home/jbrawley/Desktop/rockbox-photo-cf-support/build/apps/misc.o (vsnprintf)
/home/jbrawley/Desktop/rockbox-photo-cf-support/build/firmware/libfirmware.a(memccpy.o)
                              /home/jbrawley/Desktop/rockbox-photo-cf-support/build/firmware/libfirmware.a(strmemccpy.o) (memccpy)
/home/jbrawley/Desktop/rockbox-photo-cf-support/build/firmware/libfirmware.a(memchr.o)
                              /home/jbrawley/Desktop/rockbox-photo-cf-support/build/apps/plugin.o (memchr)
/home/jbrawley/Desktop/rockbox-photo-cf-support/build/firmware/libfirmware.a(memcmp.o)
                              /home/jbrawley/Desktop/rockbox-photo-cf-support/build/apps/misc.o (memcmp)
/home/jbrawley/Desktop/rockbox-photo-cf-support/build/firmware/libfirmware.a(qsort.o)
                              /home/jbrawley/Desktop/rockbox-photo-cf-support/build/apps/playlist.o (qsort)
/home/jbrawley/Desktop/rockbox-photo-cf-support/build/firmware/libfirmware.a(random.o)
                              /home/jbrawley/Desktop/rockbox-photo-cf-support/build/apps/onplay.o (srand)
/home/jbrawley/Desktop/rockbox-photo-cf-support/build/firmware/libfirmware.a(strcat.o)
                              /home/jbrawley/Desktop/rockbox-photo-cf-support/build/apps/plugin.o (strcat)
/home/jbrawley/Desktop/rockbox-photo-cf-support/build/firmware/libfirmware.a(strchr.o)
                              /home/jbrawley/Desktop/rockbox-photo-cf-support/build/apps/bookmark.o (strchr)
/home/jbrawley/Desktop/rockbox-photo-cf-support/build/firmware/libfirmware.a(strcmp.o)
                              /home/jbrawley/Desktop/rockbox-photo-cf-support/build/apps/bookmark.o (strcmp)
/home/jbrawley/Desktop/rockbox-photo-cf-support/build/firmware/libfirmware.a(strcpy.o)
                              /home/jbrawley/Desktop/rockbox-photo-cf-support/build/apps/bookmark.o (strcpy)
/home/jbrawley/Desktop/rockbox-photo-cf-support/build/firmware/libfirmware.a(strcspn.o)
                              /home/jbrawley/Desktop/rockbox-photo-cf-support/build/apps/playlist.o (strcspn)
/home/jbrawley/Desktop/rockbox-photo-cf-support/build/firmware/libfirmware.a(strncmp.o)
                              /home/jbrawley/Desktop/rockbox-photo-cf-support/build/apps/open_plugin.o (strncmp)
/home/jbrawley/Desktop/rockbox-photo-cf-support/build/firmware/libfirmware.a(strrchr.o)
                              /home/jbrawley/Desktop/rockbox-photo-cf-support/build/apps/bookmark.o (strrchr)
/home/jbrawley/Desktop/rockbox-photo-cf-support/build/firmware/libfirmware.a(strstr.o)
                              /home/jbrawley/Desktop/rockbox-photo-cf-support/build/apps/open_plugin.o (strstr)
/home/jbrawley/Desktop/rockbox-photo-cf-support/build/firmware/libfirmware.a(mktime.o)
                              /home/jbrawley/Desktop/rockbox-photo-cf-support/build/apps/plugin.o (mktime)
/home/jbrawley/Desktop/rockbox-photo-cf-support/build/firmware/libfirmware.a(gmtime.o)
                              /home/jbrawley/Desktop/rockbox-photo-cf-support/build/apps/plugin.o (gmtime_r)
/home/jbrawley/Desktop/rockbox-photo-cf-support/build/firmware/libfirmware.a(scroll_engine.o)
                              /home/jbrawley/Desktop/rockbox-photo-cf-support/build/apps/plugin.o (lcd_scroll_stop)
/home/jbrawley/Desktop/rockbox-photo-cf-support/build/firmware/libfirmware.a(bidi.o)
                              /home/jbrawley/Desktop/rockbox-photo-cf-support/build/apps/plugin.o (bidi_l2v)
/home/jbrawley/Desktop/rockbox-photo-cf-support/build/firmware/libfirmware.a(font.o)
                              /home/jbrawley/Desktop/rockbox-photo-cf-support/build/apps/main.o (font_init)
/home/jbrawley/Desktop/rockbox-photo-cf-support/build/firmware/libfirmware.a(hangul.o)
                              /home/jbrawley/Desktop/rockbox-photo-cf-support/build/apps/recorder/keyboard.o (hangul_join)
/home/jbrawley/Desktop/rockbox-photo-cf-support/build/firmware/libfirmware.a(lru.o)
                              /home/jbrawley/Desktop/rockbox-photo-cf-support/build/firmware/libfirmware.a(font.o) (lru_traverse)
/home/jbrawley/Desktop/rockbox-photo-cf-support/build/firmware/libfirmware.a(screendump.o)
                              /home/jbrawley/Desktop/rockbox-photo-cf-support/build/firmware/libfirmware.a(usb.o) (screen_dump)
/home/jbrawley/Desktop/rockbox-photo-cf-support/build/firmware/libfirmware.a(lcd-16bit.o)
                              /home/jbrawley/Desktop/rockbox-photo-cf-support/build/apps/plugin.o (lcd_set_foreground)
/home/jbrawley/Desktop/rockbox-photo-cf-support/build/firmware/libfirmware.a(diacritic.o)
                              /home/jbrawley/Desktop/rockbox-photo-cf-support/build/apps/plugin.o (is_diacritic)
/home/jbrawley/Desktop/rockbox-photo-cf-support/build/firmware/libfirmware.a(led.o)
                              /home/jbrawley/Desktop/rockbox-photo-cf-support/build/apps/plugin.o (led)
/home/jbrawley/Desktop/rockbox-photo-cf-support/build/firmware/libfirmware.a(button.o)
                              /home/jbrawley/Desktop/rockbox-photo-cf-support/build/apps/plugin.o (button_queue_count)
/home/jbrawley/Desktop/rockbox-photo-cf-support/build/firmware/libfirmware.a(ata.o)
                              /home/jbrawley/Desktop/rockbox-photo-cf-support/build/apps/plugin.o (ata_spindown)
/home/jbrawley/Desktop/rockbox-photo-cf-support/build/firmware/libfirmware.a(storage.o)
                              /home/jbrawley/Desktop/rockbox-photo-cf-support/build/apps/buffering.o (storage_sleep)
/home/jbrawley/Desktop/rockbox-photo-cf-support/build/firmware/libfirmware.a(fat.o)
                              /home/jbrawley/Desktop/rockbox-photo-cf-support/build/firmware/libfirmware.a(fileobj_mgr.o) (fat_dir_is_parent)
/home/jbrawley/Desktop/rockbox-photo-cf-support/build/firmware/libfirmware.a(rtc_pcf50605.o)
                              /home/jbrawley/Desktop/rockbox-photo-cf-support/build/firmware/libfirmware.a(timefuncs.o) (rtc_read_datetime)
/home/jbrawley/Desktop/rockbox-photo-cf-support/build/firmware/libfirmware.a(tuner.o)
                              /home/jbrawley/Desktop/rockbox-photo-cf-support/build/apps/radio/radio.o (tuner_init)
/home/jbrawley/Desktop/rockbox-photo-cf-support/build/firmware/libfirmware.a(ipod_remote_tuner.o)
                              /home/jbrawley/Desktop/rockbox-photo-cf-support/build/apps/iap/iap-lingo7.o (rmt_tuner_freq)
/home/jbrawley/Desktop/rockbox-photo-cf-support/build/firmware/libfirmware.a(rds.o)
                              /home/jbrawley/Desktop/rockbox-photo-cf-support/build/firmware/libfirmware.a(ipod_remote_tuner.o) (rds_reset)
/home/jbrawley/Desktop/rockbox-photo-cf-support/build/firmware/libfirmware.a(sound.o)
                              /home/jbrawley/Desktop/rockbox-photo-cf-support/build/apps/settings_list.o (sound_set_channels)
/home/jbrawley/Desktop/rockbox-photo-cf-support/build/firmware/libfirmware.a(pcm_sampr.o)
                              /home/jbrawley/Desktop/rockbox-photo-cf-support/build/apps/menus/recording_menu.o (rec_freq_sampr)
/home/jbrawley/Desktop/rockbox-photo-cf-support/build/firmware/libfirmware.a(pcm.o)
                              /home/jbrawley/Desktop/rockbox-photo-cf-support/build/apps/plugin.o (pcm_is_playing)
/home/jbrawley/Desktop/rockbox-photo-cf-support/build/firmware/libfirmware.a(pcm_mixer.o)
                              /home/jbrawley/Desktop/rockbox-photo-cf-support/build/apps/voice_thread.o (mixer_channel_play_data)
/home/jbrawley/Desktop/rockbox-photo-cf-support/build/firmware/libfirmware.a(enc_base.o)
                              /home/jbrawley/Desktop/rockbox-photo-cf-support/build/apps/gui/statusbar.o (mp3_enc_bitr)
/home/jbrawley/Desktop/rockbox-photo-cf-support/build/firmware/libfirmware.a(audiohw-swcodec.o)
                              /home/jbrawley/Desktop/rockbox-photo-cf-support/build/firmware/libfirmware.a(sound.o) (audiohw_set_channel)
/home/jbrawley/Desktop/rockbox-photo-cf-support/build/firmware/libfirmware.a(wm8975.o)
                              /home/jbrawley/Desktop/rockbox-photo-cf-support/build/firmware/libfirmware.a(sound.o) (audiohw_set_volume)
/home/jbrawley/Desktop/rockbox-photo-cf-support/build/firmware/libfirmware.a(system-arm.o)
                              /home/jbrawley/Desktop/rockbox-photo-cf-support/build/firmware/target/arm/pp/crt0-pp.o (data_abort_handler)
/home/jbrawley/Desktop/rockbox-photo-cf-support/build/firmware/libfirmware.a(ata-pp5020.o)
                              /home/jbrawley/Desktop/rockbox-photo-cf-support/build/firmware/libfirmware.a(ata.o) (ata_reset)
/home/jbrawley/Desktop/rockbox-photo-cf-support/build/firmware/libfirmware.a(ata-as-arm.o)
                              /home/jbrawley/Desktop/rockbox-photo-cf-support/build/firmware/libfirmware.a(ata.o) (copy_read_sectors)
/home/jbrawley/Desktop/rockbox-photo-cf-support/build/firmware/libfirmware.a(power-ipod.o)
                              /home/jbrawley/Desktop/rockbox-photo-cf-support/build/apps/main.o (power_init)
/home/jbrawley/Desktop/rockbox-photo-cf-support/build/firmware/libfirmware.a(piezo.o)
                              /home/jbrawley/Desktop/rockbox-photo-cf-support/build/apps/main.o (piezo_init)
/home/jbrawley/Desktop/rockbox-photo-cf-support/build/firmware/libfirmware.a(pcf50605.o)
                              /home/jbrawley/Desktop/rockbox-photo-cf-support/build/apps/debug_menu.o (pcf50605_read)
/home/jbrawley/Desktop/rockbox-photo-cf-support/build/firmware/libfirmware.a(powermgmt-ipod-pcf.o)
                              /home/jbrawley/Desktop/rockbox-photo-cf-support/build/firmware/libfirmware.a(powermgmt.o) (_battery_voltage)
/home/jbrawley/Desktop/rockbox-photo-cf-support/build/firmware/libfirmware.a(i2c-pp.o)
                              /home/jbrawley/Desktop/rockbox-photo-cf-support/build/firmware/libfirmware.a(pcf50605.o) (i2c_lock)
/home/jbrawley/Desktop/rockbox-photo-cf-support/build/firmware/libfirmware.a(timer-pp.o)
                              /home/jbrawley/Desktop/rockbox-photo-cf-support/build/firmware/libfirmware.a(timer.o) (timer_set)
/home/jbrawley/Desktop/rockbox-photo-cf-support/build/firmware/libfirmware.a(wmcodec-pp.o)
                              /home/jbrawley/Desktop/rockbox-photo-cf-support/build/firmware/libfirmware.a(wm8975.o) (wmcodec_write)
/home/jbrawley/Desktop/rockbox-photo-cf-support/build/firmware/libfirmware.a(usb-fw-pp502x.o)
                              /home/jbrawley/Desktop/rockbox-photo-cf-support/build/firmware/libfirmware.a(usb.o) (usb_init_device)
/home/jbrawley/Desktop/rockbox-photo-cf-support/build/firmware/libfirmware.a(system-pp502x.o)
                              /home/jbrawley/Desktop/rockbox-photo-cf-support/build/firmware/target/arm/pp/crt0-pp.o (irq_handler)
/home/jbrawley/Desktop/rockbox-photo-cf-support/build/firmware/libfirmware.a(uart-pp.o)
                              /home/jbrawley/Desktop/rockbox-photo-cf-support/build/apps/main.o (serial_setup)
/home/jbrawley/Desktop/rockbox-photo-cf-support/build/firmware/libfirmware.a(pcm-pp.o)
                              /home/jbrawley/Desktop/rockbox-photo-cf-support/build/firmware/target/arm/pp/crt0-pp.o (fiq_handler)
/home/jbrawley/Desktop/rockbox-photo-cf-support/build/firmware/libfirmware.a(debug-pp.o)
                              /home/jbrawley/Desktop/rockbox-photo-cf-support/build/apps/debug_menu.o (dbg_ports)
/home/jbrawley/Desktop/rockbox-photo-cf-support/build/firmware/libfirmware.a(audio-pp.o)
                              /home/jbrawley/Desktop/rockbox-photo-cf-support/build/apps/plugin.o (audio_set_output_source)
/home/jbrawley/Desktop/rockbox-photo-cf-support/build/firmware/libfirmware.a(lcd-color_nano.o)
                              /home/jbrawley/Desktop/rockbox-photo-cf-support/build/firmware/libfirmware.a(lcd-16bit.o) (lcd_init_device)
/home/jbrawley/Desktop/rockbox-photo-cf-support/build/firmware/libfirmware.a(usb_core.o)
                              /home/jbrawley/Desktop/rockbox-photo-cf-support/build/firmware/libfirmware.a(usb-fw-pp502x.o) (usb_core_init)
/home/jbrawley/Desktop/rockbox-photo-cf-support/build/firmware/libfirmware.a(usb_storage.o)
                              /home/jbrawley/Desktop/rockbox-photo-cf-support/build/firmware/libfirmware.a(usb_core.o) (usb_storage_init)
/home/jbrawley/Desktop/rockbox-photo-cf-support/build/firmware/libfirmware.a(usb_hid.o)
                              /home/jbrawley/Desktop/rockbox-photo-cf-support/build/firmware/libfirmware.a(usb_core.o) (usb_hid_request_endpoints)
/home/jbrawley/Desktop/rockbox-photo-cf-support/build/firmware/libfirmware.a(usb-drv-arc.o)
                              /home/jbrawley/Desktop/rockbox-photo-cf-support/build/firmware/libfirmware.a(usb-fw-pp502x.o) (usb_drv_startup)
/home/jbrawley/Desktop/rockbox-photo-cf-support/build/firmware/libfirmware.a(adc-ipod-pcf.o)
                              /home/jbrawley/Desktop/rockbox-photo-cf-support/build/firmware/libfirmware.a(ipod_remote_tuner.o) (adc_read)
/home/jbrawley/Desktop/rockbox-photo-cf-support/build/firmware/libfirmware.a(backlight-4g_color.o)
                              /home/jbrawley/Desktop/rockbox-photo-cf-support/build/firmware/libfirmware.a(backlight.o) (backlight_hw_on)
/home/jbrawley/Desktop/rockbox-photo-cf-support/build/firmware/libfirmware.a(button-clickwheel.o)
                              /home/jbrawley/Desktop/rockbox-photo-cf-support/build/apps/plugin.o (wheel_status)
/home/jbrawley/Desktop/rockbox-photo-cf-support/build/firmware/libfirmware.a(lcd-as-color-nano.o)
                              /home/jbrawley/Desktop/rockbox-photo-cf-support/build/firmware/libfirmware.a(lcd-color_nano.o) (lcd_write_yuv420_lines)
/home/jbrawley/Desktop/rockbox-photo-cf-support/build/firmware/libfirmware.a(corelock.o)
                              /home/jbrawley/Desktop/rockbox-photo-cf-support/build/firmware/libfirmware.a(system-pp502x.o) (corelock_init)
/home/jbrawley/Desktop/rockbox-photo-cf-support/build/firmware/libfirmware.a(mrsw_lock.o)
                              /home/jbrawley/Desktop/rockbox-photo-cf-support/build/firmware/libfirmware.a(file_internal.o) (mrsw_init)
/home/jbrawley/Desktop/rockbox-photo-cf-support/build/firmware/libfirmware.a(mutex.o)
                              /home/jbrawley/Desktop/rockbox-photo-cf-support/build/apps/buffering.o (mutex_init)
/home/jbrawley/Desktop/rockbox-photo-cf-support/build/firmware/libfirmware.a(queue.o)
                              /home/jbrawley/Desktop/rockbox-photo-cf-support/build/apps/buffering.o (queue_enable_queue_send)
/home/jbrawley/Desktop/rockbox-photo-cf-support/build/firmware/libfirmware.a(semaphore.o)
                              /home/jbrawley/Desktop/rockbox-photo-cf-support/build/apps/plugin.o (semaphore_init)
/home/jbrawley/Desktop/rockbox-photo-cf-support/build/firmware/libfirmware.a(thread.o)
                              /home/jbrawley/Desktop/rockbox-photo-cf-support/build/firmware/libfirmware.a(mrsw_lock.o) (priority_disinherit)
/home/jbrawley/Desktop/rockbox-photo-cf-support/build/firmware/libfirmware.a(thread-common.o)
                              /home/jbrawley/Desktop/rockbox-photo-cf-support/build/firmware/libfirmware.a(thread.o) (thread_alloc_init)
/home/jbrawley/Desktop/rockbox-photo-cf-support/build/firmware/libfirmware.a(tick.o)
                              /home/jbrawley/Desktop/rockbox-photo-cf-support/build/apps/debug_menu.o (tick_add_task)
/home/jbrawley/Desktop/rockbox-photo-cf-support/build/firmware/libfirmware.a(timeout.o)
                              /home/jbrawley/Desktop/rockbox-photo-cf-support/build/firmware/libfirmware.a(usb_core.o) (timeout_cancel)
/home/jbrawley/Desktop/rockbox-photo-cf-support/build/firmware/libfirmware.a(sysfont.o)
                              /home/jbrawley/Desktop/rockbox-photo-cf-support/build/firmware/libfirmware.a(font.o) (sysfont)
/home/jbrawley/Desktop/rockbox-photo-cf-support/build/firmware/libfirmware.a(memset16.o)
                              /home/jbrawley/Desktop/rockbox-photo-cf-support/build/firmware/libfirmware.a(lcd-16bit.o) (memset16)
/home/jbrawley/Desktop/rockbox-photo-cf-support/build/firmware/libfirmware.a(rb-loader.o)
                              /home/jbrawley/Desktop/rockbox-photo-cf-support/build/firmware/libfirmware.a(rolo.o) (load_firmware)
/home/jbrawley/Desktop/rockbox-photo-cf-support/build/firmware/libfirmware.a(ap_int.o)
                              /home/jbrawley/Desktop/rockbox-photo-cf-support/build/firmware/libfirmware.a(vuprintf.o) (round_number_string10)
/home/jbrawley/Desktop/rockbox-photo-cf-support/build/firmware/libfirmware.a(disk_cache.o)
                              /home/jbrawley/Desktop/rockbox-photo-cf-support/build/firmware/libfirmware.a(fat.o) (dc_cache_probe)
/home/jbrawley/Desktop/rockbox-photo-cf-support/build/firmware/libfirmware.a(arabjoin.o)
                              /home/jbrawley/Desktop/rockbox-photo-cf-support/build/firmware/libfirmware.a(bidi.o) (jointable)
/home/jbrawley/Desktop/rockbox-photo-cf-support/build/firmware/libfirmware.a(font_cache.o)
                              /home/jbrawley/Desktop/rockbox-photo-cf-support/build/firmware/libfirmware.a(font.o) (font_cache_create)
/home/jbrawley/Desktop/rockbox-photo-cf-support/build/firmware/libfirmware.a(i2s-pp.o)
                              /home/jbrawley/Desktop/rockbox-photo-cf-support/build/firmware/libfirmware.a(wmcodec-pp.o) (i2s_reset)
/home/jbrawley/Desktop/rockbox-photo-cf-support/build/firmware/libfirmware.a(kernel-pp.o)
                              /home/jbrawley/Desktop/rockbox-photo-cf-support/build/firmware/libfirmware.a(system-pp502x.o) (TIMER1)
/home/jbrawley/Desktop/rockbox-photo-cf-support/build/lib/libunwarminder.a(backtrace-unwarminder.o)
                              /home/jbrawley/Desktop/rockbox-photo-cf-support/build/firmware/libfirmware.a(panic.o) (rb_backtrace)
/home/jbrawley/Desktop/rockbox-photo-cf-support/build/lib/libunwarminder.a(get_sp.o)
                              /home/jbrawley/Desktop/rockbox-photo-cf-support/build/firmware/libfirmware.a(system-arm.o) (__get_sp)
/home/jbrawley/Desktop/rockbox-photo-cf-support/build/lib/libunwarminder.a(unwarminder.o)
                              /home/jbrawley/Desktop/rockbox-photo-cf-support/build/lib/libunwarminder.a(backtrace-unwarminder.o) (UnwindStart)
/home/jbrawley/Desktop/rockbox-photo-cf-support/build/lib/libunwarminder.a(unwarm_thumb.o)
                              /home/jbrawley/Desktop/rockbox-photo-cf-support/build/lib/libunwarminder.a(unwarminder.o) (UnwStartThumb)
/home/jbrawley/Desktop/rockbox-photo-cf-support/build/lib/libunwarminder.a(safe_read.o)
                              /home/jbrawley/Desktop/rockbox-photo-cf-support/build/lib/libunwarminder.a(backtrace-unwarminder.o) (safe_read8)
/home/jbrawley/Desktop/rockbox-photo-cf-support/build/lib/libunwarminder.a(unwarm_arm.o)
                              /home/jbrawley/Desktop/rockbox-photo-cf-support/build/lib/libunwarminder.a(unwarminder.o) (UnwStartArm)
/home/jbrawley/Desktop/rockbox-photo-cf-support/build/lib/libunwarminder.a(unwarm.o)
                              /home/jbrawley/Desktop/rockbox-photo-cf-support/build/lib/libunwarminder.a(unwarm_thumb.o) (UnwInvalidateRegisterFile)
/home/jbrawley/Desktop/rockbox-photo-cf-support/build/lib/libunwarminder.a(unwarmmem.o)
                              /home/jbrawley/Desktop/rockbox-photo-cf-support/build/lib/libunwarminder.a(unwarm.o) (UnwMemHashRead)
/home/jbrawley/Desktop/rockbox-photo-cf-support/build/lib/libskin_parser.a(skin_buffer.o)
                              /home/jbrawley/Desktop/rockbox-photo-cf-support/build/apps/gui/skin_engine/skin_parser.o (skin_buffer_init)
/home/jbrawley/Desktop/rockbox-photo-cf-support/build/lib/libskin_parser.a(skin_parser.o)
                              /home/jbrawley/Desktop/rockbox-photo-cf-support/build/apps/gui/skin_engine/skin_parser.o (skin_parse)
/home/jbrawley/Desktop/rockbox-photo-cf-support/build/lib/libskin_parser.a(skin_scan.o)
                              /home/jbrawley/Desktop/rockbox-photo-cf-support/build/lib/libskin_parser.a(skin_parser.o) (skip_comment)
/home/jbrawley/Desktop/rockbox-photo-cf-support/build/lib/libskin_parser.a(tag_table.o)
                              /home/jbrawley/Desktop/rockbox-photo-cf-support/build/lib/libskin_parser.a(skin_parser.o) (find_tag)
/home/jbrawley/Desktop/rockbox-photo-cf-support/build/lib/libarm_support.a(support-arm.o)
                              /home/jbrawley/Desktop/rockbox-photo-cf-support/build/apps/debug_menu.o (__aeabi_uidivmod)
/home/jbrawley/Desktop/rockbox-photo-cf-support/build/lib/libfixedpoint.a(fixedpoint.o)
                              /home/jbrawley/Desktop/rockbox-photo-cf-support/build/lib/librbcodec.a(dsp_filter.o) (fp_sincos)
/usr/local/lib/gcc/arm-elf-eabi/4.9.4/libgcc.a(_lshrdi3.o)
                              /home/jbrawley/Desktop/rockbox-photo-cf-support/build/firmware/libfirmware.a(vuprintf.o) (__aeabi_llsr)
/usr/local/lib/gcc/arm-elf-eabi/4.9.4/libgcc.a(_ashrdi3.o)
                              /home/jbrawley/Desktop/rockbox-photo-cf-support/build/lib/librbcodec.a(tdspeed.o) (__aeabi_lasr)
/usr/local/lib/gcc/arm-elf-eabi/4.9.4/libgcc.a(_ashldi3.o)
                              /home/jbrawley/Desktop/rockbox-photo-cf-support/build/firmware/libfirmware.a(vuprintf.o) (__aeabi_llsl)
/usr/local/lib/gcc/arm-elf-eabi/4.9.4/libgcc.a(_arm_addsubdf3.o)
                              /home/jbrawley/Desktop/rockbox-photo-cf-support/build/apps/iap/iap-core.o (__aeabi_i2d)
/usr/local/lib/gcc/arm-elf-eabi/4.9.4/libgcc.a(_arm_muldivdf3.o)
                              /home/jbrawley/Desktop/rockbox-photo-cf-support/build/apps/iap/iap-core.o (__aeabi_dmul)
/usr/local/lib/gcc/arm-elf-eabi/4.9.4/libgcc.a(_arm_fixdfsi.o)
                              /home/jbrawley/Desktop/rockbox-photo-cf-support/build/apps/iap/iap-core.o (__aeabi_d2iz)
/usr/local/lib/gcc/arm-elf-eabi/4.9.4/libgcc.a(_aeabi_ldivmod.o)
                              /home/jbrawley/Desktop/rockbox-photo-cf-support/build/apps/misc.o (__aeabi_ldivmod)
/usr/local/lib/gcc/arm-elf-eabi/4.9.4/libgcc.a(_aeabi_uldivmod.o)
                              /home/jbrawley/Desktop/rockbox-photo-cf-support/build/apps/debug_menu.o (__aeabi_uldivmod)
/usr/local/lib/gcc/arm-elf-eabi/4.9.4/libgcc.a(_ctzdi2.o)
                              /home/jbrawley/Desktop/rockbox-photo-cf-support/build/firmware/libfirmware.a(vuprintf.o) (__ctzdi2)
/usr/local/lib/gcc/arm-elf-eabi/4.9.4/libgcc.a(bpabi.o)
                              /usr/local/lib/gcc/arm-elf-eabi/4.9.4/libgcc.a(_aeabi_ldivmod.o) (__gnu_ldivmod_helper)
/usr/local/lib/gcc/arm-elf-eabi/4.9.4/libgcc.a(_dvmd_tls.o)
                              /usr/local/lib/gcc/arm-elf-eabi/4.9.4/libgcc.a(_aeabi_ldivmod.o) (__aeabi_ldiv0)
/usr/local/lib/gcc/arm-elf-eabi/4.9.4/libgcc.a(_ctzsi2.o)
                              /usr/local/lib/gcc/arm-elf-eabi/4.9.4/libgcc.a(_ctzdi2.o) (__ctzsi2)
/usr/local/lib/gcc/arm-elf-eabi/4.9.4/libgcc.a(_divdi3.o)
                              /usr/local/lib/gcc/arm-elf-eabi/4.9.4/libgcc.a(bpabi.o) (__divdi3)
/usr/local/lib/gcc/arm-elf-eabi/4.9.4/libgcc.a(_udivdi3.o)
                              /usr/local/lib/gcc/arm-elf-eabi/4.9.4/libgcc.a(bpabi.o) (__udivdi3)
/usr/local/lib/gcc/arm-elf-eabi/4.9.4/libgcc.a(_clzdi2.o)
                              /usr/local/lib/gcc/arm-elf-eabi/4.9.4/libgcc.a(_divdi3.o) (__clzdi2)

Allocating common symbols
Common symbol       size              file

statusbars          0x54              /home/jbrawley/Desktop/rockbox-photo-cf-support/build/apps/gui/statusbar.o
iap_txpayload       0x4               /home/jbrawley/Desktop/rockbox-photo-cf-support/build/apps/iap/iap-core.o
base_LSR            0x4               /home/jbrawley/Desktop/rockbox-photo-cf-support/build/firmware/libfirmware.a(uart-pp.o)
crossfade_infader   0x24              /home/jbrawley/Desktop/rockbox-photo-cf-support/build/apps/pcmbuf.o
tick_funcs          0x24              /home/jbrawley/Desktop/rockbox-photo-cf-support/build/firmware/libfirmware.a(tick.o)
language_strings    0xde0             /home/jbrawley/Desktop/rockbox-photo-cf-support/build/lang/lang_core.o
power_thread_inputs
                    0x4               /home/jbrawley/Desktop/rockbox-photo-cf-support/build/firmware/libfirmware.a(powermgmt.o)
global_status       0x30              /home/jbrawley/Desktop/rockbox-photo-cf-support/build/apps/settings.o
lastfile            0x104             /home/jbrawley/Desktop/rockbox-photo-cf-support/build/apps/tree.o
base_THR            0x4               /home/jbrawley/Desktop/rockbox-photo-cf-support/build/firmware/libfirmware.a(uart-pp.o)
base_DLL            0x4               /home/jbrawley/Desktop/rockbox-photo-cf-support/build/firmware/libfirmware.a(uart-pp.o)
charger_input_state
                    0x1               /home/jbrawley/Desktop/rockbox-photo-cf-support/build/firmware/libfirmware.a(powermgmt.o)
base_RBR            0x4               /home/jbrawley/Desktop/rockbox-photo-cf-support/build/firmware/libfirmware.a(uart-pp.o)
root_menu_          0xc               /home/jbrawley/Desktop/rockbox-photo-cf-support/build/apps/root_menu.o
iap_txnext          0x4               /home/jbrawley/Desktop/rockbox-photo-cf-support/build/apps/iap/iap-core.o
curr_freq           0x4               /home/jbrawley/Desktop/rockbox-photo-cf-support/build/apps/radio/radio.o
usb_keypad_mode     0x4               /home/jbrawley/Desktop/rockbox-photo-cf-support/build/apps/gui/usb_screen.o
temp_buffer         0x4               /home/jbrawley/Desktop/rockbox-photo-cf-support/build/lib/librbcodec.a(pbe.o)
global_settings     0x6ec             /home/jbrawley/Desktop/rockbox-photo-cf-support/build/apps/settings.o
device              0x6c              /home/jbrawley/Desktop/rockbox-photo-cf-support/build/apps/iap/iap-core.o
core_ctx            0x18              /home/jbrawley/Desktop/rockbox-photo-cf-support/build/firmware/libfirmware.a(core_alloc.o)
base_LCR            0x4               /home/jbrawley/Desktop/rockbox-photo-cf-support/build/firmware/libfirmware.a(uart-pp.o)

Discarded input sections

 .data          0x0000000000000000        0x0 /home/jbrawley/Desktop/rockbox-photo-cf-support/build/firmware/target/arm/pp/crt0-pp.o
 .bss           0x0000000000000000        0x0 /home/jbrawley/Desktop/rockbox-photo-cf-support/build/firmware/target/arm/pp/crt0-pp.o
 .bss           0x0000000000000000        0x0 /home/jbrawley/Desktop/rockbox-photo-cf-support/build/apps/action.o
 .data          0x0000000000000000        0x0 /home/jbrawley/Desktop/rockbox-photo-cf-support/build/apps/alarm_menu.o
 .bss           0x0000000000000000        0x0 /home/jbrawley/Desktop/rockbox-photo-cf-support/build/apps/alarm_menu.o
 .data          0x0000000000000000        0x0 /home/jbrawley/Desktop/rockbox-photo-cf-support/build/apps/abrepeat.o
 .data          0x0000000000000000        0x0 /home/jbrawley/Desktop/rockbox-photo-cf-support/build/apps/core_keymap.o
 .bss           0x0000000000000000        0x0 /home/jbrawley/Desktop/rockbox-photo-cf-support/build/apps/core_keymap.o
 .data          0x0000000000000000        0x0 /home/jbrawley/Desktop/rockbox-photo-cf-support/build/apps/language.o
 .data          0x0000000000000000        0x0 /home/jbrawley/Desktop/rockbox-photo-cf-support/build/apps/main.o
 .bss           0x0000000000000000        0x0 /home/jbrawley/Desktop/rockbox-photo-cf-support/build/apps/main.o
 .data          0x0000000000000000        0x0 /home/jbrawley/Desktop/rockbox-photo-cf-support/build/apps/menus/menu_common.o
 .bss           0x0000000000000000        0x0 /home/jbrawley/Desktop/rockbox-photo-cf-support/build/apps/menus/menu_common.o
 .bss           0x0000000000000000        0x0 /home/jbrawley/Desktop/rockbox-photo-cf-support/build/apps/menus/radio_menu.o
 .bss           0x0000000000000000        0x0 /home/jbrawley/Desktop/rockbox-photo-cf-support/build/apps/menus/eq_menu.o
 .data          0x0000000000000000        0x0 /home/jbrawley/Desktop/rockbox-photo-cf-support/build/apps/buffering.o
 .bss           0x0000000000000000        0x0 /home/jbrawley/Desktop/rockbox-photo-cf-support/build/apps/menus/playlist_menu.o
 .data          0x0000000000000000        0x0 /home/jbrawley/Desktop/rockbox-photo-cf-support/build/apps/open_plugin.o
 .data          0x0000000000000000        0x0 /home/jbrawley/Desktop/rockbox-photo-cf-support/build/apps/playlist_catalog.o
 .bss           0x0000000000000000        0x0 /home/jbrawley/Desktop/rockbox-photo-cf-support/build/apps/screens.o
 .data          0x0000000000000000        0x0 /home/jbrawley/Desktop/rockbox-photo-cf-support/build/apps/settings.o
 .data          0x0000000000000000        0x0 /home/jbrawley/Desktop/rockbox-photo-cf-support/build/apps/status.o
 .data          0x0000000000000000        0x0 /home/jbrawley/Desktop/rockbox-photo-cf-support/build/apps/cuesheet.o
 .bss           0x0000000000000000        0x0 /home/jbrawley/Desktop/rockbox-photo-cf-support/build/apps/cuesheet.o
 .data          0x0000000000000000        0x0 /home/jbrawley/Desktop/rockbox-photo-cf-support/build/apps/filetree.o
 .data          0x0000000000000000        0x0 /home/jbrawley/Desktop/rockbox-photo-cf-support/build/apps/iap/iap-lingo0.o
 .bss           0x0000000000000000        0x0 /home/jbrawley/Desktop/rockbox-photo-cf-support/build/apps/iap/iap-lingo0.o
 .data          0x0000000000000000        0x0 /home/jbrawley/Desktop/rockbox-photo-cf-support/build/apps/iap/iap-lingo1.o
 .bss           0x0000000000000000        0x0 /home/jbrawley/Desktop/rockbox-photo-cf-support/build/apps/iap/iap-lingo1.o
 .data          0x0000000000000000        0x0 /home/jbrawley/Desktop/rockbox-photo-cf-support/build/apps/iap/iap-lingo2.o
 .data          0x0000000000000000        0x0 /home/jbrawley/Desktop/rockbox-photo-cf-support/build/apps/iap/iap-lingo3.o
 .bss           0x0000000000000000        0x0 /home/jbrawley/Desktop/rockbox-photo-cf-support/build/apps/iap/iap-lingo3.o
 .data          0x0000000000000000        0x0 /home/jbrawley/Desktop/rockbox-photo-cf-support/build/apps/iap/iap-lingo4.o
 .data          0x0000000000000000        0x0 /home/jbrawley/Desktop/rockbox-photo-cf-support/build/apps/iap/iap-lingo7.o
 .bss           0x0000000000000000        0x0 /home/jbrawley/Desktop/rockbox-photo-cf-support/build/apps/iap/iap-lingo7.o
 .bss           0x0000000000000000        0x0 /home/jbrawley/Desktop/rockbox-photo-cf-support/build/apps/screen_access.o
 .data          0x0000000000000000        0x0 /home/jbrawley/Desktop/rockbox-photo-cf-support/build/apps/gui/list.o
 .data          0x0000000000000000        0x0 /home/jbrawley/Desktop/rockbox-photo-cf-support/build/apps/gui/line.o
 .data          0x0000000000000000        0x0 /home/jbrawley/Desktop/rockbox-photo-cf-support/build/apps/gui/bitmap/list.o
 .data          0x0000000000000000        0x0 /home/jbrawley/Desktop/rockbox-photo-cf-support/build/apps/gui/bitmap/list-skinned.o
 .data          0x0000000000000000        0x0 /home/jbrawley/Desktop/rockbox-photo-cf-support/build/apps/gui/option_select.o
 .data          0x0000000000000000        0x0 /home/jbrawley/Desktop/rockbox-photo-cf-support/build/apps/gui/pitchscreen.o
 .bss           0x0000000000000000        0x0 /home/jbrawley/Desktop/rockbox-photo-cf-support/build/apps/gui/pitchscreen.o
 .data          0x0000000000000000        0x0 /home/jbrawley/Desktop/rockbox-photo-cf-support/build/apps/gui/quickscreen.o
 .bss           0x0000000000000000        0x0 /home/jbrawley/Desktop/rockbox-photo-cf-support/build/apps/gui/quickscreen.o
 .text          0x0000000000000000      0xa24 /home/jbrawley/Desktop/rockbox-photo-cf-support/build/apps/gui/folder_select.o
 .data          0x0000000000000000       0x10 /home/jbrawley/Desktop/rockbox-photo-cf-support/build/apps/gui/folder_select.o
 .bss           0x0000000000000000       0x20 /home/jbrawley/Desktop/rockbox-photo-cf-support/build/apps/gui/folder_select.o
 .rodata        0x0000000000000000        0x4 /home/jbrawley/Desktop/rockbox-photo-cf-support/build/apps/gui/folder_select.o
 .rodata.str1.1
                0x0000000000000000        0xd /home/jbrawley/Desktop/rockbox-photo-cf-support/build/apps/gui/folder_select.o
 .comment       0x0000000000000000       0x12 /home/jbrawley/Desktop/rockbox-photo-cf-support/build/apps/gui/folder_select.o
 .ARM.attributes
                0x0000000000000000       0x30 /home/jbrawley/Desktop/rockbox-photo-cf-support/build/apps/gui/folder_select.o
 .bss           0x0000000000000000        0x0 /home/jbrawley/Desktop/rockbox-photo-cf-support/build/apps/gui/mask_select.o
 .data          0x0000000000000000        0x0 /home/jbrawley/Desktop/rockbox-photo-cf-support/build/apps/gui/wps.o
 .data          0x0000000000000000        0x0 /home/jbrawley/Desktop/rockbox-photo-cf-support/build/apps/gui/splash.o
 .data          0x0000000000000000        0x0 /home/jbrawley/Desktop/rockbox-photo-cf-support/build/apps/gui/statusbar.o
 .bss           0x0000000000000000        0x0 /home/jbrawley/Desktop/rockbox-photo-cf-support/build/apps/gui/statusbar.o
 .data          0x0000000000000000        0x0 /home/jbrawley/Desktop/rockbox-photo-cf-support/build/apps/gui/yesno.o
 .bss           0x0000000000000000        0x0 /home/jbrawley/Desktop/rockbox-photo-cf-support/build/apps/gui/yesno.o
 .data          0x0000000000000000        0x0 /home/jbrawley/Desktop/rockbox-photo-cf-support/build/apps/gui/viewport.o
 .data          0x0000000000000000        0x0 /home/jbrawley/Desktop/rockbox-photo-cf-support/build/apps/gui/skin_engine/skin_display.o
 .bss           0x0000000000000000        0x0 /home/jbrawley/Desktop/rockbox-photo-cf-support/build/apps/gui/skin_engine/skin_display.o
 .data          0x0000000000000000        0x0 /home/jbrawley/Desktop/rockbox-photo-cf-support/build/apps/gui/skin_engine/skin_engine.o
 .data          0x0000000000000000        0x0 /home/jbrawley/Desktop/rockbox-photo-cf-support/build/apps/gui/skin_engine/skin_render.o
 .data          0x0000000000000000        0x0 /home/jbrawley/Desktop/rockbox-photo-cf-support/build/apps/gui/skin_engine/skin_tokens.o
 .data          0x0000000000000000        0x0 /home/jbrawley/Desktop/rockbox-photo-cf-support/build/apps/gui/backdrop.o
 .bss           0x0000000000000000        0x0 /home/jbrawley/Desktop/rockbox-photo-cf-support/build/apps/gui/backdrop.o
 .data          0x0000000000000000        0x0 /home/jbrawley/Desktop/rockbox-photo-cf-support/build/apps/recorder/bmp.o
 .bss           0x0000000000000000        0x0 /home/jbrawley/Desktop/rockbox-photo-cf-support/build/apps/recorder/bmp.o
 .text          0x0000000000000000        0x0 /home/jbrawley/Desktop/rockbox-photo-cf-support/build/apps/recorder/icons.o
 .data          0x0000000000000000        0x0 /home/jbrawley/Desktop/rockbox-photo-cf-support/build/apps/recorder/icons.o
 .bss           0x0000000000000000        0x0 /home/jbrawley/Desktop/rockbox-photo-cf-support/build/apps/recorder/icons.o
 .data          0x0000000000000000        0x0 /home/jbrawley/Desktop/rockbox-photo-cf-support/build/apps/recorder/keyboard.o
 .data          0x0000000000000000        0x0 /home/jbrawley/Desktop/rockbox-photo-cf-support/build/apps/recorder/resize.o
 .bss           0x0000000000000000        0x0 /home/jbrawley/Desktop/rockbox-photo-cf-support/build/apps/recorder/resize.o
 .data          0x0000000000000000        0x0 /home/jbrawley/Desktop/rockbox-photo-cf-support/build/apps/recorder/jpeg_load.o
 .bss           0x0000000000000000        0x0 /home/jbrawley/Desktop/rockbox-photo-cf-support/build/apps/recorder/jpeg_load.o
 .data          0x0000000000000000        0x0 /home/jbrawley/Desktop/rockbox-photo-cf-support/build/apps/recorder/jpeg_idct_arm.o
 .bss           0x0000000000000000        0x0 /home/jbrawley/Desktop/rockbox-photo-cf-support/build/apps/recorder/jpeg_idct_arm.o
 .data          0x0000000000000000        0x0 /home/jbrawley/Desktop/rockbox-photo-cf-support/build/apps/recorder/albumart.o
 .bss           0x0000000000000000        0x0 /home/jbrawley/Desktop/rockbox-photo-cf-support/build/apps/recorder/albumart.o
 .data          0x0000000000000000        0x0 /home/jbrawley/Desktop/rockbox-photo-cf-support/build/apps/gui/color_picker.o
 .bss           0x0000000000000000        0x0 /home/jbrawley/Desktop/rockbox-photo-cf-support/build/apps/gui/color_picker.o
 .data          0x0000000000000000        0x0 /home/jbrawley/Desktop/rockbox-photo-cf-support/build/apps/recorder/recording.o
 .data          0x0000000000000000        0x0 /home/jbrawley/Desktop/rockbox-photo-cf-support/build/apps/radio/radio.o
 .bss           0x0000000000000000        0x0 /home/jbrawley/Desktop/rockbox-photo-cf-support/build/apps/radio/radio_skin.o
 .data          0x0000000000000000        0x0 /home/jbrawley/Desktop/rockbox-photo-cf-support/build/apps/audio_path.o
 .data          0x0000000000000000        0x0 /home/jbrawley/Desktop/rockbox-photo-cf-support/build/apps/audio_thread.o
 .data          0x0000000000000000        0x0 /home/jbrawley/Desktop/rockbox-photo-cf-support/build/apps/codec_thread.o
 .data          0x0000000000000000        0x0 /home/jbrawley/Desktop/rockbox-photo-cf-support/build/apps/beep.o
 .data          0x0000000000000000        0x0 /home/jbrawley/Desktop/rockbox-photo-cf-support/build/apps/usb_keymaps.o
 .bss           0x0000000000000000        0x0 /home/jbrawley/Desktop/rockbox-photo-cf-support/build/apps/usb_keymaps.o
 .data          0x0000000000000000        0x0 /home/jbrawley/Desktop/rockbox-photo-cf-support/build/apps/gui/usb_screen.o
 .data          0x0000000000000000        0x0 /home/jbrawley/Desktop/rockbox-photo-cf-support/build/apps/keymaps/keymap-ipod.o
 .bss           0x0000000000000000        0x0 /home/jbrawley/Desktop/rockbox-photo-cf-support/build/apps/keymaps/keymap-ipod.o
 .text          0x0000000000000000        0x0 /home/jbrawley/Desktop/rockbox-photo-cf-support/build/apps/bitmaps/mono/default_icons.o
 .data          0x0000000000000000        0x0 /home/jbrawley/Desktop/rockbox-photo-cf-support/build/apps/bitmaps/mono/default_icons.o
 .bss           0x0000000000000000        0x0 /home/jbrawley/Desktop/rockbox-photo-cf-support/build/apps/bitmaps/mono/default_icons.o
 .text          0x0000000000000000        0x0 /home/jbrawley/Desktop/rockbox-photo-cf-support/build/apps/bitmaps/native/rockboxlogo.220x68x16.o
 .data          0x0000000000000000        0x0 /home/jbrawley/Desktop/rockbox-photo-cf-support/build/apps/bitmaps/native/rockboxlogo.220x68x16.o
 .bss           0x0000000000000000        0x0 /home/jbrawley/Desktop/rockbox-photo-cf-support/build/apps/bitmaps/native/rockboxlogo.220x68x16.o
 .text          0x0000000000000000        0x0 /home/jbrawley/Desktop/rockbox-photo-cf-support/build/apps/bitmaps/native/usblogo.176x48x16.o
 .data          0x0000000000000000        0x0 /home/jbrawley/Desktop/rockbox-photo-cf-support/build/apps/bitmaps/native/usblogo.176x48x16.o
 .bss           0x0000000000000000        0x0 /home/jbrawley/Desktop/rockbox-photo-cf-support/build/apps/bitmaps/native/usblogo.176x48x16.o
 .text          0x0000000000000000        0x0 /home/jbrawley/Desktop/rockbox-photo-cf-support/build/lang/lang_core.o
 .data          0x0000000000000000        0x0 /home/jbrawley/Desktop/rockbox-photo-cf-support/build/lang/lang_core.o
 .bss           0x0000000000000000        0x0 /home/jbrawley/Desktop/rockbox-photo-cf-support/build/lang/lang_core.o
 .data          0x0000000000000000        0x0 /home/jbrawley/Desktop/rockbox-photo-cf-support/build/lib/rbcodec/codecs/libspeex-voice.a(bits.o)
 .bss           0x0000000000000000        0x0 /home/jbrawley/Desktop/rockbox-photo-cf-support/build/lib/rbcodec/codecs/libspeex-voice.a(bits.o)
 .data          0x0000000000000000        0x0 /home/jbrawley/Desktop/rockbox-photo-cf-support/build/lib/rbcodec/codecs/libspeex-voice.a(modes_wb.o)
 .bss           0x0000000000000000        0x0 /home/jbrawley/Desktop/rockbox-photo-cf-support/build/lib/rbcodec/codecs/libspeex-voice.a(modes_wb.o)
 .data          0x0000000000000000        0x0 /home/jbrawley/Desktop/rockbox-photo-cf-support/build/lib/rbcodec/codecs/libspeex-voice.a(quant_lsp.o)
 .bss           0x0000000000000000        0x0 /home/jbrawley/Desktop/rockbox-photo-cf-support/build/lib/rbcodec/codecs/libspeex-voice.a(quant_lsp.o)
 .data          0x0000000000000000        0x0 /home/jbrawley/Desktop/rockbox-photo-cf-support/build/lib/rbcodec/codecs/libspeex-voice.a(sb_celp.o)
 .bss           0x0000000000000000        0x0 /home/jbrawley/Desktop/rockbox-photo-cf-support/build/lib/rbcodec/codecs/libspeex-voice.a(sb_celp.o)
 .data          0x0000000000000000        0x0 /home/jbrawley/Desktop/rockbox-photo-cf-support/build/lib/rbcodec/codecs/libspeex-voice.a(speex.o)
 .bss           0x0000000000000000        0x0 /home/jbrawley/Desktop/rockbox-photo-cf-support/build/lib/rbcodec/codecs/libspeex-voice.a(speex.o)
 .data          0x0000000000000000        0x0 /home/jbrawley/Desktop/rockbox-photo-cf-support/build/lib/rbcodec/codecs/libspeex-voice.a(filters_arm4.o)
 .bss           0x0000000000000000        0x0 /home/jbrawley/Desktop/rockbox-photo-cf-support/build/lib/rbcodec/codecs/libspeex-voice.a(filters_arm4.o)
 .data          0x0000000000000000        0x0 /home/jbrawley/Desktop/rockbox-photo-cf-support/build/lib/rbcodec/codecs/libspeex-voice.a(cb_search.o)
 .bss           0x0000000000000000        0x0 /home/jbrawley/Desktop/rockbox-photo-cf-support/build/lib/rbcodec/codecs/libspeex-voice.a(cb_search.o)
 .data          0x0000000000000000        0x0 /home/jbrawley/Desktop/rockbox-photo-cf-support/build/lib/rbcodec/codecs/libspeex-voice.a(filters.o)
 .bss           0x0000000000000000        0x0 /home/jbrawley/Desktop/rockbox-photo-cf-support/build/lib/rbcodec/codecs/libspeex-voice.a(filters.o)
 .text          0x0000000000000000        0x0 /home/jbrawley/Desktop/rockbox-photo-cf-support/build/lib/rbcodec/codecs/libspeex-voice.a(hexc_10_32_table.o)
 .data          0x0000000000000000        0x0 /home/jbrawley/Desktop/rockbox-photo-cf-support/build/lib/rbcodec/codecs/libspeex-voice.a(hexc_10_32_table.o)
 .bss           0x0000000000000000        0x0 /home/jbrawley/Desktop/rockbox-photo-cf-support/build/lib/rbcodec/codecs/libspeex-voice.a(hexc_10_32_table.o)
 .text          0x0000000000000000        0x0 /home/jbrawley/Desktop/rockbox-photo-cf-support/build/lib/rbcodec/codecs/libspeex-voice.a(hexc_table.o)
 .data          0x0000000000000000        0x0 /home/jbrawley/Desktop/rockbox-photo-cf-support/build/lib/rbcodec/codecs/libspeex-voice.a(hexc_table.o)
 .bss           0x0000000000000000        0x0 /home/jbrawley/Desktop/rockbox-photo-cf-support/build/lib/rbcodec/codecs/libspeex-voice.a(hexc_table.o)
 .text          0x0000000000000000        0x0 /home/jbrawley/Desktop/rockbox-photo-cf-support/build/lib/rbcodec/codecs/libspeex-voice.a(high_lsp_tables.o)
 .data          0x0000000000000000        0x0 /home/jbrawley/Desktop/rockbox-photo-cf-support/build/lib/rbcodec/codecs/libspeex-voice.a(high_lsp_tables.o)
 .bss           0x0000000000000000        0x0 /home/jbrawley/Desktop/rockbox-photo-cf-support/build/lib/rbcodec/codecs/libspeex-voice.a(high_lsp_tables.o)
 .data          0x0000000000000000        0x0 /home/jbrawley/Desktop/rockbox-photo-cf-support/build/lib/rbcodec/codecs/libspeex-voice.a(lsp.o)
 .bss           0x0000000000000000        0x0 /home/jbrawley/Desktop/rockbox-photo-cf-support/build/lib/rbcodec/codecs/libspeex-voice.a(lsp.o)
 .text          0x0000000000000000        0x0 /home/jbrawley/Desktop/rockbox-photo-cf-support/build/lib/rbcodec/codecs/libspeex-voice.a(lsp_tables_nb.o)
 .data          0x0000000000000000        0x0 /home/jbrawley/Desktop/rockbox-photo-cf-support/build/lib/rbcodec/codecs/libspeex-voice.a(lsp_tables_nb.o)
 .bss           0x0000000000000000        0x0 /home/jbrawley/Desktop/rockbox-photo-cf-support/build/lib/rbcodec/codecs/libspeex-voice.a(lsp_tables_nb.o)
 .data          0x0000000000000000        0x0 /home/jbrawley/Desktop/rockbox-photo-cf-support/build/lib/rbcodec/codecs/libspeex-voice.a(ltp.o)
 .bss           0x0000000000000000        0x0 /home/jbrawley/Desktop/rockbox-photo-cf-support/build/lib/rbcodec/codecs/libspeex-voice.a(ltp.o)
 .text          0x0000000000000000        0x8 /home/jbrawley/Desktop/rockbox-photo-cf-support/build/lib/rbcodec/codecs/libspeex-voice.a(modes.o)
 .data          0x0000000000000000        0x0 /home/jbrawley/Desktop/rockbox-photo-cf-support/build/lib/rbcodec/codecs/libspeex-voice.a(modes.o)
 .bss           0x0000000000000000        0x0 /home/jbrawley/Desktop/rockbox-photo-cf-support/build/lib/rbcodec/codecs/libspeex-voice.a(modes.o)
 .data          0x0000000000000000        0x0 /home/jbrawley/Desktop/rockbox-photo-cf-support/build/lib/rbcodec/codecs/libspeex-voice.a(nb_celp.o)
 .bss           0x0000000000000000        0x0 /home/jbrawley/Desktop/rockbox-photo-cf-support/build/lib/rbcodec/codecs/libspeex-voice.a(nb_celp.o)
 .data          0x0000000000000000        0x0 /home/jbrawley/Desktop/rockbox-photo-cf-support/build/lib/rbcodec/codecs/libspeex-voice.a(speex_callbacks.o)
 .bss           0x0000000000000000        0x0 /home/jbrawley/Desktop/rockbox-photo-cf-support/build/lib/rbcodec/codecs/libspeex-voice.a(speex_callbacks.o)
 .text          0x0000000000000000        0x0 /home/jbrawley/Desktop/rockbox-photo-cf-support/build/lib/rbcodec/codecs/libspeex-voice.a(exc_10_16_table.o)
 .data          0x0000000000000000        0x0 /home/jbrawley/Desktop/rockbox-photo-cf-support/build/lib/rbcodec/codecs/libspeex-voice.a(exc_10_16_table.o)
 .bss           0x0000000000000000        0x0 /home/jbrawley/Desktop/rockbox-photo-cf-support/build/lib/rbcodec/codecs/libspeex-voice.a(exc_10_16_table.o)
 .text          0x0000000000000000        0x0 /home/jbrawley/Desktop/rockbox-photo-cf-support/build/lib/rbcodec/codecs/libspeex-voice.a(exc_10_32_table.o)
 .data          0x0000000000000000        0x0 /home/jbrawley/Desktop/rockbox-photo-cf-support/build/lib/rbcodec/codecs/libspeex-voice.a(exc_10_32_table.o)
 .bss           0x0000000000000000        0x0 /home/jbrawley/Desktop/rockbox-photo-cf-support/build/lib/rbcodec/codecs/libspeex-voice.a(exc_10_32_table.o)
 .text          0x0000000000000000        0x0 /home/jbrawley/Desktop/rockbox-photo-cf-support/build/lib/rbcodec/codecs/libspeex-voice.a(exc_20_32_table.o)
 .data          0x0000000000000000        0x0 /home/jbrawley/Desktop/rockbox-photo-cf-support/build/lib/rbcodec/codecs/libspeex-voice.a(exc_20_32_table.o)
 .bss           0x0000000000000000        0x0 /home/jbrawley/Desktop/rockbox-photo-cf-support/build/lib/rbcodec/codecs/libspeex-voice.a(exc_20_32_table.o)
 .text          0x0000000000000000        0x0 /home/jbrawley/Desktop/rockbox-photo-cf-support/build/lib/rbcodec/codecs/libspeex-voice.a(exc_5_256_table.o)
 .data          0x0000000000000000        0x0 /home/jbrawley/Desktop/rockbox-photo-cf-support/build/lib/rbcodec/codecs/libspeex-voice.a(exc_5_256_table.o)
 .bss           0x0000000000000000        0x0 /home/jbrawley/Desktop/rockbox-photo-cf-support/build/lib/rbcodec/codecs/libspeex-voice.a(exc_5_256_table.o)
 .text          0x0000000000000000        0x0 /home/jbrawley/Desktop/rockbox-photo-cf-support/build/lib/rbcodec/codecs/libspeex-voice.a(exc_5_64_table.o)
 .data          0x0000000000000000        0x0 /home/jbrawley/Desktop/rockbox-photo-cf-support/build/lib/rbcodec/codecs/libspeex-voice.a(exc_5_64_table.o)
 .bss           0x0000000000000000        0x0 /home/jbrawley/Desktop/rockbox-photo-cf-support/build/lib/rbcodec/codecs/libspeex-voice.a(exc_5_64_table.o)
 .text          0x0000000000000000        0x0 /home/jbrawley/Desktop/rockbox-photo-cf-support/build/lib/rbcodec/codecs/libspeex-voice.a(exc_8_128_table.o)
 .data          0x0000000000000000        0x0 /home/jbrawley/Desktop/rockbox-photo-cf-support/build/lib/rbcodec/codecs/libspeex-voice.a(exc_8_128_table.o)
 .bss           0x0000000000000000        0x0 /home/jbrawley/Desktop/rockbox-photo-cf-support/build/lib/rbcodec/codecs/libspeex-voice.a(exc_8_128_table.o)
 .text          0x0000000000000000        0x0 /home/jbrawley/Desktop/rockbox-photo-cf-support/build/lib/rbcodec/codecs/libspeex-voice.a(gain_table.o)
 .data          0x0000000000000000        0x0 /home/jbrawley/Desktop/rockbox-photo-cf-support/build/lib/rbcodec/codecs/libspeex-voice.a(gain_table.o)
 .bss           0x0000000000000000        0x0 /home/jbrawley/Desktop/rockbox-photo-cf-support/build/lib/rbcodec/codecs/libspeex-voice.a(gain_table.o)
 .text          0x0000000000000000        0x0 /home/jbrawley/Desktop/rockbox-photo-cf-support/build/lib/rbcodec/codecs/libspeex-voice.a(gain_table_lbr.o)
 .data          0x0000000000000000        0x0 /home/jbrawley/Desktop/rockbox-photo-cf-support/build/lib/rbcodec/codecs/libspeex-voice.a(gain_table_lbr.o)
 .bss           0x0000000000000000        0x0 /home/jbrawley/Desktop/rockbox-photo-cf-support/build/lib/rbcodec/codecs/libspeex-voice.a(gain_table_lbr.o)
 .data          0x0000000000000000        0x0 /home/jbrawley/Desktop/rockbox-photo-cf-support/build/lib/librbcodec.a(metadata.o)
 .data          0x0000000000000000        0x0 /home/jbrawley/Desktop/rockbox-photo-cf-support/build/lib/librbcodec.a(mp3.o)
 .bss           0x0000000000000000        0x0 /home/jbrawley/Desktop/rockbox-photo-cf-support/build/lib/librbcodec.a(mp3.o)
 .data          0x0000000000000000        0x0 /home/jbrawley/Desktop/rockbox-photo-cf-support/build/lib/librbcodec.a(mp3data.o)
 .data          0x0000000000000000        0x0 /home/jbrawley/Desktop/rockbox-photo-cf-support/build/lib/librbcodec.a(compressor.o)
 .data          0x0000000000000000        0x0 /home/jbrawley/Desktop/rockbox-photo-cf-support/build/lib/librbcodec.a(crossfeed.o)
 .data          0x0000000000000000        0x0 /home/jbrawley/Desktop/rockbox-photo-cf-support/build/lib/librbcodec.a(dsp_core.o)
 .bss           0x0000000000000000        0x0 /home/jbrawley/Desktop/rockbox-photo-cf-support/build/lib/librbcodec.a(dsp_core.o)
 .data          0x0000000000000000        0x0 /home/jbrawley/Desktop/rockbox-photo-cf-support/build/lib/librbcodec.a(afr.o)
 .data          0x0000000000000000        0x0 /home/jbrawley/Desktop/rockbox-photo-cf-support/build/lib/librbcodec.a(dsp_filter.o)
 .bss           0x0000000000000000        0x0 /home/jbrawley/Desktop/rockbox-photo-cf-support/build/lib/librbcodec.a(dsp_filter.o)
 .data          0x0000000000000000        0x0 /home/jbrawley/Desktop/rockbox-photo-cf-support/build/lib/librbcodec.a(dsp_sample_io.o)
 .bss           0x0000000000000000        0x0 /home/jbrawley/Desktop/rockbox-photo-cf-support/build/lib/librbcodec.a(dsp_sample_io.o)
 .data          0x0000000000000000        0x0 /home/jbrawley/Desktop/rockbox-photo-cf-support/build/lib/librbcodec.a(dsp_sample_input.o)
 .bss           0x0000000000000000        0x0 /home/jbrawley/Desktop/rockbox-photo-cf-support/build/lib/librbcodec.a(dsp_sample_input.o)
 .data          0x0000000000000000        0x0 /home/jbrawley/Desktop/rockbox-photo-cf-support/build/lib/librbcodec.a(dsp_sample_output.o)
 .bss           0x0000000000000000        0x0 /home/jbrawley/Desktop/rockbox-photo-cf-support/build/lib/librbcodec.a(dsp_sample_output.o)
 .data          0x0000000000000000        0x0 /home/jbrawley/Desktop/rockbox-photo-cf-support/build/lib/librbcodec.a(eq.o)
 .data          0x0000000000000000        0x0 /home/jbrawley/Desktop/rockbox-photo-cf-support/build/lib/librbcodec.a(resample.o)
 .bss           0x0000000000000000        0x0 /home/jbrawley/Desktop/rockbox-photo-cf-support/build/lib/librbcodec.a(resample.o)
 .bss           0x0000000000000000        0x0 /home/jbrawley/Desktop/rockbox-photo-cf-support/build/lib/librbcodec.a(pga.o)
 .data          0x0000000000000000        0x0 /home/jbrawley/Desktop/rockbox-photo-cf-support/build/lib/librbcodec.a(tdspeed.o)
 .data          0x0000000000000000        0x0 /home/jbrawley/Desktop/rockbox-photo-cf-support/build/lib/librbcodec.a(dsp_arm.o)
 .bss           0x0000000000000000        0x0 /home/jbrawley/Desktop/rockbox-photo-cf-support/build/lib/librbcodec.a(dsp_arm.o)
 .bss           0x0000000000000000        0x0 /home/jbrawley/Desktop/rockbox-photo-cf-support/build/lib/librbcodec.a(replaygain.o)
 .bss           0x0000000000000000        0x0 /home/jbrawley/Desktop/rockbox-photo-cf-support/build/lib/librbcodec.a(metadata_common.o)
 .data          0x0000000000000000        0x0 /home/jbrawley/Desktop/rockbox-photo-cf-support/build/lib/librbcodec.a(a52.o)
 .bss           0x0000000000000000        0x0 /home/jbrawley/Desktop/rockbox-photo-cf-support/build/lib/librbcodec.a(a52.o)
 .data          0x0000000000000000        0x0 /home/jbrawley/Desktop/rockbox-photo-cf-support/build/lib/librbcodec.a(adx.o)
 .bss           0x0000000000000000        0x0 /home/jbrawley/Desktop/rockbox-photo-cf-support/build/lib/librbcodec.a(adx.o)
 .data          0x0000000000000000        0x0 /home/jbrawley/Desktop/rockbox-photo-cf-support/build/lib/librbcodec.a(aiff.o)
 .bss           0x0000000000000000        0x0 /home/jbrawley/Desktop/rockbox-photo-cf-support/build/lib/librbcodec.a(aiff.o)
 .bss           0x0000000000000000        0x0 /home/jbrawley/Desktop/rockbox-photo-cf-support/build/lib/librbcodec.a(asap.o)
 .bss           0x0000000000000000        0x0 /home/jbrawley/Desktop/rockbox-photo-cf-support/build/lib/librbcodec.a(asf.o)
 .data          0x0000000000000000        0x0 /home/jbrawley/Desktop/rockbox-photo-cf-support/build/lib/librbcodec.a(au.o)
 .bss           0x0000000000000000        0x0 /home/jbrawley/Desktop/rockbox-photo-cf-support/build/lib/librbcodec.a(au.o)
 .data          0x0000000000000000        0x0 /home/jbrawley/Desktop/rockbox-photo-cf-support/build/lib/librbcodec.a(ay.o)
 .bss           0x0000000000000000        0x0 /home/jbrawley/Desktop/rockbox-photo-cf-support/build/lib/librbcodec.a(ay.o)
 .data          0x0000000000000000        0x0 /home/jbrawley/Desktop/rockbox-photo-cf-support/build/lib/librbcodec.a(flac.o)
 .bss           0x0000000000000000        0x0 /home/jbrawley/Desktop/rockbox-photo-cf-support/build/lib/librbcodec.a(flac.o)
 .data          0x0000000000000000        0x0 /home/jbrawley/Desktop/rockbox-photo-cf-support/build/lib/librbcodec.a(gbs.o)
 .bss           0x0000000000000000        0x0 /home/jbrawley/Desktop/rockbox-photo-cf-support/build/lib/librbcodec.a(gbs.o)
 .data          0x0000000000000000        0x0 /home/jbrawley/Desktop/rockbox-photo-cf-support/build/lib/librbcodec.a(hes.o)
 .bss           0x0000000000000000        0x0 /home/jbrawley/Desktop/rockbox-photo-cf-support/build/lib/librbcodec.a(hes.o)
 .data          0x0000000000000000        0x0 /home/jbrawley/Desktop/rockbox-photo-cf-support/build/lib/librbcodec.a(kss.o)
 .bss           0x0000000000000000        0x0 /home/jbrawley/Desktop/rockbox-photo-cf-support/build/lib/librbcodec.a(kss.o)
 .data          0x0000000000000000        0x0 /home/jbrawley/Desktop/rockbox-photo-cf-support/build/lib/librbcodec.a(mod.o)
 .bss           0x0000000000000000        0x0 /home/jbrawley/Desktop/rockbox-photo-cf-support/build/lib/librbcodec.a(mod.o)
 .data          0x0000000000000000        0x0 /home/jbrawley/Desktop/rockbox-photo-cf-support/build/lib/librbcodec.a(monkeys.o)
 .bss           0x0000000000000000        0x0 /home/jbrawley/Desktop/rockbox-photo-cf-support/build/lib/librbcodec.a(monkeys.o)
 .bss           0x0000000000000000        0x0 /home/jbrawley/Desktop/rockbox-photo-cf-support/build/lib/librbcodec.a(mp4.o)
 .data          0x0000000000000000        0x0 /home/jbrawley/Desktop/rockbox-photo-cf-support/build/lib/librbcodec.a(mpc.o)
 .bss           0x0000000000000000        0x0 /home/jbrawley/Desktop/rockbox-photo-cf-support/build/lib/librbcodec.a(mpc.o)
 .data          0x0000000000000000        0x0 /home/jbrawley/Desktop/rockbox-photo-cf-support/build/lib/librbcodec.a(nsf.o)
 .bss           0x0000000000000000        0x0 /home/jbrawley/Desktop/rockbox-photo-cf-support/build/lib/librbcodec.a(nsf.o)
 .data          0x0000000000000000        0x0 /home/jbrawley/Desktop/rockbox-photo-cf-support/build/lib/librbcodec.a(ogg.o)
 .bss           0x0000000000000000        0x0 /home/jbrawley/Desktop/rockbox-photo-cf-support/build/lib/librbcodec.a(ogg.o)
 .data          0x0000000000000000        0x0 /home/jbrawley/Desktop/rockbox-photo-cf-support/build/lib/librbcodec.a(oma.o)
 .bss           0x0000000000000000        0x0 /home/jbrawley/Desktop/rockbox-photo-cf-support/build/lib/librbcodec.a(oma.o)
 .data          0x0000000000000000        0x0 /home/jbrawley/Desktop/rockbox-photo-cf-support/build/lib/librbcodec.a(rm.o)
 .bss           0x0000000000000000        0x0 /home/jbrawley/Desktop/rockbox-photo-cf-support/build/lib/librbcodec.a(rm.o)
 .data          0x0000000000000000        0x0 /home/jbrawley/Desktop/rockbox-photo-cf-support/build/lib/librbcodec.a(sgc.o)
 .bss           0x0000000000000000        0x0 /home/jbrawley/Desktop/rockbox-photo-cf-support/build/lib/librbcodec.a(sgc.o)
 .data          0x0000000000000000        0x0 /home/jbrawley/Desktop/rockbox-photo-cf-support/build/lib/librbcodec.a(sid.o)
 .bss           0x0000000000000000        0x0 /home/jbrawley/Desktop/rockbox-photo-cf-support/build/lib/librbcodec.a(sid.o)
 .data          0x0000000000000000        0x0 /home/jbrawley/Desktop/rockbox-photo-cf-support/build/lib/librbcodec.a(smaf.o)
 .bss           0x0000000000000000        0x0 /home/jbrawley/Desktop/rockbox-photo-cf-support/build/lib/librbcodec.a(smaf.o)
 .data          0x0000000000000000        0x0 /home/jbrawley/Desktop/rockbox-photo-cf-support/build/lib/librbcodec.a(spc.o)
 .bss           0x0000000000000000        0x0 /home/jbrawley/Desktop/rockbox-photo-cf-support/build/lib/librbcodec.a(spc.o)
 .data          0x0000000000000000        0x0 /home/jbrawley/Desktop/rockbox-photo-cf-support/build/lib/librbcodec.a(tta.o)
 .bss           0x0000000000000000        0x0 /home/jbrawley/Desktop/rockbox-photo-cf-support/build/lib/librbcodec.a(tta.o)
 .data          0x0000000000000000        0x0 /home/jbrawley/Desktop/rockbox-photo-cf-support/build/lib/librbcodec.a(vgm.o)
 .bss           0x0000000000000000        0x0 /home/jbrawley/Desktop/rockbox-photo-cf-support/build/lib/librbcodec.a(vgm.o)
 .rodata        0x0000000000000000        0x4 /home/jbrawley/Desktop/rockbox-photo-cf-support/build/lib/librbcodec.a(vgm.o)
 .data          0x0000000000000000        0x0 /home/jbrawley/Desktop/rockbox-photo-cf-support/build/lib/librbcodec.a(vorbis.o)
 .bss           0x0000000000000000        0x0 /home/jbrawley/Desktop/rockbox-photo-cf-support/build/lib/librbcodec.a(vorbis.o)
 .data          0x0000000000000000        0x0 /home/jbrawley/Desktop/rockbox-photo-cf-support/build/lib/librbcodec.a(vox.o)
 .bss           0x0000000000000000        0x0 /home/jbrawley/Desktop/rockbox-photo-cf-support/build/lib/librbcodec.a(vox.o)
 .data          0x0000000000000000        0x0 /home/jbrawley/Desktop/rockbox-photo-cf-support/build/lib/librbcodec.a(wave.o)
 .bss           0x0000000000000000        0x0 /home/jbrawley/Desktop/rockbox-photo-cf-support/build/lib/librbcodec.a(wave.o)
 .data          0x0000000000000000        0x0 /home/jbrawley/Desktop/rockbox-photo-cf-support/build/lib/librbcodec.a(wavpack.o)
 .bss           0x0000000000000000        0x0 /home/jbrawley/Desktop/rockbox-photo-cf-support/build/lib/librbcodec.a(wavpack.o)
 .data          0x0000000000000000        0x0 /home/jbrawley/Desktop/rockbox-photo-cf-support/build/lib/librbcodec.a(aac.o)
 .bss           0x0000000000000000        0x0 /home/jbrawley/Desktop/rockbox-photo-cf-support/build/lib/librbcodec.a(aac.o)
 .data          0x0000000000000000        0x0 /home/jbrawley/Desktop/rockbox-photo-cf-support/build/lib/librbcodec.a(channel_mode.o)
 .data          0x0000000000000000        0x0 /home/jbrawley/Desktop/rockbox-photo-cf-support/build/lib/librbcodec.a(ape.o)
 .bss           0x0000000000000000        0x0 /home/jbrawley/Desktop/rockbox-photo-cf-support/build/lib/librbcodec.a(ape.o)
 .data          0x0000000000000000        0x0 /home/jbrawley/Desktop/rockbox-photo-cf-support/build/firmware/libfirmware.a(ffs.o)
 .bss           0x0000000000000000        0x0 /home/jbrawley/Desktop/rockbox-photo-cf-support/build/firmware/libfirmware.a(ffs.o)
 .text          0x0000000000000000        0x0 /home/jbrawley/Desktop/rockbox-photo-cf-support/build/firmware/libfirmware.a(memcpy.o)
 .data          0x0000000000000000        0x0 /home/jbrawley/Desktop/rockbox-photo-cf-support/build/firmware/libfirmware.a(memcpy.o)
 .bss           0x0000000000000000        0x0 /home/jbrawley/Desktop/rockbox-photo-cf-support/build/firmware/libfirmware.a(memcpy.o)
 .text          0x0000000000000000        0x0 /home/jbrawley/Desktop/rockbox-photo-cf-support/build/firmware/libfirmware.a(memmove.o)
 .data          0x0000000000000000        0x0 /home/jbrawley/Desktop/rockbox-photo-cf-support/build/firmware/libfirmware.a(memmove.o)
 .bss           0x0000000000000000        0x0 /home/jbrawley/Desktop/rockbox-photo-cf-support/build/firmware/libfirmware.a(memmove.o)
 .text          0x0000000000000000        0x0 /home/jbrawley/Desktop/rockbox-photo-cf-support/build/firmware/libfirmware.a(memset.o)
 .data          0x0000000000000000        0x0 /home/jbrawley/Desktop/rockbox-photo-cf-support/build/firmware/libfirmware.a(memset.o)
 .bss           0x0000000000000000        0x0 /home/jbrawley/Desktop/rockbox-photo-cf-support/build/firmware/libfirmware.a(memset.o)
 .text          0x0000000000000000        0x0 /home/jbrawley/Desktop/rockbox-photo-cf-support/build/firmware/libfirmware.a(strlen.o)
 .data          0x0000000000000000        0x0 /home/jbrawley/Desktop/rockbox-photo-cf-support/build/firmware/libfirmware.a(strlen.o)
 .bss           0x0000000000000000        0x0 /home/jbrawley/Desktop/rockbox-photo-cf-support/build/firmware/libfirmware.a(strlen.o)
 .data          0x0000000000000000        0x0 /home/jbrawley/Desktop/rockbox-photo-cf-support/build/firmware/libfirmware.a(ata_idle_notify.o)
 .data          0x0000000000000000        0x0 /home/jbrawley/Desktop/rockbox-photo-cf-support/build/firmware/libfirmware.a(events.o)
 .data          0x0000000000000000        0x0 /home/jbrawley/Desktop/rockbox-photo-cf-support/build/firmware/libfirmware.a(buflib_mempool.o)
 .data          0x0000000000000000        0x0 /home/jbrawley/Desktop/rockbox-photo-cf-support/build/firmware/libfirmware.a(core_alloc.o)
 .bss           0x0000000000000000        0x0 /home/jbrawley/Desktop/rockbox-photo-cf-support/build/firmware/libfirmware.a(core_alloc.o)
 .data          0x0000000000000000        0x0 /home/jbrawley/Desktop/rockbox-photo-cf-support/build/firmware/libfirmware.a(general.o)
 .data          0x0000000000000000        0x0 /home/jbrawley/Desktop/rockbox-photo-cf-support/build/firmware/libfirmware.a(system.o)
 .bss           0x0000000000000000        0x0 /home/jbrawley/Desktop/rockbox-photo-cf-support/build/firmware/libfirmware.a(system.o)
 .data          0x0000000000000000        0x0 /home/jbrawley/Desktop/rockbox-photo-cf-support/build/firmware/libfirmware.a(load_code.o)
 .bss           0x0000000000000000        0x0 /home/jbrawley/Desktop/rockbox-photo-cf-support/build/firmware/libfirmware.a(load_code.o)
 .data          0x0000000000000000        0x0 /home/jbrawley/Desktop/rockbox-photo-cf-support/build/firmware/libfirmware.a(rolo.o)
 .bss           0x0000000000000000        0x0 /home/jbrawley/Desktop/rockbox-photo-cf-support/build/firmware/libfirmware.a(timer.o)
 .data          0x0000000000000000        0x0 /home/jbrawley/Desktop/rockbox-photo-cf-support/build/firmware/libfirmware.a(panic.o)
 .data          0x0000000000000000        0x0 /home/jbrawley/Desktop/rockbox-photo-cf-support/build/firmware/libfirmware.a(strptokspn.o)
 .bss           0x0000000000000000        0x0 /home/jbrawley/Desktop/rockbox-photo-cf-support/build/firmware/libfirmware.a(strptokspn.o)
 .text          0x0000000000000000        0x0 /home/jbrawley/Desktop/rockbox-photo-cf-support/build/firmware/libfirmware.a(version.o)
 .data          0x0000000000000000        0x0 /home/jbrawley/Desktop/rockbox-photo-cf-support/build/firmware/libfirmware.a(version.o)
 .bss           0x0000000000000000        0x0 /home/jbrawley/Desktop/rockbox-photo-cf-support/build/firmware/libfirmware.a(version.o)
 .data          0x0000000000000000        0x0 /home/jbrawley/Desktop/rockbox-photo-cf-support/build/firmware/libfirmware.a(crc32.o)
 .bss           0x0000000000000000        0x0 /home/jbrawley/Desktop/rockbox-photo-cf-support/build/firmware/libfirmware.a(crc32.o)
 .data          0x0000000000000000        0x0 /home/jbrawley/Desktop/rockbox-photo-cf-support/build/firmware/libfirmware.a(loader_strerror.o)
 .bss           0x0000000000000000        0x0 /home/jbrawley/Desktop/rockbox-photo-cf-support/build/firmware/libfirmware.a(loader_strerror.o)
 .data          0x0000000000000000        0x0 /home/jbrawley/Desktop/rockbox-photo-cf-support/build/firmware/libfirmware.a(dir.o)
 .data          0x0000000000000000        0x0 /home/jbrawley/Desktop/rockbox-photo-cf-support/build/firmware/libfirmware.a(file.o)
 .data          0x0000000000000000        0x0 /home/jbrawley/Desktop/rockbox-photo-cf-support/build/firmware/libfirmware.a(file_internal.o)
 .data          0x0000000000000000        0x0 /home/jbrawley/Desktop/rockbox-photo-cf-support/build/firmware/libfirmware.a(disk.o)
 .data          0x0000000000000000        0x0 /home/jbrawley/Desktop/rockbox-photo-cf-support/build/firmware/libfirmware.a(fileobj_mgr.o)
 .data          0x0000000000000000        0x0 /home/jbrawley/Desktop/rockbox-photo-cf-support/build/firmware/libfirmware.a(dircache.o)
 .data          0x0000000000000000        0x0 /home/jbrawley/Desktop/rockbox-photo-cf-support/build/firmware/libfirmware.a(pathfuncs.o)
 .bss           0x0000000000000000        0x0 /home/jbrawley/Desktop/rockbox-photo-cf-support/build/firmware/libfirmware.a(pathfuncs.o)
 .data          0x0000000000000000        0x0 /home/jbrawley/Desktop/rockbox-photo-cf-support/build/firmware/libfirmware.a(fdprintf.o)
 .bss           0x0000000000000000        0x0 /home/jbrawley/Desktop/rockbox-photo-cf-support/build/firmware/libfirmware.a(fdprintf.o)
 .data          0x0000000000000000        0x0 /home/jbrawley/Desktop/rockbox-photo-cf-support/build/firmware/libfirmware.a(linked_list.o)
 .bss           0x0000000000000000        0x0 /home/jbrawley/Desktop/rockbox-photo-cf-support/build/firmware/libfirmware.a(linked_list.o)
 .data          0x0000000000000000        0x0 /home/jbrawley/Desktop/rockbox-photo-cf-support/build/firmware/libfirmware.a(rb_namespace.o)
 .data          0x0000000000000000        0x0 /home/jbrawley/Desktop/rockbox-photo-cf-support/build/firmware/libfirmware.a(strcasecmp.o)
 .bss           0x0000000000000000        0x0 /home/jbrawley/Desktop/rockbox-photo-cf-support/build/firmware/libfirmware.a(strcasecmp.o)
 .data          0x0000000000000000        0x0 /home/jbrawley/Desktop/rockbox-photo-cf-support/build/firmware/libfirmware.a(strcasestr.o)
 .bss           0x0000000000000000        0x0 /home/jbrawley/Desktop/rockbox-photo-cf-support/build/firmware/libfirmware.a(strcasestr.o)
 .data          0x0000000000000000        0x0 /home/jbrawley/Desktop/rockbox-photo-cf-support/build/firmware/libfirmware.a(strnatcmp.o)
 .bss           0x0000000000000000        0x0 /home/jbrawley/Desktop/rockbox-photo-cf-support/build/firmware/libfirmware.a(strnatcmp.o)
 .data          0x0000000000000000        0x0 /home/jbrawley/Desktop/rockbox-photo-cf-support/build/firmware/libfirmware.a(strlcat.o)
 .bss           0x0000000000000000        0x0 /home/jbrawley/Desktop/rockbox-photo-cf-support/build/firmware/libfirmware.a(strlcat.o)
 .data          0x0000000000000000        0x0 /home/jbrawley/Desktop/rockbox-photo-cf-support/build/firmware/libfirmware.a(strlcpy.o)
 .bss           0x0000000000000000        0x0 /home/jbrawley/Desktop/rockbox-photo-cf-support/build/firmware/libfirmware.a(strlcpy.o)
 .data          0x0000000000000000        0x0 /home/jbrawley/Desktop/rockbox-photo-cf-support/build/firmware/libfirmware.a(strmemccpy.o)
 .bss           0x0000000000000000        0x0 /home/jbrawley/Desktop/rockbox-photo-cf-support/build/firmware/libfirmware.a(strmemccpy.o)
 .data          0x0000000000000000        0x0 /home/jbrawley/Desktop/rockbox-photo-cf-support/build/firmware/libfirmware.a(structec.o)
 .bss           0x0000000000000000        0x0 /home/jbrawley/Desktop/rockbox-photo-cf-support/build/firmware/libfirmware.a(structec.o)
 .data          0x0000000000000000        0x0 /home/jbrawley/Desktop/rockbox-photo-cf-support/build/firmware/libfirmware.a(timefuncs.o)
 .data          0x0000000000000000        0x0 /home/jbrawley/Desktop/rockbox-photo-cf-support/build/firmware/libfirmware.a(vuprintf.o)
 .bss           0x0000000000000000        0x0 /home/jbrawley/Desktop/rockbox-photo-cf-support/build/firmware/libfirmware.a(vuprintf.o)
 .data          0x0000000000000000        0x0 /home/jbrawley/Desktop/rockbox-photo-cf-support/build/firmware/libfirmware.a(atoi.o)
 .bss           0x0000000000000000        0x0 /home/jbrawley/Desktop/rockbox-photo-cf-support/build/firmware/libfirmware.a(atoi.o)
 .data          0x0000000000000000        0x0 /home/jbrawley/Desktop/rockbox-photo-cf-support/build/firmware/libfirmware.a(errno.o)
 .bss           0x0000000000000000        0x0 /home/jbrawley/Desktop/rockbox-photo-cf-support/build/firmware/libfirmware.a(errno.o)
 .text          0x0000000000000000        0x0 /home/jbrawley/Desktop/rockbox-photo-cf-support/build/firmware/libfirmware.a(ctype.o)
 .data          0x0000000000000000        0x0 /home/jbrawley/Desktop/rockbox-photo-cf-support/build/firmware/libfirmware.a(ctype.o)
 .bss           0x0000000000000000        0x0 /home/jbrawley/Desktop/rockbox-photo-cf-support/build/firmware/libfirmware.a(ctype.o)
 .data          0x0000000000000000        0x0 /home/jbrawley/Desktop/rockbox-photo-cf-support/build/firmware/libfirmware.a(sprintf.o)
 .bss           0x0000000000000000        0x0 /home/jbrawley/Desktop/rockbox-photo-cf-support/build/firmware/libfirmware.a(sprintf.o)
 .data          0x0000000000000000        0x0 /home/jbrawley/Desktop/rockbox-photo-cf-support/build/firmware/libfirmware.a(memccpy.o)
 .bss           0x0000000000000000        0x0 /home/jbrawley/Desktop/rockbox-photo-cf-support/build/firmware/libfirmware.a(memccpy.o)
 .data          0x0000000000000000        0x0 /home/jbrawley/Desktop/rockbox-photo-cf-support/build/firmware/libfirmware.a(memchr.o)
 .bss           0x0000000000000000        0x0 /home/jbrawley/Desktop/rockbox-photo-cf-support/build/firmware/libfirmware.a(memchr.o)
 .data          0x0000000000000000        0x0 /home/jbrawley/Desktop/rockbox-photo-cf-support/build/firmware/libfirmware.a(memcmp.o)
 .bss           0x0000000000000000        0x0 /home/jbrawley/Desktop/rockbox-photo-cf-support/build/firmware/libfirmware.a(memcmp.o)
 .data          0x0000000000000000        0x0 /home/jbrawley/Desktop/rockbox-photo-cf-support/build/firmware/libfirmware.a(qsort.o)
 .bss           0x0000000000000000        0x0 /home/jbrawley/Desktop/rockbox-photo-cf-support/build/firmware/libfirmware.a(qsort.o)
 .data          0x0000000000000000        0x0 /home/jbrawley/Desktop/rockbox-photo-cf-support/build/firmware/libfirmware.a(random.o)
 .data          0x0000000000000000        0x0 /home/jbrawley/Desktop/rockbox-photo-cf-support/build/firmware/libfirmware.a(strcat.o)
 .bss           0x0000000000000000        0x0 /home/jbrawley/Desktop/rockbox-photo-cf-support/build/firmware/libfirmware.a(strcat.o)
 .data          0x0000000000000000        0x0 /home/jbrawley/Desktop/rockbox-photo-cf-support/build/firmware/libfirmware.a(strchr.o)
 .bss           0x0000000000000000        0x0 /home/jbrawley/Desktop/rockbox-photo-cf-support/build/firmware/libfirmware.a(strchr.o)
 .data          0x0000000000000000        0x0 /home/jbrawley/Desktop/rockbox-photo-cf-support/build/firmware/libfirmware.a(strcmp.o)
 .bss           0x0000000000000000        0x0 /home/jbrawley/Desktop/rockbox-photo-cf-support/build/firmware/libfirmware.a(strcmp.o)
 .data          0x0000000000000000        0x0 /home/jbrawley/Desktop/rockbox-photo-cf-support/build/firmware/libfirmware.a(strcpy.o)
 .bss           0x0000000000000000        0x0 /home/jbrawley/Desktop/rockbox-photo-cf-support/build/firmware/libfirmware.a(strcpy.o)
 .data          0x0000000000000000        0x0 /home/jbrawley/Desktop/rockbox-photo-cf-support/build/firmware/libfirmware.a(strcspn.o)
 .bss           0x0000000000000000        0x0 /home/jbrawley/Desktop/rockbox-photo-cf-support/build/firmware/libfirmware.a(strcspn.o)
 .data          0x0000000000000000        0x0 /home/jbrawley/Desktop/rockbox-photo-cf-support/build/firmware/libfirmware.a(strncmp.o)
 .bss           0x0000000000000000        0x0 /home/jbrawley/Desktop/rockbox-photo-cf-support/build/firmware/libfirmware.a(strncmp.o)
 .data          0x0000000000000000        0x0 /home/jbrawley/Desktop/rockbox-photo-cf-support/build/firmware/libfirmware.a(strrchr.o)
 .bss           0x0000000000000000        0x0 /home/jbrawley/Desktop/rockbox-photo-cf-support/build/firmware/libfirmware.a(strrchr.o)
 .data          0x0000000000000000        0x0 /home/jbrawley/Desktop/rockbox-photo-cf-support/build/firmware/libfirmware.a(strstr.o)
 .bss           0x0000000000000000        0x0 /home/jbrawley/Desktop/rockbox-photo-cf-support/build/firmware/libfirmware.a(strstr.o)
 .data          0x0000000000000000        0x0 /home/jbrawley/Desktop/rockbox-photo-cf-support/build/firmware/libfirmware.a(mktime.o)
 .bss           0x0000000000000000        0x0 /home/jbrawley/Desktop/rockbox-photo-cf-support/build/firmware/libfirmware.a(mktime.o)
 .data          0x0000000000000000        0x0 /home/jbrawley/Desktop/rockbox-photo-cf-support/build/firmware/libfirmware.a(gmtime.o)
 .data          0x0000000000000000        0x0 /home/jbrawley/Desktop/rockbox-photo-cf-support/build/firmware/libfirmware.a(bidi.o)
 .data          0x0000000000000000        0x0 /home/jbrawley/Desktop/rockbox-photo-cf-support/build/firmware/libfirmware.a(hangul.o)
 .bss           0x0000000000000000        0x0 /home/jbrawley/Desktop/rockbox-photo-cf-support/build/firmware/libfirmware.a(hangul.o)
 .data          0x0000000000000000        0x0 /home/jbrawley/Desktop/rockbox-photo-cf-support/build/firmware/libfirmware.a(lru.o)
 .bss           0x0000000000000000        0x0 /home/jbrawley/Desktop/rockbox-photo-cf-support/build/firmware/libfirmware.a(lru.o)
 .data          0x0000000000000000        0x0 /home/jbrawley/Desktop/rockbox-photo-cf-support/build/firmware/libfirmware.a(screendump.o)
 .data          0x0000000000000000        0x0 /home/jbrawley/Desktop/rockbox-photo-cf-support/build/firmware/libfirmware.a(diacritic.o)
 .data          0x0000000000000000        0x0 /home/jbrawley/Desktop/rockbox-photo-cf-support/build/firmware/libfirmware.a(led.o)
 .data          0x0000000000000000        0x0 /home/jbrawley/Desktop/rockbox-photo-cf-support/build/firmware/libfirmware.a(storage.o)
 .data          0x0000000000000000        0x0 /home/jbrawley/Desktop/rockbox-photo-cf-support/build/firmware/libfirmware.a(fat.o)
 .data          0x0000000000000000        0x0 /home/jbrawley/Desktop/rockbox-photo-cf-support/build/firmware/libfirmware.a(rtc_pcf50605.o)
 .data          0x0000000000000000        0x0 /home/jbrawley/Desktop/rockbox-photo-cf-support/build/firmware/libfirmware.a(tuner.o)
 .bss           0x0000000000000000        0x0 /home/jbrawley/Desktop/rockbox-photo-cf-support/build/firmware/libfirmware.a(tuner.o)
 .data          0x0000000000000000        0x0 /home/jbrawley/Desktop/rockbox-photo-cf-support/build/firmware/libfirmware.a(rds.o)
 .data          0x0000000000000000        0x0 /home/jbrawley/Desktop/rockbox-photo-cf-support/build/firmware/libfirmware.a(sound.o)
 .text          0x0000000000000000        0x0 /home/jbrawley/Desktop/rockbox-photo-cf-support/build/firmware/libfirmware.a(pcm_sampr.o)
 .data          0x0000000000000000        0x0 /home/jbrawley/Desktop/rockbox-photo-cf-support/build/firmware/libfirmware.a(pcm_sampr.o)
 .bss           0x0000000000000000        0x0 /home/jbrawley/Desktop/rockbox-photo-cf-support/build/firmware/libfirmware.a(pcm_sampr.o)
 .data          0x0000000000000000        0x0 /home/jbrawley/Desktop/rockbox-photo-cf-support/build/firmware/libfirmware.a(pcm.o)
 .text          0x0000000000000000        0x0 /home/jbrawley/Desktop/rockbox-photo-cf-support/build/firmware/libfirmware.a(enc_base.o)
 .data          0x0000000000000000        0x0 /home/jbrawley/Desktop/rockbox-photo-cf-support/build/firmware/libfirmware.a(enc_base.o)
 .bss           0x0000000000000000        0x0 /home/jbrawley/Desktop/rockbox-photo-cf-support/build/firmware/libfirmware.a(enc_base.o)
 .data          0x0000000000000000        0x0 /home/jbrawley/Desktop/rockbox-photo-cf-support/build/firmware/libfirmware.a(audiohw-swcodec.o)
 .bss           0x0000000000000000        0x0 /home/jbrawley/Desktop/rockbox-photo-cf-support/build/firmware/libfirmware.a(audiohw-swcodec.o)
 .bss           0x0000000000000000        0x0 /home/jbrawley/Desktop/rockbox-photo-cf-support/build/firmware/libfirmware.a(wm8975.o)
 .data          0x0000000000000000        0x0 /home/jbrawley/Desktop/rockbox-photo-cf-support/build/firmware/libfirmware.a(system-arm.o)
 .data          0x0000000000000000        0x0 /home/jbrawley/Desktop/rockbox-photo-cf-support/build/firmware/libfirmware.a(ata-pp5020.o)
 .bss           0x0000000000000000        0x0 /home/jbrawley/Desktop/rockbox-photo-cf-support/build/firmware/libfirmware.a(ata-pp5020.o)
 .text          0x0000000000000000        0x0 /home/jbrawley/Desktop/rockbox-photo-cf-support/build/firmware/libfirmware.a(ata-as-arm.o)
 .data          0x0000000000000000        0x0 /home/jbrawley/Desktop/rockbox-photo-cf-support/build/firmware/libfirmware.a(ata-as-arm.o)
 .bss           0x0000000000000000        0x0 /home/jbrawley/Desktop/rockbox-photo-cf-support/build/firmware/libfirmware.a(ata-as-arm.o)
 .data          0x0000000000000000        0x0 /home/jbrawley/Desktop/rockbox-photo-cf-support/build/firmware/libfirmware.a(power-ipod.o)
 .bss           0x0000000000000000        0x0 /home/jbrawley/Desktop/rockbox-photo-cf-support/build/firmware/libfirmware.a(power-ipod.o)
 .data          0x0000000000000000        0x0 /home/jbrawley/Desktop/rockbox-photo-cf-support/build/firmware/libfirmware.a(piezo.o)
 .data          0x0000000000000000        0x0 /home/jbrawley/Desktop/rockbox-photo-cf-support/build/firmware/libfirmware.a(pcf50605.o)
 .data          0x0000000000000000        0x0 /home/jbrawley/Desktop/rockbox-photo-cf-support/build/firmware/libfirmware.a(powermgmt-ipod-pcf.o)
 .bss           0x0000000000000000        0x0 /home/jbrawley/Desktop/rockbox-photo-cf-support/build/firmware/libfirmware.a(powermgmt-ipod-pcf.o)
 .data          0x0000000000000000        0x0 /home/jbrawley/Desktop/rockbox-photo-cf-support/build/firmware/libfirmware.a(i2c-pp.o)
 .bss           0x0000000000000000        0x0 /home/jbrawley/Desktop/rockbox-photo-cf-support/build/firmware/libfirmware.a(i2c-pp.o)
 .data          0x0000000000000000        0x0 /home/jbrawley/Desktop/rockbox-photo-cf-support/build/firmware/libfirmware.a(timer-pp.o)
 .bss           0x0000000000000000        0x0 /home/jbrawley/Desktop/rockbox-photo-cf-support/build/firmware/libfirmware.a(timer-pp.o)
 .data          0x0000000000000000        0x0 /home/jbrawley/Desktop/rockbox-photo-cf-support/build/firmware/libfirmware.a(wmcodec-pp.o)
 .bss           0x0000000000000000        0x0 /home/jbrawley/Desktop/rockbox-photo-cf-support/build/firmware/libfirmware.a(wmcodec-pp.o)
 .data          0x0000000000000000        0x0 /home/jbrawley/Desktop/rockbox-photo-cf-support/build/firmware/libfirmware.a(usb-fw-pp502x.o)
 .data          0x0000000000000000        0x0 /home/jbrawley/Desktop/rockbox-photo-cf-support/build/firmware/libfirmware.a(system-pp502x.o)
 .bss           0x0000000000000000        0x0 /home/jbrawley/Desktop/rockbox-photo-cf-support/build/firmware/libfirmware.a(system-pp502x.o)
 .data          0x0000000000000000        0x0 /home/jbrawley/Desktop/rockbox-photo-cf-support/build/firmware/libfirmware.a(pcm-pp.o)
 .bss           0x0000000000000000        0x0 /home/jbrawley/Desktop/rockbox-photo-cf-support/build/firmware/libfirmware.a(pcm-pp.o)
 .data          0x0000000000000000        0x0 /home/jbrawley/Desktop/rockbox-photo-cf-support/build/firmware/libfirmware.a(debug-pp.o)
 .bss           0x0000000000000000        0x0 /home/jbrawley/Desktop/rockbox-photo-cf-support/build/firmware/libfirmware.a(debug-pp.o)
 .bss           0x0000000000000000        0x0 /home/jbrawley/Desktop/rockbox-photo-cf-support/build/firmware/libfirmware.a(lcd-color_nano.o)
 .data          0x0000000000000000        0x0 /home/jbrawley/Desktop/rockbox-photo-cf-support/build/firmware/libfirmware.a(usb-drv-arc.o)
 .data          0x0000000000000000        0x0 /home/jbrawley/Desktop/rockbox-photo-cf-support/build/firmware/libfirmware.a(adc-ipod-pcf.o)
 .bss           0x0000000000000000        0x0 /home/jbrawley/Desktop/rockbox-photo-cf-support/build/firmware/libfirmware.a(adc-ipod-pcf.o)
 .text          0x0000000000000000        0x0 /home/jbrawley/Desktop/rockbox-photo-cf-support/build/firmware/libfirmware.a(lcd-as-color-nano.o)
 .data          0x0000000000000000        0x0 /home/jbrawley/Desktop/rockbox-photo-cf-support/build/firmware/libfirmware.a(lcd-as-color-nano.o)
 .bss           0x0000000000000000        0x0 /home/jbrawley/Desktop/rockbox-photo-cf-support/build/firmware/libfirmware.a(lcd-as-color-nano.o)
 .data          0x0000000000000000        0x0 /home/jbrawley/Desktop/rockbox-photo-cf-support/build/firmware/libfirmware.a(corelock.o)
 .bss           0x0000000000000000        0x0 /home/jbrawley/Desktop/rockbox-photo-cf-support/build/firmware/libfirmware.a(corelock.o)
 .data          0x0000000000000000        0x0 /home/jbrawley/Desktop/rockbox-photo-cf-support/build/firmware/libfirmware.a(mrsw_lock.o)
 .bss           0x0000000000000000        0x0 /home/jbrawley/Desktop/rockbox-photo-cf-support/build/firmware/libfirmware.a(mrsw_lock.o)
 .data          0x0000000000000000        0x0 /home/jbrawley/Desktop/rockbox-photo-cf-support/build/firmware/libfirmware.a(mutex.o)
 .bss           0x0000000000000000        0x0 /home/jbrawley/Desktop/rockbox-photo-cf-support/build/firmware/libfirmware.a(mutex.o)
 .data          0x0000000000000000        0x0 /home/jbrawley/Desktop/rockbox-photo-cf-support/build/firmware/libfirmware.a(queue.o)
 .bss           0x0000000000000000        0x0 /home/jbrawley/Desktop/rockbox-photo-cf-support/build/firmware/libfirmware.a(queue.o)
 .data          0x0000000000000000        0x0 /home/jbrawley/Desktop/rockbox-photo-cf-support/build/firmware/libfirmware.a(semaphore.o)
 .bss           0x0000000000000000        0x0 /home/jbrawley/Desktop/rockbox-photo-cf-support/build/firmware/libfirmware.a(semaphore.o)
 .data          0x0000000000000000        0x0 /home/jbrawley/Desktop/rockbox-photo-cf-support/build/firmware/libfirmware.a(thread.o)
 .data          0x0000000000000000        0x0 /home/jbrawley/Desktop/rockbox-photo-cf-support/build/firmware/libfirmware.a(thread-common.o)
 .bss           0x0000000000000000        0x0 /home/jbrawley/Desktop/rockbox-photo-cf-support/build/firmware/libfirmware.a(thread-common.o)
 .data          0x0000000000000000        0x0 /home/jbrawley/Desktop/rockbox-photo-cf-support/build/firmware/libfirmware.a(tick.o)
 .bss           0x0000000000000000        0x0 /home/jbrawley/Desktop/rockbox-photo-cf-support/build/firmware/libfirmware.a(tick.o)
 .data          0x0000000000000000        0x0 /home/jbrawley/Desktop/rockbox-photo-cf-support/build/firmware/libfirmware.a(timeout.o)
 .text          0x0000000000000000        0x0 /home/jbrawley/Desktop/rockbox-photo-cf-support/build/firmware/libfirmware.a(sysfont.o)
 .data          0x0000000000000000        0x0 /home/jbrawley/Desktop/rockbox-photo-cf-support/build/firmware/libfirmware.a(sysfont.o)
 .bss           0x0000000000000000        0x0 /home/jbrawley/Desktop/rockbox-photo-cf-support/build/firmware/libfirmware.a(sysfont.o)
 .text          0x0000000000000000        0x0 /home/jbrawley/Desktop/rockbox-photo-cf-support/build/firmware/libfirmware.a(memset16.o)
 .data          0x0000000000000000        0x0 /home/jbrawley/Desktop/rockbox-photo-cf-support/build/firmware/libfirmware.a(memset16.o)
 .bss           0x0000000000000000        0x0 /home/jbrawley/Desktop/rockbox-photo-cf-support/build/firmware/libfirmware.a(memset16.o)
 .data          0x0000000000000000        0x0 /home/jbrawley/Desktop/rockbox-photo-cf-support/build/firmware/libfirmware.a(rb-loader.o)
 .bss           0x0000000000000000        0x0 /home/jbrawley/Desktop/rockbox-photo-cf-support/build/firmware/libfirmware.a(rb-loader.o)
 .data          0x0000000000000000        0x0 /home/jbrawley/Desktop/rockbox-photo-cf-support/build/firmware/libfirmware.a(ap_int.o)
 .bss           0x0000000000000000        0x0 /home/jbrawley/Desktop/rockbox-photo-cf-support/build/firmware/libfirmware.a(ap_int.o)
 .data          0x0000000000000000        0x0 /home/jbrawley/Desktop/rockbox-photo-cf-support/build/firmware/libfirmware.a(disk_cache.o)
 .text          0x0000000000000000        0x0 /home/jbrawley/Desktop/rockbox-photo-cf-support/build/firmware/libfirmware.a(arabjoin.o)
 .data          0x0000000000000000        0x0 /home/jbrawley/Desktop/rockbox-photo-cf-support/build/firmware/libfirmware.a(arabjoin.o)
 .bss           0x0000000000000000        0x0 /home/jbrawley/Desktop/rockbox-photo-cf-support/build/firmware/libfirmware.a(arabjoin.o)
 .data          0x0000000000000000        0x0 /home/jbrawley/Desktop/rockbox-photo-cf-support/build/firmware/libfirmware.a(font_cache.o)
 .bss           0x0000000000000000        0x0 /home/jbrawley/Desktop/rockbox-photo-cf-support/build/firmware/libfirmware.a(font_cache.o)
 .data          0x0000000000000000        0x0 /home/jbrawley/Desktop/rockbox-photo-cf-support/build/firmware/libfirmware.a(i2s-pp.o)
 .bss           0x0000000000000000        0x0 /home/jbrawley/Desktop/rockbox-photo-cf-support/build/firmware/libfirmware.a(i2s-pp.o)
 .data          0x0000000000000000        0x0 /home/jbrawley/Desktop/rockbox-photo-cf-support/build/firmware/libfirmware.a(kernel-pp.o)
 .bss           0x0000000000000000        0x0 /home/jbrawley/Desktop/rockbox-photo-cf-support/build/firmware/libfirmware.a(kernel-pp.o)
 .data          0x0000000000000000        0x0 /home/jbrawley/Desktop/rockbox-photo-cf-support/build/lib/libunwarminder.a(backtrace-unwarminder.o)
 .bss           0x0000000000000000        0x0 /home/jbrawley/Desktop/rockbox-photo-cf-support/build/lib/libunwarminder.a(backtrace-unwarminder.o)
 .data          0x0000000000000000        0x0 /home/jbrawley/Desktop/rockbox-photo-cf-support/build/lib/libunwarminder.a(get_sp.o)
 .bss           0x0000000000000000        0x0 /home/jbrawley/Desktop/rockbox-photo-cf-support/build/lib/libunwarminder.a(get_sp.o)
 .data          0x0000000000000000        0x0 /home/jbrawley/Desktop/rockbox-photo-cf-support/build/lib/libunwarminder.a(unwarminder.o)
 .bss           0x0000000000000000        0x0 /home/jbrawley/Desktop/rockbox-photo-cf-support/build/lib/libunwarminder.a(unwarminder.o)
 .data          0x0000000000000000        0x0 /home/jbrawley/Desktop/rockbox-photo-cf-support/build/lib/libunwarminder.a(unwarm_thumb.o)
 .bss           0x0000000000000000        0x0 /home/jbrawley/Desktop/rockbox-photo-cf-support/build/lib/libunwarminder.a(unwarm_thumb.o)
 .text          0x0000000000000000        0x0 /home/jbrawley/Desktop/rockbox-photo-cf-support/build/lib/libunwarminder.a(safe_read.o)
 .bss           0x0000000000000000        0x0 /home/jbrawley/Desktop/rockbox-photo-cf-support/build/lib/libunwarminder.a(safe_read.o)
 .data          0x0000000000000000        0x0 /home/jbrawley/Desktop/rockbox-photo-cf-support/build/lib/libunwarminder.a(unwarm_arm.o)
 .bss           0x0000000000000000        0x0 /home/jbrawley/Desktop/rockbox-photo-cf-support/build/lib/libunwarminder.a(unwarm_arm.o)
 .data          0x0000000000000000        0x0 /home/jbrawley/Desktop/rockbox-photo-cf-support/build/lib/libunwarminder.a(unwarm.o)
 .bss           0x0000000000000000        0x0 /home/jbrawley/Desktop/rockbox-photo-cf-support/build/lib/libunwarminder.a(unwarm.o)
 .data          0x0000000000000000        0x0 /home/jbrawley/Desktop/rockbox-photo-cf-support/build/lib/libunwarminder.a(unwarmmem.o)
 .bss           0x0000000000000000        0x0 /home/jbrawley/Desktop/rockbox-photo-cf-support/build/lib/libunwarminder.a(unwarmmem.o)
 .data          0x0000000000000000        0x0 /home/jbrawley/Desktop/rockbox-photo-cf-support/build/lib/libskin_parser.a(skin_buffer.o)
 .data          0x0000000000000000        0x0 /home/jbrawley/Desktop/rockbox-photo-cf-support/build/lib/libskin_parser.a(skin_parser.o)
 .data          0x0000000000000000        0x0 /home/jbrawley/Desktop/rockbox-photo-cf-support/build/lib/libskin_parser.a(skin_scan.o)
 .bss           0x0000000000000000        0x0 /home/jbrawley/Desktop/rockbox-photo-cf-support/build/lib/libskin_parser.a(skin_scan.o)
 .data          0x0000000000000000        0x0 /home/jbrawley/Desktop/rockbox-photo-cf-support/build/lib/libskin_parser.a(tag_table.o)
 .bss           0x0000000000000000        0x0 /home/jbrawley/Desktop/rockbox-photo-cf-support/build/lib/libskin_parser.a(tag_table.o)
 .data          0x0000000000000000        0x0 /home/jbrawley/Desktop/rockbox-photo-cf-support/build/lib/libarm_support.a(support-arm.o)
 .bss           0x0000000000000000        0x0 /home/jbrawley/Desktop/rockbox-photo-cf-support/build/lib/libarm_support.a(support-arm.o)
 .text          0x0000000000000000        0x0 /home/jbrawley/Desktop/rockbox-photo-cf-support/build/lib/libfixedpoint.a(fixedpoint.o)
 .data          0x0000000000000000        0x0 /home/jbrawley/Desktop/rockbox-photo-cf-support/build/lib/libfixedpoint.a(fixedpoint.o)
 .bss           0x0000000000000000        0x0 /home/jbrawley/Desktop/rockbox-photo-cf-support/build/lib/libfixedpoint.a(fixedpoint.o)
 .text.fp_sqrt  0x0000000000000000       0xc4 /home/jbrawley/Desktop/rockbox-photo-cf-support/build/lib/libfixedpoint.a(fixedpoint.o)
 .text.fp14_sin
                0x0000000000000000       0x5c /home/jbrawley/Desktop/rockbox-photo-cf-support/build/lib/libfixedpoint.a(fixedpoint.o)
 .text.fp14_cos
                0x0000000000000000       0x7c /home/jbrawley/Desktop/rockbox-photo-cf-support/build/lib/libfixedpoint.a(fixedpoint.o)
 .text.fp16_log
                0x0000000000000000       0xd4 /home/jbrawley/Desktop/rockbox-photo-cf-support/build/lib/libfixedpoint.a(fixedpoint.o)
 .text.fp16_exp
                0x0000000000000000       0xf8 /home/jbrawley/Desktop/rockbox-photo-cf-support/build/lib/libfixedpoint.a(fixedpoint.o)
 .text.fp_decibels
                0x0000000000000000       0x2c /home/jbrawley/Desktop/rockbox-photo-cf-support/build/lib/libfixedpoint.a(fixedpoint.o)
 .rodata.sin_table
                0x0000000000000000       0xb6 /home/jbrawley/Desktop/rockbox-photo-cf-support/build/lib/libfixedpoint.a(fixedpoint.o)
 .data          0x0000000000000000        0x0 /usr/local/lib/gcc/arm-elf-eabi/4.9.4/libgcc.a(_lshrdi3.o)
 .bss           0x0000000000000000        0x0 /usr/local/lib/gcc/arm-elf-eabi/4.9.4/libgcc.a(_lshrdi3.o)
 .data          0x0000000000000000        0x0 /usr/local/lib/gcc/arm-elf-eabi/4.9.4/libgcc.a(_ashrdi3.o)
 .bss           0x0000000000000000        0x0 /usr/local/lib/gcc/arm-elf-eabi/4.9.4/libgcc.a(_ashrdi3.o)
 .data          0x0000000000000000        0x0 /usr/local/lib/gcc/arm-elf-eabi/4.9.4/libgcc.a(_ashldi3.o)
 .bss           0x0000000000000000        0x0 /usr/local/lib/gcc/arm-elf-eabi/4.9.4/libgcc.a(_ashldi3.o)
 .data          0x0000000000000000        0x0 /usr/local/lib/gcc/arm-elf-eabi/4.9.4/libgcc.a(_arm_addsubdf3.o)
 .bss           0x0000000000000000        0x0 /usr/local/lib/gcc/arm-elf-eabi/4.9.4/libgcc.a(_arm_addsubdf3.o)
 .data          0x0000000000000000        0x0 /usr/local/lib/gcc/arm-elf-eabi/4.9.4/libgcc.a(_arm_muldivdf3.o)
 .bss           0x0000000000000000        0x0 /usr/local/lib/gcc/arm-elf-eabi/4.9.4/libgcc.a(_arm_muldivdf3.o)
 .data          0x0000000000000000        0x0 /usr/local/lib/gcc/arm-elf-eabi/4.9.4/libgcc.a(_arm_fixdfsi.o)
 .bss           0x0000000000000000        0x0 /usr/local/lib/gcc/arm-elf-eabi/4.9.4/libgcc.a(_arm_fixdfsi.o)
 .data          0x0000000000000000        0x0 /usr/local/lib/gcc/arm-elf-eabi/4.9.4/libgcc.a(_aeabi_ldivmod.o)
 .bss           0x0000000000000000        0x0 /usr/local/lib/gcc/arm-elf-eabi/4.9.4/libgcc.a(_aeabi_ldivmod.o)
 .data          0x0000000000000000        0x0 /usr/local/lib/gcc/arm-elf-eabi/4.9.4/libgcc.a(_aeabi_uldivmod.o)
 .bss           0x0000000000000000        0x0 /usr/local/lib/gcc/arm-elf-eabi/4.9.4/libgcc.a(_aeabi_uldivmod.o)
 .data          0x0000000000000000        0x0 /usr/local/lib/gcc/arm-elf-eabi/4.9.4/libgcc.a(_ctzdi2.o)
 .bss           0x0000000000000000        0x0 /usr/local/lib/gcc/arm-elf-eabi/4.9.4/libgcc.a(_ctzdi2.o)
 .data          0x0000000000000000        0x0 /usr/local/lib/gcc/arm-elf-eabi/4.9.4/libgcc.a(bpabi.o)
 .bss           0x0000000000000000        0x0 /usr/local/lib/gcc/arm-elf-eabi/4.9.4/libgcc.a(bpabi.o)
 .data          0x0000000000000000        0x0 /usr/local/lib/gcc/arm-elf-eabi/4.9.4/libgcc.a(_dvmd_tls.o)
 .bss           0x0000000000000000        0x0 /usr/local/lib/gcc/arm-elf-eabi/4.9.4/libgcc.a(_dvmd_tls.o)
 .data          0x0000000000000000        0x0 /usr/local/lib/gcc/arm-elf-eabi/4.9.4/libgcc.a(_ctzsi2.o)
 .bss           0x0000000000000000        0x0 /usr/local/lib/gcc/arm-elf-eabi/4.9.4/libgcc.a(_ctzsi2.o)
 .data          0x0000000000000000        0x0 /usr/local/lib/gcc/arm-elf-eabi/4.9.4/libgcc.a(_divdi3.o)
 .bss           0x0000000000000000        0x0 /usr/local/lib/gcc/arm-elf-eabi/4.9.4/libgcc.a(_divdi3.o)
 .ARM.extab     0x0000000000000000        0x0 /usr/local/lib/gcc/arm-elf-eabi/4.9.4/libgcc.a(_divdi3.o)
 .data          0x0000000000000000        0x0 /usr/local/lib/gcc/arm-elf-eabi/4.9.4/libgcc.a(_udivdi3.o)
 .bss           0x0000000000000000        0x0 /usr/local/lib/gcc/arm-elf-eabi/4.9.4/libgcc.a(_udivdi3.o)
 .ARM.extab     0x0000000000000000        0x0 /usr/local/lib/gcc/arm-elf-eabi/4.9.4/libgcc.a(_udivdi3.o)
 .data          0x0000000000000000        0x0 /usr/local/lib/gcc/arm-elf-eabi/4.9.4/libgcc.a(_clzdi2.o)
 .bss           0x0000000000000000        0x0 /usr/local/lib/gcc/arm-elf-eabi/4.9.4/libgcc.a(_clzdi2.o)

Memory Configuration

Name             Origin             Length             Attributes
DRAM             0x0000000000000000 0x0000000001e80000
IRAM             0x0000000040000000 0x000000000000c000
*default*        0x0000000000000000 0xffffffffffffffff

Linker script and memory map

LOAD /home/jbrawley/Desktop/rockbox-photo-cf-support/build/firmware/target/arm/pp/crt0-pp.o
LOAD /home/jbrawley/Desktop/rockbox-photo-cf-support/build/apps/action.o
LOAD /home/jbrawley/Desktop/rockbox-photo-cf-support/build/apps/alarm_menu.o
LOAD /home/jbrawley/Desktop/rockbox-photo-cf-support/build/apps/abrepeat.o
LOAD /home/jbrawley/Desktop/rockbox-photo-cf-support/build/apps/bookmark.o
LOAD /home/jbrawley/Desktop/rockbox-photo-cf-support/build/apps/core_keymap.o
LOAD /home/jbrawley/Desktop/rockbox-photo-cf-support/build/apps/debug_menu.o
LOAD /home/jbrawley/Desktop/rockbox-photo-cf-support/build/apps/filetypes.o
LOAD /home/jbrawley/Desktop/rockbox-photo-cf-support/build/apps/language.o
LOAD /home/jbrawley/Desktop/rockbox-photo-cf-support/build/apps/main.o
LOAD /home/jbrawley/Desktop/rockbox-photo-cf-support/build/apps/menu.o
LOAD /home/jbrawley/Desktop/rockbox-photo-cf-support/build/apps/menus/menu_common.o
LOAD /home/jbrawley/Desktop/rockbox-photo-cf-support/build/apps/menus/display_menu.o
LOAD /home/jbrawley/Desktop/rockbox-photo-cf-support/build/apps/menus/theme_menu.o
LOAD /home/jbrawley/Desktop/rockbox-photo-cf-support/build/apps/menus/plugin_menu.o
LOAD /home/jbrawley/Desktop/rockbox-photo-cf-support/build/apps/menus/radio_menu.o
LOAD /home/jbrawley/Desktop/rockbox-photo-cf-support/build/apps/menus/eq_menu.o
LOAD /home/jbrawley/Desktop/rockbox-photo-cf-support/build/apps/buffering.o
LOAD /home/jbrawley/Desktop/rockbox-photo-cf-support/build/apps/voice_thread.o
LOAD /home/jbrawley/Desktop/rockbox-photo-cf-support/build/apps/rbcodec_helpers.o
LOAD /home/jbrawley/Desktop/rockbox-photo-cf-support/build/apps/menus/main_menu.o
LOAD /home/jbrawley/Desktop/rockbox-photo-cf-support/build/apps/menus/playback_menu.o
LOAD /home/jbrawley/Desktop/rockbox-photo-cf-support/build/apps/menus/playlist_menu.o
LOAD /home/jbrawley/Desktop/rockbox-photo-cf-support/build/apps/menus/recording_menu.o
LOAD /home/jbrawley/Desktop/rockbox-photo-cf-support/build/apps/menus/settings_menu.o
LOAD /home/jbrawley/Desktop/rockbox-photo-cf-support/build/apps/menus/sound_menu.o
LOAD /home/jbrawley/Desktop/rockbox-photo-cf-support/build/apps/menus/time_menu.o
LOAD /home/jbrawley/Desktop/rockbox-photo-cf-support/build/apps/misc.o
LOAD /home/jbrawley/Desktop/rockbox-photo-cf-support/build/apps/open_plugin.o
LOAD /home/jbrawley/Desktop/rockbox-photo-cf-support/build/apps/onplay.o
LOAD /home/jbrawley/Desktop/rockbox-photo-cf-support/build/apps/playlist.o
LOAD /home/jbrawley/Desktop/rockbox-photo-cf-support/build/apps/playlist_catalog.o
LOAD /home/jbrawley/Desktop/rockbox-photo-cf-support/build/apps/playlist_viewer.o
LOAD /home/jbrawley/Desktop/rockbox-photo-cf-support/build/apps/plugin.o
LOAD /home/jbrawley/Desktop/rockbox-photo-cf-support/build/apps/root_menu.o
LOAD /home/jbrawley/Desktop/rockbox-photo-cf-support/build/apps/screens.o
LOAD /home/jbrawley/Desktop/rockbox-photo-cf-support/build/apps/settings.o
LOAD /home/jbrawley/Desktop/rockbox-photo-cf-support/build/apps/settings_list.o
LOAD /home/jbrawley/Desktop/rockbox-photo-cf-support/build/apps/shortcuts.o
LOAD /home/jbrawley/Desktop/rockbox-photo-cf-support/build/apps/status.o
LOAD /home/jbrawley/Desktop/rockbox-photo-cf-support/build/apps/cuesheet.o
LOAD /home/jbrawley/Desktop/rockbox-photo-cf-support/build/apps/talk.o
LOAD /home/jbrawley/Desktop/rockbox-photo-cf-support/build/apps/tree.o
LOAD /home/jbrawley/Desktop/rockbox-photo-cf-support/build/apps/tagtree.o
LOAD /home/jbrawley/Desktop/rockbox-photo-cf-support/build/apps/filetree.o
LOAD /home/jbrawley/Desktop/rockbox-photo-cf-support/build/apps/iap/iap-core.o
LOAD /home/jbrawley/Desktop/rockbox-photo-cf-support/build/apps/iap/iap-lingo0.o
LOAD /home/jbrawley/Desktop/rockbox-photo-cf-support/build/apps/iap/iap-lingo1.o
LOAD /home/jbrawley/Desktop/rockbox-photo-cf-support/build/apps/iap/iap-lingo2.o
LOAD /home/jbrawley/Desktop/rockbox-photo-cf-support/build/apps/iap/iap-lingo3.o
LOAD /home/jbrawley/Desktop/rockbox-photo-cf-support/build/apps/iap/iap-lingo4.o
LOAD /home/jbrawley/Desktop/rockbox-photo-cf-support/build/apps/iap/iap-lingo7.o
LOAD /home/jbrawley/Desktop/rockbox-photo-cf-support/build/apps/screen_access.o
LOAD /home/jbrawley/Desktop/rockbox-photo-cf-support/build/apps/gui/icon.o
LOAD /home/jbrawley/Desktop/rockbox-photo-cf-support/build/apps/gui/list.o
LOAD /home/jbrawley/Desktop/rockbox-photo-cf-support/build/apps/gui/line.o
LOAD /home/jbrawley/Desktop/rockbox-photo-cf-support/build/apps/gui/bitmap/list.o
LOAD /home/jbrawley/Desktop/rockbox-photo-cf-support/build/apps/gui/bitmap/list-skinned.o
LOAD /home/jbrawley/Desktop/rockbox-photo-cf-support/build/apps/gui/option_select.o
LOAD /home/jbrawley/Desktop/rockbox-photo-cf-support/build/apps/gui/pitchscreen.o
LOAD /home/jbrawley/Desktop/rockbox-photo-cf-support/build/apps/gui/quickscreen.o
LOAD /home/jbrawley/Desktop/rockbox-photo-cf-support/build/apps/gui/folder_select.o
LOAD /home/jbrawley/Desktop/rockbox-photo-cf-support/build/apps/gui/mask_select.o
LOAD /home/jbrawley/Desktop/rockbox-photo-cf-support/build/apps/gui/wps.o
LOAD /home/jbrawley/Desktop/rockbox-photo-cf-support/build/apps/gui/scrollbar.o
LOAD /home/jbrawley/Desktop/rockbox-photo-cf-support/build/apps/gui/splash.o
LOAD /home/jbrawley/Desktop/rockbox-photo-cf-support/build/apps/gui/statusbar.o
LOAD /home/jbrawley/Desktop/rockbox-photo-cf-support/build/apps/gui/statusbar-skinned.o
LOAD /home/jbrawley/Desktop/rockbox-photo-cf-support/build/apps/gui/yesno.o
LOAD /home/jbrawley/Desktop/rockbox-photo-cf-support/build/apps/gui/viewport.o
LOAD /home/jbrawley/Desktop/rockbox-photo-cf-support/build/apps/gui/skin_engine/skin_backdrops.o
LOAD /home/jbrawley/Desktop/rockbox-photo-cf-support/build/apps/gui/skin_engine/skin_display.o
LOAD /home/jbrawley/Desktop/rockbox-photo-cf-support/build/apps/gui/skin_engine/skin_engine.o
LOAD /home/jbrawley/Desktop/rockbox-photo-cf-support/build/apps/gui/skin_engine/skin_parser.o
LOAD /home/jbrawley/Desktop/rockbox-photo-cf-support/build/apps/gui/skin_engine/skin_render.o
LOAD /home/jbrawley/Desktop/rockbox-photo-cf-support/build/apps/gui/skin_engine/skin_tokens.o
LOAD /home/jbrawley/Desktop/rockbox-photo-cf-support/build/apps/gui/backdrop.o
LOAD /home/jbrawley/Desktop/rockbox-photo-cf-support/build/apps/recorder/bmp.o
LOAD /home/jbrawley/Desktop/rockbox-photo-cf-support/build/apps/recorder/icons.o
LOAD /home/jbrawley/Desktop/rockbox-photo-cf-support/build/apps/recorder/keyboard.o
LOAD /home/jbrawley/Desktop/rockbox-photo-cf-support/build/apps/recorder/peakmeter.o
LOAD /home/jbrawley/Desktop/rockbox-photo-cf-support/build/apps/recorder/resize.o
LOAD /home/jbrawley/Desktop/rockbox-photo-cf-support/build/apps/recorder/jpeg_load.o
LOAD /home/jbrawley/Desktop/rockbox-photo-cf-support/build/apps/recorder/jpeg_idct_arm.o
LOAD /home/jbrawley/Desktop/rockbox-photo-cf-support/build/apps/recorder/albumart.o
LOAD /home/jbrawley/Desktop/rockbox-photo-cf-support/build/apps/gui/color_picker.o
LOAD /home/jbrawley/Desktop/rockbox-photo-cf-support/build/apps/recorder/recording.o
LOAD /home/jbrawley/Desktop/rockbox-photo-cf-support/build/apps/radio/radio.o
LOAD /home/jbrawley/Desktop/rockbox-photo-cf-support/build/apps/radio/presets.o
LOAD /home/jbrawley/Desktop/rockbox-photo-cf-support/build/apps/radio/radio_skin.o
LOAD /home/jbrawley/Desktop/rockbox-photo-cf-support/build/apps/radio/radioart.o
LOAD /home/jbrawley/Desktop/rockbox-photo-cf-support/build/apps/audio_path.o
LOAD /home/jbrawley/Desktop/rockbox-photo-cf-support/build/apps/audio_thread.o
LOAD /home/jbrawley/Desktop/rockbox-photo-cf-support/build/apps/pcmbuf.o
LOAD /home/jbrawley/Desktop/rockbox-photo-cf-support/build/apps/codec_thread.o
LOAD /home/jbrawley/Desktop/rockbox-photo-cf-support/build/apps/playback.o
LOAD /home/jbrawley/Desktop/rockbox-photo-cf-support/build/apps/codecs.o
LOAD /home/jbrawley/Desktop/rockbox-photo-cf-support/build/apps/beep.o
LOAD /home/jbrawley/Desktop/rockbox-photo-cf-support/build/apps/enc_config.o
LOAD /home/jbrawley/Desktop/rockbox-photo-cf-support/build/apps/recorder/pcm_record.o
LOAD /home/jbrawley/Desktop/rockbox-photo-cf-support/build/apps/usb_keymaps.o
LOAD /home/jbrawley/Desktop/rockbox-photo-cf-support/build/apps/gui/usb_screen.o
LOAD /home/jbrawley/Desktop/rockbox-photo-cf-support/build/apps/tagcache.o
LOAD /home/jbrawley/Desktop/rockbox-photo-cf-support/build/apps/keymaps/keymap-ipod.o
LOAD /home/jbrawley/Desktop/rockbox-photo-cf-support/build/apps/bitmaps/mono/default_icons.o
LOAD /home/jbrawley/Desktop/rockbox-photo-cf-support/build/apps/bitmaps/native/rockboxlogo.220x68x16.o
LOAD /home/jbrawley/Desktop/rockbox-photo-cf-support/build/apps/bitmaps/native/usblogo.176x48x16.o
LOAD /home/jbrawley/Desktop/rockbox-photo-cf-support/build/lang/lang_core.o
LOAD /home/jbrawley/Desktop/rockbox-photo-cf-support/build/lib/rbcodec/codecs/libspeex-voice.a
LOAD /home/jbrawley/Desktop/rockbox-photo-cf-support/build/lib/librbcodec.a
LOAD /home/jbrawley/Desktop/rockbox-photo-cf-support/build/firmware/libfirmware.a
LOAD /home/jbrawley/Desktop/rockbox-photo-cf-support/build/lib/libunwarminder.a
LOAD /home/jbrawley/Desktop/rockbox-photo-cf-support/build/lib/libskin_parser.a
LOAD /home/jbrawley/Desktop/rockbox-photo-cf-support/build/lib/libarm_support.a
LOAD /home/jbrawley/Desktop/rockbox-photo-cf-support/build/lib/libfixedpoint.a
LOAD /usr/local/lib/gcc/arm-elf-eabi/4.9.4/libgcc.a

.text           0x0000000000000000    0x871e8
                0x0000000000000000                loadaddress = .
                0x0000000000000000                _loadaddress = .
                0x0000000000000000                . = ALIGN (0x200)
 *(.init.text)
 .init.text     0x0000000000000000      0x3ac /home/jbrawley/Desktop/rockbox-photo-cf-support/build/firmware/target/arm/pp/crt0-pp.o
                0x0000000000000000                start
 *(.text*)
 *fill*         0x00000000000003ac       0x14 
 .text          0x00000000000003c0      0xc40 /home/jbrawley/Desktop/rockbox-photo-cf-support/build/firmware/target/arm/pp/crt0-pp.o
 .text          0x0000000000001000      0x8d0 /home/jbrawley/Desktop/rockbox-photo-cf-support/build/apps/action.o
                0x000000000000139c                action_wait_for_release
                0x00000000000013b0                get_action
                0x0000000000001618                action_set_keymap_handle
                0x0000000000001730                action_set_keymap
                0x00000000000017a8                get_custom_action
                0x00000000000017e8                action_userabort
                0x000000000000181c                get_action_data
                0x000000000000182c                get_action_statuscode
                0x0000000000001864                set_selective_backlight_actions
 .text          0x00000000000018d0      0x19c /home/jbrawley/Desktop/rockbox-photo-cf-support/build/apps/alarm_menu.o
                0x00000000000018d0                alarm_screen
 .text          0x0000000000001a6c      0x164 /home/jbrawley/Desktop/rockbox-photo-cf-support/build/apps/abrepeat.o
                0x0000000000001a6c                ab_repeat_init
                0x0000000000001a88                ab_before_A_marker
                0x0000000000001aa8                ab_after_A_marker
                0x0000000000001ad8                ab_jump_to_A_marker
                0x0000000000001af4                ab_end_of_track_report
                0x0000000000001b18                ab_reset_markers
                0x0000000000001b30                ab_set_A_marker
                0x0000000000001b60                ab_set_B_marker
                0x0000000000001b90                ab_get_A_marker
                0x0000000000001bb0                ab_get_B_marker
 .text          0x0000000000001bd0     0x1544 /home/jbrawley/Desktop/rockbox-photo-cf-support/build/apps/bookmark.o
                0x0000000000002c58                bookmark_load_menu
                0x0000000000002ce0                bookmark_mrb_load
                0x0000000000002d24                bookmark_load
                0x0000000000002dc0                bookmark_autoload
                0x0000000000002e78                bookmark_exists
                0x0000000000002ec0                bookmark_is_bookmarkable_state
                0x0000000000003040                bookmark_create_menu
                0x0000000000003048                bookmark_autobookmark
 .text          0x0000000000003114      0x134 /home/jbrawley/Desktop/rockbox-photo-cf-support/build/apps/core_keymap.o
                0x0000000000003114                core_set_keyremap
                0x0000000000003124                core_load_key_remap
 .text          0x0000000000003248     0x1f90 /home/jbrawley/Desktop/rockbox-photo-cf-support/build/apps/debug_menu.o
                0x0000000000005108                debug_menu
                0x0000000000005160                run_debug_screen
 .text          0x00000000000051d8      0x928 /home/jbrawley/Desktop/rockbox-photo-cf-support/build/apps/filetypes.o
                0x0000000000005438                tree_get_filetype_voiceclip
                0x0000000000005490                read_color_theme_file
                0x00000000000055b8                read_viewer_theme_file
                0x0000000000005724                filetype_get_attr
                0x0000000000005770                filetype_get_color
                0x00000000000057c8                filetype_get_icon
                0x0000000000005810                filetype_get_plugin
                0x0000000000005900                filetype_supported
                0x000000000000596c                filetype_list_viewers
                0x0000000000005a34                filetype_load_plugin
 .text          0x0000000000005b00      0x268 /home/jbrawley/Desktop/rockbox-photo-cf-support/build/apps/language.o
                0x0000000000005b00                lang_init
                0x0000000000005b3c                lang_load
                0x0000000000005ca4                lang_core_load
                0x0000000000005ce4                lang_english_to_id
                0x0000000000005d3c                lang_is_rtl
                0x0000000000005d50                lang_units_first
 .text          0x0000000000005d68       0x50 /home/jbrawley/Desktop/rockbox-photo-cf-support/build/apps/main.o
                0x0000000000005d94                cop_main
 .text          0x0000000000005db8      0xe40 /home/jbrawley/Desktop/rockbox-photo-cf-support/build/apps/menu.o
                0x00000000000062f8                do_setting_screen
                0x00000000000063d0                do_setting_from_menu
                0x0000000000006414                do_menu
 .text          0x0000000000006bf8       0x34 /home/jbrawley/Desktop/rockbox-photo-cf-support/build/apps/menus/menu_common.o
                0x0000000000006bf8                lowlatency_callback
 .text          0x0000000000006c2c      0x3fc /home/jbrawley/Desktop/rockbox-photo-cf-support/build/apps/menus/display_menu.o
 .text          0x0000000000007028      0x344 /home/jbrawley/Desktop/rockbox-photo-cf-support/build/apps/menus/theme_menu.o
                0x00000000000070d8                browse_folder
 .text          0x000000000000736c      0x118 /home/jbrawley/Desktop/rockbox-photo-cf-support/build/apps/menus/plugin_menu.o
 .text          0x0000000000007484      0x110 /home/jbrawley/Desktop/rockbox-photo-cf-support/build/apps/menus/radio_menu.o
 .text          0x0000000000007594      0xfa8 /home/jbrawley/Desktop/rockbox-photo-cf-support/build/apps/menus/eq_menu.o
                0x0000000000007628                eq_q_format
                0x0000000000007c48                eq_menu_graphical
                0x00000000000084c4                eq_precut_format
                0x0000000000008538                eq_enabled_option_callback
 .text          0x000000000000853c     0x187c /home/jbrawley/Desktop/rockbox-photo-cf-support/build/apps/buffering.o
                0x000000000000944c                bufopen
                0x00000000000097f0                bufalloc
                0x00000000000098cc                bufclose
                0x0000000000009904                bufseek
                0x0000000000009944                bufadvance
                0x00000000000099a4                bufftell
                0x00000000000099c0                bufread
                0x0000000000009a50                bufgetdata
                0x0000000000009ac8                buf_is_handle
                0x0000000000009ae0                buf_handle_data_type
                0x0000000000009afc                buf_filesize
                0x0000000000009b18                buf_handle_offset
                0x0000000000009b34                buf_handle_remaining
                0x0000000000009b58                buf_pin_handle
                0x0000000000009b9c                buf_signal_handle
                0x0000000000009bbc                buf_length
                0x0000000000009bcc                buf_set_base_handle
                0x0000000000009c00                buf_used
                0x0000000000009c5c                buf_set_watermark
                0x0000000000009c6c                buf_get_watermark
                0x0000000000009c88                buffering_reset
                0x0000000000009d64                buffering_get_debugdata
 .text          0x0000000000009db8      0x7b4 /home/jbrawley/Desktop/rockbox-photo-cf-support/build/apps/voice_thread.o
                0x0000000000009f20                voice_play_data
                0x0000000000009f88                voice_play_stop
                0x0000000000009fb8                voice_stop
                0x0000000000009fc8                voice_wait
                0x0000000000009ff4                voice_set_mixer_level
                0x000000000000a444                voice_thread_kill
                0x000000000000a464                voice_thread_init
                0x000000000000a53c                voice_thread_set_priority
 .text          0x000000000000a56c      0x124 /home/jbrawley/Desktop/rockbox-photo-cf-support/build/apps/rbcodec_helpers.o
                0x000000000000a5ac                tdspeed_alloc_buffers
                0x000000000000a64c                tdspeed_free_buffers
 .text          0x000000000000a690      0x808 /home/jbrawley/Desktop/rockbox-photo-cf-support/build/apps/menus/main_menu.o
 .text          0x000000000000ae98      0x1b8 /home/jbrawley/Desktop/rockbox-photo-cf-support/build/apps/menus/playback_menu.o
 .text          0x000000000000b050      0x1fc /home/jbrawley/Desktop/rockbox-photo-cf-support/build/apps/menus/playlist_menu.o
                0x000000000000b050                save_playlist_screen
 .text          0x000000000000b24c      0x904 /home/jbrawley/Desktop/rockbox-photo-cf-support/build/apps/menus/recording_menu.o
                0x000000000000b700                rectrigger
                0x000000000000bb0c                recording_menu
 .text          0x000000000000bb50      0x54c /home/jbrawley/Desktop/rockbox-photo-cf-support/build/apps/menus/settings_menu.o
                0x000000000000bfa4                sleep_timer_formatter
 .text          0x000000000000c09c      0x138 /home/jbrawley/Desktop/rockbox-photo-cf-support/build/apps/menus/sound_menu.o
 .text          0x000000000000c1d4      0x4d4 /home/jbrawley/Desktop/rockbox-photo-cf-support/build/apps/menus/time_menu.o
                0x000000000000c484                talk_timedate
                0x000000000000c5b0                time_screen
 .text          0x000000000000c6a8     0x1ca4 /home/jbrawley/Desktop/rockbox-photo-cf-support/build/apps/misc.o
                0x000000000000c74c                output_dyn_value
                0x000000000000c924                warn_on_pl_erase
                0x000000000000c98c                fast_readline
                0x000000000000ca5c                list_stop_handler
                0x000000000000caf4                check_bootfile
                0x000000000000cbc4                default_event_handler_ex
                0x000000000000d010                default_event_handler
                0x000000000000d01c                setvol
                0x000000000000d098                strrsplt
                0x000000000000d0c0                strip_extension
                0x000000000000d144                system_sound_play
                0x000000000000d184                keyclick_set_callback
                0x000000000000d198                keyclick_click
                0x000000000000d29c                id3_get_replaygain_mode
                0x000000000000d300                replaygain_update
                0x000000000000d344                format_sound_value
                0x000000000000d400                read_line
                0x000000000000d4e0                skip_whitespace
                0x000000000000d508                settings_parseline
                0x000000000000d59c                confirm_delete_yesno
                0x000000000000d5f4                confirm_overwrite_yesno
                0x000000000000d614                time_split_units
                0x000000000000d6dc                format_time_auto
                0x000000000000d9e4                format_time
                0x000000000000da7c                split_string
                0x000000000000dadc                string_option
                0x000000000000db40                fix_path_part
                0x000000000000db9c                open_pathfmt
                0x000000000000dbe0                open_utf8
                0x000000000000dc88                hex_to_rgb
                0x000000000000dd34                parse_color
                0x000000000000dd74                clamp_value_wrap
                0x000000000000dd90                push_current_activity
                0x000000000000ddd8                push_activity_without_refresh
                0x000000000000de0c                pop_current_activity
                0x000000000000de4c                pop_current_activity_without_refresh
                0x000000000000de78                get_current_activity
                0x000000000000de98                core_load_bmp
                0x000000000000dfb8                to_normalized_volume
                0x000000000000e05c                from_normalized_volume
                0x000000000000e254                set_normalized_volume
                0x000000000000e294                get_normalized_volume
                0x000000000000e2f8                adjust_volume_ex
                0x000000000000e33c                adjust_volume
 .text          0x000000000000e34c      0x758 /home/jbrawley/Desktop/rockbox-photo-cf-support/build/apps/open_plugin.o
                0x000000000000e654                open_plugin_get_entry
                0x000000000000e660                open_plugin_add_path
                0x000000000000e82c                open_plugin_load_entry
                0x000000000000e908                open_plugin_browse
                0x000000000000e9cc                open_plugin_run
                0x000000000000ea5c                open_plugin_cache_flush
 .text          0x000000000000eaa4     0x2454 /home/jbrawley/Desktop/rockbox-photo-cf-support/build/apps/onplay.o
                0x0000000000010c54                onplay_show_playlist_menu
                0x0000000000010c98                onplay_show_playlist_cat_menu
                0x0000000000010cd8                get_hotkey
                0x0000000000010d18                onplay
                0x0000000000010ee8                get_onplay_context
 .text          0x0000000000010ef8     0x4010 /home/jbrawley/Desktop/rockbox-photo-cf-support/build/apps/playlist.o
                0x0000000000012834                playlist_shutdown
                0x000000000001286c                playlist_amount_ex
                0x0000000000012884                playlist_amount
                0x0000000000012894                playlist_create_ex
                0x000000000001296c                playlist_create
                0x0000000000012a38                playlist_check
                0x0000000000012aac                playlist_close
                0x0000000000012b04                playlist_delete
                0x0000000000012ba0                playlist_directory_tracksearch
                0x0000000000012d2c                playlist_get_current
                0x0000000000012d38                playlist_get_display_index
                0x0000000000012d60                playlist_get_first_index
                0x0000000000012d78                playlist_get_name
                0x0000000000012db4                playlist_get_required_bufsz
                0x0000000000012dd8                playlist_get_resume_info
                0x0000000000012df0                playlist_get_seed
                0x0000000000012e08                playlist_get_track_info
                0x0000000000012ea8                playlist_get_filename_crc32
                0x0000000000012ee4                playlist_insert_directory
                0x0000000000013014                playlist_insert_playlist
                0x0000000000013298                playlist_modified
                0x00000000000132b0                playlist_set_modified
                0x00000000000132c8                playlist_move
                0x0000000000013510                playlist_name
                0x000000000001356c                playlist_peek
                0x00000000000135fc                playlist_randomise
                0x000000000001368c                playlist_remove_all_tracks
                0x00000000000136e4                playlist_resume
                0x0000000000013eb4                playlist_save
                0x0000000000014398                playlist_set_current
                0x00000000000144dc                playlist_set_last_shuffled_start
                0x000000000001450c                playlist_shuffle
                0x0000000000014990                playlist_next
                0x0000000000014b68                playlist_next_dir
                0x0000000000014b9c                playlist_skip_entry
                0x0000000000014c08                playlist_sort
                0x0000000000014c90                playlist_start
                0x0000000000014ce8                playlist_resume_track
                0x0000000000014d64                playlist_sync
                0x0000000000014db4                playlist_insert_track
                0x0000000000014e60                playlist_update_resume_info
 .text          0x0000000000014f08      0x8c8 /home/jbrawley/Desktop/rockbox-photo-cf-support/build/apps/playlist_catalog.o
                0x000000000001516c                catalog_set_directory
                0x0000000000015198                catalog_get_directory
                0x00000000000153a8                catalog_view_playlists
                0x00000000000153f0                catalog_pick_new_playlist_name
                0x0000000000015498                catalog_add_to_a_playlist
 .text          0x00000000000157d0     0x16a8 /home/jbrawley/Desktop/rockbox-photo-cf-support/build/apps/playlist_viewer.o
                0x0000000000016514                playlist_viewer_ex
                0x0000000000016bd4                playlist_viewer
                0x0000000000016be0                search_playlist
 .text          0x0000000000016e78      0x5d0 /home/jbrawley/Desktop/rockbox-photo-cf-support/build/apps/plugin.o
                0x0000000000016e94                plugin_reserve_buffer
                0x0000000000016ed0                plugin_get_buffer
                0x0000000000016f28                plugin_get_current_filename
                0x0000000000016fdc                plugin_open
                0x00000000000170c0                plugin_load
 .text          0x0000000000017448      0xed0 /home/jbrawley/Desktop/rockbox-photo-cf-support/build/apps/root_menu.o
                0x0000000000017abc                root_menu_get_options
                0x0000000000017ad0                root_menu_write_to_cfg
                0x0000000000017b74                root_menu_set_default
                0x0000000000017bd8                root_menu_load_from_cfg
                0x0000000000017d54                root_menu_is_changed
                0x0000000000017d5c                root_menu
 .text          0x0000000000018318     0x13cc /home/jbrawley/Desktop/rockbox-photo-cf-support/build/apps/screens.o
                0x0000000000018e20                charging_splash
                0x0000000000018e44                set_time_screen
                0x00000000000193c0                browse_id3
                0x000000000001957c                view_runtime
 .text          0x00000000000196e4     0x12e0 /home/jbrawley/Desktop/rockbox-photo-cf-support/build/apps/settings.o
                0x00000000000198e8                cfg_string_to_int
                0x0000000000019968                copy_filename_setting
                0x0000000000019a2c                cfg_int_to_string
                0x0000000000019ae0                cfg_to_string
                0x0000000000019e50                reset_runtime
                0x0000000000019e7c                status_save
                0x0000000000019e98                settings_save
                0x0000000000019eb8                settings_save_config
                0x0000000000019f94                settings_apply_pm_range
                0x0000000000019fcc                sound_settings_apply
                0x000000000001a028                settings_apply
                0x000000000001a2fc                reset_setting
                0x000000000001a3b4                settings_reset
                0x000000000001a448                find_setting
                0x000000000001a498                find_setting_by_cfgname
                0x000000000001a4fc                settings_load_config
                0x000000000001a728                set_int_ex
                0x000000000001a7a4                set_int
                0x000000000001a7e8                set_option
                0x000000000001a8d0                set_bool_options
                0x000000000001a914                set_bool
                0x000000000001a940                set_file
 .text          0x000000000001a9c4      0x5b8 /home/jbrawley/Desktop/rockbox-photo-cf-support/build/apps/settings_list.o
                0x000000000001af68                get_settings_list
 .text          0x000000000001af7c      0xf5c /home/jbrawley/Desktop/rockbox-photo-cf-support/build/apps/shortcuts.o
                0x000000000001b70c                shortcuts_add
                0x000000000001b7a4                shortcuts_init
                0x000000000001bbc8                do_shortcut_menu
 .text          0x000000000001bed8       0x88 /home/jbrawley/Desktop/rockbox-photo-cf-support/build/apps/status.o
                0x000000000001bed8                status_set_ffmode
                0x000000000001bee8                status_get_ffmode
                0x000000000001bef8                current_playmode
 .text          0x000000000001bf60      0xcd8 /home/jbrawley/Desktop/rockbox-photo-cf-support/build/apps/cuesheet.o
                0x000000000001c114                look_for_cuesheet_file
                0x000000000001c164                parse_cuesheet
                0x000000000001c7a0                cue_find_current_track
                0x000000000001c7f8                browse_cuesheet
                0x000000000001ca04                display_cuesheet_content
                0x000000000001ca88                curr_cuesheet_skip
                0x000000000001cb30                cue_draw_markers
                0x000000000001cbd4                cuesheet_subtrack_changed
 .text          0x000000000001cc38     0x1fcc /home/jbrawley/Desktop/rockbox-photo-cf-support/build/apps/talk.o
                0x000000000001d75c                talk_force_shutup
                0x000000000001d7a0                talk_shutup
                0x000000000001d8ac                talk_init
                0x000000000001dab4                talk_buffer_set_policy
                0x000000000001dad0                talk_force_enqueue_next
                0x000000000001dae4                talk_spell
                0x000000000001daf0                talk_fractional
                0x000000000001db74                talk_value_decimal
                0x000000000001dd90                talk_id
                0x000000000001dea4                talk_idarray
                0x000000000001dee4                talk_file
                0x000000000001e218                talk_file_or_spell
                0x000000000001e298                talk_dir_or_spell
                0x000000000001e318                talk_number
                0x000000000001e504                talk_value
                0x000000000001e524                talk_time_intervals
                0x000000000001e62c                talk_fullpath
                0x000000000001e6f0                talk_disable
                0x000000000001e710                talk_setting
                0x000000000001e750                talk_date
                0x000000000001e7e8                talk_time
                0x000000000001e8f8                talk_announce_voice_invalid
                0x000000000001ea44                talk_get_debug_data
 .text          0x000000000001ec04     0x16e8 /home/jbrawley/Desktop/rockbox-photo-cf-support/build/apps/tree.o
                0x000000000001ec94                tree_get_entries
                0x000000000001ecb4                tree_get_entry_at
                0x000000000001f100                check_rockboxdir
                0x000000000001f164                tree_get_context
                0x000000000001f170                tree_lock_cache
                0x000000000001f190                tree_unlock_cache
                0x000000000001f540                resume_directory
                0x000000000001f5bc                getcwd
                0x000000000001f600                reload_directory
                0x000000000001f614                get_current_file
                0x000000000001fd18                set_dirfilter
                0x000000000001fd2c                set_current_file
                0x000000000001fe28                create_playlist
                0x000000000001fe64                rockbox_browse
                0x0000000000020008                bookmark_play
                0x0000000000020234                tree_flush
                0x00000000000202a0                tree_restore
 .text          0x00000000000202ec     0x2c7c /home/jbrawley/Desktop/rockbox-photo-cf-support/build/apps/tagtree.o
                0x0000000000022380                tagtree_export
                0x00000000000223c4                tagtree_import
                0x00000000000223f4                tagtree_load
                0x00000000000224ec                tagtree_exit
                0x0000000000022568                tagtree_enter
                0x0000000000022ae8                tagtree_get_filename
                0x0000000000022c5c                tagtree_subentries_do_action
                0x0000000000022dd8                tagtree_get_subentry_filename
                0x0000000000022e44                tagtree_current_playlist_insert
                0x0000000000022e50                tagtree_add_to_playlist
                0x0000000000022e94                tagtree_get_entry_name
                0x0000000000022ecc                tagtree_get_title
                0x0000000000022f14                tagtree_get_attr
                0x0000000000022f50                tagtree_get_icon
 .text          0x0000000000022f68      0xea4 /home/jbrawley/Desktop/rockbox-photo-cf-support/build/apps/filetree.o
                0x0000000000023100                ft_build_playlist
                0x00000000000231a0                ft_play_playlist
                0x0000000000023280                ft_load
                0x00000000000237ac                ft_enter
                0x0000000000023d20                ft_exit
 .text          0x0000000000023e0c     0x18a8 /home/jbrawley/Desktop/rockbox-photo-cf-support/build/apps/iap/iap-core.o
                0x0000000000023e30                put_u16
                0x0000000000023e40                put_u32
                0x0000000000023e60                get_u32
                0x0000000000023e84                get_u16
                0x0000000000023e94                iap_tx_strlcpy
                0x0000000000023eec                iap_reset_auth
                0x0000000000023f00                iap_reset_device
                0x0000000000023f34                iap_bitrate_set
                0x0000000000023f88                iap_setup
                0x0000000000023fb8                iap_send_tx
                0x0000000000024074                iap_set_remote_volume
                0x00000000000241dc                iap_send_pkt
                0x0000000000024238                iap_getc
                0x0000000000024530                iap_get_trackinfo
                0x00000000000245dc                iap_get_trackpos
                0x00000000000245f0                iap_get_trackindex
                0x000000000002460c                iap_interface_state_change
                0x000000000002467c                iap_handlepkt
                0x000000000002481c                remote_control_rx
                0x0000000000024844                iap_get_serbuf
                0x0000000000024854                iap_shuffle_state
                0x00000000000248d8                iap_repeat_state
                0x000000000002490c                iap_repeat_next
                0x0000000000024948                iap_fill_power_state
                0x00000000000249e0                iap_periodic
 .text          0x00000000000256b4      0xb4c /home/jbrawley/Desktop/rockbox-photo-cf-support/build/apps/iap/iap-lingo0.o
                0x00000000000257a8                iap_handlepkt_mode0
 .text          0x0000000000026200      0x1c8 /home/jbrawley/Desktop/rockbox-photo-cf-support/build/apps/iap/iap-lingo1.o
                0x0000000000026268                iap_record
                0x00000000000262e8                iap_handlepkt_mode1
 .text          0x00000000000263c8      0x494 /home/jbrawley/Desktop/rockbox-photo-cf-support/build/apps/iap/iap-lingo2.o
                0x0000000000026430                iap_handlepkt_mode2
 .text          0x000000000002685c      0xec8 /home/jbrawley/Desktop/rockbox-photo-cf-support/build/apps/iap/iap-lingo3.o
                0x00000000000268c4                iap_handlepkt_mode3
 .text          0x0000000000027724      0xfd4 /home/jbrawley/Desktop/rockbox-photo-cf-support/build/apps/iap/iap-lingo4.o
                0x00000000000278cc                iap_handlepkt_mode4
 .text.unlikely
                0x00000000000286f8       0x88 /home/jbrawley/Desktop/rockbox-photo-cf-support/build/apps/iap/iap-lingo4.o
 .text          0x0000000000028780      0x3e4 /home/jbrawley/Desktop/rockbox-photo-cf-support/build/apps/iap/iap-lingo7.o
                0x00000000000287ec                iap_handlepkt_mode7
 .text          0x0000000000028b64      0x178 /home/jbrawley/Desktop/rockbox-photo-cf-support/build/apps/screen_access.o
                0x0000000000028bc8                screen_helper_setfont
                0x0000000000028be8                screen_helper_lcd_viewport_set_buffer
                0x0000000000028c88                screen_clear_area
 .text          0x0000000000028cdc      0x478 /home/jbrawley/Desktop/rockbox-photo-cf-support/build/apps/gui/icon.o
                0x0000000000028dbc                screen_put_iconxy
                0x0000000000028f44                screen_put_icon_with_offset
                0x0000000000028fe8                screen_put_icon
                0x000000000002900c                screen_put_cursorxy
                0x000000000002901c                icons_init
                0x00000000000290cc                get_icon_width
                0x00000000000290f4                get_icon_height
                0x000000000002912c                get_icon_format
 .text          0x0000000000029154      0xe18 /home/jbrawley/Desktop/rockbox-photo-cf-support/build/apps/gui/list.o
                0x0000000000029168                gui_synclist_keyclick_callback
                0x0000000000029370                list_init
                0x00000000000293ac                list_display_title
                0x000000000002940c                list_get_nb_lines
                0x0000000000029464                list_init_item_height
                0x0000000000029488                gui_synclist_init
                0x000000000002957c                gui_list_get_item_offset
                0x00000000000295e0                gui_synclist_speak_item
                0x0000000000029620                gui_synclist_select_item
                0x0000000000029784                gui_synclist_draw
                0x0000000000029804                gui_synclist_add_item
                0x0000000000029820                gui_synclist_del_item
                0x000000000002984c                gui_synclist_set_title
                0x0000000000029880                gui_synclist_set_nb_items
                0x0000000000029890                gui_synclist_get_nb_items
                0x0000000000029898                gui_synclist_get_sel_pos
                0x00000000000298a0                gui_synclist_set_icon_callback
                0x00000000000298a8                gui_synclist_set_voice_callback
                0x00000000000298b0                gui_synclist_set_viewport_defaults
                0x00000000000298c0                gui_synclist_set_color_callback
                0x00000000000298c8                gui_synclist_set_sel_color
                0x00000000000298f0                gui_synclist_do_button
                0x0000000000029b20                list_do_action_timeout
                0x0000000000029bb4                list_do_action
                0x0000000000029c00                simplelist_set_line_count
                0x0000000000029c54                simplelist_get_line_count
                0x0000000000029c64                simplelist_addline
                0x0000000000029cd0                simplelist_show_list
                0x0000000000029f10                simplelist_info_init
 .text          0x0000000000029f6c      0x868 /home/jbrawley/Desktop/rockbox-photo-cf-support/build/apps/gui/line.o
                0x000000000002a6d0                vput_line
                0x000000000002a7ac                put_line
 .text          0x000000000002a7d4      0x8c0 /home/jbrawley/Desktop/rockbox-photo-cf-support/build/apps/gui/bitmap/list.o
                0x000000000002a8f4                gui_synclist_scroll_stop
                0x000000000002a93c                list_draw
 .text          0x000000000002b094      0x7a8 /home/jbrawley/Desktop/rockbox-photo-cf-support/build/apps/gui/bitmap/list-skinned.o
                0x000000000002b164                skinlist_set_cfg
                0x000000000002b1c8                skinlist_get_item_number
                0x000000000002b1d8                skinlist_get_item_row
                0x000000000002b1e8                skinlist_get_item_column
                0x000000000002b1f8                skinlist_get_item_text
                0x000000000002b264                skinlist_get_item_icon
                0x000000000002b2a8                skinlist_is_selected_item
                0x000000000002b2b8                skinlist_get_line_count
                0x000000000002b320                skinlist_needs_scrollbar
                0x000000000002b334                skinlist_get_scrollbar
                0x000000000002b368                skinlist_get_item
                0x000000000002b3e8                skinlist_draw
 .text          0x000000000002b83c      0xd30 /home/jbrawley/Desktop/rockbox-photo-cf-support/build/apps/gui/option_select.o
                0x000000000002bb88                option_value_as_int
                0x000000000002bbbc                option_get_valuestring
                0x000000000002bd94                option_talk_value
                0x000000000002bf28                option_select_next_val
                0x000000000002c170                option_screen
                0x000000000002c4fc                get_setting_info_for_bar
 .text          0x000000000002c56c       0x28 /home/jbrawley/Desktop/rockbox-photo-cf-support/build/apps/gui/pitchscreen.o
                0x000000000002c56c                gui_syncpitchscreen_run
 .text          0x000000000002c594      0x9b8 /home/jbrawley/Desktop/rockbox-photo-cf-support/build/apps/gui/quickscreen.o
                0x000000000002cde8                is_setting_quickscreenable
                0x000000000002ce44                quick_screen_quick
 .text          0x000000000002cf4c      0x548 /home/jbrawley/Desktop/rockbox-photo-cf-support/build/apps/gui/mask_select.o
                0x000000000002d378                mask_select
 .text          0x000000000002d494      0xe94 /home/jbrawley/Desktop/rockbox-photo-cf-support/build/apps/gui/wps.o
                0x000000000002d9c0                wps_default_skin
                0x000000000002d9cc                pause_action
                0x000000000002da20                unpause_action
                0x000000000002da40                wps_do_playpause
                0x000000000002da7c                gui_wps_show
                0x000000000002e31c                get_wps_state
 .text          0x000000000002e328      0x55c /home/jbrawley/Desktop/rockbox-photo-cf-support/build/apps/gui/scrollbar.o
                0x000000000002e3e4                gui_scrollbar_draw
                0x000000000002e6a8                gui_bitmap_scrollbar_draw
                0x000000000002e80c                show_busy_slider
 .text          0x000000000002e884      0x564 /home/jbrawley/Desktop/rockbox-photo-cf-support/build/apps/gui/splash.o
                0x000000000002eb64                splashf
                0x000000000002ec14                splash
                0x000000000002ec94                splash_progress_set_delay
                0x000000000002ecb4                splash_progress
 .text          0x000000000002ede8      0xa90 /home/jbrawley/Desktop/rockbox-photo-cf-support/build/apps/gui/statusbar.o
                0x000000000002eea4                gui_statusbar_draw
 .text          0x000000000002f878      0x5ac /home/jbrawley/Desktop/rockbox-photo-cf-support/build/apps/gui/statusbar-skinned.o
                0x000000000002f878                sb_set_title_text
                0x000000000002f898                sb_skin_has_title
                0x000000000002f8b0                sb_get_title
                0x000000000002f8d0                sb_get_icon
                0x000000000002f8f8                sb_preproccess
                0x000000000002f928                sb_postproccess
                0x000000000002fa1c                sb_set_info_vp
                0x000000000002fa30                sb_skin_get_info_vp
                0x000000000002fb44                sb_get_backdrop
                0x000000000002fb70                sb_skin_update
                0x000000000002fc18                do_sbs_update_callback
                0x000000000002fc50                sb_skin_set_update_delay
                0x000000000002fc60                sb_create_from_settings
 .text          0x000000000002fe24      0x414 /home/jbrawley/Desktop/rockbox-photo-cf-support/build/apps/gui/yesno.o
                0x000000000002ffd8                gui_syncyesno_run
                0x00000000000301e4                yesno_pop
 .text          0x0000000000030238      0x5dc /home/jbrawley/Desktop/rockbox-photo-cf-support/build/apps/gui/viewport.o
                0x0000000000030270                viewport_get_nb_lines
                0x0000000000030298                viewport_set_fullscreen
                0x000000000003033c                viewport_set_buffer
                0x0000000000030384                viewport_set_defaults
                0x0000000000030738                viewportmanager_theme_undo
                0x000000000003076c                viewportmanager_theme_enable
                0x00000000000307d4                viewportmanager_theme_changed
 .text          0x0000000000030814      0x660 /home/jbrawley/Desktop/rockbox-photo-cf-support/build/apps/gui/skin_engine/skin_backdrops.o
                0x0000000000030814                skin_backdrop_get_debug
                0x0000000000030860                skin_backdrop_init
                0x00000000000308d0                skin_backdrop_assign
                0x00000000000309e4                skin_backdrops_preload
                0x0000000000030b40                skin_backdrop_set_buffer
                0x0000000000030bcc                skin_backdrop_show
                0x0000000000030cfc                skin_backdrop_unload
                0x0000000000030d54                skin_backdrop_load_setting
 .text          0x0000000000030e74     0x11c8 /home/jbrawley/Desktop/rockbox-photo-cf-support/build/apps/gui/skin_engine/skin_display.o
                0x0000000000030f0c                skin_update
                0x0000000000030f78                ab_draw_markers
                0x00000000000310b8                draw_progressbar
                0x00000000000315ec                clear_image_pos
                0x0000000000031648                wps_draw_image
                0x00000000000316f8                evaluate_conditional
                0x00000000000317dc                write_line
                0x0000000000031b7c                draw_peakmeters
                0x0000000000031c04                draw_album_art
                0x0000000000031df8                wps_display_images
                0x0000000000031f34                skin_has_sbs
                0x0000000000031f64                skin_wait_for_action
 .text          0x000000000003203c      0x6c8 /home/jbrawley/Desktop/rockbox-photo-cf-support/build/apps/gui/skin_engine/skin_engine.o
                0x00000000000321b8                skin_get_num_skins
                0x00000000000321c0                skin_get_stats
                0x00000000000321dc                gui_sync_skin_init
                0x0000000000032234                skin_unload_all
                0x0000000000032238                skin_load
                0x0000000000032374                skin_get_gwps
                0x0000000000032408                settings_apply_skins
                0x00000000000324e8                skin_do_full_update
                0x000000000003255c                skin_request_full_update
                0x0000000000032578                dbg_skin_engine
 .text          0x0000000000032704     0x2cd4 /home/jbrawley/Desktop/rockbox-photo-cf-support/build/apps/gui/skin_engine/skin_parser.o
                0x0000000000033ec4                skin_find_item
                0x0000000000034af8                get_image_filename
                0x0000000000034b28                skin_data_free_buflib_allocs
                0x0000000000034d10                skin_data_load
 .text          0x00000000000353d8     0x1628 /home/jbrawley/Desktop/rockbox-photo-cf-support/build/apps/gui/skin_engine/skin_render.o
                0x0000000000036378                skin_render_alternator
                0x0000000000036498                skin_render_viewport
                0x0000000000036784                skin_render
 .text          0x0000000000036a00     0x1cfc /home/jbrawley/Desktop/rockbox-photo-cf-support/build/apps/gui/skin_engine/skin_tokens.o
                0x0000000000036aa0                get_dir
                0x0000000000036bdc                get_cuesheetid3_token
                0x0000000000036d24                get_id3_token
                0x0000000000037270                get_radio_token
                0x0000000000037480                get_token_value
 .text.unlikely
                0x00000000000386fc      0x364 /home/jbrawley/Desktop/rockbox-photo-cf-support/build/apps/gui/skin_engine/skin_tokens.o
 .text          0x0000000000038a60       0x70 /home/jbrawley/Desktop/rockbox-photo-cf-support/build/apps/gui/backdrop.o
                0x0000000000038a60                backdrop_load
                0x0000000000038ac0                backdrop_show
 .text          0x0000000000038ad0      0xc5c /home/jbrawley/Desktop/rockbox-photo-cf-support/build/apps/recorder/bmp.o
                0x0000000000038ad0                output_row_8_native
                0x0000000000038f60                read_bmp_fd
                0x00000000000396cc                read_bmp_file
 .text          0x000000000003972c     0x1738 /home/jbrawley/Desktop/rockbox-photo-cf-support/build/apps/recorder/keyboard.o
                0x0000000000039c24                load_kbd
                0x0000000000039dd4                kbd_input
 .text          0x000000000003ae64     0x1260 /home/jbrawley/Desktop/rockbox-photo-cf-support/build/apps/recorder/peakmeter.o
                0x000000000003afb8                peak_meter_enable
                0x000000000003afc8                peak_meter_db2sample
                0x000000000003b048                peak_meter_get_min
                0x000000000003b0a0                peak_meter_get_max
                0x000000000003b0f8                peak_meter_get_use_dbfs
                0x000000000003b108                peak_meter_set_use_dbfs
                0x000000000003b128                peak_meter_init_range
                0x000000000003b208                peak_meter_init_times
                0x000000000003b244                pm_activate_clipcount
                0x000000000003b254                pm_get_clipcount
                0x000000000003b264                pm_reset_clipcount
                0x000000000003b278                peak_meter_playback
                0x000000000003b298                peak_meter_peek
                0x000000000003b5fc                peak_meter_set_clip_hold
                0x000000000003b624                peak_meter_scale_value
                0x000000000003b6a0                peak_meter_current_vals
                0x000000000003b6f0                peak_meter_screen
                0x000000000003bd18                peak_meter_define_trigger
                0x000000000003bdbc                peak_meter_trigger
                0x000000000003bdcc                peak_meter_set_trigger_listener
                0x000000000003bddc                peak_meter_trigger_status
                0x000000000003bdec                peak_meter_draw_trig
                0x000000000003bf8c                peak_meter_draw_get_btn
 .text          0x000000000003c0c4      0xc78 /home/jbrawley/Desktop/rockbox-photo-cf-support/build/apps/recorder/resize.o
                0x000000000003c864                recalc_dimension
                0x000000000003c900                resize_on_load
 .text          0x000000000003cd3c     0x2250 /home/jbrawley/Desktop/rockbox-photo-cf-support/build/apps/recorder/jpeg_load.o
                0x000000000003dfcc                clip_jpeg_fd
                0x000000000003eeb0                clip_jpeg_file
                0x000000000003ef28                read_jpeg_file
                0x000000000003ef58                read_jpeg_fd
 .text          0x000000000003ef8c      0x580 /home/jbrawley/Desktop/rockbox-photo-cf-support/build/apps/recorder/jpeg_idct_arm.o
                0x000000000003ef8c                jpeg_idct1h
                0x000000000003efbc                jpeg_idct2v
                0x000000000003f008                jpeg_idct2h
                0x000000000003f058                jpeg_idct4v
                0x000000000003f0d0                jpeg_idct4h
                0x000000000003f178                jpeg_idct8v
                0x000000000003f304                jpeg_idct8h
 .text          0x000000000003f50c      0x488 /home/jbrawley/Desktop/rockbox-photo-cf-support/build/apps/recorder/albumart.o
                0x000000000003f8f0                search_albumart_files
                0x000000000003f904                find_albumart
 .text          0x000000000003f994      0x7a0 /home/jbrawley/Desktop/rockbox-photo-cf-support/build/apps/gui/color_picker.o
                0x000000000003ff74                set_color
 .text          0x0000000000040134     0x141c /home/jbrawley/Desktop/rockbox-photo-cf-support/build/apps/recorder/recording.o
                0x00000000000404e4                settings_apply_trigger
                0x0000000000040554                in_recording_screen
                0x0000000000040568                rec_create_filename
                0x000000000004062c                rec_create_directory
                0x00000000000406c8                rec_init_recording_options
                0x0000000000040718                rec_set_source
                0x0000000000040744                rec_set_recording_options
                0x000000000004076c                rec_command
                0x0000000000040934                recording_screen
                0x000000000004154c                audio_beep
 .text          0x0000000000041550      0x9ac /home/jbrawley/Desktop/rockbox-photo-cf-support/build/apps/radio/radio.o
                0x00000000000415c0                radio_scan_mode
                0x00000000000415d8                radio_is_stereo
                0x0000000000041604                radio_current_frequency
                0x0000000000041614                get_radio_status
                0x0000000000041624                in_radio_screen
                0x0000000000041634                radio_start
                0x00000000000416f0                radio_pause
                0x0000000000041734                radio_stop
                0x000000000004174c                radio_hardware_present
                0x0000000000041768                snap_freq_to_grid
                0x0000000000041830                remember_frequency
                0x0000000000041880                next_station
                0x000000000004190c                radio_screen
                0x0000000000041ea8                toggle_mono_mode
                0x0000000000041ed0                set_radio_region
 .text          0x0000000000041efc      0xc84 /home/jbrawley/Desktop/rockbox-photo-cf-support/build/apps/radio/presets.o
                0x00000000000420ac                radio_current_preset
                0x00000000000420bc                radio_preset_count
                0x00000000000420cc                radio_get_preset
                0x00000000000420dc                presets_have_changed
                0x00000000000420ec                preset_find
                0x0000000000042130                preset_next
                0x000000000004226c                preset_set_current
                0x000000000004227c                preset_talk
                0x0000000000042308                radio_save_presets
                0x00000000000423c0                radio_load_presets
                0x000000000004250c                radio_get_preset_name
                0x000000000004252c                handle_radio_add_preset
                0x00000000000425d8                preset_list_load
                0x0000000000042668                preset_list_save
                0x0000000000042788                preset_list_clear
                0x00000000000427dc                handle_radio_presets
                0x0000000000042988                presets_scan
                0x0000000000042b68                presets_save
 .text          0x0000000000042b80       0xcc /home/jbrawley/Desktop/rockbox-photo-cf-support/build/apps/radio/radio_skin.o
                0x0000000000042b80                default_radio_skin
                0x0000000000042b8c                fms_fix_displays
                0x0000000000042c28                fms_do_button_loop
 .text          0x0000000000042c4c      0x434 /home/jbrawley/Desktop/rockbox-photo-cf-support/build/apps/radio/radioart.o
                0x0000000000042eb0                radio_get_art_hid
                0x0000000000042fc4                radioart_init
 .text          0x0000000000043080       0x6c /home/jbrawley/Desktop/rockbox-photo-cf-support/build/apps/audio_path.o
                0x0000000000043080                audio_set_input_source
 .text          0x00000000000430ec      0x114 /home/jbrawley/Desktop/rockbox-photo-cf-support/build/apps/audio_thread.o
                0x00000000000430ec                audio_voice_event
                0x000000000004318c                audio_queue_post
                0x00000000000431b0                audio_queue_send
                0x00000000000431d4                audio_status
                0x00000000000431f0                audio_error_clear
 .text          0x0000000000043200     0x12e0 /home/jbrawley/Desktop/rockbox-photo-cf-support/build/apps/pcmbuf.o
                0x00000000000439c0                snip_buffer_tail
                0x0000000000043a50                pcmbuf_write_complete
                0x0000000000043b30                pcmbuf_monitor_track_change
                0x0000000000043b78                pcmbuf_play_start
                0x0000000000043bd4                pcmbuf_play_stop
                0x0000000000043c0c                pcmbuf_start_track_change
                0x0000000000043de0                pcmbuf_pause
                0x0000000000043e1c                pcmbuf_request_crossfade_enable
                0x0000000000043e2c                pcmbuf_is_same_size
                0x0000000000043e74                pcmbuf_free
                0x0000000000043e9c                pcmbuf_request_buffer
                0x00000000000442a4                pcmbuf_get_bufsize
                0x00000000000442b4                pcmbuf_used_descs
                0x00000000000442c8                pcmbuf_descs
                0x00000000000442d8                pcmbuf_fade
                0x0000000000044360                pcmbuf_fading
                0x0000000000044378                pcmbuf_soft_mode
                0x00000000000443c8                pcmbuf_init
                0x0000000000044434                pcmbuf_get_position_key
                0x0000000000044444                pcmbuf_sync_position_update
                0x0000000000044458                pcmbuf_is_lowdata
                0x00000000000444a4                pcmbuf_set_low_latency
                0x00000000000444b4                pcmbuf_update_frequency
                0x00000000000444d0                pcmbuf_get_frequency
 .text          0x00000000000444e0      0x820 /home/jbrawley/Desktop/rockbox-photo-cf-support/build/apps/codec_thread.o
                0x00000000000449dc                get_codec_filename
                0x0000000000044bb0                codec_thread_do_callback
                0x0000000000044bd4                codec_thread_get_priority
                0x0000000000044bf0                codec_thread_set_priority
                0x0000000000044c10                codec_load
                0x0000000000044c38                codec_go
                0x0000000000044c44                codec_seek
                0x0000000000044c50                codec_pause
                0x0000000000044c70                codec_stop
                0x0000000000044c90                codec_finish_stream
                0x0000000000044cd8                codec_unload
                0x0000000000044cf0                codec_loaded
 .text          0x0000000000044d00     0x2f88 /home/jbrawley/Desktop/rockbox-photo-cf-support/build/apps/playback.o
                0x0000000000046934                audio_track_count
                0x0000000000046944                audio_buffer_size
                0x0000000000046964                audio_buffer_available
                0x000000000004699c                audio_codec_update_elapsed
                0x0000000000046a18                audio_codec_update_offset
                0x0000000000046a2c                audio_codec_complete
                0x0000000000046a4c                audio_codec_seek_complete
                0x0000000000046a64                audio_pcmbuf_position_callback
                0x0000000000046a88                audio_pcmbuf_sync_position
                0x0000000000046ca4                audio_playback_handler
                0x0000000000047550                audio_pcmbuf_track_change
                0x0000000000047580                audio_pcmbuf_may_play
                0x00000000000475ac                audio_peek_track
                0x0000000000047610                audio_current_track
                0x00000000000477fc                audio_next_track
                0x0000000000047854                audio_play
                0x0000000000047884                audio_stop
                0x000000000004789c                audio_pause
                0x00000000000478b4                audio_hard_stop
                0x00000000000478e4                audio_resume
                0x00000000000478fc                audio_skip
                0x0000000000047990                audio_next
                0x0000000000047998                audio_prev
                0x00000000000479a0                audio_next_dir
                0x00000000000479b8                audio_prev_dir
                0x00000000000479d0                audio_pre_ff_rewind
                0x00000000000479e8                audio_ff_rewind
                0x0000000000047a00                audio_flush_and_reload_tracks
                0x0000000000047a18                playback_current_aa_hid
                0x0000000000047a98                playback_claim_aa_slot
                0x0000000000047b64                playback_release_aa_slot
                0x0000000000047b8c                playback_update_aa_dims
                0x0000000000047ba4                set_albumart_mode
                0x0000000000047bd4                audio_get_file_pos
                0x0000000000047be4                audio_get_filebuflen
                0x0000000000047bf4                audio_filebufused
                0x0000000000047c04                audio_set_cuesheet
                0x0000000000047c58                audio_set_crossfade
                0x0000000000047c78                playback_status
 .text          0x0000000000047c88      0x284 /home/jbrawley/Desktop/rockbox-photo-cf-support/build/apps/codecs.o
                0x0000000000047d50                codec_get_full_path
                0x0000000000047d74                codec_get_buffer_callback
                0x0000000000047dc8                codec_load_buf
                0x0000000000047e14                codec_load_file
                0x0000000000047e6c                codec_run_proc
                0x0000000000047e9c                codec_close
                0x0000000000047ed8                codec_get_enc_callback
 .text          0x0000000000047f0c      0x144 /home/jbrawley/Desktop/rockbox-photo-cf-support/build/apps/beep.o
                0x0000000000047f78                beep_play
 .text          0x0000000000048050      0x560 /home/jbrawley/Desktop/rockbox-photo-cf-support/build/apps/enc_config.o
                0x0000000000048210                global_to_encoder_config
                0x0000000000048268                encoder_config_to_global
                0x000000000004828c                enc_get_caps
                0x0000000000048428                enc_init_config
                0x0000000000048470                enc_global_settings_reset
                0x00000000000484d4                enc_global_settings_apply
                0x0000000000048520                enc_global_config_menu
 .text          0x00000000000485b0     0x195c /home/jbrawley/Desktop/rockbox-photo-cf-support/build/apps/recorder/pcm_record.o
                0x0000000000049618                pcmbuf_used
                0x00000000000497e0                pcm_rec_error_clear
                0x0000000000049810                pcm_rec_status
                0x0000000000049838                pcm_rec_get_warnings
                0x0000000000049848                audio_init_recording
                0x0000000000049860                audio_close_recording
                0x0000000000049878                audio_set_recording_options
                0x0000000000049890                audio_new_file
                0x0000000000049890                audio_record
                0x00000000000498a8                audio_stop_recording
                0x00000000000498c0                audio_pause_recording
                0x00000000000498d8                audio_resume_recording
                0x00000000000498f0                audio_set_recording_gain
                0x0000000000049900                audio_prerecorded_time
                0x0000000000049968                audio_recorded_time
                0x00000000000499b8                audio_num_recorded_bytes
                0x00000000000499d0                audio_recording_handler
 .text          0x0000000000049f0c       0xd8 /home/jbrawley/Desktop/rockbox-photo-cf-support/build/apps/usb_keymaps.o
                0x0000000000049f0c                get_hid_usb_action
                0x0000000000049fc4                keypad_mode_name_get
 .text          0x0000000000049fe4      0x340 /home/jbrawley/Desktop/rockbox-photo-cf-support/build/apps/gui/usb_screen.o
                0x0000000000049fe4                gui_usb_screen_run
 .text          0x000000000004a324     0x5748 /home/jbrawley/Desktop/rockbox-photo-cf-support/build/apps/tagcache.o
                0x000000000004dfcc                tagcache_tag_to_str
                0x000000000004dfe0                tagcache_get_numeric
                0x000000000004e068                tagcache_check_clauses
                0x000000000004e0cc                tagcache_search
                0x000000000004e220                tagcache_find_index
                0x000000000004e29c                tagcache_search_set_uniqbuf
                0x000000000004e2c8                tagcache_search_add_filter
                0x000000000004e320                tagcache_search_add_clause
                0x000000000004e414                tagcache_retrieve
                0x000000000004e478                tagcache_search_finish
                0x000000000004e500                tagcache_fill_tags
                0x000000000004e874                tagcache_increase_serial
                0x000000000004e8d8                tagcache_update_numeric
                0x000000000004e8fc                tagcache_import_changelog
                0x000000000004e914                tagcache_create_changelog
                0x000000000004eae4                tagcache_screensync_event
                0x000000000004eaf8                tagcache_screensync_enable
                0x000000000004eb08                tagcache_unload_ramcache
                0x000000000004eb1c                tagcache_shutdown
                0x000000000004eb38                tagcache_remove_statefile
                0x000000000004eb44                tagcache_get_stat
                0x000000000004ec04                tagcache_start_scan
                0x000000000004ef0c                tagcache_build
                0x000000000004f3d0                tagcache_update
                0x000000000004f404                tagcache_rebuild
                0x000000000004f428                tagcache_stop_scan
                0x000000000004f448                tagcache_prepare_shutdown
                0x000000000004f498                tagcache_is_initialized
                0x000000000004f4a8                tagcache_is_fully_initialized
                0x000000000004f4b8                tagcache_is_usable
                0x000000000004f4d4                tagcache_get_next
                0x000000000004fa44                tagcache_is_in_ram
                0x000000000004fa54                tagcache_get_commit_step
                0x000000000004fa64                tagcache_get_max_commit_step
 .text          0x000000000004fa6c      0x1e0 /home/jbrawley/Desktop/rockbox-photo-cf-support/build/apps/keymaps/keymap-ipod.o
                0x000000000004fa6c                get_context_mapping
 .text          0x000000000004fc4c      0x170 /home/jbrawley/Desktop/rockbox-photo-cf-support/build/lib/rbcodec/codecs/libspeex-voice.a(bits.o)
                0x000000000004fc4c                speex_bits_set_bit_buffer
                0x000000000004fc70                speex_bits_unpack_unsigned
                0x000000000004fd00                speex_bits_peek
                0x000000000004fd44                speex_bits_advance
                0x000000000004fd98                speex_bits_remaining
 .text          0x000000000004fdbc       0x7c /home/jbrawley/Desktop/rockbox-photo-cf-support/build/lib/rbcodec/codecs/libspeex-voice.a(modes_wb.o)
                0x000000000004fdbc                wb_mode_query
                0x000000000004fe20                speex_lib_get_mode
 .text          0x000000000004fe38      0x320 /home/jbrawley/Desktop/rockbox-photo-cf-support/build/lib/rbcodec/codecs/libspeex-voice.a(quant_lsp.o)
                0x000000000004fe38                lsp_unquant_nb
                0x000000000004ffa8                lsp_unquant_lbr
                0x0000000000050098                lsp_unquant_high
 .text          0x0000000000050158      0xda8 /home/jbrawley/Desktop/rockbox-photo-cf-support/build/lib/rbcodec/codecs/libspeex-voice.a(sb_celp.o)
                0x0000000000050158                sb_decoder_init
                0x0000000000050234                sb_decoder_destroy
                0x0000000000050248                sb_decode
                0x0000000000050c18                sb_decoder_ctl
 .text          0x0000000000050f00      0x104 /home/jbrawley/Desktop/rockbox-photo-cf-support/build/lib/rbcodec/codecs/libspeex-voice.a(speex.o)
                0x0000000000050f00                speex_decoder_init
                0x0000000000050f08                speex_decoder_destroy
                0x0000000000050f14                speex_decode_native
                0x0000000000050f20                speex_decode_int
                0x0000000000050f2c                speex_decoder_ctl
                0x0000000000050f38                nb_mode_query
                0x0000000000050f98                speex_lib_ctl
 .text          0x0000000000051004      0x3b0 /home/jbrawley/Desktop/rockbox-photo-cf-support/build/lib/rbcodec/codecs/libspeex-voice.a(filters_arm4.o)
                0x0000000000051004                iir_mem16
                0x00000000000511a4                qmf_synth
                0x000000000005136c                signal_mul
 .text          0x00000000000513b4      0x17c /home/jbrawley/Desktop/rockbox-photo-cf-support/build/lib/rbcodec/codecs/libspeex-voice.a(cb_search.o)
                0x00000000000513b4                split_cb_shape_sign_unquant
                0x00000000000514d4                noise_codebook_unquant
 .text          0x0000000000051530      0xbbc /home/jbrawley/Desktop/rockbox-photo-cf-support/build/lib/rbcodec/codecs/libspeex-voice.a(filters.o)
                0x00000000000517b0                normalize16
                0x0000000000051850                bw_lpc
                0x00000000000518a0                sanitize_values32
                0x00000000000518dc                highpass
                0x00000000000519dc                compute_rms16
                0x0000000000051b50                multicomb
 .text          0x00000000000520ec      0x5f8 /home/jbrawley/Desktop/rockbox-photo-cf-support/build/lib/rbcodec/codecs/libspeex-voice.a(lsp.o)
                0x00000000000520ec                lsp_to_lpc
                0x00000000000524f4                lsp_enforce_margin
                0x0000000000052594                lsp_interpolate
 .text          0x00000000000526e4      0x5c8 /home/jbrawley/Desktop/rockbox-photo-cf-support/build/lib/rbcodec/codecs/libspeex-voice.a(ltp.o)
                0x00000000000526e4                inner_prod
                0x0000000000052784                pitch_xcorr
                0x00000000000528d8                pitch_unquant_3tap
                0x0000000000052c38                forced_pitch_unquant
 .text          0x0000000000052cac     0x14ec /home/jbrawley/Desktop/rockbox-photo-cf-support/build/lib/rbcodec/codecs/libspeex-voice.a(nb_celp.o)
                0x0000000000052cac                nb_decoder_init
                0x0000000000052dec                nb_decoder_destroy
                0x0000000000052df0                nb_decode
                0x0000000000053ec8                nb_decoder_ctl
 .text          0x0000000000054198       0xb8 /home/jbrawley/Desktop/rockbox-photo-cf-support/build/lib/rbcodec/codecs/libspeex-voice.a(speex_callbacks.o)
                0x0000000000054198                speex_inband_handler
                0x0000000000054224                speex_default_user_handler
 .text          0x0000000000054250      0x4e8 /home/jbrawley/Desktop/rockbox-photo-cf-support/build/lib/librbcodec.a(metadata.o)
                0x00000000000542c8                get_audio_base_codec_type
                0x000000000005433c                rbcodec_format_is_atomic
                0x00000000000543a0                format_buffers_with_offset
                0x00000000000543d4                probe_file_format
                0x0000000000054454                adjust_mp3entry
                0x0000000000054528                copy_mp3entry
                0x0000000000054550                wipe_mp3entry
                0x0000000000054568                get_metadata
                0x0000000000054664                mp3info
                0x00000000000546b4                fill_metadata_from_path
 .text          0x0000000000054738     0x13dc /home/jbrawley/Desktop/rockbox-photo-cf-support/build/lib/librbcodec.a(id3tags.o)
                0x0000000000054ce8                id3_get_num_genre
                0x0000000000054d00                setid3v1title
                0x0000000000054ebc                setid3v2title
                0x00000000000559e0                getid3v1len
                0x0000000000055a48                getid3v2len
 .text          0x0000000000055b14      0x208 /home/jbrawley/Desktop/rockbox-photo-cf-support/build/lib/librbcodec.a(mp3.o)
                0x0000000000055b14                get_mp3_metadata
 .text          0x0000000000055d1c      0xdac /home/jbrawley/Desktop/rockbox-photo-cf-support/build/lib/librbcodec.a(mp3data.o)
                0x00000000000561c8                bytes2int
                0x00000000000561e8                find_next_frame
                0x0000000000056210                mem_find_next_frame
                0x0000000000056254                get_mp3file_info
                0x0000000000056634                count_mp3_frames
                0x0000000000056764                create_xing_header
 .text          0x0000000000056ac8      0x878 /home/jbrawley/Desktop/rockbox-photo-cf-support/build/lib/librbcodec.a(compressor.o)
                0x00000000000572b0                get_lpf_coeff
                0x00000000000572d4                get_att_rls_coeff
                0x00000000000572fc                dsp_set_compressor
 .text          0x0000000000057340      0x330 /home/jbrawley/Desktop/rockbox-photo-cf-support/build/lib/librbcodec.a(crossfeed.o)
                0x00000000000575bc                dsp_set_crossfeed_type
                0x00000000000575fc                dsp_set_crossfeed_direct_gain
                0x000000000005762c                dsp_set_crossfeed_cross_params
 .text          0x0000000000057670      0x660 /home/jbrawley/Desktop/rockbox-photo-cf-support/build/lib/librbcodec.a(dsp_core.o)
                0x0000000000057724                dsp_proc_enabled
                0x000000000005773c                dsp_proc_activate
                0x00000000000577a0                dsp_proc_enable
                0x00000000000579cc                dsp_proc_active
                0x00000000000579e4                dsp_proc_want_format_update
                0x0000000000057a00                dsp_proc_set_in_place
                0x0000000000057a3c                dsp_process
                0x0000000000057bf4                dsp_configure
                0x0000000000057c94                dsp_get_config
                0x0000000000057cb0                dsp_get_id
 .text          0x0000000000057cd0      0x664 /home/jbrawley/Desktop/rockbox-photo-cf-support/build/lib/librbcodec.a(pbe.o)
                0x000000000005828c                dsp_pbe_precut
                0x00000000000582dc                dsp_pbe_enable
 .text          0x0000000000058334      0x290 /home/jbrawley/Desktop/rockbox-photo-cf-support/build/lib/librbcodec.a(afr.o)
                0x0000000000058560                dsp_afr_enable
 .text          0x00000000000585c4      0x760 /home/jbrawley/Desktop/rockbox-photo-cf-support/build/lib/librbcodec.a(surround.o)
                0x0000000000058bd8                dsp_surround_set_balance
                0x0000000000058be8                dsp_surround_side_only
                0x0000000000058bf8                dsp_surround_mix
                0x0000000000058c08                dsp_surround_set_cutoff
                0x0000000000058c64                dsp_surround_enable
 .text          0x0000000000058d24      0x610 /home/jbrawley/Desktop/rockbox-photo-cf-support/build/lib/librbcodec.a(dsp_filter.o)
                0x0000000000058d24                filter_shelf_coefs
                0x0000000000058e20                filter_bishelf_coefs
                0x0000000000058f10                filter_pk_coefs
                0x000000000005900c                filter_ls_coefs
                0x0000000000059160                filter_hs_coefs
                0x00000000000592b8                filter_copy
                0x00000000000592dc                filter_flush
                0x00000000000592f8                dequeue
                0x0000000000059314                enqueue
 .text          0x0000000000059334      0x2a8 /home/jbrawley/Desktop/rockbox-photo-cf-support/build/lib/librbcodec.a(dsp_misc.o)
                0x000000000005952c                dsp_replaygain_set_settings
                0x0000000000059538                dsp_set_pitch
                0x000000000005957c                dsp_get_pitch
                0x000000000005958c                dsp_set_all_output_frequency
                0x00000000000595c4                dsp_get_output_frequency
 .text          0x00000000000595dc      0x164 /home/jbrawley/Desktop/rockbox-photo-cf-support/build/lib/librbcodec.a(dsp_sample_io.o)
                0x0000000000059608                dsp_sample_io_configure
 .text          0x0000000000059740      0x304 /home/jbrawley/Desktop/rockbox-photo-cf-support/build/lib/librbcodec.a(dsp_sample_input.o)
                0x00000000000599ec                dsp_sample_input_format_change
                0x0000000000059a38                dsp_sample_input_flush
 .text          0x0000000000059a44      0x220 /home/jbrawley/Desktop/rockbox-photo-cf-support/build/lib/librbcodec.a(dsp_sample_output.o)
                0x0000000000059a44                sample_output_dithered
                0x0000000000059bac                dsp_sample_output_format_change
                0x0000000000059bfc                dsp_sample_output_flush
                0x0000000000059c20                dsp_dither_enable
 .text          0x0000000000059c64      0x350 /home/jbrawley/Desktop/rockbox-photo-cf-support/build/lib/librbcodec.a(eq.o)
                0x0000000000059e40                dsp_set_eq_precut
                0x0000000000059e64                dsp_set_eq_coefs
                0x0000000000059f50                dsp_eq_enable
 .text          0x0000000000059fb4      0x21c /home/jbrawley/Desktop/rockbox-photo-cf-support/build/lib/librbcodec.a(resample.o)
 .text          0x000000000005a1d0      0x10c /home/jbrawley/Desktop/rockbox-photo-cf-support/build/lib/librbcodec.a(pga.o)
                0x000000000005a278                pga_set_gain
                0x000000000005a2a8                pga_enable_gain
 .text          0x000000000005a2dc      0x954 /home/jbrawley/Desktop/rockbox-photo-cf-support/build/lib/librbcodec.a(tdspeed.o)
                0x000000000005aafc                dsp_timestretch_enable
                0x000000000005ab38                dsp_set_timestretch
                0x000000000005ab8c                dsp_get_timestretch
                0x000000000005ab9c                dsp_timestretch_available
                0x000000000005abb4                tdspeed_move
 .text          0x000000000005ac30      0x598 /home/jbrawley/Desktop/rockbox-photo-cf-support/build/lib/librbcodec.a(dsp_arm.o)
                0x000000000005ac30                channel_mode_proc_mono
                0x000000000005ac8c                channel_mode_proc_custom
                0x000000000005ad38                channel_mode_proc_karaoke
                0x000000000005ada0                crossfeed_process
                0x000000000005ae38                crossfeed_meier_process
                0x000000000005aea4                resample_hermite
                0x000000000005b0e4                pga_process
                0x000000000005b154                filter_process
 .text          0x000000000005b1c8      0x2fc /home/jbrawley/Desktop/rockbox-photo-cf-support/build/lib/librbcodec.a(replaygain.o)
                0x000000000005b318                replaygain_itoa
                0x000000000005b378                get_replaygain_int
                0x000000000005b390                parse_replaygain
                0x000000000005b468                parse_replaygain_int
 .text          0x000000000005b4c4      0x5a0 /home/jbrawley/Desktop/rockbox-photo-cf-support/build/lib/librbcodec.a(metadata_common.o)
                0x000000000005b4c4                read_string
                0x000000000005b554                read_uint8
                0x000000000005b568                read_uint16be
                0x000000000005b590                read_uint32be
                0x000000000005b5c0                read_uint64be
                0x000000000005b618                get_uint64_le
                0x000000000005b6a8                get_long_le
                0x000000000005b6cc                get_short_le
                0x000000000005b6dc                get_long_be
                0x000000000005b700                get_short_be
                0x000000000005b710                get_slong
                0x000000000005b734                get_itunes_int32
                0x000000000005b7e8                skip_id3v2
                0x000000000005b88c                parse_tag
 .text          0x000000000005ba64      0x128 /home/jbrawley/Desktop/rockbox-photo-cf-support/build/lib/librbcodec.a(a52.o)
                0x000000000005ba64                get_a52_metadata
 .text          0x000000000005bb8c      0x208 /home/jbrawley/Desktop/rockbox-photo-cf-support/build/lib/librbcodec.a(adx.o)
                0x000000000005bb8c                get_adx_metadata
 .text          0x000000000005bd94      0x480 /home/jbrawley/Desktop/rockbox-photo-cf-support/build/lib/librbcodec.a(aiff.o)
                0x000000000005bd94                get_aiff_metadata
 .text          0x000000000005c214      0x514 /home/jbrawley/Desktop/rockbox-photo-cf-support/build/lib/librbcodec.a(asap.o)
                0x000000000005c6c0                get_asap_metadata
 .text          0x000000000005c728      0xdc0 /home/jbrawley/Desktop/rockbox-photo-cf-support/build/lib/librbcodec.a(asf.o)
                0x000000000005ca54                get_asf_metadata
 .text          0x000000000005d4e8      0x124 /home/jbrawley/Desktop/rockbox-photo-cf-support/build/lib/librbcodec.a(au.o)
                0x000000000005d4e8                get_au_metadata
 .text          0x000000000005d60c      0x258 /home/jbrawley/Desktop/rockbox-photo-cf-support/build/lib/librbcodec.a(ay.o)
                0x000000000005d66c                get_ay_metadata
 .text          0x000000000005d864      0x3a0 /home/jbrawley/Desktop/rockbox-photo-cf-support/build/lib/librbcodec.a(flac.o)
                0x000000000005d864                get_flac_metadata
 .text          0x000000000005dc04      0x158 /home/jbrawley/Desktop/rockbox-photo-cf-support/build/lib/librbcodec.a(gbs.o)
                0x000000000005dc04                get_gbs_metadata
 .text          0x000000000005dd5c       0xa4 /home/jbrawley/Desktop/rockbox-photo-cf-support/build/lib/librbcodec.a(hes.o)
                0x000000000005dd5c                get_hes_metadata
 .text          0x000000000005de00      0x104 /home/jbrawley/Desktop/rockbox-photo-cf-support/build/lib/librbcodec.a(kss.o)
                0x000000000005de00                get_kss_metadata
 .text          0x000000000005df04      0x25c /home/jbrawley/Desktop/rockbox-photo-cf-support/build/lib/librbcodec.a(mod.o)
                0x000000000005df04                get_mod_metadata
 .text          0x000000000005e160      0x19c /home/jbrawley/Desktop/rockbox-photo-cf-support/build/lib/librbcodec.a(monkeys.o)
                0x000000000005e160                get_monkeys_metadata
 .text          0x000000000005e2fc      0xfc0 /home/jbrawley/Desktop/rockbox-photo-cf-support/build/lib/librbcodec.a(mp4.o)
                0x000000000005f1a4                get_mp4_metadata
 .text          0x000000000005f2bc      0x3b8 /home/jbrawley/Desktop/rockbox-photo-cf-support/build/lib/librbcodec.a(mpc.o)
                0x000000000005f2bc                get_musepack_metadata
 .text.unlikely
                0x000000000005f674       0xbc /home/jbrawley/Desktop/rockbox-photo-cf-support/build/lib/librbcodec.a(mpc.o)
 .text          0x000000000005f730      0x3e0 /home/jbrawley/Desktop/rockbox-photo-cf-support/build/lib/librbcodec.a(nsf.o)
                0x000000000005f730                get_nsf_metadata
 .text          0x000000000005fb10      0x328 /home/jbrawley/Desktop/rockbox-photo-cf-support/build/lib/librbcodec.a(ogg.o)
                0x000000000005fb10                get_ogg_metadata
 .text          0x000000000005fe38      0x20c /home/jbrawley/Desktop/rockbox-photo-cf-support/build/lib/librbcodec.a(oma.o)
                0x000000000005fe38                get_oma_metadata
 .text          0x0000000000060044      0x90c /home/jbrawley/Desktop/rockbox-photo-cf-support/build/lib/librbcodec.a(rm.o)
                0x00000000000602ac                get_rm_metadata
 .text          0x0000000000060950      0x158 /home/jbrawley/Desktop/rockbox-photo-cf-support/build/lib/librbcodec.a(sgc.o)
                0x0000000000060950                get_sgc_metadata
 .text          0x0000000000060aa8      0x164 /home/jbrawley/Desktop/rockbox-photo-cf-support/build/lib/librbcodec.a(sid.o)
                0x0000000000060aa8                get_sid_metadata
 .text          0x0000000000060c0c      0x870 /home/jbrawley/Desktop/rockbox-photo-cf-support/build/lib/librbcodec.a(smaf.o)
                0x0000000000060fdc                get_smaf_metadata
 .text          0x000000000006147c      0x228 /home/jbrawley/Desktop/rockbox-photo-cf-support/build/lib/librbcodec.a(spc.o)
                0x000000000006147c                get_spc_metadata
 .text          0x00000000000616a4      0x1a8 /home/jbrawley/Desktop/rockbox-photo-cf-support/build/lib/librbcodec.a(tta.o)
                0x00000000000616a4                get_tta_metadata
 .text          0x000000000006184c      0x320 /home/jbrawley/Desktop/rockbox-photo-cf-support/build/lib/librbcodec.a(vgm.o)
                0x0000000000061900                get_vgm_metadata
 .text          0x0000000000061b6c      0x50c /home/jbrawley/Desktop/rockbox-photo-cf-support/build/lib/librbcodec.a(vorbis.o)
                0x0000000000061d60                read_vorbis_tags
 .text          0x0000000000062078       0x3c /home/jbrawley/Desktop/rockbox-photo-cf-support/build/lib/librbcodec.a(vox.o)
                0x0000000000062078                get_vox_metadata
 .text          0x00000000000620b4      0x810 /home/jbrawley/Desktop/rockbox-photo-cf-support/build/lib/librbcodec.a(wave.o)
                0x00000000000628a4                get_wave_metadata
                0x00000000000628b4                get_wave64_metadata
 .text          0x00000000000628c4      0x354 /home/jbrawley/Desktop/rockbox-photo-cf-support/build/lib/librbcodec.a(wavpack.o)
                0x00000000000628c4                get_wavpack_metadata
 .text          0x0000000000062c18      0x320 /home/jbrawley/Desktop/rockbox-photo-cf-support/build/lib/librbcodec.a(aac.o)
                0x0000000000062c18                get_aac_metadata
 .text          0x0000000000062f38      0x174 /home/jbrawley/Desktop/rockbox-photo-cf-support/build/lib/librbcodec.a(channel_mode.o)
                0x0000000000062f38                channel_mode_proc_mono_left
                0x0000000000062f5c                channel_mode_proc_mono_right
                0x0000000000062fec                channel_mode_set_config
                0x0000000000063034                channel_mode_custom_set_width
 .text          0x00000000000630ac      0x320 /home/jbrawley/Desktop/rockbox-photo-cf-support/build/lib/librbcodec.a(ape.o)
                0x00000000000630ac                read_ape_tags
 .text          0x00000000000633cc       0x5c /home/jbrawley/Desktop/rockbox-photo-cf-support/build/firmware/libfirmware.a(ffs.o)
                0x00000000000633cc                find_first_set_bit
 .text          0x0000000000063428       0xc4 /home/jbrawley/Desktop/rockbox-photo-cf-support/build/firmware/libfirmware.a(ata_idle_notify.o)
                0x000000000006342c                register_storage_idle_func
                0x0000000000063454                unregister_storage_idle_func
                0x0000000000063490                call_storage_idle_notifys
 .text          0x00000000000634ec      0x1a0 /home/jbrawley/Desktop/rockbox-photo-cf-support/build/firmware/libfirmware.a(events.o)
                0x00000000000635e0                add_event
                0x00000000000635f4                add_event_ex
                0x00000000000635f8                remove_event
                0x0000000000063604                remove_event_ex
                0x0000000000063608                send_event
 .text          0x000000000006368c      0x3a0 /home/jbrawley/Desktop/rockbox-photo-cf-support/build/firmware/libfirmware.a(backlight.o)
                0x000000000006368c                backlight_on
                0x00000000000636cc                backlight_on_ignore
                0x00000000000636e0                backlight_off
                0x0000000000063700                backlight_get_current_timeout
                0x00000000000638b4                is_backlight_on
                0x0000000000063900                backlight_set_timeout
                0x0000000000063934                backlight_set_timeout_plugged
                0x0000000000063968                backlight_hold_changed
                0x00000000000639b0                backlight_set_on_button_hold
                0x00000000000639e4                backlight_set_brightness
                0x0000000000063a18                buttonlight_on
                0x0000000000063a1c                buttonlight_on_ignore
                0x0000000000063a20                buttonlight_off
                0x0000000000063a24                buttonlight_set_timeout
                0x0000000000063a28                buttonlight_set_brightness
 .text          0x0000000000063a2c      0xd04 /home/jbrawley/Desktop/rockbox-photo-cf-support/build/firmware/libfirmware.a(buflib_mempool.o)
                0x0000000000063ff8                buflib_init
                0x0000000000064068                buflib_context_relocate
                0x00000000000640e4                buflib_buffer_out
                0x0000000000064140                buflib_buffer_in
                0x000000000006414c                buflib_alloc_ex
                0x000000000006431c                buflib_alloc
                0x0000000000064324                buflib_free
                0x00000000000643e8                buflib_allocatable
                0x0000000000064498                buflib_available
                0x0000000000064500                buflib_alloc_maximum
                0x0000000000064570                buflib_shrink
                0x0000000000064690                buflib_pin
                0x00000000000646bc                buflib_unpin
                0x000000000006470c                buflib_pin_count
 .text.unlikely
                0x0000000000064730       0x48 /home/jbrawley/Desktop/rockbox-photo-cf-support/build/firmware/libfirmware.a(buflib_mempool.o)
 .text          0x0000000000064778      0x134 /home/jbrawley/Desktop/rockbox-photo-cf-support/build/firmware/libfirmware.a(core_alloc.o)
                0x0000000000064778                core_alloc
                0x0000000000064798                core_alloc_ex
                0x00000000000647bc                core_available
                0x00000000000647d4                core_allocatable
                0x00000000000647ec                core_free
                0x0000000000064808                core_alloc_maximum
                0x000000000006482c                core_shrink
                0x0000000000064858                core_pin
                0x0000000000064874                core_unpin
                0x0000000000064890                core_pin_count
 .text          0x00000000000648ac      0x374 /home/jbrawley/Desktop/rockbox-photo-cf-support/build/firmware/libfirmware.a(general.o)
                0x00000000000648ac                round_value_to_list32
                0x0000000000064924                make_list_from_caps32
                0x0000000000064980                create_numbered_filename
                0x0000000000064acc                create_datetime_filename
                0x0000000000064bd4                find_array_ptr
                0x0000000000064bec                remove_array_ptr
 .text          0x0000000000064c20      0xa28 /home/jbrawley/Desktop/rockbox-photo-cf-support/build/firmware/libfirmware.a(powermgmt.o)
                0x0000000000064da8                _battery_level
                0x0000000000064db0                _battery_time
                0x0000000000064db8                _battery_current
                0x0000000000064dc0                battery_level
                0x0000000000064dd0                battery_time
                0x0000000000064de0                battery_voltage
                0x0000000000064df0                battery_current
                0x0000000000065030                battery_read_info
                0x0000000000065060                set_battery_capacity
                0x0000000000065090                get_battery_capacity
                0x00000000000650a0                battery_level_safe
                0x00000000000650c8                query_force_shutdown
                0x00000000000650f0                charger_inserted
                0x000000000006510c                power_input_present
                0x0000000000065124                shutdown_hw
                0x0000000000065194                set_poweroff_timeout
                0x00000000000651a4                reset_poweroff_timer
                0x00000000000651dc                sys_poweroff
                0x0000000000065208                sys_reboot
                0x0000000000065234                cancel_shutdown
                0x0000000000065248                set_sleeptimer_duration
                0x0000000000065254                get_sleep_timer_active
                0x0000000000065264                get_sleep_timer
                0x00000000000652ac                set_keypress_restarts_sleep_timer
                0x00000000000652bc                handle_auto_poweroff
 .text          0x0000000000065648       0xfc /home/jbrawley/Desktop/rockbox-photo-cf-support/build/firmware/libfirmware.a(system.o)
                0x0000000000065648                get_cpu_boost_counter
                0x0000000000065658                cpu_boost
                0x00000000000656e4                cpu_idle_mode
                0x000000000006572c                detect_flashed_romimage
                0x0000000000065734                detect_flashed_ramimage
                0x000000000006573c                detect_original_firmware
 .text          0x0000000000065744      0x550 /home/jbrawley/Desktop/rockbox-photo-cf-support/build/firmware/libfirmware.a(usb.o)
                0x0000000000065a94                usb_set_mode
                0x0000000000065aa4                usb_signal_transfer_completion
                0x0000000000065ac4                usb_signal_notify
                0x0000000000065ae8                usb_charger_update
                0x0000000000065b08                usb_status_event
                0x0000000000065b54                usb_firewire_connect_event
                0x0000000000065b74                usb_acknowledge
                0x0000000000065b94                usb_wait_for_disconnect
                0x0000000000065bc0                usb_wait_for_disconnect_w_tmo
                0x0000000000065c08                usb_inserted
                0x0000000000065c28                usb_exclusive_storage
                0x0000000000065c54                usb_set_hid
                0x0000000000065c78                usb_powered_only
 .text          0x0000000000065c94       0xf4 /home/jbrawley/Desktop/rockbox-photo-cf-support/build/firmware/libfirmware.a(load_code.o)
                0x0000000000065c94                lc_open
 .text          0x0000000000065d88      0x1b0 /home/jbrawley/Desktop/rockbox-photo-cf-support/build/firmware/libfirmware.a(rolo.o)
                0x0000000000065df4                rolo_load
 .text          0x0000000000065f38       0xb4 /home/jbrawley/Desktop/rockbox-photo-cf-support/build/firmware/libfirmware.a(timer.o)
                0x0000000000065f38                timer_register
                0x0000000000065fa4                timer_set_period
                0x0000000000065fb8                timer_unregister
 .text          0x0000000000065fec      0x11c /home/jbrawley/Desktop/rockbox-photo-cf-support/build/firmware/libfirmware.a(panic.o)
                0x0000000000065fec                panicf
                0x0000000000065ff8                panicf_f
 .text          0x0000000000066108       0xb0 /home/jbrawley/Desktop/rockbox-photo-cf-support/build/firmware/libfirmware.a(strptokspn.o)
                0x0000000000066108                strptokspn_r
                0x000000000006618c                strtok_r
 .text          0x00000000000661b8       0x94 /home/jbrawley/Desktop/rockbox-photo-cf-support/build/firmware/libfirmware.a(crc32.o)
                0x00000000000661b8                crc_32
                0x0000000000066204                crc_32r
 .text          0x000000000006624c       0x24 /home/jbrawley/Desktop/rockbox-photo-cf-support/build/firmware/libfirmware.a(loader_strerror.o)
                0x000000000006624c                loader_strerror
 .text          0x0000000000066270      0x470 /home/jbrawley/Desktop/rockbox-photo-cf-support/build/firmware/libfirmware.a(dir.o)
                0x00000000000662f4                opendir
                0x0000000000066384                closedir
                0x0000000000066400                readdir
                0x00000000000664b8                mkdir
                0x0000000000066554                rmdir
                0x00000000000665bc                samedir
                0x0000000000066620                dir_exists
                0x0000000000066654                dir_get_info
 .text          0x00000000000666e0     0x1634 /home/jbrawley/Desktop/rockbox-photo-cf-support/build/firmware/libfirmware.a(file.o)
                0x00000000000670cc                force_close_writer_internal
                0x00000000000670d0                close
                0x00000000000673c0                open_noiso_internal
                0x00000000000673f4                open
                0x0000000000067428                creat
                0x000000000006745c                ftruncate
                0x000000000006750c                fsync
                0x0000000000067578                lseek
                0x000000000006768c                read
                0x0000000000067724                write
                0x00000000000677c0                remove
                0x00000000000677f0                rename
                0x0000000000067a9c                modtime
                0x0000000000067b30                filesize
                0x0000000000067ba4                fsamefile
                0x0000000000067c08                relate
                0x0000000000067ce0                file_exists
 .text          0x0000000000067d14      0xb54 /home/jbrawley/Desktop/rockbox-photo-cf-support/build/firmware/libfirmware.a(file_internal.o)
                0x0000000000067d50                file_cache_init
                0x0000000000067d64                file_cache_reset
                0x0000000000067d74                file_cache_alloc
                0x0000000000067da8                file_cache_free
                0x0000000000067de4                filestr_alloc_cache
                0x0000000000067dec                filestr_free_cache
                0x0000000000067e04                filestr_assign_cache
                0x0000000000067e40                filestr_copy_cache
                0x0000000000067e98                filestr_discard_cache
                0x0000000000067eac                filestr_base_init
                0x0000000000067ed8                filestr_base_destroy
                0x0000000000067ee8                uncached_readdir_internal
                0x0000000000067f24                uncached_rewinddir_internal
                0x0000000000067f38                test_dir_empty_internal
                0x0000000000067fe4                iso_decode_d_name
                0x0000000000068408                empty_dirent
                0x0000000000068424                fill_dirinfo_native
                0x0000000000068458                uncached_readdir_dirent
                0x00000000000684d8                uncached_rewinddir_dirent
                0x00000000000684e8                open_stream_internal
                0x000000000006860c                close_stream_internal
                0x000000000006866c                create_stream_internal
                0x0000000000068738                remove_stream_internal
                0x0000000000068844                test_stream_exists_internal
 .text          0x0000000000068868      0xae8 /home/jbrawley/Desktop/rockbox-photo-cf-support/build/firmware/libfirmware.a(disk.o)
                0x00000000000688c8                disk_init
                0x0000000000069030                disk_partinfo
                0x0000000000069090                disk_mount
                0x0000000000069184                disk_mount_all
                0x00000000000691c8                disk_unmount
                0x0000000000069218                disk_unmount_all
                0x0000000000069248                disk_present
                0x0000000000069288                volume_recalc_free
                0x000000000006929c                volume_get_cluster_size
                0x00000000000692cc                volume_size
                0x0000000000069318                volume_ismounted
 .text          0x0000000000069350      0x604 /home/jbrawley/Desktop/rockbox-photo-cf-support/build/firmware/libfirmware.a(fileobj_mgr.o)
                0x000000000006947c                file_binding_insert_last
                0x0000000000069498                file_binding_remove
                0x00000000000694b4                file_binding_insert_first
                0x00000000000694d0                file_binding_remove_next
                0x00000000000694ec                fileobj_mount
                0x0000000000069538                fileobj_unmount
                0x0000000000069580                fileobj_fileop_open
                0x00000000000696b4                fileobj_fileop_close
                0x00000000000697ac                fileobj_fileop_create
                0x00000000000697d8                fileobj_fileop_remove
                0x0000000000069808                fileobj_fileop_rename
                0x0000000000069844                fileobj_fileop_sync
                0x0000000000069878                fileobj_get_sizep
                0x0000000000069888                fileobj_get_next_stream
                0x00000000000698a4                fileobj_get_flags
                0x00000000000698b4                fileobj_change_flags
                0x00000000000698d8                fileobj_mgr_unmount
 .text          0x0000000000069954     0x2340 /home/jbrawley/Desktop/rockbox-photo-cf-support/build/firmware/libfirmware.a(dircache.o)
                0x000000000006ae54                dircache_readdir_dirent
                0x000000000006aff4                dircache_rewinddir_dirent
                0x000000000006b014                dircache_readdir_internal
                0x000000000006b1d4                dircache_rewinddir_internal
                0x000000000006b37c                dircache_wait
                0x000000000006b398                dircache_mount
                0x000000000006b3b0                dircache_unmount
                0x000000000006b3c8                dircache_suspend
                0x000000000006b3e0                dircache_resume
                0x000000000006b400                dircache_enable
                0x000000000006b440                dircache_disable
                0x000000000006b470                dircache_free_buffer
                0x000000000006b488                dircache_get_rootinfo
                0x000000000006b4ac                dircache_bind_file
                0x000000000006b4e8                dircache_unbind_file
                0x000000000006b530                dircache_fileop_create
                0x000000000006b654                dircache_fileop_remove
                0x000000000006b668                dircache_fileop_rename
                0x000000000006b7dc                dircache_fileop_sync
                0x000000000006b83c                dircache_fileref_init
                0x000000000006b854                dircache_get_fileref_path
                0x000000000006b960                dircache_search
                0x000000000006bb5c                dircache_fileref_cmp
                0x000000000006bba4                dircache_get_info
                0x000000000006bc84                dircache_dcfile_init
 .text          0x000000000006bc94      0x534 /home/jbrawley/Desktop/rockbox-photo-cf-support/build/firmware/libfirmware.a(pathfuncs.o)
                0x000000000006bc94                path_strip_drive
                0x000000000006bd00                path_basename
                0x000000000006bd78                path_dirname
                0x000000000006be14                path_strip_trailing_separators
                0x000000000006be7c                path_correct_separators
                0x000000000006beec                path_remove_dot_segments
                0x000000000006bff4                path_append
                0x000000000006c164                parse_path_component
 .text          0x000000000006c1c8      0x104 /home/jbrawley/Desktop/rockbox-photo-cf-support/build/firmware/libfirmware.a(fdprintf.o)
                0x000000000006c238                fdprintf
 .text          0x000000000006c2cc      0x220 /home/jbrawley/Desktop/rockbox-photo-cf-support/build/firmware/libfirmware.a(linked_list.o)
                0x000000000006c2cc                ll_insert_next
                0x000000000006c2f0                ll_insert_first
                0x000000000006c308                ll_insert_last
                0x000000000006c328                ll_remove_next
                0x000000000006c358                ll_remove_first
                0x000000000006c370                ll_remove
                0x000000000006c394                lld_insert_next
                0x000000000006c3c4                lld_insert_prev
                0x000000000006c3f0                lld_insert_first
                0x000000000006c414                lld_insert_last
                0x000000000006c434                lld_remove
                0x000000000006c458                lldc_insert_first
                0x000000000006c488                lldc_insert_last
                0x000000000006c4b8                lldc_remove
 .text          0x000000000006c4ec      0x350 /home/jbrawley/Desktop/rockbox-photo-cf-support/build/firmware/libfirmware.a(rb_namespace.o)
                0x000000000006c530                root_mount_path
                0x000000000006c60c                root_unmount_volume
                0x000000000006c624                ns_parse_root
                0x000000000006c650                ns_open_root
                0x000000000006c700                root_readdir_dirent
                0x000000000006c7b8                ns_open_stream
 .text          0x000000000006c83c       0xd4 /home/jbrawley/Desktop/rockbox-photo-cf-support/build/firmware/libfirmware.a(strcasecmp.o)
                0x000000000006c83c                strcasecmp
                0x000000000006c8b0                strncasecmp
 .text          0x000000000006c910      0x1a8 /home/jbrawley/Desktop/rockbox-photo-cf-support/build/firmware/libfirmware.a(strcasestr.o)
                0x000000000006c910                strcasestr
 .text          0x000000000006cab8      0x1f4 /home/jbrawley/Desktop/rockbox-photo-cf-support/build/firmware/libfirmware.a(strnatcmp.o)
                0x000000000006cc94                strnatcmp
                0x000000000006cca0                strnatcasecmp
 .text          0x000000000006ccac       0x44 /home/jbrawley/Desktop/rockbox-photo-cf-support/build/firmware/libfirmware.a(strlcat.o)
                0x000000000006ccac                strlcat
 .text          0x000000000006ccf0       0x38 /home/jbrawley/Desktop/rockbox-photo-cf-support/build/firmware/libfirmware.a(strlcpy.o)
                0x000000000006ccf0                strlcpy
 .text          0x000000000006cd28       0x40 /home/jbrawley/Desktop/rockbox-photo-cf-support/build/firmware/libfirmware.a(strmemccpy.o)
                0x000000000006cd28                strmemccpy
 .text          0x000000000006cd68      0x22c /home/jbrawley/Desktop/rockbox-photo-cf-support/build/firmware/libfirmware.a(structec.o)
                0x000000000006ce58                structec_convert
                0x000000000006ce64                ecread
                0x000000000006ceb4                ecwrite
 .text          0x000000000006cf94      0x2d8 /home/jbrawley/Desktop/rockbox-photo-cf-support/build/firmware/libfirmware.a(timefuncs.o)
                0x000000000006cf94                dostime_mktime
                0x000000000006cff4                dostime_localtime
                0x000000000006d068                valid_time
                0x000000000006d0dc                get_time
                0x000000000006d140                set_time
                0x000000000006d16c                set_day_of_week
                0x000000000006d1e8                set_day_of_year
 .text          0x000000000006d26c      0x718 /home/jbrawley/Desktop/rockbox-photo-cf-support/build/firmware/libfirmware.a(unicode.o)
                0x000000000006d384                utf8encode
                0x000000000006d400                iso_decode
                0x000000000006d674                utf16LEdecode
                0x000000000006d6f0                utf16BEdecode
                0x000000000006d76c                utf8length
                0x000000000006d794                utf8decode
                0x000000000006d874                set_codepage
                0x000000000006d928                get_codepage
                0x000000000006d938                utf8seek
                0x000000000006d964                get_codepage_name
 .text          0x000000000006d984     0x1374 /home/jbrawley/Desktop/rockbox-photo-cf-support/build/firmware/libfirmware.a(vuprintf.o)
                0x000000000006e400                vuprintf
 .text          0x000000000006ecf8       0x90 /home/jbrawley/Desktop/rockbox-photo-cf-support/build/firmware/libfirmware.a(atoi.o)
                0x000000000006ecf8                atoi
 .text          0x000000000006ed88       0x24 /home/jbrawley/Desktop/rockbox-photo-cf-support/build/firmware/libfirmware.a(errno.o)
                0x000000000006ed88                __errno
 .text          0x000000000006edac      0x124 /home/jbrawley/Desktop/rockbox-photo-cf-support/build/firmware/libfirmware.a(sprintf.o)
                0x000000000006ee00                vsnprintf
                0x000000000006ee5c                snprintf
 .text          0x000000000006eed0       0x2c /home/jbrawley/Desktop/rockbox-photo-cf-support/build/firmware/libfirmware.a(memccpy.o)
                0x000000000006eed0                memccpy
 .text          0x000000000006eefc       0x34 /home/jbrawley/Desktop/rockbox-photo-cf-support/build/firmware/libfirmware.a(memchr.o)
                0x000000000006eefc                memchr
 .text          0x000000000006ef30       0x38 /home/jbrawley/Desktop/rockbox-photo-cf-support/build/firmware/libfirmware.a(memcmp.o)
                0x000000000006ef30                memcmp
 .text          0x000000000006ef68      0x4e4 /home/jbrawley/Desktop/rockbox-photo-cf-support/build/firmware/libfirmware.a(qsort.o)
                0x000000000006f05c                qsort
 .text          0x000000000006f44c      0x188 /home/jbrawley/Desktop/rockbox-photo-cf-support/build/firmware/libfirmware.a(random.o)
                0x000000000006f44c                srand
                0x000000000006f48c                rand
 .text          0x000000000006f5d4       0x30 /home/jbrawley/Desktop/rockbox-photo-cf-support/build/firmware/libfirmware.a(strcat.o)
                0x000000000006f5d4                strcat
 .text          0x000000000006f604       0x30 /home/jbrawley/Desktop/rockbox-photo-cf-support/build/firmware/libfirmware.a(strchr.o)
                0x000000000006f604                strchr
 .text          0x000000000006f634       0x30 /home/jbrawley/Desktop/rockbox-photo-cf-support/build/firmware/libfirmware.a(strcmp.o)
                0x000000000006f634                strcmp
 .text          0x000000000006f664       0x18 /home/jbrawley/Desktop/rockbox-photo-cf-support/build/firmware/libfirmware.a(strcpy.o)
                0x000000000006f664                strcpy
 .text          0x000000000006f67c       0x3c /home/jbrawley/Desktop/rockbox-photo-cf-support/build/firmware/libfirmware.a(strcspn.o)
                0x000000000006f67c                strcspn
 .text          0x000000000006f6b8       0x60 /home/jbrawley/Desktop/rockbox-photo-cf-support/build/firmware/libfirmware.a(strncmp.o)
                0x000000000006f6b8                strncmp
 .text          0x000000000006f718       0x48 /home/jbrawley/Desktop/rockbox-photo-cf-support/build/firmware/libfirmware.a(strrchr.o)
                0x000000000006f718                strrchr
 .text          0x000000000006f760       0x44 /home/jbrawley/Desktop/rockbox-photo-cf-support/build/firmware/libfirmware.a(strstr.o)
                0x000000000006f760                strstr
 .text          0x000000000006f7a4      0x11c /home/jbrawley/Desktop/rockbox-photo-cf-support/build/firmware/libfirmware.a(mktime.o)
                0x000000000006f7a4                mktime
 .text          0x000000000006f8c0      0x1b4 /home/jbrawley/Desktop/rockbox-photo-cf-support/build/firmware/libfirmware.a(gmtime.o)
                0x000000000006f8c0                gmtime_r
                0x000000000006fa68                gmtime
 .text          0x000000000006fa74      0x3c8 /home/jbrawley/Desktop/rockbox-photo-cf-support/build/firmware/libfirmware.a(scroll_engine.o)
                0x000000000006fa74                lcd_scroll_stop
                0x000000000006fad0                lcd_scroll_stop_viewport_rect
                0x000000000006fbd4                lcd_scroll_stop_viewport
                0x000000000006fbfc                lcd_scroll_speed
                0x000000000006fc18                lcd_scroll_step
                0x000000000006fc28                lcd_scroll_delay
                0x000000000006fc48                lcd_bidir_scroll
                0x000000000006fc58                lcd_scroll_now
 .text          0x000000000006fe3c      0x448 /home/jbrawley/Desktop/rockbox-photo-cf-support/build/firmware/libfirmware.a(bidi.o)
                0x000000000006fe3c                bidi_l2v
 .text          0x0000000000070284     0x1148 /home/jbrawley/Desktop/rockbox-photo-cf-support/build/firmware/libfirmware.a(font.o)
                0x00000000000706f8                font_lock
                0x0000000000070738                font_filename_matches_loaded_id
                0x0000000000070788                font_unload
                0x0000000000070818                font_unload_all
                0x000000000007085c                font_disable_all
                0x00000000000708c0                font_enable_all
                0x0000000000070930                font_get
                0x0000000000070994                font_get_width
                0x0000000000070a54                font_get_bits
                0x0000000000070b50                font_load_ex
                0x00000000000712d4                font_load
                0x00000000000712e4                font_getstringnsize
                0x00000000000713a0                font_getstringsize
 .text          0x00000000000713cc       0xb8 /home/jbrawley/Desktop/rockbox-photo-cf-support/build/firmware/libfirmware.a(hangul.o)
                0x00000000000713cc                hangul_join
 .text          0x0000000000071484      0x1b8 /home/jbrawley/Desktop/rockbox-photo-cf-support/build/firmware/libfirmware.a(lru.o)
                0x0000000000071484                lru_create
                0x0000000000071518                lru_traverse
                0x000000000007157c                lru_touch
                0x0000000000071628                lru_data
 .text          0x000000000007163c      0x114 /home/jbrawley/Desktop/rockbox-photo-cf-support/build/firmware/libfirmware.a(screendump.o)
                0x000000000007163c                screen_dump
                0x0000000000071740                screen_dump_set_hook
 .text          0x0000000000071750     0x1c28 /home/jbrawley/Desktop/rockbox-photo-cf-support/build/firmware/libfirmware.a(lcd-16bit.o)
                0x00000000000718dc                lcd_set_foreground
                0x00000000000718f0                lcd_get_foreground
                0x0000000000071904                lcd_set_background
                0x0000000000071918                lcd_get_background
                0x000000000007192c                lcd_set_backdrop
                0x000000000007199c                lcd_get_backdrop
                0x00000000000719ac                lcd_yuv_set_options
                0x0000000000071d54                lcd_set_drawmode
                0x0000000000071d6c                lcd_get_drawmode
                0x0000000000071d80                lcd_getwidth
                0x0000000000071d94                lcd_getheight
                0x0000000000071da8                lcd_setfont
                0x0000000000071dbc                lcd_getfont
                0x0000000000071dd0                lcd_getstringsize
                0x0000000000071df0                lcd_set_drawinfo
                0x0000000000071e1c                lcd_init_viewport
                0x0000000000071ea4                lcd_set_viewport_ex
                0x0000000000071ee8                lcd_set_viewport
                0x0000000000071ef0                lcd_drawpixel
                0x0000000000071f6c                lcd_clear_viewport
                0x00000000000720a4                lcd_clear_display
                0x00000000000720d0                lcd_fillrect
                0x000000000007225c                lcd_fill_viewport
                0x0000000000072544                lcd_putsxy
                0x0000000000072550                lcd_putsxyf
                0x000000000007259c                lcd_puts
                0x00000000000725e4                lcd_putsf
                0x0000000000072630                lcd_scroll_fn
                0x00000000000728c4                lcd_puts_scroll
                0x00000000000728f4                lcd_putsxy_scroll_func
                0x000000000007293c                lcd_mono_bitmap
                0x0000000000072964                lcd_hline
                0x0000000000072aa8                lcd_gradient_fillrect_part
                0x0000000000072c58                lcd_gradient_fillrect
                0x0000000000072c88                lcd_vline
                0x0000000000072d64                lcd_drawline
                0x0000000000072efc                lcd_drawrect
                0x0000000000072f60                lcd_draw_border_viewport
                0x0000000000072f80                lcd_bitmap
                0x0000000000072fa8                lcd_update_viewport_rect
                0x000000000007306c                lcd_update_viewport
                0x000000000007308c                lcd_bitmap_transparent
                0x00000000000730b4                lcd_nine_segment_bmp
 .text          0x0000000000073378       0xe0 /home/jbrawley/Desktop/rockbox-photo-cf-support/build/firmware/libfirmware.a(diacritic.o)
                0x0000000000073378                is_diacritic
 .text          0x0000000000073458       0x5c /home/jbrawley/Desktop/rockbox-photo-cf-support/build/firmware/libfirmware.a(led.o)
                0x0000000000073458                led
                0x0000000000073480                led_read
 .text          0x00000000000734b4      0x550 /home/jbrawley/Desktop/rockbox-photo-cf-support/build/firmware/libfirmware.a(button.o)
                0x00000000000738ac                button_queue_count
                0x00000000000738c4                button_get
                0x0000000000073904                button_get_w_tmo
                0x0000000000073944                button_get_data
                0x0000000000073954                set_backlight_filter_keypress
                0x0000000000073978                button_status
                0x0000000000073988                button_clear_queue
                0x00000000000739a0                button_apply_acceleration
                0x00000000000739e4                button_set_sw_poweroff_state
                0x00000000000739f4                button_get_sw_poweroff_state
 .text          0x0000000000073a04      0xbc4 /home/jbrawley/Desktop/rockbox-photo-cf-support/build/firmware/libfirmware.a(ata.o)
                0x00000000000741b4                ata_disk_isssd
                0x0000000000074218                ata_disk_can_poweroff
                0x000000000007423c                ata_read_sectors
                0x0000000000074288                ata_write_sectors
                0x00000000000742d4                ata_spindown
                0x00000000000742ec                ata_disk_is_active
                0x0000000000074308                ata_sleepnow
                0x00000000000743c8                ata_spin
                0x00000000000743c8                ata_keep_active
                0x00000000000743cc                ata_soft_reset
                0x0000000000074410                ata_get_identify
                0x000000000007441c                ata_last_disk_activity
                0x000000000007442c                ata_spinup_time
                0x000000000007443c                ata_get_info
                0x0000000000074510                ata_get_dma_mode
                0x0000000000074520                ata_event
 .text          0x00000000000745c8      0x144 /home/jbrawley/Desktop/rockbox-photo-cf-support/build/firmware/libfirmware.a(storage.o)
                0x00000000000746bc                storage_sleep
                0x00000000000746ec                storage_read_sectors
                0x00000000000746fc                storage_write_sectors
 .text          0x000000000007470c     0x26f8 /home/jbrawley/Desktop/rockbox-photo-cf-support/build/firmware/libfirmware.a(fat.o)
                0x0000000000074f78                dc_writeback_callback
                0x0000000000074ff4                fat_dir_is_parent
                0x000000000007501c                fat_file_is_same
                0x000000000007505c                fat_open
                0x00000000000750a0                fat_open_rootdir
                0x00000000000750d4                fat_query_sectornum
                0x0000000000075100                fat_readwrite
                0x0000000000075360                fat_rewind
                0x0000000000075388                fat_filestr_init
                0x0000000000075390                fat_seek_to_stream
                0x00000000000753bc                fat_seek
                0x0000000000075c88                fat_create_file
                0x0000000000075f7c                fat_remove
                0x0000000000076040                fat_rename
                0x0000000000076280                fat_modtime
                0x0000000000076328                fat_truncate
                0x00000000000763ac                fat_rewinddir
                0x00000000000763bc                fat_ismounted
                0x00000000000763e0                fat_unmount
                0x0000000000076420                fat_get_cluster_size
                0x0000000000076444                fat_recalc_free
                0x0000000000076510                fat_mount
                0x000000000007683c                fat_size
                0x000000000007688c                fat_empty_fat_direntry
                0x00000000000768cc                fat_closewrite
                0x0000000000076a5c                fat_readdir
                0x0000000000076de0                fat_init
 .text          0x0000000000076e04      0x338 /home/jbrawley/Desktop/rockbox-photo-cf-support/build/firmware/libfirmware.a(rtc_pcf50605.o)
                0x0000000000076e04                rtc_read_datetime
                0x0000000000076ea0                rtc_write_datetime
                0x0000000000076f40                rtc_check_alarm_flag
                0x0000000000076f5c                rtc_enable_alarm
                0x0000000000076fc4                rtc_check_alarm_started
                0x0000000000077068                rtc_init
                0x0000000000077070                rtc_set_alarm
                0x00000000000770e8                rtc_get_alarm
 .text          0x000000000007713c       0x2c /home/jbrawley/Desktop/rockbox-photo-cf-support/build/firmware/libfirmware.a(tuner.o)
                0x000000000007713c                tuner_get_rds_info
 .text          0x0000000000077168      0x6dc /home/jbrawley/Desktop/rockbox-photo-cf-support/build/firmware/libfirmware.a(ipod_remote_tuner.o)
                0x0000000000077334                rmt_tuner_freq
                0x000000000007737c                rmt_tuner_scan
                0x0000000000077404                rmt_tuner_rds_data
                0x0000000000077440                ipod_rmt_tuner_set
                0x00000000000777e0                ipod_rmt_tuner_get
 .text          0x0000000000077844      0x320 /home/jbrawley/Desktop/rockbox-photo-cf-support/build/firmware/libfirmware.a(rds.o)
                0x0000000000077944                rds_reset
                0x0000000000077968                rds_init
                0x000000000007796c                rds_sync
                0x00000000000779d8                rds_push_info
                0x0000000000077ac0                rds_pull_info
 .text          0x0000000000077b64      0x45c /home/jbrawley/Desktop/rockbox-photo-cf-support/build/firmware/libfirmware.a(sound.o)
                0x0000000000077b9c                sound_set_channels
                0x0000000000077bbc                sound_set_stereo_width
                0x0000000000077bdc                sound_val2phys
                0x0000000000077c30                sound_unit
                0x0000000000077c48                sound_numdecimals
                0x0000000000077cb4                sound_steps
                0x0000000000077ccc                sound_min
                0x0000000000077ce4                sound_max
                0x0000000000077dcc                sound_set_volume
                0x0000000000077e0c                sound_set_balance
                0x0000000000077e30                sound_set_bass
                0x0000000000077e70                sound_set_treble
                0x0000000000077eb0                sound_default
                0x0000000000077ec8                sound_get_fn
                0x0000000000077edc                sound_set
                0x0000000000077f00                sound_current
                0x0000000000077f78                sound_set_pitch
                0x0000000000077f98                sound_get_pitch
 .text          0x0000000000077fc0      0x614 /home/jbrawley/Desktop/rockbox-photo-cf-support/build/firmware/libfirmware.a(pcm.o)
                0x000000000007809c                pcm_play_stop_int
                0x00000000000780c4                pcm_play_dma_complete_callback
                0x000000000007812c                pcm_do_peak_calculation
                0x00000000000781dc                pcm_is_playing
                0x00000000000781ec                pcm_postinit
                0x000000000007820c                pcm_is_initialized
                0x000000000007821c                pcm_play_stop
                0x0000000000078244                pcm_set_frequency
                0x000000000007828c                pcm_get_frequency
                0x000000000007829c                pcm_apply_settings
                0x00000000000782e8                pcm_play_data
                0x0000000000078374                pcm_calculate_rec_peaks
                0x0000000000078414                pcm_is_recording
                0x0000000000078424                pcm_init_recording
                0x0000000000078460                pcm_close_recording
                0x0000000000078494                pcm_record_data
                0x00000000000784fc                pcm_stop_recording
                0x000000000007852c                pcm_rec_dma_complete_callback
 .text          0x00000000000785d4      0x4d4 /home/jbrawley/Desktop/rockbox-photo-cf-support/build/firmware/libfirmware.a(pcm_mixer.o)
                0x00000000000786e8                mixer_channel_play_data
                0x00000000000787f8                mixer_channel_play_pause
                0x000000000007888c                mixer_channel_stop
                0x00000000000788b8                mixer_channel_set_amplitude
                0x00000000000788d8                mixer_channel_status
                0x00000000000788f0                mixer_channel_get_bytes_waiting
                0x0000000000078908                mixer_channel_get_buffer
                0x000000000007893c                mixer_channel_calculate_peaks
                0x000000000007898c                mixer_adjust_channel_address
                0x00000000000789c4                mixer_channel_set_buffer_hook
                0x00000000000789f4                mixer_reset
                0x0000000000078a2c                mixer_set_frequency
                0x0000000000078a98                mixer_get_frequency
 .text          0x0000000000078aa8       0x44 /home/jbrawley/Desktop/rockbox-photo-cf-support/build/firmware/libfirmware.a(audiohw-swcodec.o)
                0x0000000000078aa8                audiohw_set_channel
                0x0000000000078ab8                audiohw_set_stereo_width
                0x0000000000078ac8                audiohw_set_prescaler
                0x0000000000078acc                audiohw_set_pitch
                0x0000000000078adc                audiohw_get_pitch
 .text          0x0000000000078aec      0x558 /home/jbrawley/Desktop/rockbox-photo-cf-support/build/firmware/libfirmware.a(wm8975.o)
                0x0000000000078b40                audiohw_preinit
                0x0000000000078c1c                audiohw_postinit
                0x0000000000078c28                audiohw_set_volume
                0x0000000000078c8c                audiohw_set_lineout_volume
                0x0000000000078cf0                audiohw_enable_lineout
                0x0000000000078d18                audiohw_set_bass
                0x0000000000078d88                audiohw_set_treble
                0x0000000000078df8                audiohw_close
                0x0000000000078e24                audiohw_set_frequency
                0x0000000000078e28                audiohw_enable_recording
                0x0000000000078ef0                audiohw_disable_recording
                0x0000000000078f4c                audiohw_set_recvol
                0x0000000000078fc0                audiohw_set_monitor
 .text          0x0000000000079044      0x120 /home/jbrawley/Desktop/rockbox-photo-cf-support/build/firmware/libfirmware.a(system-arm.o)
                0x0000000000079050                software_int_handler
                0x000000000007905c                reserved_handler
                0x0000000000079068                prefetch_abort_handler
                0x0000000000079074                undef_instr_handler
                0x0000000000079080                UIE
                0x0000000000079154                __div0
 .text          0x0000000000079164      0x1bc /home/jbrawley/Desktop/rockbox-photo-cf-support/build/firmware/libfirmware.a(ata-pp5020.o)
                0x0000000000079164                ata_enable
                0x0000000000079168                ata_set_pio_timings
                0x0000000000079198                ata_dma_set_mode
                0x0000000000079220                ata_dma_setup
                0x000000000007929c                ata_dma_finish
 .text          0x0000000000079320      0x110 /home/jbrawley/Desktop/rockbox-photo-cf-support/build/firmware/libfirmware.a(power-ipod.o)
                0x0000000000079320                power_input_status
                0x0000000000079348                charging_state
                0x0000000000079364                ide_power_enable
                0x00000000000793a8                ide_powered
                0x00000000000793c4                power_off
                0x00000000000793e8                usb_charging_maxcurrent_change
 .text          0x0000000000079430      0x324 /home/jbrawley/Desktop/rockbox-photo-cf-support/build/firmware/libfirmware.a(piezo.o)
                0x0000000000079598                piezo_play
                0x00000000000795b8                piezo_play_for_tick
                0x00000000000795e0                piezo_play_for_usec
                0x0000000000079608                piezo_stop
                0x0000000000079628                piezo_clear
                0x0000000000079640                piezo_busy
                0x0000000000079660                piezo_hz
                0x0000000000079684                piezo_init
                0x00000000000796fc                piezo_button_beep
 .text          0x0000000000079754       0xe8 /home/jbrawley/Desktop/rockbox-photo-cf-support/build/firmware/libfirmware.a(pcf50605.o)
                0x0000000000079754                pcf50605_read
                0x000000000007976c                pcf50605_read_multiple
                0x0000000000079794                pcf50605_write
                0x00000000000797b8                pcf50605_write_multiple
                0x0000000000079804                pcf50605_standby_mode
                0x000000000007981c                pcf50605_init
 .text          0x000000000007983c       0x54 /home/jbrawley/Desktop/rockbox-photo-cf-support/build/firmware/libfirmware.a(powermgmt-ipod-pcf.o)
                0x000000000007983c                _battery_voltage
                0x0000000000079860                accessory_supply_set
                0x0000000000079880                lineout_set
 .text          0x0000000000079890      0x3a8 /home/jbrawley/Desktop/rockbox-photo-cf-support/build/firmware/libfirmware.a(i2c-pp.o)
                0x0000000000079a70                i2c_lock
                0x0000000000079a88                i2c_unlock
                0x0000000000079aa0                i2c_readbytes
                0x0000000000079b28                i2c_readbyte
                0x0000000000079b84                i2c_sendbytes
                0x0000000000079bec                pp_i2c_send
 .text          0x0000000000079c38      0x140 /home/jbrawley/Desktop/rockbox-photo-cf-support/build/firmware/libfirmware.a(timer-pp.o)
                0x0000000000079c38                TIMER2
                0x0000000000079ca0                timer_set
                0x0000000000079d38                timer_start
                0x0000000000079d58                timer_stop
 .text          0x0000000000079d78       0x98 /home/jbrawley/Desktop/rockbox-photo-cf-support/build/firmware/libfirmware.a(wmcodec-pp.o)
                0x0000000000079d78                audiohw_init
                0x0000000000079dec                wmcodec_write
 .text          0x0000000000079e10      0x324 /home/jbrawley/Desktop/rockbox-photo-cf-support/build/firmware/libfirmware.a(usb-fw-pp502x.o)
                0x0000000000079f3c                usb_pin_init
                0x0000000000079f68                usb_init_device
                0x0000000000079fdc                usb_enable
                0x000000000007a030                usb_attach
                0x000000000007a034                usb_plugged
                0x000000000007a04c                usb_insert_int
                0x000000000007a0a0                usb_drv_int_enable
                0x000000000007a0bc                usb_detect
                0x000000000007a0cc                firewire_detect
                0x000000000007a0dc                firewire_insert_int
 .text          0x000000000007a134      0x2c8 /home/jbrawley/Desktop/rockbox-photo-cf-support/build/firmware/libfirmware.a(system-pp502x.o)
                0x000000000007a134                irq_handler
                0x000000000007a204                set_cpu_frequency__lock
                0x000000000007a21c                set_cpu_frequency__unlock
                0x000000000007a234                system_init
                0x000000000007a3bc                system_exception_wait
                0x000000000007a3f4                system_memory_guard
 .text          0x000000000007a3fc      0x348 /home/jbrawley/Desktop/rockbox-photo-cf-support/build/firmware/libfirmware.a(uart-pp.o)
                0x000000000007a448                serial_setup
                0x000000000007a56c                serial_bitrate
                0x000000000007a594                tx_rdy
                0x000000000007a5b0                tx_writec
                0x000000000007a5c4                SERIAL_ISR
 .text          0x000000000007a744      0x3c4 /home/jbrawley/Desktop/rockbox-photo-cf-support/build/firmware/libfirmware.a(pcm-pp.o)
                0x000000000007a790                pcm_dma_addr
                0x000000000007a7ac                pcm_dma_apply_settings
                0x000000000007a7c8                pcm_play_lock
                0x000000000007a804                pcm_play_unlock
                0x000000000007a84c                pcm_play_dma_stop
                0x000000000007a904                pcm_play_dma_start
                0x000000000007a988                pcm_play_dma_postinit
                0x000000000007a998                pcm_rec_lock
                0x000000000007a9d8                pcm_rec_unlock
                0x000000000007aa24                pcm_rec_dma_stop
                0x000000000007aa6c                pcm_rec_dma_start
                0x000000000007aaec                pcm_rec_dma_close
                0x000000000007aaf0                pcm_rec_dma_init
                0x000000000007aaf4                pcm_rec_dma_get_peak_buffer
 .text          0x000000000007ab08      0x41c /home/jbrawley/Desktop/rockbox-photo-cf-support/build/firmware/libfirmware.a(debug-pp.o)
                0x000000000007ab08                dbg_ports
                0x000000000007adc0                dbg_hw_info
 .text          0x000000000007af24      0x118 /home/jbrawley/Desktop/rockbox-photo-cf-support/build/firmware/libfirmware.a(audio-pp.o)
                0x000000000007af24                audio_set_output_source
                0x000000000007af28                audio_input_mux
 .text          0x000000000007b03c      0x59c /home/jbrawley/Desktop/rockbox-photo-cf-support/build/firmware/libfirmware.a(lcd-color_nano.o)
                0x000000000007b1a0                lcd_shutdown
                0x000000000007b33c                lcd_blit_yuv
                0x000000000007b494                lcd_update_rect
                0x000000000007b5c4                lcd_update
 .text          0x000000000007b5d8      0xe28 /home/jbrawley/Desktop/rockbox-photo-cf-support/build/firmware/libfirmware.a(usb_core.o)
                0x000000000007b5fc                usb_core_init
                0x000000000007b678                usb_core_enable_driver
                0x000000000007b690                usb_core_driver_enabled
                0x000000000007b6a8                usb_core_any_exclusive_storage
                0x000000000007b6dc                usb_core_request_endpoint
                0x000000000007b728                usb_core_release_endpoint
                0x000000000007b76c                usb_core_transfer_complete
                0x000000000007b80c                usb_core_control_request
                0x000000000007b844                usb_core_control_complete
                0x000000000007b848                usb_core_legacy_control_request
                0x000000000007b8a4                usb_drv_control_response
                0x000000000007bb24                usb_core_notify_set_address
                0x000000000007bb3c                usb_core_notify_set_config
                0x000000000007bb54                usb_charging_maxcurrent
                0x000000000007bbb4                usb_core_exit
                0x000000000007bd40                usb_core_handle_notify
                0x000000000007bd74                usb_core_handle_transfer_completion
                0x000000000007c3b8                usb_core_bus_reset
                0x000000000007c3e0                usb_charging_enable
 .text          0x000000000007c400      0xe44 /home/jbrawley/Desktop/rockbox-photo-cf-support/build/firmware/libfirmware.a(usb_storage.o)
                0x000000000007cd84                usb_storage_init
                0x000000000007cd88                usb_storage_request_endpoints
                0x000000000007cde8                usb_storage_set_first_interface
                0x000000000007cdfc                usb_storage_get_config_descriptor
                0x000000000007ce70                usb_storage_init_connection
                0x000000000007cf20                usb_storage_disconnect
                0x000000000007cf40                usb_storage_transfer_complete
                0x000000000007d1f0                usb_storage_control_request
 .text          0x000000000007d244     0x10a4 /home/jbrawley/Desktop/rockbox-photo-cf-support/build/firmware/libfirmware.a(usb_hid.o)
                0x000000000007dedc                usb_hid_request_endpoints
                0x000000000007df08                usb_hid_set_first_interface
                0x000000000007df1c                usb_hid_get_config_descriptor
                0x000000000007df9c                usb_hid_init_connection
                0x000000000007dfb8                usb_hid_init
                0x000000000007dff0                usb_hid_disconnect
                0x000000000007e008                usb_hid_transfer_complete
                0x000000000007e04c                usb_hid_control_request
                0x000000000007e21c                usb_hid_send
 .text          0x000000000007e2e8      0xad4 /home/jbrawley/Desktop/rockbox-photo-cf-support/build/firmware/libfirmware.a(usb-drv-arc.o)
                0x000000000007e5b8                usb_drv_startup
                0x000000000007e5ec                usb_drv_init
                0x000000000007e67c                usb_drv_exit
                0x000000000007e6a4                usb_drv_stalled
                0x000000000007e6c4                usb_drv_stall
                0x000000000007e700                usb_drv_send_nonblocking
                0x000000000007e724                usb_drv_send
                0x000000000007e744                usb_drv_recv_nonblocking
                0x000000000007e764                usb_drv_port_speed
                0x000000000007e778                usb_drv_connected
                0x000000000007e794                usb_drv_powered
                0x000000000007e7a8                usb_drv_set_address
                0x000000000007e8f0                usb_drv_reset_endpoint
                0x000000000007e91c                usb_drv_set_test_mode
                0x000000000007e9ac                usb_drv_cancel_all_transfers
                0x000000000007ea24                usb_drv_int
                0x000000000007ecbc                usb_drv_request_endpoint
                0x000000000007ed94                usb_drv_release_endpoint
 .text          0x000000000007edbc       0xd8 /home/jbrawley/Desktop/rockbox-photo-cf-support/build/firmware/libfirmware.a(adc-ipod-pcf.o)
                0x000000000007ee60                adc_scan
                0x000000000007ee80                adc_read
 .text          0x000000000007ee94      0x114 /home/jbrawley/Desktop/rockbox-photo-cf-support/build/firmware/libfirmware.a(backlight-4g_color.o)
                0x000000000007ee94                backlight_hw_on
                0x000000000007eedc                backlight_hw_off
                0x000000000007ef10                backlight_hw_brightness
                0x000000000007ef50                backlight_hw_init
 .text          0x000000000007efa8      0x484 /home/jbrawley/Desktop/rockbox-photo-cf-support/build/firmware/libfirmware.a(button-clickwheel.o)
                0x000000000007f038                wheel_status
                0x000000000007f048                wheel_send_events
                0x000000000007f058                ipod_4g_button_int
                0x000000000007f354                button_init_device
                0x000000000007f398                button_hold
                0x000000000007f3b4                headphones_inserted
                0x000000000007f3cc                button_read_device
 .text          0x000000000007f42c       0x8c /home/jbrawley/Desktop/rockbox-photo-cf-support/build/firmware/libfirmware.a(corelock.o)
                0x000000000007f42c                corelock_init
                0x000000000007f444                corelock_lock
                0x000000000007f474                corelock_try_lock
                0x000000000007f4a4                corelock_unlock
 .text          0x000000000007f4b8      0x490 /home/jbrawley/Desktop/rockbox-photo-cf-support/build/firmware/libfirmware.a(mrsw_lock.o)
                0x000000000007f4b8                mrsw_init
                0x000000000007f508                mrsw_read_acquire
                0x000000000007f634                mrsw_read_release
                0x000000000007f7b4                mrsw_write_acquire
                0x000000000007f888                mrsw_write_release
 .text          0x000000000007f948      0x174 /home/jbrawley/Desktop/rockbox-photo-cf-support/build/firmware/libfirmware.a(mutex.o)
                0x000000000007f948                mutex_init
                0x000000000007f978                mutex_lock
                0x000000000007fa38                mutex_unlock
 .text          0x000000000007fabc      0x99c /home/jbrawley/Desktop/rockbox-photo-cf-support/build/firmware/libfirmware.a(queue.o)
                0x000000000007fb84                queue_enable_queue_send
                0x000000000007fc18                queue_init
                0x000000000007fcb0                queue_delete
                0x000000000007fd3c                queue_wait
                0x000000000007fe38                queue_wait_w_tmo
                0x000000000007ffe8                queue_post
                0x0000000000080058                queue_send
                0x000000000008014c                queue_reply
                0x00000000000801b0                queue_peek_ex
                0x000000000008032c                queue_peek
                0x0000000000080338                queue_remove_from_head
                0x0000000000080370                queue_empty
                0x0000000000080388                queue_clear
                0x00000000000803c8                queue_count
                0x00000000000803d8                queue_broadcast
                0x0000000000080440                init_queues
 .text          0x0000000000080458      0x1b8 /home/jbrawley/Desktop/rockbox-photo-cf-support/build/firmware/libfirmware.a(semaphore.o)
                0x0000000000080458                semaphore_init
                0x0000000000080480                semaphore_wait
                0x0000000000080588                semaphore_release
 .text          0x0000000000080610     0x14a0 /home/jbrawley/Desktop/rockbox-photo-cf-support/build/firmware/libfirmware.a(thread.o)
                0x0000000000080c98                core_wake
                0x000000000008100c                priority_disinherit
                0x0000000000081044                wakeup_thread_
                0x0000000000081140                switch_thread
                0x00000000000812c8                sleep_thread
                0x0000000000081364                block_thread_
                0x0000000000081458                core_idle
                0x00000000000814b8                create_thread
                0x0000000000081600                thread_wait
                0x00000000000816e8                thread_set_priority
                0x000000000008183c                thread_get_priority
                0x0000000000081874                thread_thaw
                0x00000000000818f4                switch_core
                0x0000000000081978                trigger_cpu_boost
                0x00000000000819ac                cancel_cpu_boost
                0x00000000000819e0                thread_exit
 .text.unlikely
                0x0000000000081ab0       0x14 /home/jbrawley/Desktop/rockbox-photo-cf-support/build/firmware/libfirmware.a(thread.o)
 .text          0x0000000000081ac4      0x378 /home/jbrawley/Desktop/rockbox-photo-cf-support/build/firmware/libfirmware.a(thread-common.o)
                0x0000000000081ac4                thread_alloc
                0x0000000000081b30                thread_free
                0x0000000000081b7c                new_thread_id
                0x0000000000081b94                wait_queue_wake
                0x0000000000081bd0                thread_self
                0x0000000000081bf4                sleep
                0x0000000000081c18                yield
                0x0000000000081c28                format_thread_name
                0x0000000000081c74                core_get_debug_info
                0x0000000000081ce0                thread_get_debug_info
 .text          0x0000000000081e3c       0x7c /home/jbrawley/Desktop/rockbox-photo-cf-support/build/firmware/libfirmware.a(tick.o)
                0x0000000000081e3c                tick_add_task
                0x0000000000081e8c                tick_remove_task
 .text          0x0000000000081eb8      0x14c /home/jbrawley/Desktop/rockbox-photo-cf-support/build/firmware/libfirmware.a(timeout.o)
                0x0000000000081eb8                timeout_cancel
                0x0000000000081f6c                timeout_register
 .text          0x0000000000082004      0x174 /home/jbrawley/Desktop/rockbox-photo-cf-support/build/firmware/libfirmware.a(rb-loader.o)
                0x00000000000820f0                load_firmware
 .text          0x0000000000082178      0x4bc /home/jbrawley/Desktop/rockbox-photo-cf-support/build/firmware/libfirmware.a(ap_int.o)
                0x0000000000082178                round_number_string10
                0x00000000000821d8                format_ap_int10
                0x00000000000823c0                format_ap_frac10
 .text          0x0000000000082634      0x474 /home/jbrawley/Desktop/rockbox-photo-cf-support/build/firmware/libfirmware.a(disk_cache.o)
                0x0000000000082674                dc_cache_probe
                0x0000000000082818                dc_dirty_buf
                0x000000000008284c                dc_discard_buf
                0x0000000000082894                dc_commit_all
                0x000000000008292c                dc_discard_all
                0x00000000000829a4                dc_get_buffer
                0x0000000000082a40                dc_release_buffer
 .text          0x0000000000082aa8      0x33c /home/jbrawley/Desktop/rockbox-photo-cf-support/build/firmware/libfirmware.a(font_cache.o)
                0x0000000000082b58                font_cache_create
                0x0000000000082c00                font_cache_get
 .text          0x0000000000082de4       0x60 /home/jbrawley/Desktop/rockbox-photo-cf-support/build/firmware/libfirmware.a(i2s-pp.o)
                0x0000000000082de4                i2s_reset
 .text          0x0000000000082e44       0x58 /home/jbrawley/Desktop/rockbox-photo-cf-support/build/firmware/libfirmware.a(kernel-pp.o)
                0x0000000000082e44                TIMER1
 .text          0x0000000000082e9c      0x124 /home/jbrawley/Desktop/rockbox-photo-cf-support/build/lib/libunwarminder.a(backtrace-unwarminder.o)
                0x0000000000082f18                CliInvalidateW
                0x0000000000082f2c                rb_backtrace
 .text          0x0000000000082fc0       0x34 /home/jbrawley/Desktop/rockbox-photo-cf-support/build/lib/libunwarminder.a(get_sp.o)
                0x0000000000082fc0                __get_sp
 .text          0x0000000000082ff4       0x48 /home/jbrawley/Desktop/rockbox-photo-cf-support/build/lib/libunwarminder.a(unwarminder.o)
                0x0000000000082ff4                UnwindStart
 .text          0x000000000008303c      0x744 /home/jbrawley/Desktop/rockbox-photo-cf-support/build/lib/libunwarminder.a(unwarm_thumb.o)
                0x000000000008303c                UnwStartThumb
 .text.safe_read8
                0x0000000000083780       0x34 /home/jbrawley/Desktop/rockbox-photo-cf-support/build/lib/libunwarminder.a(safe_read.o)
                0x0000000000083780                safe_read8
 .text.safe_read16
                0x00000000000837b4       0x34 /home/jbrawley/Desktop/rockbox-photo-cf-support/build/lib/libunwarminder.a(safe_read.o)
                0x00000000000837b4                safe_read16
 .text.safe_read32
                0x00000000000837e8       0x34 /home/jbrawley/Desktop/rockbox-photo-cf-support/build/lib/libunwarminder.a(safe_read.o)
                0x00000000000837e8                safe_read32
 .text.data_abort_handler
                0x000000000008381c       0x58 /home/jbrawley/Desktop/rockbox-photo-cf-support/build/lib/libunwarminder.a(safe_read.o)
                0x000000000008381c                data_abort_handler
 .text          0x0000000000083874      0x6b8 /home/jbrawley/Desktop/rockbox-photo-cf-support/build/lib/libunwarminder.a(unwarm_arm.o)
                0x0000000000083874                UnwStartArm
 .text          0x0000000000083f2c      0x110 /home/jbrawley/Desktop/rockbox-photo-cf-support/build/lib/libunwarminder.a(unwarm.o)
                0x0000000000083f2c                UnwInvalidateRegisterFile
                0x0000000000083f48                UnwInitState
                0x0000000000083f98                UnwReportRetAddr
                0x0000000000083fa8                UnwMemWriteRegister
                0x0000000000083fcc                UnwMemReadRegister
 .text          0x000000000008403c      0x1cc /home/jbrawley/Desktop/rockbox-photo-cf-support/build/lib/libunwarminder.a(unwarmmem.o)
                0x00000000000840bc                UnwMemHashRead
                0x0000000000084134                UnwMemHashWrite
                0x00000000000841ac                UnwMemHashGC
 .text          0x0000000000084208       0xb8 /home/jbrawley/Desktop/rockbox-photo-cf-support/build/lib/libskin_parser.a(skin_buffer.o)
                0x0000000000084208                skin_buffer_to_offset
                0x0000000000084224                skin_buffer_from_offset
                0x0000000000084240                skin_buffer_init
                0x0000000000084258                skin_buffer_usage
                0x000000000008426c                skin_buffer_freespace
                0x000000000008428c                skin_buffer_alloc
 .text          0x00000000000842c0     0x14d0 /home/jbrawley/Desktop/rockbox-photo-cf-support/build/lib/libskin_parser.a(skin_parser.o)
                0x0000000000084334                skin_alloc_string
                0x0000000000085460                skin_parse
                0x000000000008578c                skin_free_tree
 .text          0x0000000000085790      0x41c /home/jbrawley/Desktop/rockbox-photo-cf-support/build/lib/libskin_parser.a(skin_scan.o)
                0x0000000000085790                skip_comment
                0x00000000000857bc                skip_tag
                0x0000000000085958                scan_string
                0x0000000000085a68                scan_int
                0x0000000000085b4c                check_viewport
 .text          0x0000000000085bac       0x84 /home/jbrawley/Desktop/rockbox-photo-cf-support/build/lib/libskin_parser.a(tag_table.o)
                0x0000000000085bac                find_tag
                0x0000000000085c00                find_escape_character
 .text          0x0000000000085c30      0x3b4 /home/jbrawley/Desktop/rockbox-photo-cf-support/build/lib/libarm_support.a(support-arm.o)
                0x0000000000085c40                __clzsi2
                0x0000000000085ca8                __aeabi_uidiv
                0x0000000000085ca8                __aeabi_uidivmod
                0x0000000000085e4c                __aeabi_idiv
                0x0000000000085e4c                __aeabi_idivmod
 .text.__popcountsi2
                0x0000000000085fe4       0x44 /home/jbrawley/Desktop/rockbox-photo-cf-support/build/lib/libarm_support.a(support-arm.o)
                0x0000000000085fe4                __popcountsi2
                0x0000000000085fe4                __popcountdi2
 .text.fp_sincos
                0x0000000000086028       0x8c /home/jbrawley/Desktop/rockbox-photo-cf-support/build/lib/libfixedpoint.a(fixedpoint.o)
                0x0000000000086028                fp_sincos
 .text.ipow     0x00000000000860b4       0x48 /home/jbrawley/Desktop/rockbox-photo-cf-support/build/lib/libfixedpoint.a(fixedpoint.o)
                0x00000000000860b4                ipow
 .text.fp_exp10
                0x00000000000860fc      0x1a0 /home/jbrawley/Desktop/rockbox-photo-cf-support/build/lib/libfixedpoint.a(fixedpoint.o)
                0x00000000000860fc                fp_exp10
 .text.fp_log10
                0x000000000008629c       0xb0 /home/jbrawley/Desktop/rockbox-photo-cf-support/build/lib/libfixedpoint.a(fixedpoint.o)
                0x000000000008629c                fp_log10
 .text.fp_factor
                0x000000000008634c       0x30 /home/jbrawley/Desktop/rockbox-photo-cf-support/build/lib/libfixedpoint.a(fixedpoint.o)
                0x000000000008634c                fp_factor
 .text          0x000000000008637c       0x1c /usr/local/lib/gcc/arm-elf-eabi/4.9.4/libgcc.a(_lshrdi3.o)
                0x000000000008637c                __aeabi_llsr
                0x000000000008637c                __lshrdi3
 .text          0x0000000000086398       0x1c /usr/local/lib/gcc/arm-elf-eabi/4.9.4/libgcc.a(_ashrdi3.o)
                0x0000000000086398                __ashrdi3
                0x0000000000086398                __aeabi_lasr
 .text          0x00000000000863b4       0x1c /usr/local/lib/gcc/arm-elf-eabi/4.9.4/libgcc.a(_ashldi3.o)
                0x00000000000863b4                __ashldi3
                0x00000000000863b4                __aeabi_llsl
 .text          0x00000000000863d0      0x41c /usr/local/lib/gcc/arm-elf-eabi/4.9.4/libgcc.a(_arm_addsubdf3.o)
                0x00000000000863d0                __aeabi_drsub
                0x00000000000863d8                __aeabi_dsub
                0x00000000000863d8                __subdf3
                0x00000000000863dc                __adddf3
                0x00000000000863dc                __aeabi_dadd
                0x00000000000866ec                __aeabi_ui2d
                0x00000000000866ec                __floatunsidf
                0x0000000000086710                __floatsidf
                0x0000000000086710                __aeabi_i2d
                0x0000000000086738                __extendsfdf2
                0x0000000000086738                __aeabi_f2d
                0x0000000000086778                __aeabi_ul2d
                0x0000000000086778                __floatundidf
                0x000000000008678c                __floatdidf
                0x000000000008678c                __aeabi_l2d
 .text          0x00000000000867ec      0x49c /usr/local/lib/gcc/arm-elf-eabi/4.9.4/libgcc.a(_arm_muldivdf3.o)
                0x00000000000867ec                __aeabi_dmul
                0x00000000000867ec                __muldf3
                0x0000000000086a7c                __aeabi_ddiv
                0x0000000000086a7c                __divdf3
 .text          0x0000000000086c88       0x5c /usr/local/lib/gcc/arm-elf-eabi/4.9.4/libgcc.a(_arm_fixdfsi.o)
                0x0000000000086c88                __fixdfsi
                0x0000000000086c88                __aeabi_d2iz
 .text          0x0000000000086ce4       0x48 /usr/local/lib/gcc/arm-elf-eabi/4.9.4/libgcc.a(_aeabi_ldivmod.o)
                0x0000000000086ce4                __aeabi_ldivmod
 .text          0x0000000000086d2c       0x3c /usr/local/lib/gcc/arm-elf-eabi/4.9.4/libgcc.a(_aeabi_uldivmod.o)
                0x0000000000086d2c                __aeabi_uldivmod
 .text          0x0000000000086d68       0x24 /usr/local/lib/gcc/arm-elf-eabi/4.9.4/libgcc.a(_ctzdi2.o)
                0x0000000000086d68                __ctzdi2
 .text          0x0000000000086d8c       0x84 /usr/local/lib/gcc/arm-elf-eabi/4.9.4/libgcc.a(bpabi.o)
                0x0000000000086d8c                __gnu_ldivmod_helper
                0x0000000000086dd0                __gnu_uldivmod_helper
 .text          0x0000000000086e10        0x4 /usr/local/lib/gcc/arm-elf-eabi/4.9.4/libgcc.a(_dvmd_tls.o)
                0x0000000000086e10                __aeabi_ldiv0
                0x0000000000086e10                __aeabi_idiv0
 .text          0x0000000000086e14       0x50 /usr/local/lib/gcc/arm-elf-eabi/4.9.4/libgcc.a(_ctzsi2.o)
                0x0000000000086e14                __ctzsi2
 .text          0x0000000000086e64      0x178 /usr/local/lib/gcc/arm-elf-eabi/4.9.4/libgcc.a(_divdi3.o)
                0x0000000000086e64                __divdi3
 .text          0x0000000000086fdc      0x120 /usr/local/lib/gcc/arm-elf-eabi/4.9.4/libgcc.a(_udivdi3.o)
                0x0000000000086fdc                __udivdi3
 .text          0x00000000000870fc       0x28 /usr/local/lib/gcc/arm-elf-eabi/4.9.4/libgcc.a(_clzdi2.o)
                0x00000000000870fc                __clzdi2
 *fill*         0x0000000000087124        0x4 
 .text.__stub   0x0000000000087128       0xc0 linker stubs
 *(.glue_7)
 .glue_7        0x00000000000871e8        0x0 linker stubs
 *(.glue_7t)
 .glue_7t       0x00000000000871e8        0x0 linker stubs
                0x00000000000871e8                . = ALIGN (0x4)

.vfp11_veneer   0x00000000000871e8        0x0
 .vfp11_veneer  0x00000000000871e8        0x0 linker stubs

.v4_bx          0x00000000000871e8        0x0
 .v4_bx         0x00000000000871e8        0x0 linker stubs

.iplt           0x00000000000871e8        0x0
 .iplt          0x00000000000871e8        0x0 /home/jbrawley/Desktop/rockbox-photo-cf-support/build/firmware/target/arm/pp/crt0-pp.o

.rodata         0x00000000000871e8    0x17d8c
 *(.rodata)
 .rodata        0x00000000000871e8       0x40 /home/jbrawley/Desktop/rockbox-photo-cf-support/build/apps/bookmark.o
 .rodata        0x0000000000087228       0xc0 /home/jbrawley/Desktop/rockbox-photo-cf-support/build/apps/debug_menu.o
 .rodata        0x00000000000872e8      0x318 /home/jbrawley/Desktop/rockbox-photo-cf-support/build/apps/filetypes.o
 .rodata        0x0000000000087600       0x30 /home/jbrawley/Desktop/rockbox-photo-cf-support/build/apps/menu.o
 .rodata        0x0000000000087630      0x22c /home/jbrawley/Desktop/rockbox-photo-cf-support/build/apps/menus/display_menu.o
                0x0000000000087660                display_menu
                0x0000000000087684                peak_meter_menu
                0x000000000008769c                peak_meter_max_item
                0x00000000000876b8                peak_meter_min_item
                0x00000000000876d4                peak_meter_scale_item
                0x0000000000087720                scroll_settings_menu
                0x00000000000877bc                lcd_settings
                0x00000000000877e0                sel_backlight
                0x00000000000877f8                sel_backlight_mask
 .rodata        0x000000000008785c      0x288 /home/jbrawley/Desktop/rockbox-photo-cf-support/build/apps/menus/theme_menu.o
                0x000000000008788c                theme_menu
                0x00000000000878bc                browse_themes
                0x00000000000878e8                browse_wps
                0x0000000000087908                browse_fms
                0x0000000000087928                browse_sbs
                0x0000000000087948                browse_fonts
                0x0000000000087968                bars_menu
                0x00000000000879bc                colors_settings
                0x00000000000879d4                lss_settings
                0x00000000000879ec                reset_colors
                0x0000000000087a08                set_sep_col
                0x0000000000087a28                set_lst_col
                0x0000000000087a48                set_lse_col
                0x0000000000087a68                set_lss_col
                0x0000000000087a88                set_fg_col
                0x0000000000087aa8                set_bg_col
                0x0000000000087ac8                clear_main_bd
 .rodata        0x0000000000087ae4       0x90 /home/jbrawley/Desktop/rockbox-photo-cf-support/build/apps/menus/plugin_menu.o
                0x0000000000087afc                plugin_menu
                0x0000000000087b14                demos_item
                0x0000000000087b34                apps_item
                0x0000000000087b54                games_item
 .rodata        0x0000000000087b74      0x144 /home/jbrawley/Desktop/rockbox-photo-cf-support/build/apps/menus/radio_menu.o
                0x0000000000087b74                radio_settings_menu
                0x0000000000087b8c                scan_presets_item
                0x0000000000087bac                radio_mode_item
                0x0000000000087bf4                presetclear_item
                0x0000000000087c10                presetsave_item
                0x0000000000087c2c                presetload_item
                0x0000000000087c48                radio_addpreset_item
                0x0000000000087c64                radio_presets_item
                0x0000000000087c80                recsettings_item
                0x0000000000087c9c                recscreen_item
 .rodata        0x0000000000087cb8      0x108 /home/jbrawley/Desktop/rockbox-photo-cf-support/build/apps/menus/eq_menu.o
                0x0000000000087d00                equalizer_menu
                0x0000000000087d18                eq_browse
                0x0000000000087d38                eq_save
                0x0000000000087d54                eq_graphical
                0x0000000000087d70                advanced_menu
                0x0000000000087d8c                gain_menu
 .rodata        0x0000000000087dc0        0xa /home/jbrawley/Desktop/rockbox-photo-cf-support/build/apps/buffering.o
 .rodata        0x0000000000087dca        0x6 /home/jbrawley/Desktop/rockbox-photo-cf-support/build/apps/voice_thread.o
 .rodata        0x0000000000087dd0      0x198 /home/jbrawley/Desktop/rockbox-photo-cf-support/build/apps/menus/main_menu.o
                0x0000000000087df0                main_menu_
                0x0000000000087e08                info_menu
                0x0000000000087e20                debug_menu_item
                0x0000000000087e3c                show_runtime_item
                0x0000000000087e58                show_credits_item
                0x0000000000087e74                timedate_item
                0x0000000000087e90                show_info_item
                0x0000000000087eac                manage_settings
                0x0000000000087ec4                reset_settings_item
                0x0000000000087ee0                save_sound_item
                0x0000000000087f00                save_theme_item
                0x0000000000087f20                save_settings_item
                0x0000000000087f40                browse_configs
 .rodata        0x0000000000087f68      0x1d4 /home/jbrawley/Desktop/rockbox-photo-cf-support/build/apps/menus/playback_menu.o
                0x0000000000087f80                playback_settings
                0x0000000000087fe0                unplug_menu
                0x0000000000088040                replaygain_settings_menu
                0x000000000008807c                crossfade_settings_menu
                0x0000000000088100                ff_rewind_settings_menu
 .rodata        0x000000000008813c      0x140 /home/jbrawley/Desktop/rockbox-photo-cf-support/build/apps/menus/playlist_menu.o
                0x000000000008813c                playlist_options
                0x0000000000088154                playlist_settings
                0x000000000008816c                currentplaylist_settings_menu
                0x00000000000881c0                viewer_settings_menu
                0x00000000000881fc                clear_catalog_directory_item
                0x0000000000088224                save_playlist
                0x0000000000088244                view_cur_playlist
                0x0000000000088260                create_playlist_item
 .rodata        0x000000000008827c      0x21c /home/jbrawley/Desktop/rockbox-photo-cf-support/build/apps/menus/recording_menu.o
                0x000000000008827c                recsource
                0x00000000000882f0                recording_settings_menu
                0x00000000000882fc                recording_settings
                0x0000000000088328                save_recpresets_item
                0x0000000000088344                browse_recconfigs
                0x0000000000088364                rectrigger_item
                0x000000000008838c                clear_rec_directory_item
                0x00000000000883b4                filesplitoptionsmenu
                0x00000000000883fc                enc_global_config_menu_item
                0x0000000000088418                recformat
                0x0000000000088434                recmonomode
                0x0000000000088450                recchannels
                0x000000000008846c                recfrequency
 .rodata        0x0000000000088498      0x4fc /home/jbrawley/Desktop/rockbox-photo-cf-support/build/apps/menus/settings_menu.o
                0x0000000000088498                file_menu
                0x00000000000884c0                settings_menu_item
                0x00000000000884d8                browse_langs
                0x00000000000884f8                hotkey_menu
                0x0000000000088528                wps_set_context_plugin
                0x0000000000088544                voice_settings_menu
                0x00000000000885b0                autoresume_menu
                0x00000000000885e0                bookmark_settings_menu
                0x0000000000088628                startup_shutdown_menu
                0x000000000008867c                sleeptimer_toggle
                0x00000000000886b8                system_menu
                0x0000000000088724                car_adapter_mode_menu
                0x0000000000088754                keyclick_menu
                0x00000000000887a8                limits_menu
                0x00000000000887e4                disk_menu
                0x0000000000088814                battery_menu
                0x0000000000088850                clear_start_directory_item
                0x00000000000888cc                tagcache_menu
                0x00000000000888e4                tc_paths
                0x0000000000088900                tc_import
                0x000000000008891c                tc_export
                0x0000000000088944                tc_update
                0x0000000000088960                tc_init
 .rodata        0x0000000000088994      0x1d4 /home/jbrawley/Desktop/rockbox-photo-cf-support/build/apps/menus/sound_menu.o
                0x0000000000088994                sound_settings
                0x00000000000889ac                compressor_menu
                0x0000000000088a0c                surround_menu
                0x0000000000088a6c                pbe_menu
                0x0000000000088ac0                crossfeed_menu
 .rodata        0x0000000000088b68       0x84 /home/jbrawley/Desktop/rockbox-photo-cf-support/build/apps/menus/time_menu.o
                0x0000000000088b68                time_menu
                0x0000000000088b8c                alarm_wake_up_screen
                0x0000000000088ba8                alarm_screen_call
                0x0000000000088bd0                time_set
 .rodata        0x0000000000088bec       0xc8 /home/jbrawley/Desktop/rockbox-photo-cf-support/build/apps/misc.o
                0x0000000000088c48                unit_strings_core
                0x0000000000088ca0                kibyte_units
                0x0000000000088ca4                byte_units
 .rodata        0x0000000000088cb4        0x2 /home/jbrawley/Desktop/rockbox-photo-cf-support/build/apps/open_plugin.o
 *fill*         0x0000000000088cb6        0x2 
 .rodata        0x0000000000088cb8      0x6b4 /home/jbrawley/Desktop/rockbox-photo-cf-support/build/apps/onplay.o
                0x0000000000088cb8                bookmark_create_menu_item
                0x0000000000088cc4                bookmark_load_menu_item
                0x0000000000088ce8                track_info_item
                0x0000000000088cf4                pictureflow_item
                0x0000000000088d00                clipboard_paste_item
                0x0000000000088d0c                create_dir_item
                0x0000000000088d18                rename_file_item
                0x0000000000088d24                clipboard_cut_item
                0x0000000000088d30                clipboard_copy_item
                0x0000000000088d3c                properties_item
                0x0000000000088d48                add_to_faves_item
                0x0000000000088d54                delete_dir_item
                0x0000000000088d60                set_startdir_item
                0x0000000000088d6c                set_catalogdir_item
                0x0000000000088d84                set_recdir_item
                0x0000000000088d90                delete_file_item
                0x0000000000088d9c                list_viewers_item
                0x0000000000088da8                set_backdrop_item
                0x0000000000088dc4                view_playlist_item
                0x000000000008902c                pitch_screen_item
                0x0000000000089048                browse_id3_item
                0x0000000000089064                view_cue_item
                0x0000000000089098                rating_item
                0x00000000000890c0                cat_add_to_new
                0x00000000000890dc                cat_add_to_list
                0x0000000000089104                replace_shuf_pl_item
                0x0000000000089124                replace_pl_item
                0x0000000000089150                q_last_shuf_pl_item
                0x0000000000089170                q_shuf_pl_item
                0x0000000000089190                q_last_pl_item
                0x00000000000891b0                q_first_pl_item
                0x00000000000891d0                q_pl_item
                0x00000000000891f0                i_last_shuf_pl_item
                0x0000000000089210                i_shuf_pl_item
                0x0000000000089230                i_last_pl_item
                0x0000000000089250                i_first_pl_item
                0x0000000000089270                i_pl_item
                0x00000000000892a8                playing_time_item
                0x00000000000892c4                reshuffle_item
                0x00000000000892e0                playlist_save_item
                0x00000000000892fc                search_playlist_item
                0x0000000000089318                wps_view_cur_playlist_item
 .rodata        0x000000000008936c       0x48 /home/jbrawley/Desktop/rockbox-photo-cf-support/build/apps/playlist.o
 .rodata        0x00000000000893b4       0x38 /home/jbrawley/Desktop/rockbox-photo-cf-support/build/apps/playlist_viewer.o
 .rodata        0x00000000000893ec      0x630 /home/jbrawley/Desktop/rockbox-photo-cf-support/build/apps/plugin.o
 .rodata        0x0000000000089a1c      0x1c0 /home/jbrawley/Desktop/rockbox-photo-cf-support/build/apps/root_menu.o
 .rodata        0x0000000000089bdc       0x70 /home/jbrawley/Desktop/rockbox-photo-cf-support/build/apps/screens.o
 .rodata        0x0000000000089c4c       0x20 /home/jbrawley/Desktop/rockbox-photo-cf-support/build/apps/settings.o
 .rodata        0x0000000000089c6c     0x1c3f /home/jbrawley/Desktop/rockbox-photo-cf-support/build/apps/settings_list.o
                0x0000000000089c6c                settings
                0x000000000008b658                nb_settings
 *fill*         0x000000000008b8ab        0x1 
 .rodata        0x000000000008b8ac       0x38 /home/jbrawley/Desktop/rockbox-photo-cf-support/build/apps/shortcuts.o
 .rodata        0x000000000008b8e4       0x50 /home/jbrawley/Desktop/rockbox-photo-cf-support/build/apps/cuesheet.o
 .rodata        0x000000000008b934       0x90 /home/jbrawley/Desktop/rockbox-photo-cf-support/build/apps/talk.o
                0x000000000008b9bc                file_thumbnail_ext
                0x000000000008b9c0                dir_thumbnail_name
 .rodata        0x000000000008b9c4       0x62 /home/jbrawley/Desktop/rockbox-photo-cf-support/build/apps/tree.o
 *fill*         0x000000000008ba26        0x2 
 .rodata        0x000000000008ba28      0x214 /home/jbrawley/Desktop/rockbox-photo-cf-support/build/apps/tagtree.o
 .rodata        0x000000000008bc3c        0x4 /home/jbrawley/Desktop/rockbox-photo-cf-support/build/apps/iap/iap-core.o
 .rodata        0x000000000008bc40       0x54 /home/jbrawley/Desktop/rockbox-photo-cf-support/build/apps/iap/iap-lingo4.o
 .rodata        0x000000000008bc94       0x10 /home/jbrawley/Desktop/rockbox-photo-cf-support/build/apps/gui/quickscreen.o
 .rodata        0x000000000008bca4        0xd /home/jbrawley/Desktop/rockbox-photo-cf-support/build/apps/gui/mask_select.o
 *fill*         0x000000000008bcb1        0x3 
 .rodata        0x000000000008bcb4       0x30 /home/jbrawley/Desktop/rockbox-photo-cf-support/build/apps/gui/skin_engine/skin_engine.o
 .rodata        0x000000000008bce4       0x50 /home/jbrawley/Desktop/rockbox-photo-cf-support/build/apps/gui/skin_engine/skin_parser.o
 .rodata        0x000000000008bd34       0x50 /home/jbrawley/Desktop/rockbox-photo-cf-support/build/apps/recorder/bmp.o
                0x000000000008bd34                dither_table
 .rodata        0x000000000008bd84      0x12a /home/jbrawley/Desktop/rockbox-photo-cf-support/build/apps/recorder/icons.o
                0x000000000008bd84                core_bitmaps
                0x000000000008bd9c                bitmap_icon_disk
                0x000000000008bda8                bitmap_formats_18x8
                0x000000000008bdf0                bitmap_glyphs_4x8
                0x000000000008be1c                bitmap_icons_7x8
                0x000000000008be9a                bitmap_icons_5x8
 .rodata        0x000000000008beae       0x2a /home/jbrawley/Desktop/rockbox-photo-cf-support/build/apps/recorder/keyboard.o
 .rodata        0x000000000008bed8       0x18 /home/jbrawley/Desktop/rockbox-photo-cf-support/build/apps/recorder/peakmeter.o
 .rodata        0x000000000008bef0      0x770 /home/jbrawley/Desktop/rockbox-photo-cf-support/build/apps/recorder/jpeg_load.o
                0x000000000008c65c                JPEG_DECODE_OVERHEAD
 .rodata        0x000000000008c660       0x10 /home/jbrawley/Desktop/rockbox-photo-cf-support/build/apps/recorder/albumart.o
 .rodata        0x000000000008c670       0x1b /home/jbrawley/Desktop/rockbox-photo-cf-support/build/apps/gui/color_picker.o
 *fill*         0x000000000008c68b        0x1 
 .rodata        0x000000000008c68c       0x2c /home/jbrawley/Desktop/rockbox-photo-cf-support/build/apps/recorder/recording.o
 .rodata        0x000000000008c6b8       0x50 /home/jbrawley/Desktop/rockbox-photo-cf-support/build/apps/radio/presets.o
                0x000000000008c6b8                handle_radio_preset_menu
                0x000000000008c6d0                radio_delete_preset_item
                0x000000000008c6ec                radio_edit_preset_item
 .rodata        0x000000000008c708        0x6 /home/jbrawley/Desktop/rockbox-photo-cf-support/build/apps/audio_thread.o
 .rodata        0x000000000008c70e        0xb /home/jbrawley/Desktop/rockbox-photo-cf-support/build/apps/pcmbuf.o
 .rodata        0x000000000008c719        0x6 /home/jbrawley/Desktop/rockbox-photo-cf-support/build/apps/codec_thread.o
 *fill*         0x000000000008c71f        0x1 
 .rodata        0x000000000008c720       0x48 /home/jbrawley/Desktop/rockbox-photo-cf-support/build/apps/playback.o
 .rodata        0x000000000008c768       0xe8 /home/jbrawley/Desktop/rockbox-photo-cf-support/build/apps/enc_config.o
                0x000000000008c818                mp3_enc_menu
                0x000000000008c830                mp3_bitrate
 .rodata        0x000000000008c850       0x28 /home/jbrawley/Desktop/rockbox-photo-cf-support/build/apps/recorder/pcm_record.o
 .rodata        0x000000000008c878      0x250 /home/jbrawley/Desktop/rockbox-photo-cf-support/build/apps/usb_keymaps.o
 .rodata        0x000000000008cac8       0x81 /home/jbrawley/Desktop/rockbox-photo-cf-support/build/apps/tagcache.o
 *fill*         0x000000000008cb49        0x3 
 .rodata        0x000000000008cb4c      0xa38 /home/jbrawley/Desktop/rockbox-photo-cf-support/build/apps/keymaps/keymap-ipod.o
                0x000000000008d0d4                button_context_recscreen
 .rodata        0x000000000008d584       0xd8 /home/jbrawley/Desktop/rockbox-photo-cf-support/build/apps/bitmaps/mono/default_icons.o
                0x000000000008d584                bm_default_icons
                0x000000000008d59c                default_icons
 .rodata        0x000000000008d65c     0x4218 /home/jbrawley/Desktop/rockbox-photo-cf-support/build/apps/bitmaps/native/usblogo.176x48x16.o
                0x000000000008d65c                bm_usblogo
                0x000000000008d674                usblogo
 .rodata        0x0000000000091874     0x3111 /home/jbrawley/Desktop/rockbox-photo-cf-support/build/lang/lang_core.o
                0x0000000000091874                core_language_builtin
 *fill*         0x0000000000094985        0x3 
 .rodata        0x0000000000094988      0x1d0 /home/jbrawley/Desktop/rockbox-photo-cf-support/build/lib/rbcodec/codecs/libspeex-voice.a(modes_wb.o)
                0x0000000000094988                speex_mode_list
                0x0000000000094994                speex_wb_mode
 .rodata        0x0000000000094b58       0x2a /home/jbrawley/Desktop/rockbox-photo-cf-support/build/lib/rbcodec/codecs/libspeex-voice.a(filters.o)
 .rodata        0x0000000000094b82      0x140 /home/jbrawley/Desktop/rockbox-photo-cf-support/build/lib/rbcodec/codecs/libspeex-voice.a(hexc_10_32_table.o)
                0x0000000000094b82                hexc_10_32_table
 .rodata        0x0000000000094cc2      0x400 /home/jbrawley/Desktop/rockbox-photo-cf-support/build/lib/rbcodec/codecs/libspeex-voice.a(hexc_table.o)
                0x0000000000094cc2                hexc_table
 .rodata        0x00000000000950c2      0x400 /home/jbrawley/Desktop/rockbox-photo-cf-support/build/lib/rbcodec/codecs/libspeex-voice.a(high_lsp_tables.o)
                0x00000000000950c2                high_lsp_cdbk2
                0x00000000000952c2                high_lsp_cdbk
 .rodata        0x00000000000954c2      0x780 /home/jbrawley/Desktop/rockbox-photo-cf-support/build/lib/rbcodec/codecs/libspeex-voice.a(lsp_tables_nb.o)
                0x00000000000954c2                cdbk_nb_high2
                0x0000000000095602                cdbk_nb_high1
                0x0000000000095742                cdbk_nb_low2
                0x0000000000095882                cdbk_nb_low1
                0x00000000000959c2                cdbk_nb
 *fill*         0x0000000000095c42        0x2 
 .rodata        0x0000000000095c44      0x318 /home/jbrawley/Desktop/rockbox-photo-cf-support/build/lib/rbcodec/codecs/libspeex-voice.a(modes.o)
                0x0000000000095c44                speex_nb_mode
 .rodata        0x0000000000095f5c       0x24 /home/jbrawley/Desktop/rockbox-photo-cf-support/build/lib/rbcodec/codecs/libspeex-voice.a(nb_celp.o)
                0x0000000000095f6c                attenuation
 .rodata        0x0000000000095f80       0xa0 /home/jbrawley/Desktop/rockbox-photo-cf-support/build/lib/rbcodec/codecs/libspeex-voice.a(exc_10_16_table.o)
                0x0000000000095f80                exc_10_16_table
 .rodata        0x0000000000096020      0x140 /home/jbrawley/Desktop/rockbox-photo-cf-support/build/lib/rbcodec/codecs/libspeex-voice.a(exc_10_32_table.o)
                0x0000000000096020                exc_10_32_table
 .rodata        0x0000000000096160      0x280 /home/jbrawley/Desktop/rockbox-photo-cf-support/build/lib/rbcodec/codecs/libspeex-voice.a(exc_20_32_table.o)
                0x0000000000096160                exc_20_32_table
 .rodata        0x00000000000963e0      0x500 /home/jbrawley/Desktop/rockbox-photo-cf-support/build/lib/rbcodec/codecs/libspeex-voice.a(exc_5_256_table.o)
                0x00000000000963e0                exc_5_256_table
 .rodata        0x00000000000968e0      0x140 /home/jbrawley/Desktop/rockbox-photo-cf-support/build/lib/rbcodec/codecs/libspeex-voice.a(exc_5_64_table.o)
                0x00000000000968e0                exc_5_64_table
 .rodata        0x0000000000096a20      0x400 /home/jbrawley/Desktop/rockbox-photo-cf-support/build/lib/rbcodec/codecs/libspeex-voice.a(exc_8_128_table.o)
                0x0000000000096a20                exc_8_128_table
 .rodata        0x0000000000096e20      0x200 /home/jbrawley/Desktop/rockbox-photo-cf-support/build/lib/rbcodec/codecs/libspeex-voice.a(gain_table.o)
                0x0000000000096e20                gain_cdbk_nb
 .rodata        0x0000000000097020       0x80 /home/jbrawley/Desktop/rockbox-photo-cf-support/build/lib/rbcodec/codecs/libspeex-voice.a(gain_table_lbr.o)
                0x0000000000097020                gain_cdbk_lbr
 .rodata        0x00000000000970a0      0x5c0 /home/jbrawley/Desktop/rockbox-photo-cf-support/build/lib/librbcodec.a(metadata.o)
                0x00000000000970a0                audio_formats
                0x0000000000097514                rec_format_afmt
 .rodata        0x0000000000097660      0x488 /home/jbrawley/Desktop/rockbox-photo-cf-support/build/lib/librbcodec.a(id3tags.o)
 .rodata        0x0000000000097ae8       0xf4 /home/jbrawley/Desktop/rockbox-photo-cf-support/build/lib/librbcodec.a(mp3data.o)
 .rodata        0x0000000000097bdc      0x11c /home/jbrawley/Desktop/rockbox-photo-cf-support/build/lib/librbcodec.a(compressor.o)
                0x0000000000097cf0                COMPRESSOR_proc_db_entry
 .rodata        0x0000000000097cf8        0x8 /home/jbrawley/Desktop/rockbox-photo-cf-support/build/lib/librbcodec.a(crossfeed.o)
                0x0000000000097cf8                CROSSFEED_proc_db_entry
 .rodata        0x0000000000097d00       0x2c /home/jbrawley/Desktop/rockbox-photo-cf-support/build/lib/librbcodec.a(dsp_core.o)
 .rodata        0x0000000000097d2c        0x8 /home/jbrawley/Desktop/rockbox-photo-cf-support/build/lib/librbcodec.a(pbe.o)
                0x0000000000097d2c                PBE_proc_db_entry
 .rodata        0x0000000000097d34       0x14 /home/jbrawley/Desktop/rockbox-photo-cf-support/build/lib/librbcodec.a(afr.o)
                0x0000000000097d40                AFR_proc_db_entry
 .rodata        0x0000000000097d48        0x8 /home/jbrawley/Desktop/rockbox-photo-cf-support/build/lib/librbcodec.a(surround.o)
                0x0000000000097d48                SURROUND_proc_db_entry
 .rodata        0x0000000000097d50        0x8 /home/jbrawley/Desktop/rockbox-photo-cf-support/build/lib/librbcodec.a(dsp_misc.o)
                0x0000000000097d50                MISC_HANDLER_proc_db_entry
 .rodata        0x0000000000097d58       0x18 /home/jbrawley/Desktop/rockbox-photo-cf-support/build/lib/librbcodec.a(dsp_sample_input.o)
 .rodata        0x0000000000097d70       0x10 /home/jbrawley/Desktop/rockbox-photo-cf-support/build/lib/librbcodec.a(dsp_sample_output.o)
 .rodata        0x0000000000097d80        0x8 /home/jbrawley/Desktop/rockbox-photo-cf-support/build/lib/librbcodec.a(eq.o)
                0x0000000000097d80                EQUALIZER_proc_db_entry
 .rodata        0x0000000000097d88        0x8 /home/jbrawley/Desktop/rockbox-photo-cf-support/build/lib/librbcodec.a(resample.o)
                0x0000000000097d88                RESAMPLE_proc_db_entry
 .rodata        0x0000000000097d90        0x8 /home/jbrawley/Desktop/rockbox-photo-cf-support/build/lib/librbcodec.a(pga.o)
                0x0000000000097d90                PGA_proc_db_entry
 .rodata        0x0000000000097d98       0x18 /home/jbrawley/Desktop/rockbox-photo-cf-support/build/lib/librbcodec.a(tdspeed.o)
                0x0000000000097da8                TIMESTRETCH_proc_db_entry
 .rodata        0x0000000000097db0       0x11 /home/jbrawley/Desktop/rockbox-photo-cf-support/build/lib/librbcodec.a(metadata_common.o)
 *fill*         0x0000000000097dc1        0x1 
 .rodata        0x0000000000097dc2       0x72 /home/jbrawley/Desktop/rockbox-photo-cf-support/build/lib/librbcodec.a(a52.o)
 .rodata        0x0000000000097e34       0x80 /home/jbrawley/Desktop/rockbox-photo-cf-support/build/lib/librbcodec.a(asf.o)
 .rodata        0x0000000000097eb4        0x9 /home/jbrawley/Desktop/rockbox-photo-cf-support/build/lib/librbcodec.a(au.o)
 *fill*         0x0000000000097ebd        0x3 
 .rodata        0x0000000000097ec0       0x30 /home/jbrawley/Desktop/rockbox-photo-cf-support/build/lib/librbcodec.a(mp4.o)
 .rodata        0x0000000000097ef0       0x10 /home/jbrawley/Desktop/rockbox-photo-cf-support/build/lib/librbcodec.a(mpc.o)
 .rodata        0x0000000000097f00       0x10 /home/jbrawley/Desktop/rockbox-photo-cf-support/build/lib/librbcodec.a(oma.o)
 .rodata        0x0000000000097f10       0x38 /home/jbrawley/Desktop/rockbox-photo-cf-support/build/lib/librbcodec.a(smaf.o)
 .rodata        0x0000000000097f48       0xb9 /home/jbrawley/Desktop/rockbox-photo-cf-support/build/lib/librbcodec.a(wave.o)
 *fill*         0x0000000000098001        0x3 
 .rodata        0x0000000000098004       0x3c /home/jbrawley/Desktop/rockbox-photo-cf-support/build/lib/librbcodec.a(wavpack.o)
 .rodata        0x0000000000098040       0x40 /home/jbrawley/Desktop/rockbox-photo-cf-support/build/lib/librbcodec.a(aac.o)
 .rodata        0x0000000000098080       0x20 /home/jbrawley/Desktop/rockbox-photo-cf-support/build/lib/librbcodec.a(channel_mode.o)
                0x0000000000098098                CHANNEL_MODE_proc_db_entry
 .rodata        0x00000000000980a0        0xa /home/jbrawley/Desktop/rockbox-photo-cf-support/build/firmware/libfirmware.a(backlight.o)
 *fill*         0x00000000000980aa        0x2 
 .rodata        0x00000000000980ac       0x1a /home/jbrawley/Desktop/rockbox-photo-cf-support/build/firmware/libfirmware.a(powermgmt.o)
 .rodata        0x00000000000980c6       0x1a /home/jbrawley/Desktop/rockbox-photo-cf-support/build/firmware/libfirmware.a(usb.o)
 .rodata        0x00000000000980e0       0x12 /home/jbrawley/Desktop/rockbox-photo-cf-support/build/firmware/libfirmware.a(version.o)
                0x00000000000980e0                rbversion
 *fill*         0x00000000000980f2        0x2 
 .rodata        0x00000000000980f4       0x80 /home/jbrawley/Desktop/rockbox-photo-cf-support/build/firmware/libfirmware.a(crc32.o)
 .rodata        0x0000000000098174       0x20 /home/jbrawley/Desktop/rockbox-photo-cf-support/build/firmware/libfirmware.a(loader_strerror.o)
 .rodata        0x0000000000098194       0x18 /home/jbrawley/Desktop/rockbox-photo-cf-support/build/firmware/libfirmware.a(dircache.o)
 .rodata        0x00000000000981ac        0xc /home/jbrawley/Desktop/rockbox-photo-cf-support/build/firmware/libfirmware.a(timefuncs.o)
 .rodata        0x00000000000981b8       0xc6 /home/jbrawley/Desktop/rockbox-photo-cf-support/build/firmware/libfirmware.a(unicode.o)
 .rodata        0x000000000009827e        0xc /home/jbrawley/Desktop/rockbox-photo-cf-support/build/firmware/libfirmware.a(vuprintf.o)
 .rodata        0x000000000009828a      0x101 /home/jbrawley/Desktop/rockbox-photo-cf-support/build/firmware/libfirmware.a(ctype.o)
                0x000000000009828a                _ctype_
 *fill*         0x000000000009838b        0x1 
 .rodata        0x000000000009838c       0x30 /home/jbrawley/Desktop/rockbox-photo-cf-support/build/firmware/libfirmware.a(mktime.o)
 .rodata        0x00000000000983bc       0x1a /home/jbrawley/Desktop/rockbox-photo-cf-support/build/firmware/libfirmware.a(gmtime.o)
 .rodata        0x00000000000983d6       0x19 /home/jbrawley/Desktop/rockbox-photo-cf-support/build/firmware/libfirmware.a(scroll_engine.o)
 .rodata        0x00000000000983ef       0x99 /home/jbrawley/Desktop/rockbox-photo-cf-support/build/firmware/libfirmware.a(hangul.o)
                0x00000000000983ef                jamo_table
 .rodata        0x0000000000098488       0x42 /home/jbrawley/Desktop/rockbox-photo-cf-support/build/firmware/libfirmware.a(screendump.o)
 *fill*         0x00000000000984ca        0x2 
 .rodata        0x00000000000984cc       0x40 /home/jbrawley/Desktop/rockbox-photo-cf-support/build/firmware/libfirmware.a(lcd-16bit.o)
                0x00000000000984cc                lcd_fastpixelfuncs_backdrop
                0x00000000000984ec                lcd_fastpixelfuncs_bgcolor
 .rodata        0x000000000009850c      0x238 /home/jbrawley/Desktop/rockbox-photo-cf-support/build/firmware/libfirmware.a(diacritic.o)
 .rodata        0x0000000000098744        0x5 /home/jbrawley/Desktop/rockbox-photo-cf-support/build/firmware/libfirmware.a(storage.o)
 .rodata        0x0000000000098749       0x37 /home/jbrawley/Desktop/rockbox-photo-cf-support/build/firmware/libfirmware.a(fat.o)
 .rodata        0x0000000000098780        0x7 /home/jbrawley/Desktop/rockbox-photo-cf-support/build/firmware/libfirmware.a(rtc_pcf50605.o)
 *fill*         0x0000000000098787        0x1 
 .rodata        0x0000000000098788       0x64 /home/jbrawley/Desktop/rockbox-photo-cf-support/build/firmware/libfirmware.a(tuner.o)
                0x000000000009878c                fm_region_data
 .rodata        0x00000000000987ec       0x34 /home/jbrawley/Desktop/rockbox-photo-cf-support/build/firmware/libfirmware.a(ipod_remote_tuner.o)
 .rodata        0x0000000000098820      0x1c0 /home/jbrawley/Desktop/rockbox-photo-cf-support/build/firmware/libfirmware.a(rds.o)
 .rodata        0x00000000000989e0       0xc8 /home/jbrawley/Desktop/rockbox-photo-cf-support/build/firmware/libfirmware.a(sound.o)
 .rodata        0x0000000000098aa8       0x40 /home/jbrawley/Desktop/rockbox-photo-cf-support/build/firmware/libfirmware.a(pcm_sampr.o)
                0x0000000000098aa8                rec_freq_sampr
                0x0000000000098aac                hw_freq_sampr
                0x0000000000098ab0                audio_master_sampr_list
 .rodata        0x0000000000098ae8       0x48 /home/jbrawley/Desktop/rockbox-photo-cf-support/build/firmware/libfirmware.a(enc_base.o)
                0x0000000000098ae8                mp3_enc_bitr
 .rodata        0x0000000000098b30       0x40 /home/jbrawley/Desktop/rockbox-photo-cf-support/build/firmware/libfirmware.a(wm8975.o)
 .rodata        0x0000000000098b70       0x14 /home/jbrawley/Desktop/rockbox-photo-cf-support/build/firmware/libfirmware.a(system-arm.o)
 .rodata        0x0000000000098b84       0x2c /home/jbrawley/Desktop/rockbox-photo-cf-support/build/firmware/libfirmware.a(ata-pp5020.o)
 .rodata        0x0000000000098bb0        0x6 /home/jbrawley/Desktop/rockbox-photo-cf-support/build/firmware/libfirmware.a(piezo.o)
 .rodata        0x0000000000098bb6       0x30 /home/jbrawley/Desktop/rockbox-photo-cf-support/build/firmware/libfirmware.a(powermgmt-ipod-pcf.o)
                0x0000000000098bb6                percent_to_volt_charge
                0x0000000000098bcc                percent_to_volt_discharge
                0x0000000000098be2                battery_level_shutoff
                0x0000000000098be4                battery_level_dangerous
 *fill*         0x0000000000098be6        0x2 
 .rodata        0x0000000000098be8       0x86 /home/jbrawley/Desktop/rockbox-photo-cf-support/build/firmware/libfirmware.a(usb_core.o)
 .rodata        0x0000000000098c6e       0x1c /home/jbrawley/Desktop/rockbox-photo-cf-support/build/firmware/libfirmware.a(usb_storage.o)
 *fill*         0x0000000000098c8a        0x2 
 .rodata        0x0000000000098c8c       0x18 /home/jbrawley/Desktop/rockbox-photo-cf-support/build/firmware/libfirmware.a(usb-drv-arc.o)
 .rodata        0x0000000000098ca4       0x20 /home/jbrawley/Desktop/rockbox-photo-cf-support/build/firmware/libfirmware.a(backlight-4g_color.o)
 .rodata        0x0000000000098cc4       0x25 /home/jbrawley/Desktop/rockbox-photo-cf-support/build/firmware/libfirmware.a(mrsw_lock.o)
 .rodata        0x0000000000098ce9        0xb /home/jbrawley/Desktop/rockbox-photo-cf-support/build/firmware/libfirmware.a(mutex.o)
 .rodata        0x0000000000098cf4       0x27 /home/jbrawley/Desktop/rockbox-photo-cf-support/build/firmware/libfirmware.a(queue.o)
 .rodata        0x0000000000098d1b        0xf /home/jbrawley/Desktop/rockbox-photo-cf-support/build/firmware/libfirmware.a(semaphore.o)
 *fill*         0x0000000000098d2a        0x2 
 .rodata        0x0000000000098d2c       0x14 /home/jbrawley/Desktop/rockbox-photo-cf-support/build/firmware/libfirmware.a(thread.o)
                0x0000000000098d38                idle_stacks
 .rodata        0x0000000000098d40        0xc /home/jbrawley/Desktop/rockbox-photo-cf-support/build/firmware/libfirmware.a(thread-common.o)
                0x0000000000098d47                __main_thread_name_str
 .rodata        0x0000000000098d4c      0x6f6 /home/jbrawley/Desktop/rockbox-photo-cf-support/build/firmware/libfirmware.a(sysfont.o)
                0x0000000000098d4c                sysfont
 .rodata        0x0000000000099442      0x478 /home/jbrawley/Desktop/rockbox-photo-cf-support/build/firmware/libfirmware.a(arabjoin.o)
                0x0000000000099442                jointable
                0x0000000000099892                lamaleph
                0x00000000000998b2                zwj
 *fill*         0x00000000000998ba        0x2 
 .rodata        0x00000000000998bc       0x10 /home/jbrawley/Desktop/rockbox-photo-cf-support/build/lib/libunwarminder.a(backtrace-unwarminder.o)
                0x00000000000998bc                cliCallbacks
 .rodata        0x00000000000998cc      0xb6a /home/jbrawley/Desktop/rockbox-photo-cf-support/build/lib/libskin_parser.a(tag_table.o)
 *(.rodata*)
 .rodata.str1.1
                0x000000000009a436       0x66 /home/jbrawley/Desktop/rockbox-photo-cf-support/build/apps/bookmark.o
                                         0x77 (size before relaxing)
 .rodata.str1.1
                0x000000000009a49c      0x9e8 /home/jbrawley/Desktop/rockbox-photo-cf-support/build/apps/debug_menu.o
                                        0xa39 (size before relaxing)
 .rodata.str1.1
                0x000000000009ae84      0x161 /home/jbrawley/Desktop/rockbox-photo-cf-support/build/apps/filetypes.o
                                        0x1ce (size before relaxing)
 .rodata.str1.1
                0x000000000009afe5       0xa8 /home/jbrawley/Desktop/rockbox-photo-cf-support/build/apps/main.o
 .rodata.str1.1
                0x000000000009b08d       0x4f /home/jbrawley/Desktop/rockbox-photo-cf-support/build/apps/menu.o
                                         0x50 (size before relaxing)
 .rodata.str1.1
                0x000000000009b0dc       0x4f /home/jbrawley/Desktop/rockbox-photo-cf-support/build/apps/menus/display_menu.o
                                          0x2 (size before relaxing)
 .rodata.str1.1
                0x000000000009b0dc       0x37 /home/jbrawley/Desktop/rockbox-photo-cf-support/build/apps/menus/theme_menu.o
                                         0x51 (size before relaxing)
 .rodata.str1.1
                0x000000000009b113       0x41 /home/jbrawley/Desktop/rockbox-photo-cf-support/build/apps/menus/plugin_menu.o
 .rodata.str1.1
                0x000000000009b154        0x6 /home/jbrawley/Desktop/rockbox-photo-cf-support/build/apps/menus/radio_menu.o
 .rodata.str1.1
                0x000000000009b15a       0x4f /home/jbrawley/Desktop/rockbox-photo-cf-support/build/apps/menus/eq_menu.o
                                         0x65 (size before relaxing)
 .rodata.str1.1
                0x000000000009b1a9       0x4f /home/jbrawley/Desktop/rockbox-photo-cf-support/build/apps/buffering.o
                                          0x5 (size before relaxing)
 .rodata.str1.1
                0x000000000009b1a9       0x6f /home/jbrawley/Desktop/rockbox-photo-cf-support/build/apps/menus/main_menu.o
                                         0x7d (size before relaxing)
 .rodata.str1.1
                0x000000000009b218        0xe /home/jbrawley/Desktop/rockbox-photo-cf-support/build/apps/menus/playlist_menu.o
 .rodata.str1.1
                0x000000000009b226       0x2a /home/jbrawley/Desktop/rockbox-photo-cf-support/build/apps/menus/recording_menu.o
 .rodata.str1.1
                0x000000000009b250       0x4e /home/jbrawley/Desktop/rockbox-photo-cf-support/build/apps/menus/settings_menu.o
                                         0x50 (size before relaxing)
 .rodata.str1.1
                0x000000000009b29e       0x17 /home/jbrawley/Desktop/rockbox-photo-cf-support/build/apps/menus/time_menu.o
                                         0x2a (size before relaxing)
 .rodata.str1.1
                0x000000000009b2b5       0xa9 /home/jbrawley/Desktop/rockbox-photo-cf-support/build/apps/misc.o
                                         0xef (size before relaxing)
 .rodata.str1.1
                0x000000000009b35e       0x61 /home/jbrawley/Desktop/rockbox-photo-cf-support/build/apps/open_plugin.o
                                         0x82 (size before relaxing)
 .rodata.str1.1
                0x000000000009b3bf       0x1b /home/jbrawley/Desktop/rockbox-photo-cf-support/build/apps/onplay.o
                                         0x33 (size before relaxing)
 .rodata.str1.1
                0x000000000009b3da       0xa3 /home/jbrawley/Desktop/rockbox-photo-cf-support/build/apps/playlist.o
                                         0xc9 (size before relaxing)
 .rodata.str1.1
                0x000000000009b47d       0x11 /home/jbrawley/Desktop/rockbox-photo-cf-support/build/apps/playlist_catalog.o
                                         0x24 (size before relaxing)
 .rodata.str1.1
                0x000000000009b48e       0x10 /home/jbrawley/Desktop/rockbox-photo-cf-support/build/apps/playlist_viewer.o
                                         0x2a (size before relaxing)
 .rodata.str1.1
                0x000000000009b49e       0x13 /home/jbrawley/Desktop/rockbox-photo-cf-support/build/apps/plugin.o
 .rodata.str1.1
                0x000000000009b4b1       0x3f /home/jbrawley/Desktop/rockbox-photo-cf-support/build/apps/root_menu.o
                                         0x7b (size before relaxing)
 .rodata.str1.1
                0x000000000009b4f0       0x44 /home/jbrawley/Desktop/rockbox-photo-cf-support/build/apps/screens.o
                                         0x5f (size before relaxing)
 .rodata.str1.1
                0x000000000009b534      0x13f /home/jbrawley/Desktop/rockbox-photo-cf-support/build/apps/settings.o
                                        0x1a0 (size before relaxing)
 .rodata.str1.1
                0x000000000009b673     0x165e /home/jbrawley/Desktop/rockbox-photo-cf-support/build/apps/settings_list.o
                                       0x1705 (size before relaxing)
 .rodata.str1.1
                0x000000000009ccd1       0xa4 /home/jbrawley/Desktop/rockbox-photo-cf-support/build/apps/shortcuts.o
                                         0xdd (size before relaxing)
 .rodata.str1.1
                0x000000000009cd75       0x51 /home/jbrawley/Desktop/rockbox-photo-cf-support/build/apps/cuesheet.o
                                         0x5e (size before relaxing)
 .rodata.str1.1
                0x000000000009cdc6       0x85 /home/jbrawley/Desktop/rockbox-photo-cf-support/build/apps/talk.o
                                         0xa6 (size before relaxing)
 .rodata.str1.1
                0x000000000009ce4b       0x44 /home/jbrawley/Desktop/rockbox-photo-cf-support/build/apps/tree.o
                                         0x65 (size before relaxing)
 .rodata.str1.1
                0x000000000009ce8f      0x1e7 /home/jbrawley/Desktop/rockbox-photo-cf-support/build/apps/tagtree.o
                                        0x212 (size before relaxing)
 .rodata.str1.1
                0x000000000009d076       0x14 /home/jbrawley/Desktop/rockbox-photo-cf-support/build/apps/filetree.o
                                         0x23 (size before relaxing)
 .rodata.str1.1
                0x000000000009d08a       0x38 /home/jbrawley/Desktop/rockbox-photo-cf-support/build/apps/iap/iap-core.o
 .rodata.str1.1
                0x000000000009d0c2       0x19 /home/jbrawley/Desktop/rockbox-photo-cf-support/build/apps/iap/iap-lingo0.o
 .rodata.str1.1
                0x000000000009d0db        0x8 /home/jbrawley/Desktop/rockbox-photo-cf-support/build/apps/iap/iap-lingo3.o
                                          0x9 (size before relaxing)
 .rodata.str1.1
                0x000000000009d0e3        0xe /home/jbrawley/Desktop/rockbox-photo-cf-support/build/apps/iap/iap-lingo4.o
                                         0x21 (size before relaxing)
 .rodata.str1.1
                0x000000000009d0f1       0x1f /home/jbrawley/Desktop/rockbox-photo-cf-support/build/apps/gui/icon.o
                                         0x21 (size before relaxing)
 .rodata.str1.1
                0x000000000009d110        0x7 /home/jbrawley/Desktop/rockbox-photo-cf-support/build/apps/gui/line.o
 .rodata.str1.1
                0x000000000009d117       0x26 /home/jbrawley/Desktop/rockbox-photo-cf-support/build/apps/gui/bitmap/list.o
                                         0x29 (size before relaxing)
 .rodata.str1.1
                0x000000000009d13d        0xf /home/jbrawley/Desktop/rockbox-photo-cf-support/build/apps/gui/option_select.o
 .rodata.str1.1
                0x000000000009d13d       0x2a /home/jbrawley/Desktop/rockbox-photo-cf-support/build/apps/gui/pitchscreen.o
 .rodata.str1.1
                0x000000000009d167        0x7 /home/jbrawley/Desktop/rockbox-photo-cf-support/build/apps/gui/quickscreen.o
 .rodata.str1.1
                0x000000000009d167        0x1 /home/jbrawley/Desktop/rockbox-photo-cf-support/build/apps/gui/mask_select.o
 .rodata.str1.1
                0x000000000009d167       0xca /home/jbrawley/Desktop/rockbox-photo-cf-support/build/apps/gui/wps.o
 .rodata.str1.1
                0x000000000009d231        0x7 /home/jbrawley/Desktop/rockbox-photo-cf-support/build/apps/gui/splash.o
                                         0x11 (size before relaxing)
 .rodata.str1.1
                0x000000000009d238        0x4 /home/jbrawley/Desktop/rockbox-photo-cf-support/build/apps/gui/statusbar.o
                                         0x1d (size before relaxing)
 .rodata.str1.1
                0x000000000009d23c       0x55 /home/jbrawley/Desktop/rockbox-photo-cf-support/build/apps/gui/statusbar-skinned.o
                                         0x57 (size before relaxing)
 .rodata.str1.1
                0x000000000009d291       0x45 /home/jbrawley/Desktop/rockbox-photo-cf-support/build/apps/gui/viewport.o
 .rodata.str1.1
                0x000000000009d2d6       0x12 /home/jbrawley/Desktop/rockbox-photo-cf-support/build/apps/gui/skin_engine/skin_backdrops.o
 .rodata.str1.1
                0x000000000009d2e8        0xd /home/jbrawley/Desktop/rockbox-photo-cf-support/build/apps/gui/skin_engine/skin_display.o
                                         0x13 (size before relaxing)
 .rodata.str1.1
                0x000000000009d2f5       0xe1 /home/jbrawley/Desktop/rockbox-photo-cf-support/build/apps/gui/skin_engine/skin_engine.o
                                        0x101 (size before relaxing)
 .rodata.str1.1
                0x000000000009d3d6       0x9e /home/jbrawley/Desktop/rockbox-photo-cf-support/build/apps/gui/skin_engine/skin_parser.o
                                         0xe2 (size before relaxing)
 .rodata.str1.1
                0x000000000009d474        0x2 /home/jbrawley/Desktop/rockbox-photo-cf-support/build/apps/gui/skin_engine/skin_render.o
 .rodata.str1.1
                0x000000000009d474       0x8b /home/jbrawley/Desktop/rockbox-photo-cf-support/build/apps/gui/skin_engine/skin_tokens.o
                                         0xeb (size before relaxing)
 .rodata.str1.1
                0x000000000009d4ff      0x297 /home/jbrawley/Desktop/rockbox-photo-cf-support/build/apps/recorder/keyboard.o
                                        0x299 (size before relaxing)
 .rodata.str1.1
                0x000000000009d796       0x60 /home/jbrawley/Desktop/rockbox-photo-cf-support/build/apps/recorder/albumart.o
                                         0x6f (size before relaxing)
 .rodata.str1.1
                0x000000000009d7f6        0xc /home/jbrawley/Desktop/rockbox-photo-cf-support/build/apps/gui/color_picker.o
                                         0x14 (size before relaxing)
 .rodata.str1.1
                0x000000000009d802       0x61 /home/jbrawley/Desktop/rockbox-photo-cf-support/build/apps/recorder/recording.o
                                         0x79 (size before relaxing)
 .rodata.str1.1
                0x000000000009d863       0x18 /home/jbrawley/Desktop/rockbox-photo-cf-support/build/apps/radio/presets.o
                                         0x3b (size before relaxing)
 .rodata.str1.1
                0x000000000009d87b       0x4c /home/jbrawley/Desktop/rockbox-photo-cf-support/build/apps/radio/radioart.o
 .rodata.str1.1
                0x000000000009d8c7       0x22 /home/jbrawley/Desktop/rockbox-photo-cf-support/build/apps/playback.o
                                         0x24 (size before relaxing)
 .rodata.str1.1
                0x000000000009d8e9       0x1a /home/jbrawley/Desktop/rockbox-photo-cf-support/build/apps/codecs.o
 .rodata.str1.1
                0x000000000009d903       0x89 /home/jbrawley/Desktop/rockbox-photo-cf-support/build/apps/enc_config.o
                                         0x93 (size before relaxing)
 .rodata.str1.1
                0x000000000009d98c        0xb /home/jbrawley/Desktop/rockbox-photo-cf-support/build/apps/recorder/pcm_record.o
 .rodata.str1.1
                0x000000000009d997        0x7 /home/jbrawley/Desktop/rockbox-photo-cf-support/build/apps/gui/usb_screen.o
 .rodata.str1.1
                0x000000000009d997       0xef /home/jbrawley/Desktop/rockbox-photo-cf-support/build/apps/tagcache.o
                                        0x1c0 (size before relaxing)
 .rodata.str1.1
                0x000000000009da86       0x19 /home/jbrawley/Desktop/rockbox-photo-cf-support/build/lib/rbcodec/codecs/libspeex-voice.a(modes_wb.o)
 .rodata.str1.1
                0x000000000009da9f        0xe /home/jbrawley/Desktop/rockbox-photo-cf-support/build/lib/rbcodec/codecs/libspeex-voice.a(speex.o)
 .rodata.str1.1
                0x000000000009daad        0xb /home/jbrawley/Desktop/rockbox-photo-cf-support/build/lib/rbcodec/codecs/libspeex-voice.a(modes.o)
 .rodata.str1.1
                0x000000000009dab8      0x182 /home/jbrawley/Desktop/rockbox-photo-cf-support/build/lib/librbcodec.a(metadata.o)
                                        0x1f9 (size before relaxing)
 .rodata.str1.1
                0x000000000009dc3a      0x5a3 /home/jbrawley/Desktop/rockbox-photo-cf-support/build/lib/librbcodec.a(id3tags.o)
                                        0x625 (size before relaxing)
 .rodata.str1.1
                0x000000000009e1dd        0xa /home/jbrawley/Desktop/rockbox-photo-cf-support/build/lib/librbcodec.a(mp3data.o)
                                          0xf (size before relaxing)
 .rodata.str1.1
                0x000000000009e1e7       0x84 /home/jbrawley/Desktop/rockbox-photo-cf-support/build/lib/librbcodec.a(replaygain.o)
                                         0x88 (size before relaxing)
 .rodata.str1.1
                0x000000000009e26b       0x41 /home/jbrawley/Desktop/rockbox-photo-cf-support/build/lib/librbcodec.a(metadata_common.o)
                                         0xcb (size before relaxing)
 .rodata.str1.1
                0x000000000009e2ac        0xf /home/jbrawley/Desktop/rockbox-photo-cf-support/build/lib/librbcodec.a(adx.o)
 .rodata.str1.1
                0x000000000009e2bb       0x22 /home/jbrawley/Desktop/rockbox-photo-cf-support/build/lib/librbcodec.a(aiff.o)
                                         0x2b (size before relaxing)
 .rodata.str1.1
                0x000000000009e2dd       0x1f /home/jbrawley/Desktop/rockbox-photo-cf-support/build/lib/librbcodec.a(asap.o)
                                         0x28 (size before relaxing)
 .rodata.str1.1
                0x000000000009e2fc       0x94 /home/jbrawley/Desktop/rockbox-photo-cf-support/build/lib/librbcodec.a(asf.o)
 .rodata.str1.1
                0x000000000009e390        0x5 /home/jbrawley/Desktop/rockbox-photo-cf-support/build/lib/librbcodec.a(au.o)
 .rodata.str1.1
                0x000000000009e395        0x9 /home/jbrawley/Desktop/rockbox-photo-cf-support/build/lib/librbcodec.a(ay.o)
 .rodata.str1.1
                0x000000000009e39e        0x5 /home/jbrawley/Desktop/rockbox-photo-cf-support/build/lib/librbcodec.a(flac.o)
                                         0x19 (size before relaxing)
 .rodata.str1.1
                0x000000000009e3a3        0x4 /home/jbrawley/Desktop/rockbox-photo-cf-support/build/lib/librbcodec.a(gbs.o)
 .rodata.str1.1
                0x000000000009e3a3        0x5 /home/jbrawley/Desktop/rockbox-photo-cf-support/build/lib/librbcodec.a(hes.o)
 .rodata.str1.1
                0x000000000009e3a8       0x26 /home/jbrawley/Desktop/rockbox-photo-cf-support/build/lib/librbcodec.a(mod.o)
 .rodata.str1.1
                0x000000000009e3ce        0x5 /home/jbrawley/Desktop/rockbox-photo-cf-support/build/lib/librbcodec.a(monkeys.o)
 .rodata.str1.1
                0x000000000009e3d3       0x23 /home/jbrawley/Desktop/rockbox-photo-cf-support/build/lib/librbcodec.a(mp4.o)
                                         0x42 (size before relaxing)
 .rodata.str1.1
                0x000000000009e3f6        0xf /home/jbrawley/Desktop/rockbox-photo-cf-support/build/lib/librbcodec.a(mpc.o)
 .rodata.str1.1
                0x000000000009e405       0x17 /home/jbrawley/Desktop/rockbox-photo-cf-support/build/lib/librbcodec.a(ogg.o)
                                         0x1e (size before relaxing)
 .rodata.str1.1
                0x000000000009e41c        0xa /home/jbrawley/Desktop/rockbox-photo-cf-support/build/lib/librbcodec.a(sid.o)
 .rodata.str1.1
                0x000000000009e426       0x28 /home/jbrawley/Desktop/rockbox-photo-cf-support/build/lib/librbcodec.a(smaf.o)
 .rodata.str1.1
                0x000000000009e44e        0xa /home/jbrawley/Desktop/rockbox-photo-cf-support/build/lib/librbcodec.a(vgm.o)
 .rodata.str1.1
                0x000000000009e458        0x9 /home/jbrawley/Desktop/rockbox-photo-cf-support/build/lib/librbcodec.a(vorbis.o)
                                         0x17 (size before relaxing)
 .rodata.str1.1
                0x000000000009e461       0x55 /home/jbrawley/Desktop/rockbox-photo-cf-support/build/lib/librbcodec.a(wave.o)
 .rodata.str1.1
                0x000000000009e4b6        0x5 /home/jbrawley/Desktop/rockbox-photo-cf-support/build/lib/librbcodec.a(wavpack.o)
 .rodata.str1.1
                0x000000000009e4bb        0x5 /home/jbrawley/Desktop/rockbox-photo-cf-support/build/lib/librbcodec.a(aac.o)
 .rodata.str1.1
                0x000000000009e4c0       0x37 /home/jbrawley/Desktop/rockbox-photo-cf-support/build/lib/librbcodec.a(ape.o)
                                         0x3a (size before relaxing)
 .rodata.str1.1
                0x000000000009e4f7       0x10 /home/jbrawley/Desktop/rockbox-photo-cf-support/build/firmware/libfirmware.a(events.o)
 .rodata.str1.1
                0x000000000009e507      0x11b /home/jbrawley/Desktop/rockbox-photo-cf-support/build/firmware/libfirmware.a(buflib_mempool.o)
 .rodata.str1.1
                0x000000000009e622       0x29 /home/jbrawley/Desktop/rockbox-photo-cf-support/build/firmware/libfirmware.a(general.o)
                                         0x2b (size before relaxing)
 .rodata.str1.1
                0x000000000009e64b        0xa /home/jbrawley/Desktop/rockbox-photo-cf-support/build/firmware/libfirmware.a(usb.o)
 .rodata.str1.1
                0x000000000009e655       0x65 /home/jbrawley/Desktop/rockbox-photo-cf-support/build/firmware/libfirmware.a(rolo.o)
                                         0x69 (size before relaxing)
 .rodata.str1.1
                0x000000000009e6ba        0x8 /home/jbrawley/Desktop/rockbox-photo-cf-support/build/firmware/libfirmware.a(panic.o)
 .rodata.str1.1
                0x000000000009e6c2       0x93 /home/jbrawley/Desktop/rockbox-photo-cf-support/build/firmware/libfirmware.a(loader_strerror.o)
 .rodata.str1.1
                0x000000000009e755       0x17 /home/jbrawley/Desktop/rockbox-photo-cf-support/build/firmware/libfirmware.a(file_internal.o)
 .rodata.str1.1
                0x000000000009e76c        0x2 /home/jbrawley/Desktop/rockbox-photo-cf-support/build/firmware/libfirmware.a(disk.o)
 .rodata.str1.1
                0x000000000009e76c       0x14 /home/jbrawley/Desktop/rockbox-photo-cf-support/build/firmware/libfirmware.a(dircache.o)
                                         0x15 (size before relaxing)
 .rodata.str1.1
                0x000000000009e780        0x1 /home/jbrawley/Desktop/rockbox-photo-cf-support/build/firmware/libfirmware.a(pathfuncs.o)
 .rodata.str1.1
                0x000000000009e780        0x2 /home/jbrawley/Desktop/rockbox-photo-cf-support/build/firmware/libfirmware.a(rb_namespace.o)
 .rodata.str1.1
                0x000000000009e780       0xbf /home/jbrawley/Desktop/rockbox-photo-cf-support/build/firmware/libfirmware.a(unicode.o)
 .rodata.str1.1
                0x000000000009e83f        0x6 /home/jbrawley/Desktop/rockbox-photo-cf-support/build/firmware/libfirmware.a(vuprintf.o)
 .rodata.str1.1
                0x000000000009e845        0x6 /home/jbrawley/Desktop/rockbox-photo-cf-support/build/firmware/libfirmware.a(scroll_engine.o)
                                          0xb (size before relaxing)
 .rodata.str1.1
                0x000000000009e845        0x9 /home/jbrawley/Desktop/rockbox-photo-cf-support/build/firmware/libfirmware.a(font.o)
 .rodata.str1.1
                0x000000000009e84e        0x6 /home/jbrawley/Desktop/rockbox-photo-cf-support/build/firmware/libfirmware.a(screendump.o)
                                          0xd (size before relaxing)
 .rodata.str1.1
                0x000000000009e854        0x2 /home/jbrawley/Desktop/rockbox-photo-cf-support/build/firmware/libfirmware.a(lcd-16bit.o)
 .rodata.str1.1
                0x000000000009e854       0x27 /home/jbrawley/Desktop/rockbox-photo-cf-support/build/firmware/libfirmware.a(ata.o)
 .rodata.str1.1
                0x000000000009e87b      0x10c /home/jbrawley/Desktop/rockbox-photo-cf-support/build/firmware/libfirmware.a(fat.o)
                                        0x111 (size before relaxing)
 .rodata.str1.1
                0x000000000009e987        0x6 /home/jbrawley/Desktop/rockbox-photo-cf-support/build/firmware/libfirmware.a(sound.o)
 .rodata.str1.1
                0x000000000009e987       0x53 /home/jbrawley/Desktop/rockbox-photo-cf-support/build/firmware/libfirmware.a(system-arm.o)
 .rodata.str1.1
                0x000000000009e9da      0x188 /home/jbrawley/Desktop/rockbox-photo-cf-support/build/firmware/libfirmware.a(debug-pp.o)
 .rodata.str1.1
                0x000000000009eb62       0x65 /home/jbrawley/Desktop/rockbox-photo-cf-support/build/firmware/libfirmware.a(usb_core.o)
 .rodata.str1.1
                0x000000000009ebc7        0xa /home/jbrawley/Desktop/rockbox-photo-cf-support/build/firmware/libfirmware.a(usb_storage.o)
 .rodata.str1.1
                0x000000000009ebc7       0x2c /home/jbrawley/Desktop/rockbox-photo-cf-support/build/firmware/libfirmware.a(mrsw_lock.o)
 .rodata.str1.1
                0x000000000009ebf3       0x2c /home/jbrawley/Desktop/rockbox-photo-cf-support/build/firmware/libfirmware.a(mutex.o)
 .rodata.str1.1
                0x000000000009ebf3       0x1a /home/jbrawley/Desktop/rockbox-photo-cf-support/build/firmware/libfirmware.a(queue.o)
                                         0x46 (size before relaxing)
 .rodata.str1.1
                0x000000000009ec0d       0x2c /home/jbrawley/Desktop/rockbox-photo-cf-support/build/firmware/libfirmware.a(semaphore.o)
 .rodata.str1.1
                0x000000000009ec0d       0x1f /home/jbrawley/Desktop/rockbox-photo-cf-support/build/firmware/libfirmware.a(thread.o)
                                         0x4b (size before relaxing)
 .rodata.str1.1
                0x000000000009ec2c        0xd /home/jbrawley/Desktop/rockbox-photo-cf-support/build/firmware/libfirmware.a(thread-common.o)
                                         0x11 (size before relaxing)
 .rodata.str1.1
                0x000000000009ec39       0x25 /home/jbrawley/Desktop/rockbox-photo-cf-support/build/firmware/libfirmware.a(tick.o)
 .rodata.str1.1
                0x000000000009ec5e        0xd /home/jbrawley/Desktop/rockbox-photo-cf-support/build/firmware/libfirmware.a(rb-loader.o)
                                         0x11 (size before relaxing)
 .rodata.str1.1
                0x000000000009ec6b       0x24 /home/jbrawley/Desktop/rockbox-photo-cf-support/build/lib/libunwarminder.a(backtrace-unwarminder.o)
 .rodata.str1.1
                0x000000000009ec8f        0x1 /home/jbrawley/Desktop/rockbox-photo-cf-support/build/lib/libskin_parser.a(skin_parser.o)
 .rodata.str1.1
                0x000000000009ec8f      0x265 /home/jbrawley/Desktop/rockbox-photo-cf-support/build/lib/libskin_parser.a(tag_table.o)
                                        0x31c (size before relaxing)
 .rodata.atan_table
                0x000000000009eef4       0x80 /home/jbrawley/Desktop/rockbox-photo-cf-support/build/lib/libfixedpoint.a(fixedpoint.o)
 *(.rodata.str1.1)
 *(.rodata.str1.4)
                0x000000000009ef74                . = ALIGN (0x4)

.ARM.exidx      0x000000000009ef74        0x8
 .ARM.exidx     0x000000000009ef74        0x8 /usr/local/lib/gcc/arm-elf-eabi/4.9.4/libgcc.a(_divdi3.o)
 .ARM.exidx     0x000000000009ef7c        0x0 /usr/local/lib/gcc/arm-elf-eabi/4.9.4/libgcc.a(_udivdi3.o)
                                          0x8 (size before relaxing)

.data           0x000000000009ef7c     0x1fa8
 *(.data*)
 .data          0x000000000009ef7c       0x24 /home/jbrawley/Desktop/rockbox-photo-cf-support/build/apps/action.o
 .data          0x000000000009efa0        0x8 /home/jbrawley/Desktop/rockbox-photo-cf-support/build/apps/bookmark.o
 .data          0x000000000009efa8        0x4 /home/jbrawley/Desktop/rockbox-photo-cf-support/build/apps/debug_menu.o
 .data          0x000000000009efac       0x14 /home/jbrawley/Desktop/rockbox-photo-cf-support/build/apps/filetypes.o
 .data          0x000000000009efc0       0x1c /home/jbrawley/Desktop/rockbox-photo-cf-support/build/apps/menu.o
 .data          0x000000000009efdc       0x74 /home/jbrawley/Desktop/rockbox-photo-cf-support/build/apps/menus/display_menu.o
 .data          0x000000000009f050       0x88 /home/jbrawley/Desktop/rockbox-photo-cf-support/build/apps/menus/theme_menu.o
 .data          0x000000000009f0d8        0xc /home/jbrawley/Desktop/rockbox-photo-cf-support/build/apps/menus/plugin_menu.o
 .data          0x000000000009f0e4       0x34 /home/jbrawley/Desktop/rockbox-photo-cf-support/build/apps/menus/radio_menu.o
 .data          0x000000000009f118       0x24 /home/jbrawley/Desktop/rockbox-photo-cf-support/build/apps/menus/eq_menu.o
 .data          0x000000000009f13c        0xc /home/jbrawley/Desktop/rockbox-photo-cf-support/build/apps/voice_thread.o
 .data          0x000000000009f148        0xc /home/jbrawley/Desktop/rockbox-photo-cf-support/build/apps/rbcodec_helpers.o
 .data          0x000000000009f154       0x54 /home/jbrawley/Desktop/rockbox-photo-cf-support/build/apps/menus/main_menu.o
 .data          0x000000000009f1a8       0x84 /home/jbrawley/Desktop/rockbox-photo-cf-support/build/apps/menus/playback_menu.o
 .data          0x000000000009f22c       0x3c /home/jbrawley/Desktop/rockbox-photo-cf-support/build/apps/menus/playlist_menu.o
 .data          0x000000000009f268       0x50 /home/jbrawley/Desktop/rockbox-photo-cf-support/build/apps/menus/recording_menu.o
 .data          0x000000000009f2b8      0x154 /home/jbrawley/Desktop/rockbox-photo-cf-support/build/apps/menus/settings_menu.o
 .data          0x000000000009f40c       0x88 /home/jbrawley/Desktop/rockbox-photo-cf-support/build/apps/menus/sound_menu.o
 .data          0x000000000009f494       0x14 /home/jbrawley/Desktop/rockbox-photo-cf-support/build/apps/menus/time_menu.o
 .data          0x000000000009f4a8       0x14 /home/jbrawley/Desktop/rockbox-photo-cf-support/build/apps/misc.o
 .data          0x000000000009f4bc      0x120 /home/jbrawley/Desktop/rockbox-photo-cf-support/build/apps/onplay.o
 .data          0x000000000009f5dc        0xc /home/jbrawley/Desktop/rockbox-photo-cf-support/build/apps/playlist.o
 .data          0x000000000009f5e8       0x24 /home/jbrawley/Desktop/rockbox-photo-cf-support/build/apps/playlist_viewer.o
 .data          0x000000000009f60c        0x8 /home/jbrawley/Desktop/rockbox-photo-cf-support/build/apps/plugin.o
 .data          0x000000000009f614      0x17c /home/jbrawley/Desktop/rockbox-photo-cf-support/build/apps/root_menu.o
 .data          0x000000000009f790       0x10 /home/jbrawley/Desktop/rockbox-photo-cf-support/build/apps/screens.o
 .data          0x000000000009f7a0     0x1038 /home/jbrawley/Desktop/rockbox-photo-cf-support/build/apps/settings_list.o
                0x00000000000a0760                eq_defaults
 .data          0x00000000000a07d8       0x10 /home/jbrawley/Desktop/rockbox-photo-cf-support/build/apps/shortcuts.o
 .data          0x00000000000a07e8        0xc /home/jbrawley/Desktop/rockbox-photo-cf-support/build/apps/talk.o
 .data          0x00000000000a07f4       0x10 /home/jbrawley/Desktop/rockbox-photo-cf-support/build/apps/tree.o
 .data          0x00000000000a0804        0xc /home/jbrawley/Desktop/rockbox-photo-cf-support/build/apps/tagtree.o
 .data          0x00000000000a0810       0x40 /home/jbrawley/Desktop/rockbox-photo-cf-support/build/apps/iap/iap-core.o
                0x00000000000a0810                lingo_versions
 .data          0x00000000000a0850      0x114 /home/jbrawley/Desktop/rockbox-photo-cf-support/build/apps/screen_access.o
                0x00000000000a0850                screens
 .data          0x00000000000a0964        0xc /home/jbrawley/Desktop/rockbox-photo-cf-support/build/apps/gui/icon.o
 .data          0x00000000000a0970       0x18 /home/jbrawley/Desktop/rockbox-photo-cf-support/build/apps/gui/mask_select.o
 .data          0x00000000000a0988        0x4 /home/jbrawley/Desktop/rockbox-photo-cf-support/build/apps/gui/scrollbar.o
 .data          0x00000000000a098c        0x4 /home/jbrawley/Desktop/rockbox-photo-cf-support/build/apps/gui/statusbar-skinned.o
 .data          0x00000000000a0990       0x10 /home/jbrawley/Desktop/rockbox-photo-cf-support/build/apps/gui/skin_engine/skin_backdrops.o
 .data          0x00000000000a09a0       0x3c /home/jbrawley/Desktop/rockbox-photo-cf-support/build/apps/gui/skin_engine/skin_parser.o
 .data          0x00000000000a09dc       0x1c /home/jbrawley/Desktop/rockbox-photo-cf-support/build/apps/recorder/peakmeter.o
 .data          0x00000000000a09f8       0x10 /home/jbrawley/Desktop/rockbox-photo-cf-support/build/apps/radio/presets.o
 .data          0x00000000000a0a08       0xac /home/jbrawley/Desktop/rockbox-photo-cf-support/build/apps/radio/radio_skin.o
 .data          0x00000000000a0ab4        0xc /home/jbrawley/Desktop/rockbox-photo-cf-support/build/apps/radio/radioart.o
 .data          0x00000000000a0ac0        0xc /home/jbrawley/Desktop/rockbox-photo-cf-support/build/apps/pcmbuf.o
 .data          0x00000000000a0acc       0x14 /home/jbrawley/Desktop/rockbox-photo-cf-support/build/apps/playback.o
 .data          0x00000000000a0ae0       0xbc /home/jbrawley/Desktop/rockbox-photo-cf-support/build/apps/codecs.o
                0x00000000000a0ae0                ci
 .data          0x00000000000a0b9c        0x4 /home/jbrawley/Desktop/rockbox-photo-cf-support/build/apps/enc_config.o
 .data          0x00000000000a0ba0        0x4 /home/jbrawley/Desktop/rockbox-photo-cf-support/build/apps/recorder/pcm_record.o
 .data          0x00000000000a0ba4       0x14 /home/jbrawley/Desktop/rockbox-photo-cf-support/build/apps/tagcache.o
 .data          0x00000000000a0bb8       0x1c /home/jbrawley/Desktop/rockbox-photo-cf-support/build/lib/librbcodec.a(id3tags.o)
 .data          0x00000000000a0bd4        0x4 /home/jbrawley/Desktop/rockbox-photo-cf-support/build/lib/librbcodec.a(pbe.o)
 .data          0x00000000000a0bd8       0x14 /home/jbrawley/Desktop/rockbox-photo-cf-support/build/lib/librbcodec.a(surround.o)
 .data          0x00000000000a0bec        0x4 /home/jbrawley/Desktop/rockbox-photo-cf-support/build/lib/librbcodec.a(dsp_misc.o)
 .data          0x00000000000a0bf0       0x10 /home/jbrawley/Desktop/rockbox-photo-cf-support/build/lib/librbcodec.a(pga.o)
 .data          0x00000000000a0c00       0x20 /home/jbrawley/Desktop/rockbox-photo-cf-support/build/lib/librbcodec.a(replaygain.o)
 .data          0x00000000000a0c20       0x54 /home/jbrawley/Desktop/rockbox-photo-cf-support/build/lib/librbcodec.a(metadata_common.o)
 .data          0x00000000000a0c74       0x20 /home/jbrawley/Desktop/rockbox-photo-cf-support/build/lib/librbcodec.a(asap.o)
 .data          0x00000000000a0c94       0x34 /home/jbrawley/Desktop/rockbox-photo-cf-support/build/lib/librbcodec.a(asf.o)
 .data          0x00000000000a0cc8       0x14 /home/jbrawley/Desktop/rockbox-photo-cf-support/build/lib/librbcodec.a(mp4.o)
 .data          0x00000000000a0cdc        0xc /home/jbrawley/Desktop/rockbox-photo-cf-support/build/firmware/libfirmware.a(backlight.o)
                0x00000000000a0ce4                backlight_brightness
 .data          0x00000000000a0ce8        0x8 /home/jbrawley/Desktop/rockbox-photo-cf-support/build/firmware/libfirmware.a(powermgmt.o)
 .data          0x00000000000a0cf0        0x1 /home/jbrawley/Desktop/rockbox-photo-cf-support/build/firmware/libfirmware.a(usb.o)
 *fill*         0x00000000000a0cf1        0x3 
 .data          0x00000000000a0cf4        0x4 /home/jbrawley/Desktop/rockbox-photo-cf-support/build/firmware/libfirmware.a(timer.o)
 .data          0x00000000000a0cf8        0x8 /home/jbrawley/Desktop/rockbox-photo-cf-support/build/firmware/libfirmware.a(unicode.o)
 .data          0x00000000000a0d00       0x1c /home/jbrawley/Desktop/rockbox-photo-cf-support/build/firmware/libfirmware.a(scroll_engine.o)
                0x00000000000a0d00                lcd_scroll_info
 .data          0x00000000000a0d1c        0xc /home/jbrawley/Desktop/rockbox-photo-cf-support/build/firmware/libfirmware.a(font.o)
 .data          0x00000000000a0d28       0x3c /home/jbrawley/Desktop/rockbox-photo-cf-support/build/firmware/libfirmware.a(lcd-16bit.o)
                0x00000000000a0d28                lcd_fastpixelfuncs
                0x00000000000a0d54                lcd_framebuffer_default
 .data          0x00000000000a0d64        0x5 /home/jbrawley/Desktop/rockbox-photo-cf-support/build/firmware/libfirmware.a(button.o)
 *fill*         0x00000000000a0d69        0x3 
 .data          0x00000000000a0d6c       0x20 /home/jbrawley/Desktop/rockbox-photo-cf-support/build/firmware/libfirmware.a(ata.o)
 .data          0x00000000000a0d8c        0xc /home/jbrawley/Desktop/rockbox-photo-cf-support/build/firmware/libfirmware.a(ipod_remote_tuner.o)
 .data          0x00000000000a0d98        0x8 /home/jbrawley/Desktop/rockbox-photo-cf-support/build/firmware/libfirmware.a(pcm_mixer.o)
 .data          0x00000000000a0da0       0x56 /home/jbrawley/Desktop/rockbox-photo-cf-support/build/firmware/libfirmware.a(wm8975.o)
 .data          0x00000000000a0df6        0x1 /home/jbrawley/Desktop/rockbox-photo-cf-support/build/firmware/libfirmware.a(uart-pp.o)
 *fill*         0x00000000000a0df7        0x1 
 .data          0x00000000000a0df8        0x4 /home/jbrawley/Desktop/rockbox-photo-cf-support/build/firmware/libfirmware.a(audio-pp.o)
 .data          0x00000000000a0dfc        0x4 /home/jbrawley/Desktop/rockbox-photo-cf-support/build/firmware/libfirmware.a(lcd-color_nano.o)
                0x00000000000a0dfc                lcd_type
 .data          0x00000000000a0e00       0xd5 /home/jbrawley/Desktop/rockbox-photo-cf-support/build/firmware/libfirmware.a(usb_core.o)
 *fill*         0x00000000000a0ed5        0x1 
 .data          0x00000000000a0ed6       0x1d /home/jbrawley/Desktop/rockbox-photo-cf-support/build/firmware/libfirmware.a(usb_storage.o)
 *fill*         0x00000000000a0ef3        0x1 
 .data          0x00000000000a0ef4       0x1b /home/jbrawley/Desktop/rockbox-photo-cf-support/build/firmware/libfirmware.a(usb_hid.o)
 *fill*         0x00000000000a0f0f        0x1 
 .data          0x00000000000a0f10        0x4 /home/jbrawley/Desktop/rockbox-photo-cf-support/build/firmware/libfirmware.a(backlight-4g_color.o)
 .data          0x00000000000a0f14        0xc /home/jbrawley/Desktop/rockbox-photo-cf-support/build/firmware/libfirmware.a(button-clickwheel.o)
                0x00000000000a0f1c                old_wheel_value
 .data          0x00000000000a0f20        0x4 /home/jbrawley/Desktop/rockbox-photo-cf-support/build/lib/libunwarminder.a(safe_read.o)
                0x00000000000a0f24                . = ALIGN (0x4)

.igot.plt       0x00000000000a0f24        0x0
 .igot.plt      0x00000000000a0f24        0x0 /home/jbrawley/Desktop/rockbox-photo-cf-support/build/firmware/target/arm/pp/crt0-pp.o

.ncdata         0x00000000100a0f24       0x1c load address 0x00000000000a0f24
                0x00000000100a0f30                . = ALIGN (0x10)
 *fill*         0x00000000100a0f24        0xc 
 *(.ncdata*)
 .ncdata        0x00000000100a0f30        0x4 /home/jbrawley/Desktop/rockbox-photo-cf-support/build/apps/voice_thread.o
 .ncdata        0x00000000100a0f34        0x4 /home/jbrawley/Desktop/rockbox-photo-cf-support/build/firmware/libfirmware.a(tick.o)
                0x00000000100a0f34                current_tick
                0x00000000100a0f40                . = ALIGN (0x10)
 *fill*         0x00000000100a0f38        0x8 

/DISCARD/
 *(.eh_frame)

.vectors        0x0000000000000000       0x40 load address 0x00000000000a0f40
                0x0000000000000000                _vectorsstart = .
 *(.vectors)
 .vectors       0x0000000000000000       0x40 /home/jbrawley/Desktop/rockbox-photo-cf-support/build/firmware/target/arm/pp/crt0-pp.o
                0x0000000000000020                vectors
                0x0000000000000040                _vectorsend = .
                0x00000000000a0f40                _vectorscopy = LOADADDR (.vectors)
                0x00000000000a0f40                _noloaddram = LOADADDR (.vectors)

.ibss           0x0000000040000000     0x684c
                0x0000000040000000                _iedata = .
 *(.qharray)
 .qharray       0x0000000040000000      0x180 /home/jbrawley/Desktop/rockbox-photo-cf-support/build/firmware/libfirmware.a(usb-drv-arc.o)
 *(.ibss*)
 .ibss          0x0000000040000180      0x7c0 /home/jbrawley/Desktop/rockbox-photo-cf-support/build/apps/voice_thread.o
 .ibss          0x0000000040000940     0x2400 /home/jbrawley/Desktop/rockbox-photo-cf-support/build/apps/codec_thread.o
 .ibss          0x0000000040002d40      0x160 /home/jbrawley/Desktop/rockbox-photo-cf-support/build/apps/beep.o
 .ibss          0x0000000040002ea0      0x20c /home/jbrawley/Desktop/rockbox-photo-cf-support/build/lib/rbcodec/codecs/libspeex-voice.a(sb_celp.o)
 .ibss          0x00000000400030ac      0x624 /home/jbrawley/Desktop/rockbox-photo-cf-support/build/lib/rbcodec/codecs/libspeex-voice.a(nb_celp.o)
 .ibss          0x00000000400036d0      0x13c /home/jbrawley/Desktop/rockbox-photo-cf-support/build/lib/librbcodec.a(compressor.o)
 .ibss          0x000000004000380c       0x90 /home/jbrawley/Desktop/rockbox-photo-cf-support/build/lib/librbcodec.a(crossfeed.o)
 .ibss          0x000000004000389c      0x1a8 /home/jbrawley/Desktop/rockbox-photo-cf-support/build/lib/librbcodec.a(dsp_core.o)
 .ibss          0x0000000040003a44      0x600 /home/jbrawley/Desktop/rockbox-photo-cf-support/build/lib/librbcodec.a(dsp_sample_input.o)
 .ibss          0x0000000040004044       0x24 /home/jbrawley/Desktop/rockbox-photo-cf-support/build/lib/librbcodec.a(dsp_sample_output.o)
 .ibss          0x0000000040004068      0x240 /home/jbrawley/Desktop/rockbox-photo-cf-support/build/lib/librbcodec.a(eq.o)
 .ibss          0x00000000400042a8      0x998 /home/jbrawley/Desktop/rockbox-photo-cf-support/build/lib/librbcodec.a(resample.o)
 .ibss          0x0000000040004c40      0x2b0 /home/jbrawley/Desktop/rockbox-photo-cf-support/build/firmware/libfirmware.a(file_internal.o)
                0x0000000040004c40                dir_fatent
 .ibss          0x0000000040004ef0      0x864 /home/jbrawley/Desktop/rockbox-photo-cf-support/build/firmware/libfirmware.a(pcm_mixer.o)
 .ibss          0x0000000040005754        0x4 /home/jbrawley/Desktop/rockbox-photo-cf-support/build/firmware/libfirmware.a(system-pp502x.o)
 .ibss          0x0000000040005758       0x28 /home/jbrawley/Desktop/rockbox-photo-cf-support/build/firmware/libfirmware.a(pcm-pp.o)
 .ibss          0x0000000040005780      0x100 /home/jbrawley/Desktop/rockbox-photo-cf-support/build/firmware/libfirmware.a(usb_core.o)
 .ibss          0x0000000040005880      0x160 /home/jbrawley/Desktop/rockbox-photo-cf-support/build/firmware/libfirmware.a(usb_hid.o)
 .ibss          0x00000000400059e0      0x300 /home/jbrawley/Desktop/rockbox-photo-cf-support/build/firmware/libfirmware.a(usb-drv-arc.o)
 .ibss          0x0000000040005ce0      0xb64 /home/jbrawley/Desktop/rockbox-photo-cf-support/build/firmware/libfirmware.a(thread-common.o)
                0x0000000040005ce0                __cores
                0x0000000040006800                __threads
 .ibss          0x0000000040006844        0x8 /home/jbrawley/Desktop/rockbox-photo-cf-support/build/firmware/libfirmware.a(disk_cache.o)
                0x000000004000684c                . = ALIGN (0x4)
                0x000000004000684c                _iend = .

.iram           0x000000004000684c     0x2638 load address 0x00000000000a0f80
                0x000000004000684c                _iramstart = .
 *(.icode*)
 .icode         0x000000004000684c       0x7c /home/jbrawley/Desktop/rockbox-photo-cf-support/build/apps/recorder/pcm_record.o
 .icode         0x00000000400068c8      0x184 /home/jbrawley/Desktop/rockbox-photo-cf-support/build/lib/librbcodec.a(dsp_arm.o)
                0x00000000400068c8                sample_output_mono
                0x0000000040006968                sample_output_stereo
 .icode         0x0000000040006a4c      0x2a8 /home/jbrawley/Desktop/rockbox-photo-cf-support/build/firmware/libfirmware.a(memcpy.o)
                0x0000000040006a4c                mempcpy
                0x0000000040006a58                memcpy
 .icode         0x0000000040006cf4      0x2ac /home/jbrawley/Desktop/rockbox-photo-cf-support/build/firmware/libfirmware.a(memmove.o)
                0x0000000040006cf4                memmove
 .icode         0x0000000040006fa0       0xac /home/jbrawley/Desktop/rockbox-photo-cf-support/build/firmware/libfirmware.a(memset.o)
                0x0000000040006fc0                memset
 .icode         0x000000004000704c       0x20 /home/jbrawley/Desktop/rockbox-photo-cf-support/build/firmware/libfirmware.a(strlen.o)
                0x000000004000704c                strlen
 .icode         0x000000004000706c      0x134 /home/jbrawley/Desktop/rockbox-photo-cf-support/build/firmware/libfirmware.a(rolo.o)
                0x000000004000706c                rolo_restart_cop
                0x0000000040007118                rolo_restart
 .icode         0x00000000400071a0      0xb20 /home/jbrawley/Desktop/rockbox-photo-cf-support/build/firmware/libfirmware.a(lcd-16bit.o)
                0x0000000040007714                lcd_alpha_bitmap_part
                0x0000000040007770                lcd_mono_bitmap_part
                0x0000000040007a1c                lcd_bitmap_part
                0x0000000040007af0                lcd_bitmap_transparent_part
                0x0000000040007be4                lcd_bmp_part
                0x0000000040007c8c                lcd_bmp
 .icode         0x0000000040007cc0       0xc4 /home/jbrawley/Desktop/rockbox-photo-cf-support/build/firmware/libfirmware.a(ata.o)
 .icode         0x0000000040007d84      0x3d8 /home/jbrawley/Desktop/rockbox-photo-cf-support/build/firmware/libfirmware.a(pcm_mixer.o)
 .icode         0x000000004000815c      0x34c /home/jbrawley/Desktop/rockbox-photo-cf-support/build/firmware/libfirmware.a(ata-as-arm.o)
                0x000000004000815c                copy_read_sectors
                0x0000000040008300                copy_write_sectors
 .icode         0x00000000400084a8      0x3b0 /home/jbrawley/Desktop/rockbox-photo-cf-support/build/firmware/libfirmware.a(system-pp502x.o)
                0x00000000400084a8                commit_dcache
                0x00000000400084f0                commit_discard_idcache
                0x00000000400084f0                commit_discard_dcache
                0x0000000040008578                scale_suspend_core
                0x0000000040008610                set_cpu_frequency
                0x0000000040008820                system_reboot
 .icode         0x0000000040008858      0x148 /home/jbrawley/Desktop/rockbox-photo-cf-support/build/firmware/libfirmware.a(pcm-pp.o)
                0x0000000040008858                fiq_record
                0x00000000400088f0                fiq_playback
                0x0000000040008998                fiq_handler
 .icode         0x00000000400089a0      0x250 /home/jbrawley/Desktop/rockbox-photo-cf-support/build/firmware/libfirmware.a(lcd-as-color-nano.o)
                0x00000000400089a0                lcd_write_yuv420_lines
 .icode         0x0000000040008bf0       0x7c /home/jbrawley/Desktop/rockbox-photo-cf-support/build/firmware/libfirmware.a(memset16.o)
                0x0000000040008bf0                memset16
 *fill*         0x0000000040008c6c        0x4 
 .icode.__stub  0x0000000040008c70       0x58 linker stubs
 *(.irodata*)
 .irodata       0x0000000040008cc8       0xa0 /home/jbrawley/Desktop/rockbox-photo-cf-support/build/lib/rbcodec/codecs/libspeex-voice.a(sb_celp.o)
 .irodata       0x0000000040008d68       0x3c /home/jbrawley/Desktop/rockbox-photo-cf-support/build/lib/rbcodec/codecs/libspeex-voice.a(filters.o)
 .irodata       0x0000000040008da4       0xa4 /home/jbrawley/Desktop/rockbox-photo-cf-support/build/lib/rbcodec/codecs/libspeex-voice.a(nb_celp.o)
                0x0000000040008da4                ol_gain_table
                0x0000000040008e24                exc_gain_quant_scal3
                0x0000000040008e34                exc_gain_quant_scal1
                0x0000000040008e38                exc_gain_quant_scal1_bound
                0x0000000040008e3a                exc_gain_quant_scal3_bound
 .irodata       0x0000000040008e48       0x10 /home/jbrawley/Desktop/rockbox-photo-cf-support/build/firmware/libfirmware.a(thread.o)
 *(.idata*)
 .idata         0x0000000040008e58        0x8 /home/jbrawley/Desktop/rockbox-photo-cf-support/build/apps/abrepeat.o
                0x0000000040008e58                ab_A_marker
                0x0000000040008e5c                ab_B_marker
 .idata         0x0000000040008e60        0x2 /home/jbrawley/Desktop/rockbox-photo-cf-support/build/firmware/libfirmware.a(rolo.o)
                0x0000000040008e60                cpu_reply
                0x0000000040008e61                cpu_message
 *fill*         0x0000000040008e62        0x2 
 .idata         0x0000000040008e64        0x8 /home/jbrawley/Desktop/rockbox-photo-cf-support/build/firmware/libfirmware.a(lcd-16bit.o)
                0x0000000040008e64                lcd_current_viewport
 .idata         0x0000000040008e6c       0x18 /home/jbrawley/Desktop/rockbox-photo-cf-support/build/firmware/libfirmware.a(adc-ipod-pcf.o)
                0x0000000040008e84                . = ALIGN (0x4)
                0x0000000040008e84                _iramend = .
                0x00000000000a0f80                _iramcopy = LOADADDR (.iram)

.init           0x0000000001e80000     0x9160 load address 0x00000000000a35b8
                0x0000000001e80000                . = ALIGN (0x4)
                0x0000000001e80000                _initstart = .
 *(.init*)
 .init          0x0000000001e80000      0x390 /home/jbrawley/Desktop/rockbox-photo-cf-support/build/apps/filetypes.o
                0x0000000001e80000                filetype_init
 .init          0x0000000001e80390      0x450 /home/jbrawley/Desktop/rockbox-photo-cf-support/build/apps/main.o
                0x0000000001e80390                show_logo_boot
                0x0000000001e80434                main
 .init          0x0000000001e807e0       0x84 /home/jbrawley/Desktop/rockbox-photo-cf-support/build/apps/buffering.o
                0x0000000001e807e0                buffering_init
 .init          0x0000000001e80864       0x18 /home/jbrawley/Desktop/rockbox-photo-cf-support/build/apps/misc.o
                0x0000000001e80864                car_adapter_mode_init
 .init          0x0000000001e8087c       0xf4 /home/jbrawley/Desktop/rockbox-photo-cf-support/build/apps/playlist.o
                0x0000000001e8087c                playlist_init
 .init          0x0000000001e80970      0x1a8 /home/jbrawley/Desktop/rockbox-photo-cf-support/build/apps/settings.o
                0x0000000001e80970                settings_load
 .init          0x0000000001e80b18       0x9c /home/jbrawley/Desktop/rockbox-photo-cf-support/build/apps/tree.o
                0x0000000001e80b18                tree_init
                0x0000000001e80b3c                tree_mem_init
 .init          0x0000000001e80bb4        0x4 /home/jbrawley/Desktop/rockbox-photo-cf-support/build/apps/tagtree.o
                0x0000000001e80bb4                tagtree_init
 .init          0x0000000001e80bb8       0x50 /home/jbrawley/Desktop/rockbox-photo-cf-support/build/apps/gui/statusbar.o
                0x0000000001e80bb8                gui_syncstatusbar_init
 .init          0x0000000001e80c08       0x14 /home/jbrawley/Desktop/rockbox-photo-cf-support/build/apps/gui/statusbar-skinned.o
                0x0000000001e80c08                sb_skin_init
 .init          0x0000000001e80c1c       0x20 /home/jbrawley/Desktop/rockbox-photo-cf-support/build/apps/gui/viewport.o
                0x0000000001e80c1c                viewportmanager_init
 .init          0x0000000001e80c3c       0x1c /home/jbrawley/Desktop/rockbox-photo-cf-support/build/apps/radio/radio.o
                0x0000000001e80c3c                radio_init
 .init          0x0000000001e80c58       0xac /home/jbrawley/Desktop/rockbox-photo-cf-support/build/apps/audio_thread.o
                0x0000000001e80c58                audio_init
 .init          0x0000000001e80d04      0x118 /home/jbrawley/Desktop/rockbox-photo-cf-support/build/apps/codec_thread.o
                0x0000000001e80d04                codec_thread_init
 .init          0x0000000001e80e1c       0x50 /home/jbrawley/Desktop/rockbox-photo-cf-support/build/apps/playback.o
                0x0000000001e80e1c                playback_init
 .init          0x0000000001e80e6c       0x60 /home/jbrawley/Desktop/rockbox-photo-cf-support/build/apps/recorder/pcm_record.o
                0x0000000001e80e6c                recording_init
 .init          0x0000000001e80ecc       0xb0 /home/jbrawley/Desktop/rockbox-photo-cf-support/build/apps/tagcache.o
                0x0000000001e80ecc                tagcache_init
 .initdata      0x0000000001e80f7c     0x74f8 /home/jbrawley/Desktop/rockbox-photo-cf-support/build/apps/bitmaps/native/rockboxlogo.220x68x16.o
                0x0000000001e80f7c                bm_rockboxlogo
                0x0000000001e80f94                rockboxlogo
 .init          0x0000000001e88474       0xa4 /home/jbrawley/Desktop/rockbox-photo-cf-support/build/lib/librbcodec.a(dsp_core.o)
                0x0000000001e88474                dsp_init
 .init          0x0000000001e88518       0x28 /home/jbrawley/Desktop/rockbox-photo-cf-support/build/lib/librbcodec.a(dsp_sample_io.o)
                0x0000000001e88518                dsp_sample_io_init
 .init          0x0000000001e88540       0x38 /home/jbrawley/Desktop/rockbox-photo-cf-support/build/lib/librbcodec.a(dsp_sample_input.o)
                0x0000000001e88540                dsp_sample_input_init
 .init          0x0000000001e88578       0x18 /home/jbrawley/Desktop/rockbox-photo-cf-support/build/lib/librbcodec.a(dsp_sample_output.o)
                0x0000000001e88578                dsp_sample_output_init
 .init          0x0000000001e88590       0x60 /home/jbrawley/Desktop/rockbox-photo-cf-support/build/lib/librbcodec.a(resample.o)
                0x0000000001e88590                dsp_resample_init
 .init          0x0000000001e885f0       0x1c /home/jbrawley/Desktop/rockbox-photo-cf-support/build/lib/librbcodec.a(tdspeed.o)
                0x0000000001e885f0                dsp_timestretch_init
 .init          0x0000000001e8860c       0x58 /home/jbrawley/Desktop/rockbox-photo-cf-support/build/firmware/libfirmware.a(backlight.o)
                0x0000000001e8860c                backlight_init
 .init          0x0000000001e88664       0x30 /home/jbrawley/Desktop/rockbox-photo-cf-support/build/firmware/libfirmware.a(core_alloc.o)
                0x0000000001e88664                core_allocator_init
 .init          0x0000000001e88694       0x44 /home/jbrawley/Desktop/rockbox-photo-cf-support/build/firmware/libfirmware.a(powermgmt.o)
                0x0000000001e88694                powermgmt_init
 .init          0x0000000001e886d8       0xb0 /home/jbrawley/Desktop/rockbox-photo-cf-support/build/firmware/libfirmware.a(usb.o)
                0x0000000001e886d8                usb_start_monitoring
                0x0000000001e88718                usb_init
 .init          0x0000000001e88788       0x20 /home/jbrawley/Desktop/rockbox-photo-cf-support/build/firmware/libfirmware.a(file_internal.o)
                0x0000000001e88788                filesystem_init
 .init          0x0000000001e887a8       0x6c /home/jbrawley/Desktop/rockbox-photo-cf-support/build/firmware/libfirmware.a(fileobj_mgr.o)
                0x0000000001e887a8                fileobj_mgr_init
 .init          0x0000000001e88814       0x4c /home/jbrawley/Desktop/rockbox-photo-cf-support/build/firmware/libfirmware.a(dircache.o)
                0x0000000001e88814                dircache_init
 .init          0x0000000001e88860       0x44 /home/jbrawley/Desktop/rockbox-photo-cf-support/build/firmware/libfirmware.a(scroll_engine.o)
                0x0000000001e88860                scroll_init
 .init          0x0000000001e888a4       0x2c /home/jbrawley/Desktop/rockbox-photo-cf-support/build/firmware/libfirmware.a(font.o)
                0x0000000001e888a4                font_init
 .init          0x0000000001e888d0       0x20 /home/jbrawley/Desktop/rockbox-photo-cf-support/build/firmware/libfirmware.a(lcd-16bit.o)
                0x0000000001e888d0                lcd_init
 .init          0x0000000001e888f0       0x58 /home/jbrawley/Desktop/rockbox-photo-cf-support/build/firmware/libfirmware.a(button.o)
                0x0000000001e888f0                button_init
 .init          0x0000000001e88948      0x2dc /home/jbrawley/Desktop/rockbox-photo-cf-support/build/firmware/libfirmware.a(ata.o)
                0x0000000001e88a90                ata_init
 .init          0x0000000001e88c24       0x70 /home/jbrawley/Desktop/rockbox-photo-cf-support/build/firmware/libfirmware.a(storage.o)
                0x0000000001e88c24                storage_init
 .init          0x0000000001e88c94        0x4 /home/jbrawley/Desktop/rockbox-photo-cf-support/build/firmware/libfirmware.a(tuner.o)
                0x0000000001e88c94                tuner_init
 .init          0x0000000001e88c98       0x1c /home/jbrawley/Desktop/rockbox-photo-cf-support/build/firmware/libfirmware.a(pcm.o)
                0x0000000001e88c98                pcm_init
 .init          0x0000000001e88cb4       0x60 /home/jbrawley/Desktop/rockbox-photo-cf-support/build/firmware/libfirmware.a(ata-pp5020.o)
                0x0000000001e88cb4                ata_reset
                0x0000000001e88cb8                ata_is_coldstart
                0x0000000001e88cc0                ata_device_init
 .init          0x0000000001e88d14       0x10 /home/jbrawley/Desktop/rockbox-photo-cf-support/build/firmware/libfirmware.a(power-ipod.o)
                0x0000000001e88d14                power_init
 .init          0x0000000001e88d24       0x58 /home/jbrawley/Desktop/rockbox-photo-cf-support/build/firmware/libfirmware.a(i2c-pp.o)
                0x0000000001e88d24                i2c_init
 .init          0x0000000001e88d7c       0x60 /home/jbrawley/Desktop/rockbox-photo-cf-support/build/firmware/libfirmware.a(pcm-pp.o)
                0x0000000001e88d7c                pcm_play_dma_init
 .init          0x0000000001e88ddc       0xb8 /home/jbrawley/Desktop/rockbox-photo-cf-support/build/firmware/libfirmware.a(lcd-color_nano.o)
                0x0000000001e88ddc                lcd_init_device
 .init          0x0000000001e88e94       0x28 /home/jbrawley/Desktop/rockbox-photo-cf-support/build/firmware/libfirmware.a(adc-ipod-pcf.o)
                0x0000000001e88e94                adc_init
 .init          0x0000000001e88ebc      0x11c /home/jbrawley/Desktop/rockbox-photo-cf-support/build/firmware/libfirmware.a(thread.o)
                0x0000000001e88ebc                init_threads
 .init          0x0000000001e88fd8       0xc0 /home/jbrawley/Desktop/rockbox-photo-cf-support/build/firmware/libfirmware.a(thread-common.o)
                0x0000000001e88fd8                thread_alloc_init
 .init          0x0000000001e89098       0x14 /home/jbrawley/Desktop/rockbox-photo-cf-support/build/firmware/libfirmware.a(tick.o)
                0x0000000001e89098                init_tick
 .init          0x0000000001e890ac       0x48 /home/jbrawley/Desktop/rockbox-photo-cf-support/build/firmware/libfirmware.a(disk_cache.o)
                0x0000000001e890ac                dc_init
 .init          0x0000000001e890f4       0x3c /home/jbrawley/Desktop/rockbox-photo-cf-support/build/firmware/libfirmware.a(kernel-pp.o)
                0x0000000001e890f4                tick_start
 .init.__stub   0x0000000001e89130       0x30 linker stubs
                0x0000000001e89160                _initend = .
                0x00000000000a35b8                _initcopy = LOADADDR (.init)

.rel.dyn        0x00000000000ac718        0x0
 .rel.iplt      0x00000000000ac718        0x0 /home/jbrawley/Desktop/rockbox-photo-cf-support/build/firmware/target/arm/pp/crt0-pp.o

.idle_stacks    0x0000000040008e84      0x104
 *(.idle_stacks)
                0x0000000040008e88                . = ALIGN (0x8)
 *fill*         0x0000000040008e84        0x4 
                0x0000000040008e88                cpu_idlestackbegin = .
                0x0000000040008f08                . = (. + 0x80)
 *fill*         0x0000000040008e88       0x80 
                0x0000000040008f08                cpu_idlestackend = .
                0x0000000040008f08                cop_idlestackbegin = .
                0x0000000040008f88                . = (. + 0x80)
 *fill*         0x0000000040008f08       0x80 
                0x0000000040008f88                cop_idlestackend = .

.stack          0x0000000040008f88     0x2000
 *(.stack)
                0x0000000040008f88                stackbegin = .
                0x000000004000af88                . = (. + 0x2000)
 *fill*         0x0000000040008f88     0x2000 
                0x000000004000af88                stackend = .

.bss            0x00000000000a0f40    0x78e7c
                0x00000000000a0f40                _edata = .
 *(.bss*)
 .bss           0x00000000000a0f40        0x1 /home/jbrawley/Desktop/rockbox-photo-cf-support/build/apps/abrepeat.o
 .bss           0x00000000000a0f41      0x15e /home/jbrawley/Desktop/rockbox-photo-cf-support/build/apps/bookmark.o
 *fill*         0x00000000000a109f        0x1 
 .bss           0x00000000000a10a0       0x14 /home/jbrawley/Desktop/rockbox-photo-cf-support/build/apps/debug_menu.o
 .bss           0x00000000000a10b4      0xff9 /home/jbrawley/Desktop/rockbox-photo-cf-support/build/apps/filetypes.o
 .bss           0x00000000000a20ad     0x74f2 /home/jbrawley/Desktop/rockbox-photo-cf-support/build/apps/language.o
 *fill*         0x00000000000a959f        0x1 
 .bss           0x00000000000a95a0      0x108 /home/jbrawley/Desktop/rockbox-photo-cf-support/build/apps/menu.o
 .bss           0x00000000000a96a8        0x4 /home/jbrawley/Desktop/rockbox-photo-cf-support/build/apps/menus/display_menu.o
 .bss           0x00000000000a96ac        0x2 /home/jbrawley/Desktop/rockbox-photo-cf-support/build/apps/menus/theme_menu.o
 *fill*         0x00000000000a96ae        0x2 
 .bss           0x00000000000a96b0        0x4 /home/jbrawley/Desktop/rockbox-photo-cf-support/build/apps/menus/plugin_menu.o
 .bss           0x00000000000a96b4     0x2440 /home/jbrawley/Desktop/rockbox-photo-cf-support/build/apps/buffering.o
 .bss           0x00000000000abaf4       0x10 /home/jbrawley/Desktop/rockbox-photo-cf-support/build/apps/voice_thread.o
 .bss           0x00000000000abb04       0x10 /home/jbrawley/Desktop/rockbox-photo-cf-support/build/apps/rbcodec_helpers.o
 .bss           0x00000000000abb14        0x4 /home/jbrawley/Desktop/rockbox-photo-cf-support/build/apps/menus/main_menu.o
 .bss           0x00000000000abb18        0xc /home/jbrawley/Desktop/rockbox-photo-cf-support/build/apps/menus/playback_menu.o
 .bss           0x00000000000abb24        0x1 /home/jbrawley/Desktop/rockbox-photo-cf-support/build/apps/menus/recording_menu.o
 *fill*         0x00000000000abb25        0x3 
 .bss           0x00000000000abb28       0x10 /home/jbrawley/Desktop/rockbox-photo-cf-support/build/apps/menus/settings_menu.o
 .bss           0x00000000000abb38       0x18 /home/jbrawley/Desktop/rockbox-photo-cf-support/build/apps/menus/sound_menu.o
 .bss           0x00000000000abb50       0x58 /home/jbrawley/Desktop/rockbox-photo-cf-support/build/apps/menus/time_menu.o
 .bss           0x00000000000abba8      0x104 /home/jbrawley/Desktop/rockbox-photo-cf-support/build/apps/misc.o
 .bss           0x00000000000abcac      0x238 /home/jbrawley/Desktop/rockbox-photo-cf-support/build/apps/open_plugin.o
 .bss           0x00000000000abee4      0x330 /home/jbrawley/Desktop/rockbox-photo-cf-support/build/apps/onplay.o
 .bss           0x00000000000ac214      0xf74 /home/jbrawley/Desktop/rockbox-photo-cf-support/build/apps/playlist.o
 .bss           0x00000000000ad188      0x11c /home/jbrawley/Desktop/rockbox-photo-cf-support/build/apps/playlist_catalog.o
 .bss           0x00000000000ad2a4     0x1054 /home/jbrawley/Desktop/rockbox-photo-cf-support/build/apps/playlist_viewer.o
 .bss           0x00000000000ae2f8      0x11c /home/jbrawley/Desktop/rockbox-photo-cf-support/build/apps/plugin.o
 .bss           0x00000000000ae414      0x140 /home/jbrawley/Desktop/rockbox-photo-cf-support/build/apps/root_menu.o
 .bss           0x00000000000ae554        0x8 /home/jbrawley/Desktop/rockbox-photo-cf-support/build/apps/settings.o
                0x00000000000ae554                lasttime
 .bss           0x00000000000ae55c        0x4 /home/jbrawley/Desktop/rockbox-photo-cf-support/build/apps/settings_list.o
 .bss           0x00000000000ae560      0x111 /home/jbrawley/Desktop/rockbox-photo-cf-support/build/apps/shortcuts.o
 .bss           0x00000000000ae671        0x1 /home/jbrawley/Desktop/rockbox-photo-cf-support/build/apps/status.o
 *fill*         0x00000000000ae672        0x2 
 .bss           0x00000000000ae674      0xbba /home/jbrawley/Desktop/rockbox-photo-cf-support/build/apps/talk.o
 *fill*         0x00000000000af22e        0x2 
 .bss           0x00000000000af230      0x81c /home/jbrawley/Desktop/rockbox-photo-cf-support/build/apps/tree.o
 .bss           0x00000000000afa4c    0x10464 /home/jbrawley/Desktop/rockbox-photo-cf-support/build/apps/tagtree.o
 .bss           0x00000000000bfeb0        0x8 /home/jbrawley/Desktop/rockbox-photo-cf-support/build/apps/filetree.o
 .bss           0x00000000000bfeb8    0x11974 /home/jbrawley/Desktop/rockbox-photo-cf-support/build/apps/iap/iap-core.o
                0x00000000000bff58                iap_remotebtn
                0x00000000000bff5f                interface_state
                0x00000000000c178c                iap_timeoutbtn
                0x00000000000c1790                iap_repeatbtn
                0x00000000000c1798                iap_btnshuffle
                0x00000000000c1799                iap_btnrepeat
 .bss           0x00000000000d182c        0x2 /home/jbrawley/Desktop/rockbox-photo-cf-support/build/apps/iap/iap-lingo2.o
 *fill*         0x00000000000d182e        0x2 
 .bss           0x00000000000d1830       0x10 /home/jbrawley/Desktop/rockbox-photo-cf-support/build/apps/iap/iap-lingo4.o
 .bss           0x00000000000d1840       0x40 /home/jbrawley/Desktop/rockbox-photo-cf-support/build/apps/gui/icon.o
 .bss           0x00000000000d1880      0x4c4 /home/jbrawley/Desktop/rockbox-photo-cf-support/build/apps/gui/list.o
 .bss           0x00000000000d1d44      0x3a0 /home/jbrawley/Desktop/rockbox-photo-cf-support/build/apps/gui/line.o
 .bss           0x00000000000d20e4       0x50 /home/jbrawley/Desktop/rockbox-photo-cf-support/build/apps/gui/bitmap/list.o
 .bss           0x00000000000d2134       0x20 /home/jbrawley/Desktop/rockbox-photo-cf-support/build/apps/gui/bitmap/list-skinned.o
 .bss           0x00000000000d2154        0xc /home/jbrawley/Desktop/rockbox-photo-cf-support/build/apps/gui/option_select.o
 .bss           0x00000000000d2160       0x14 /home/jbrawley/Desktop/rockbox-photo-cf-support/build/apps/gui/wps.o
 .bss           0x00000000000d2174        0x4 /home/jbrawley/Desktop/rockbox-photo-cf-support/build/apps/gui/scrollbar.o
 .bss           0x00000000000d2178        0x4 /home/jbrawley/Desktop/rockbox-photo-cf-support/build/apps/gui/splash.o
 .bss           0x00000000000d217c       0x95 /home/jbrawley/Desktop/rockbox-photo-cf-support/build/apps/gui/statusbar-skinned.o
 *fill*         0x00000000000d2211        0x3 
 .bss           0x00000000000d2214       0x86 /home/jbrawley/Desktop/rockbox-photo-cf-support/build/apps/gui/viewport.o
 *fill*         0x00000000000d229a        0x2 
 .bss           0x00000000000d229c      0x340 /home/jbrawley/Desktop/rockbox-photo-cf-support/build/apps/gui/skin_engine/skin_backdrops.o
 .bss           0x00000000000d25dc       0xcd /home/jbrawley/Desktop/rockbox-photo-cf-support/build/apps/gui/skin_engine/skin_engine.o
 *fill*         0x00000000000d26a9        0x3 
 .bss           0x00000000000d26ac       0xb4 /home/jbrawley/Desktop/rockbox-photo-cf-support/build/apps/gui/skin_engine/skin_parser.o
 .bss           0x00000000000d2760       0x84 /home/jbrawley/Desktop/rockbox-photo-cf-support/build/apps/gui/skin_engine/skin_render.o
 .bss           0x00000000000d27e4      0xbd5 /home/jbrawley/Desktop/rockbox-photo-cf-support/build/apps/gui/skin_engine/skin_tokens.o
 *fill*         0x00000000000d33b9        0x3 
 .bss           0x00000000000d33bc      0x4c0 /home/jbrawley/Desktop/rockbox-photo-cf-support/build/apps/recorder/keyboard.o
 .bss           0x00000000000d387c       0xbc /home/jbrawley/Desktop/rockbox-photo-cf-support/build/apps/recorder/peakmeter.o
 .bss           0x00000000000d3938      0x125 /home/jbrawley/Desktop/rockbox-photo-cf-support/build/apps/recorder/recording.o
                0x00000000000d3a5c                recording_start_automatic
 *fill*         0x00000000000d3a5d        0x3 
 .bss           0x00000000000d3a60        0xd /home/jbrawley/Desktop/rockbox-photo-cf-support/build/apps/radio/radio.o
                0x00000000000d3a68                radio_mode
 *fill*         0x00000000000d3a6d        0x3 
 .bss           0x00000000000d3a70      0x90a /home/jbrawley/Desktop/rockbox-photo-cf-support/build/apps/radio/presets.o
 *fill*         0x00000000000d437a        0x2 
 .bss           0x00000000000d437c      0x194 /home/jbrawley/Desktop/rockbox-photo-cf-support/build/apps/radio/radioart.o
 .bss           0x00000000000d4510        0x1 /home/jbrawley/Desktop/rockbox-photo-cf-support/build/apps/audio_path.o
 *fill*         0x00000000000d4511        0x3 
 .bss           0x00000000000d4514     0x1408 /home/jbrawley/Desktop/rockbox-photo-cf-support/build/apps/audio_thread.o
                0x00000000000d4514                audio_is_initialized
                0x00000000000d5918                audio_thread_id
 .bss           0x00000000000d591c       0x4c /home/jbrawley/Desktop/rockbox-photo-cf-support/build/apps/pcmbuf.o
 .bss           0x00000000000d5968        0x8 /home/jbrawley/Desktop/rockbox-photo-cf-support/build/apps/codec_thread.o
 .bss           0x00000000000d5970     0x20e0 /home/jbrawley/Desktop/rockbox-photo-cf-support/build/apps/playback.o
 .bss           0x00000000000d7a50        0xc /home/jbrawley/Desktop/rockbox-photo-cf-support/build/apps/codecs.o
 .bss           0x00000000000d7a5c       0x10 /home/jbrawley/Desktop/rockbox-photo-cf-support/build/apps/beep.o
 .bss           0x00000000000d7a6c        0x8 /home/jbrawley/Desktop/rockbox-photo-cf-support/build/apps/enc_config.o
 *fill*         0x00000000000d7a74        0x4 
 .bss           0x00000000000d7a78       0xa0 /home/jbrawley/Desktop/rockbox-photo-cf-support/build/apps/recorder/pcm_record.o
 .bss           0x00000000000d7b18        0x1 /home/jbrawley/Desktop/rockbox-photo-cf-support/build/apps/gui/usb_screen.o
 *fill*         0x00000000000d7b19        0x3 
 .bss           0x00000000000d7b1c     0x4b94 /home/jbrawley/Desktop/rockbox-photo-cf-support/build/apps/tagcache.o
 .bss           0x00000000000dc6b0        0x1 /home/jbrawley/Desktop/rockbox-photo-cf-support/build/lib/librbcodec.a(metadata.o)
                0x00000000000dc6b0                write_metadata_log
 .bss           0x00000000000dc6b1        0x1 /home/jbrawley/Desktop/rockbox-photo-cf-support/build/lib/librbcodec.a(id3tags.o)
 *fill*         0x00000000000dc6b2        0x2 
 .bss           0x00000000000dc6b4       0x20 /home/jbrawley/Desktop/rockbox-photo-cf-support/build/lib/librbcodec.a(mp3data.o)
 .bss           0x00000000000dc6d4     0x3c24 /home/jbrawley/Desktop/rockbox-photo-cf-support/build/lib/librbcodec.a(compressor.o)
 .bss           0x00000000000e02f8       0x10 /home/jbrawley/Desktop/rockbox-photo-cf-support/build/lib/librbcodec.a(crossfeed.o)
 .bss           0x00000000000e0308      0x15c /home/jbrawley/Desktop/rockbox-photo-cf-support/build/lib/librbcodec.a(pbe.o)
 .bss           0x00000000000e0464       0xe4 /home/jbrawley/Desktop/rockbox-photo-cf-support/build/lib/librbcodec.a(afr.o)
 .bss           0x00000000000e0548       0x58 /home/jbrawley/Desktop/rockbox-photo-cf-support/build/lib/librbcodec.a(surround.o)
 .bss           0x00000000000e05a0       0x1c /home/jbrawley/Desktop/rockbox-photo-cf-support/build/lib/librbcodec.a(dsp_misc.o)
 .bss           0x00000000000e05bc       0x78 /home/jbrawley/Desktop/rockbox-photo-cf-support/build/lib/librbcodec.a(eq.o)
 .bss           0x00000000000e0634       0x5c /home/jbrawley/Desktop/rockbox-photo-cf-support/build/lib/librbcodec.a(tdspeed.o)
 .bss           0x00000000000e0690        0xc /home/jbrawley/Desktop/rockbox-photo-cf-support/build/lib/librbcodec.a(channel_mode.o)
 .bss           0x00000000000e069c        0x4 /home/jbrawley/Desktop/rockbox-photo-cf-support/build/firmware/libfirmware.a(ata_idle_notify.o)
 .bss           0x00000000000e06a0      0x154 /home/jbrawley/Desktop/rockbox-photo-cf-support/build/firmware/libfirmware.a(events.o)
 .bss           0x00000000000e07f4      0x40c /home/jbrawley/Desktop/rockbox-photo-cf-support/build/firmware/libfirmware.a(backlight.o)
 .bss           0x00000000000e0c00        0xc /home/jbrawley/Desktop/rockbox-photo-cf-support/build/firmware/libfirmware.a(buflib_mempool.o)
                0x00000000000e0c00                buflib_ops_locked
 .bss           0x00000000000e0c0c       0x24 /home/jbrawley/Desktop/rockbox-photo-cf-support/build/firmware/libfirmware.a(general.o)
 .bss           0x00000000000e0c30      0x331 /home/jbrawley/Desktop/rockbox-photo-cf-support/build/firmware/libfirmware.a(powermgmt.o)
                0x00000000000e0c3c                power_history
                0x00000000000e0f60                charge_state
 *fill*         0x00000000000e0f61        0x3 
 .bss           0x00000000000e0f64     0x11f0 /home/jbrawley/Desktop/rockbox-photo-cf-support/build/firmware/libfirmware.a(usb.o)
                0x00000000000e0f80                do_screendump_instead_of_usb
 .bss           0x00000000000e2154        0x4 /home/jbrawley/Desktop/rockbox-photo-cf-support/build/firmware/libfirmware.a(rolo.o)
 .bss           0x00000000000e2158       0x80 /home/jbrawley/Desktop/rockbox-photo-cf-support/build/firmware/libfirmware.a(panic.o)
 .bss           0x00000000000e21d8     0x2c00 /home/jbrawley/Desktop/rockbox-photo-cf-support/build/firmware/libfirmware.a(dir.o)
 .bss           0x00000000000e4dd8      0x83c /home/jbrawley/Desktop/rockbox-photo-cf-support/build/firmware/libfirmware.a(file.o)
 .bss           0x00000000000e5614       0xd8 /home/jbrawley/Desktop/rockbox-photo-cf-support/build/firmware/libfirmware.a(file_internal.o)
 .bss           0x00000000000e56ec       0x34 /home/jbrawley/Desktop/rockbox-photo-cf-support/build/firmware/libfirmware.a(disk.o)
 .bss           0x00000000000e5720      0xeb8 /home/jbrawley/Desktop/rockbox-photo-cf-support/build/firmware/libfirmware.a(fileobj_mgr.o)
 .bss           0x00000000000e65d8      0x574 /home/jbrawley/Desktop/rockbox-photo-cf-support/build/firmware/libfirmware.a(dircache.o)
 .bss           0x00000000000e6b4c        0x8 /home/jbrawley/Desktop/rockbox-photo-cf-support/build/firmware/libfirmware.a(rb_namespace.o)
 .bss           0x00000000000e6b54       0x28 /home/jbrawley/Desktop/rockbox-photo-cf-support/build/firmware/libfirmware.a(timefuncs.o)
 .bss           0x00000000000e6b7c    0x10014 /home/jbrawley/Desktop/rockbox-photo-cf-support/build/firmware/libfirmware.a(unicode.o)
 .bss           0x00000000000f6b90      0x9c8 /home/jbrawley/Desktop/rockbox-photo-cf-support/build/firmware/libfirmware.a(random.o)
 .bss           0x00000000000f7558       0x24 /home/jbrawley/Desktop/rockbox-photo-cf-support/build/firmware/libfirmware.a(gmtime.o)
 .bss           0x00000000000f757c     0x38d4 /home/jbrawley/Desktop/rockbox-photo-cf-support/build/firmware/libfirmware.a(scroll_engine.o)
 .bss           0x00000000000fae50      0x94c /home/jbrawley/Desktop/rockbox-photo-cf-support/build/firmware/libfirmware.a(bidi.o)
 .bss           0x00000000000fb79c      0x13c /home/jbrawley/Desktop/rockbox-photo-cf-support/build/firmware/libfirmware.a(font.o)
 .bss           0x00000000000fb8d8        0x4 /home/jbrawley/Desktop/rockbox-photo-cf-support/build/firmware/libfirmware.a(screendump.o)
 *fill*         0x00000000000fb8dc        0x4 
 .bss           0x00000000000fb8e0    0x12e90 /home/jbrawley/Desktop/rockbox-photo-cf-support/build/firmware/libfirmware.a(lcd-16bit.o)
 .bss           0x000000000010e770       0x21 /home/jbrawley/Desktop/rockbox-photo-cf-support/build/firmware/libfirmware.a(diacritic.o)
 *fill*         0x000000000010e791        0x3 
 .bss           0x000000000010e794        0x8 /home/jbrawley/Desktop/rockbox-photo-cf-support/build/firmware/libfirmware.a(led.o)
 .bss           0x000000000010e79c       0x39 /home/jbrawley/Desktop/rockbox-photo-cf-support/build/firmware/libfirmware.a(button.o)
 *fill*         0x000000000010e7d5        0x3 
 .bss           0x000000000010e7d8      0x234 /home/jbrawley/Desktop/rockbox-photo-cf-support/build/firmware/libfirmware.a(ata.o)
 .bss           0x000000000010ea0c      0x804 /home/jbrawley/Desktop/rockbox-photo-cf-support/build/firmware/libfirmware.a(storage.o)
 .bss           0x000000000010f210       0x54 /home/jbrawley/Desktop/rockbox-photo-cf-support/build/firmware/libfirmware.a(fat.o)
 .bss           0x000000000010f264        0x2 /home/jbrawley/Desktop/rockbox-photo-cf-support/build/firmware/libfirmware.a(rtc_pcf50605.o)
 *fill*         0x000000000010f266        0x2 
 .bss           0x000000000010f268       0x14 /home/jbrawley/Desktop/rockbox-photo-cf-support/build/firmware/libfirmware.a(ipod_remote_tuner.o)
                0x000000000010f278                radio_present
 .bss           0x000000000010f27c       0x60 /home/jbrawley/Desktop/rockbox-photo-cf-support/build/firmware/libfirmware.a(rds.o)
 .bss           0x000000000010f2dc       0x10 /home/jbrawley/Desktop/rockbox-photo-cf-support/build/firmware/libfirmware.a(sound.o)
 .bss           0x000000000010f2ec       0x14 /home/jbrawley/Desktop/rockbox-photo-cf-support/build/firmware/libfirmware.a(pcm.o)
 .bss           0x000000000010f300        0xc /home/jbrawley/Desktop/rockbox-photo-cf-support/build/firmware/libfirmware.a(pcm_mixer.o)
 .bss           0x000000000010f30c        0x1 /home/jbrawley/Desktop/rockbox-photo-cf-support/build/firmware/libfirmware.a(system-arm.o)
 *fill*         0x000000000010f30d        0x3 
 .bss           0x000000000010f310      0x4a4 /home/jbrawley/Desktop/rockbox-photo-cf-support/build/firmware/libfirmware.a(piezo.o)
 .bss           0x000000000010f7b4        0x1 /home/jbrawley/Desktop/rockbox-photo-cf-support/build/firmware/libfirmware.a(pcf50605.o)
                0x000000000010f7b4                pcf50605_wakeup_flags
 *fill*         0x000000000010f7b5        0x3 
 .bss           0x000000000010f7b8       0x20 /home/jbrawley/Desktop/rockbox-photo-cf-support/build/firmware/libfirmware.a(usb-fw-pp502x.o)
 .bss           0x000000000010f7d8        0x8 /home/jbrawley/Desktop/rockbox-photo-cf-support/build/firmware/libfirmware.a(uart-pp.o)
 .bss           0x000000000010f7e0        0x1 /home/jbrawley/Desktop/rockbox-photo-cf-support/build/firmware/libfirmware.a(audio-pp.o)
 *fill*         0x000000000010f7e1        0x3 
 .bss           0x000000000010f7e4       0xf8 /home/jbrawley/Desktop/rockbox-photo-cf-support/build/firmware/libfirmware.a(usb_core.o)
 .bss           0x000000000010f8dc       0x4c /home/jbrawley/Desktop/rockbox-photo-cf-support/build/firmware/libfirmware.a(usb_storage.o)
 .bss           0x000000000010f928       0x60 /home/jbrawley/Desktop/rockbox-photo-cf-support/build/firmware/libfirmware.a(usb_hid.o)
 .bss           0x000000000010f988       0x2c /home/jbrawley/Desktop/rockbox-photo-cf-support/build/firmware/libfirmware.a(usb-drv-arc.o)
 .bss           0x000000000010f9b4        0x1 /home/jbrawley/Desktop/rockbox-photo-cf-support/build/firmware/libfirmware.a(backlight-4g_color.o)
 *fill*         0x000000000010f9b5        0x3 
 .bss           0x000000000010f9b8       0x25 /home/jbrawley/Desktop/rockbox-photo-cf-support/build/firmware/libfirmware.a(button-clickwheel.o)
                0x000000000010f9b8                new_wheel_value
                0x000000000010f9bc                wheel_is_touched
                0x000000000010f9c4                wheel_velocity
                0x000000000010f9c8                accumulated_wheel_delta
                0x000000000010f9d0                wheel_delta
 .bss           0x000000000010f9dd       0x20 /home/jbrawley/Desktop/rockbox-photo-cf-support/build/firmware/libfirmware.a(thread.o)
 *fill*         0x000000000010f9fd        0x3 
 .bss           0x000000000010fa00       0x24 /home/jbrawley/Desktop/rockbox-photo-cf-support/build/firmware/libfirmware.a(timeout.o)
 *fill*         0x000000000010fa24        0xc 
 .bss           0x000000000010fa30     0x8c10 /home/jbrawley/Desktop/rockbox-photo-cf-support/build/firmware/libfirmware.a(disk_cache.o)
 .bss           0x0000000000118640        0xc /home/jbrawley/Desktop/rockbox-photo-cf-support/build/lib/libskin_parser.a(skin_buffer.o)
 .bss           0x000000000011864c       0x14 /home/jbrawley/Desktop/rockbox-photo-cf-support/build/lib/libskin_parser.a(skin_parser.o)
                0x000000000011864c                skin_line
                0x0000000000118658                skin_start
 *(COMMON)
 COMMON         0x0000000000118660        0xc /home/jbrawley/Desktop/rockbox-photo-cf-support/build/apps/root_menu.o
                0x0000000000118660                root_menu_
 COMMON         0x000000000011866c      0x71c /home/jbrawley/Desktop/rockbox-photo-cf-support/build/apps/settings.o
                0x000000000011866c                global_status
                0x000000000011869c                global_settings
 COMMON         0x0000000000118d88      0x104 /home/jbrawley/Desktop/rockbox-photo-cf-support/build/apps/tree.o
                0x0000000000118d88                lastfile
 COMMON         0x0000000000118e8c       0x74 /home/jbrawley/Desktop/rockbox-photo-cf-support/build/apps/iap/iap-core.o
                0x0000000000118e8c                iap_txpayload
                0x0000000000118e90                iap_txnext
                0x0000000000118e94                device
 COMMON         0x0000000000118f00       0x54 /home/jbrawley/Desktop/rockbox-photo-cf-support/build/apps/gui/statusbar.o
                0x0000000000118f00                statusbars
 COMMON         0x0000000000118f54        0x4 /home/jbrawley/Desktop/rockbox-photo-cf-support/build/apps/radio/radio.o
                0x0000000000118f54                curr_freq
 COMMON         0x0000000000118f58       0x24 /home/jbrawley/Desktop/rockbox-photo-cf-support/build/apps/pcmbuf.o
                0x0000000000118f58                crossfade_infader
 COMMON         0x0000000000118f7c        0x4 /home/jbrawley/Desktop/rockbox-photo-cf-support/build/apps/gui/usb_screen.o
                0x0000000000118f7c                usb_keypad_mode
 COMMON         0x0000000000118f80      0xde0 /home/jbrawley/Desktop/rockbox-photo-cf-support/build/lang/lang_core.o
                0x0000000000118f80                language_strings
 COMMON         0x0000000000119d60        0x4 /home/jbrawley/Desktop/rockbox-photo-cf-support/build/lib/librbcodec.a(pbe.o)
                0x0000000000119d60                temp_buffer
 COMMON         0x0000000000119d64       0x18 /home/jbrawley/Desktop/rockbox-photo-cf-support/build/firmware/libfirmware.a(core_alloc.o)
                0x0000000000119d64                core_ctx
 COMMON         0x0000000000119d7c        0x5 /home/jbrawley/Desktop/rockbox-photo-cf-support/build/firmware/libfirmware.a(powermgmt.o)
                0x0000000000119d7c                power_thread_inputs
                0x0000000000119d80                charger_input_state
 *fill*         0x0000000000119d81        0x3 
 COMMON         0x0000000000119d84       0x14 /home/jbrawley/Desktop/rockbox-photo-cf-support/build/firmware/libfirmware.a(uart-pp.o)
                0x0000000000119d84                base_LSR
                0x0000000000119d88                base_THR
                0x0000000000119d8c                base_DLL
                0x0000000000119d90                base_RBR
                0x0000000000119d94                base_LCR
 COMMON         0x0000000000119d98       0x24 /home/jbrawley/Desktop/rockbox-photo-cf-support/build/firmware/libfirmware.a(tick.o)
                0x0000000000119d98                tick_funcs
                0x0000000000119dbc                . = ALIGN (0x4)

.ncbss          0x0000000010119dbc     0x1004 load address 0x0000000000119dbc
                0x0000000010119dc0                . = ALIGN (0x10)
 *fill*         0x0000000010119dbc        0x4 
 *(.ncbss*)
 .ncbss         0x0000000010119dc0      0x108 /home/jbrawley/Desktop/rockbox-photo-cf-support/build/apps/buffering.o
 .ncbss         0x0000000010119ec8       0xf0 /home/jbrawley/Desktop/rockbox-photo-cf-support/build/apps/voice_thread.o
 .ncbss         0x0000000010119fb8       0x1c /home/jbrawley/Desktop/rockbox-photo-cf-support/build/apps/talk.o
 .ncbss         0x0000000010119fd4       0xf0 /home/jbrawley/Desktop/rockbox-photo-cf-support/build/apps/audio_thread.o
                0x0000000010119fd4                audio_queue
 .ncbss         0x000000001011a0c4       0xf0 /home/jbrawley/Desktop/rockbox-photo-cf-support/build/apps/codec_thread.o
 .ncbss         0x000000001011a1b4       0x19 /home/jbrawley/Desktop/rockbox-photo-cf-support/build/apps/playback.o
 *fill*         0x000000001011a1cd        0x3 
 .ncbss         0x000000001011a1d0       0xb4 /home/jbrawley/Desktop/rockbox-photo-cf-support/build/apps/tagcache.o
 .ncbss         0x000000001011a284       0xa0 /home/jbrawley/Desktop/rockbox-photo-cf-support/build/firmware/libfirmware.a(backlight.o)
 .ncbss         0x000000001011a324        0xc /home/jbrawley/Desktop/rockbox-photo-cf-support/build/firmware/libfirmware.a(system.o)
                0x000000001011a32c                cpu_frequency
 .ncbss         0x000000001011a330       0x9c /home/jbrawley/Desktop/rockbox-photo-cf-support/build/firmware/libfirmware.a(usb.o)
 .ncbss         0x000000001011a3cc        0x8 /home/jbrawley/Desktop/rockbox-photo-cf-support/build/firmware/libfirmware.a(timer.o)
                0x000000001011a3cc                pfn_timer
                0x000000001011a3d0                pfn_unregister
 .ncbss         0x000000001011a3d4       0x30 /home/jbrawley/Desktop/rockbox-photo-cf-support/build/firmware/libfirmware.a(file_internal.o)
                0x000000001011a3d4                file_internal_mrsw
 .ncbss         0x000000001011a404      0x648 /home/jbrawley/Desktop/rockbox-photo-cf-support/build/firmware/libfirmware.a(fileobj_mgr.o)
 .ncbss         0x000000001011aa4c       0x9c /home/jbrawley/Desktop/rockbox-photo-cf-support/build/firmware/libfirmware.a(dircache.o)
 .ncbss         0x000000001011aae8       0x18 /home/jbrawley/Desktop/rockbox-photo-cf-support/build/firmware/libfirmware.a(rb_namespace.o)
 .ncbss         0x000000001011ab00       0x9c /home/jbrawley/Desktop/rockbox-photo-cf-support/build/firmware/libfirmware.a(button.o)
                0x000000001011ab00                button_queue
 .ncbss         0x000000001011ab9c       0x18 /home/jbrawley/Desktop/rockbox-photo-cf-support/build/firmware/libfirmware.a(ata.o)
 .ncbss         0x000000001011abb4       0x9c /home/jbrawley/Desktop/rockbox-photo-cf-support/build/firmware/libfirmware.a(storage.o)
 .ncbss         0x000000001011ac50       0x28 /home/jbrawley/Desktop/rockbox-photo-cf-support/build/firmware/libfirmware.a(pcm.o)
                0x000000001011ac50                pcm_recording
                0x000000001011ac58                pcm_rec_status_callback
                0x000000001011ac5c                pcm_callback_for_more
                0x000000001011ac60                pcm_play_status_callback
                0x000000001011ac64                pcm_playing
                0x000000001011ac68                pcm_curr_sampr
                0x000000001011ac6c                pcm_sampr
                0x000000001011ac70                pcm_fsel
 .ncbss         0x000000001011ac78       0x18 /home/jbrawley/Desktop/rockbox-photo-cf-support/build/firmware/libfirmware.a(i2c-pp.o)
 .ncbss         0x000000001011ac90        0x4 /home/jbrawley/Desktop/rockbox-photo-cf-support/build/firmware/libfirmware.a(timer-pp.o)
 .ncbss         0x000000001011ac94        0x3 /home/jbrawley/Desktop/rockbox-photo-cf-support/build/firmware/libfirmware.a(system-pp502x.o)
 *fill*         0x000000001011ac97        0x1 
 .ncbss         0x000000001011ac98       0x78 /home/jbrawley/Desktop/rockbox-photo-cf-support/build/firmware/libfirmware.a(usb-drv-arc.o)
 .ncbss         0x000000001011ad10       0x88 /home/jbrawley/Desktop/rockbox-photo-cf-support/build/firmware/libfirmware.a(queue.o)
 .ncbss         0x000000001011ad98        0x8 /home/jbrawley/Desktop/rockbox-photo-cf-support/build/firmware/libfirmware.a(thread-common.o)
 .ncbss         0x000000001011ada0       0x18 /home/jbrawley/Desktop/rockbox-photo-cf-support/build/firmware/libfirmware.a(disk_cache.o)
                0x000000001011ada0                disk_cache_mutex
                0x000000001011adc0                . = ALIGN (0x10)
 *fill*         0x000000001011adb8        0x8 

.endaddr        0x000000000011adc0        0x0
                0x000000000011adc0                _end = .

.audiobuf       0x000000000011adc0        0x0
                0x000000000011adc0                _audiobuffer = .
                0x000000000011adc0                . = ALIGN (0x4)
                0x000000000011adc0                audiobuffer = .

.audiobufend    0x0000000001e80000        0x0
                0x0000000001e80000                audiobufend = .
                0x0000000001e80000                _audiobufend = .

.codec          0x0000000001e80000        0x0
                0x0000000001e80000                codecbuf = .
                0x0000000001e80000                _codecbuf = .

.plugin         0x0000000001f80000        0x0
                0x0000000001f80000                _pluginbuf = .
                0x0000000001f80000                pluginbuf = .
OUTPUT(/home/jbrawley/Desktop/rockbox-photo-cf-support/build/rockbox.elf elf32-littlearm)

.ARM.attributes
                0x0000000000000000       0x2c
 .ARM.attributes
                0x0000000000000000       0x20 /home/jbrawley/Desktop/rockbox-photo-cf-support/build/firmware/target/arm/pp/crt0-pp.o
 .ARM.attributes
                0x0000000000000020       0x30 /home/jbrawley/Desktop/rockbox-photo-cf-support/build/apps/action.o
 .ARM.attributes
                0x0000000000000050       0x30 /home/jbrawley/Desktop/rockbox-photo-cf-support/build/apps/alarm_menu.o
 .ARM.attributes
                0x0000000000000080       0x30 /home/jbrawley/Desktop/rockbox-photo-cf-support/build/apps/abrepeat.o
 .ARM.attributes
                0x00000000000000b0       0x30 /home/jbrawley/Desktop/rockbox-photo-cf-support/build/apps/bookmark.o
 .ARM.attributes
                0x00000000000000e0       0x30 /home/jbrawley/Desktop/rockbox-photo-cf-support/build/apps/core_keymap.o
 .ARM.attributes
                0x0000000000000110       0x30 /home/jbrawley/Desktop/rockbox-photo-cf-support/build/apps/debug_menu.o
 .ARM.attributes
                0x0000000000000140       0x30 /home/jbrawley/Desktop/rockbox-photo-cf-support/build/apps/filetypes.o
 .ARM.attributes
                0x0000000000000170       0x30 /home/jbrawley/Desktop/rockbox-photo-cf-support/build/apps/language.o
 .ARM.attributes
                0x00000000000001a0       0x30 /home/jbrawley/Desktop/rockbox-photo-cf-support/build/apps/main.o
 .ARM.attributes
                0x00000000000001d0       0x30 /home/jbrawley/Desktop/rockbox-photo-cf-support/build/apps/menu.o
 .ARM.attributes
                0x0000000000000200       0x30 /home/jbrawley/Desktop/rockbox-photo-cf-support/build/apps/menus/menu_common.o
 .ARM.attributes
                0x0000000000000230       0x30 /home/jbrawley/Desktop/rockbox-photo-cf-support/build/apps/menus/display_menu.o
 .ARM.attributes
                0x0000000000000260       0x30 /home/jbrawley/Desktop/rockbox-photo-cf-support/build/apps/menus/theme_menu.o
 .ARM.attributes
                0x0000000000000290       0x30 /home/jbrawley/Desktop/rockbox-photo-cf-support/build/apps/menus/plugin_menu.o
 .ARM.attributes
                0x00000000000002c0       0x30 /home/jbrawley/Desktop/rockbox-photo-cf-support/build/apps/menus/radio_menu.o
 .ARM.attributes
                0x00000000000002f0       0x30 /home/jbrawley/Desktop/rockbox-photo-cf-support/build/apps/menus/eq_menu.o
 .ARM.attributes
                0x0000000000000320       0x30 /home/jbrawley/Desktop/rockbox-photo-cf-support/build/apps/buffering.o
 .ARM.attributes
                0x0000000000000350       0x30 /home/jbrawley/Desktop/rockbox-photo-cf-support/build/apps/voice_thread.o
 .ARM.attributes
                0x0000000000000380       0x30 /home/jbrawley/Desktop/rockbox-photo-cf-support/build/apps/rbcodec_helpers.o
 .ARM.attributes
                0x00000000000003b0       0x30 /home/jbrawley/Desktop/rockbox-photo-cf-support/build/apps/menus/main_menu.o
 .ARM.attributes
                0x00000000000003e0       0x30 /home/jbrawley/Desktop/rockbox-photo-cf-support/build/apps/menus/playback_menu.o
 .ARM.attributes
                0x0000000000000410       0x30 /home/jbrawley/Desktop/rockbox-photo-cf-support/build/apps/menus/playlist_menu.o
 .ARM.attributes
                0x0000000000000440       0x30 /home/jbrawley/Desktop/rockbox-photo-cf-support/build/apps/menus/recording_menu.o
 .ARM.attributes
                0x0000000000000470       0x30 /home/jbrawley/Desktop/rockbox-photo-cf-support/build/apps/menus/settings_menu.o
 .ARM.attributes
                0x00000000000004a0       0x30 /home/jbrawley/Desktop/rockbox-photo-cf-support/build/apps/menus/sound_menu.o
 .ARM.attributes
                0x00000000000004d0       0x30 /home/jbrawley/Desktop/rockbox-photo-cf-support/build/apps/menus/time_menu.o
 .ARM.attributes
                0x0000000000000500       0x30 /home/jbrawley/Desktop/rockbox-photo-cf-support/build/apps/misc.o
 .ARM.attributes
                0x0000000000000530       0x30 /home/jbrawley/Desktop/rockbox-photo-cf-support/build/apps/open_plugin.o
 .ARM.attributes
                0x0000000000000560       0x30 /home/jbrawley/Desktop/rockbox-photo-cf-support/build/apps/onplay.o
 .ARM.attributes
                0x0000000000000590       0x30 /home/jbrawley/Desktop/rockbox-photo-cf-support/build/apps/playlist.o
 .ARM.attributes
                0x00000000000005c0       0x30 /home/jbrawley/Desktop/rockbox-photo-cf-support/build/apps/playlist_catalog.o
 .ARM.attributes
                0x00000000000005f0       0x30 /home/jbrawley/Desktop/rockbox-photo-cf-support/build/apps/playlist_viewer.o
 .ARM.attributes
                0x0000000000000620       0x30 /home/jbrawley/Desktop/rockbox-photo-cf-support/build/apps/plugin.o
 .ARM.attributes
                0x0000000000000650       0x30 /home/jbrawley/Desktop/rockbox-photo-cf-support/build/apps/root_menu.o
 .ARM.attributes
                0x0000000000000680       0x30 /home/jbrawley/Desktop/rockbox-photo-cf-support/build/apps/screens.o
 .ARM.attributes
                0x00000000000006b0       0x30 /home/jbrawley/Desktop/rockbox-photo-cf-support/build/apps/settings.o
 .ARM.attributes
                0x00000000000006e0       0x30 /home/jbrawley/Desktop/rockbox-photo-cf-support/build/apps/settings_list.o
 .ARM.attributes
                0x0000000000000710       0x30 /home/jbrawley/Desktop/rockbox-photo-cf-support/build/apps/shortcuts.o
 .ARM.attributes
                0x0000000000000740       0x30 /home/jbrawley/Desktop/rockbox-photo-cf-support/build/apps/status.o
 .ARM.attributes
                0x0000000000000770       0x30 /home/jbrawley/Desktop/rockbox-photo-cf-support/build/apps/cuesheet.o
 .ARM.attributes
                0x00000000000007a0       0x30 /home/jbrawley/Desktop/rockbox-photo-cf-support/build/apps/talk.o
 .ARM.attributes
                0x00000000000007d0       0x30 /home/jbrawley/Desktop/rockbox-photo-cf-support/build/apps/tree.o
 .ARM.attributes
                0x0000000000000800       0x30 /home/jbrawley/Desktop/rockbox-photo-cf-support/build/apps/tagtree.o
 .ARM.attributes
                0x0000000000000830       0x30 /home/jbrawley/Desktop/rockbox-photo-cf-support/build/apps/filetree.o
 .ARM.attributes
                0x0000000000000860       0x30 /home/jbrawley/Desktop/rockbox-photo-cf-support/build/apps/iap/iap-core.o
 .ARM.attributes
                0x0000000000000890       0x30 /home/jbrawley/Desktop/rockbox-photo-cf-support/build/apps/iap/iap-lingo0.o
 .ARM.attributes
                0x00000000000008c0       0x30 /home/jbrawley/Desktop/rockbox-photo-cf-support/build/apps/iap/iap-lingo1.o
 .ARM.attributes
                0x00000000000008f0       0x30 /home/jbrawley/Desktop/rockbox-photo-cf-support/build/apps/iap/iap-lingo2.o
 .ARM.attributes
                0x0000000000000920       0x30 /home/jbrawley/Desktop/rockbox-photo-cf-support/build/apps/iap/iap-lingo3.o
 .ARM.attributes
                0x0000000000000950       0x30 /home/jbrawley/Desktop/rockbox-photo-cf-support/build/apps/iap/iap-lingo4.o
 .ARM.attributes
                0x0000000000000980       0x30 /home/jbrawley/Desktop/rockbox-photo-cf-support/build/apps/iap/iap-lingo7.o
 .ARM.attributes
                0x00000000000009b0       0x30 /home/jbrawley/Desktop/rockbox-photo-cf-support/build/apps/screen_access.o
 .ARM.attributes
                0x00000000000009e0       0x30 /home/jbrawley/Desktop/rockbox-photo-cf-support/build/apps/gui/icon.o
 .ARM.attributes
                0x0000000000000a10       0x30 /home/jbrawley/Desktop/rockbox-photo-cf-support/build/apps/gui/list.o
 .ARM.attributes
                0x0000000000000a40       0x30 /home/jbrawley/Desktop/rockbox-photo-cf-support/build/apps/gui/line.o
 .ARM.attributes
                0x0000000000000a70       0x30 /home/jbrawley/Desktop/rockbox-photo-cf-support/build/apps/gui/bitmap/list.o
 .ARM.attributes
                0x0000000000000aa0       0x30 /home/jbrawley/Desktop/rockbox-photo-cf-support/build/apps/gui/bitmap/list-skinned.o
 .ARM.attributes
                0x0000000000000ad0       0x30 /home/jbrawley/Desktop/rockbox-photo-cf-support/build/apps/gui/option_select.o
 .ARM.attributes
                0x0000000000000b00       0x30 /home/jbrawley/Desktop/rockbox-photo-cf-support/build/apps/gui/pitchscreen.o
 .ARM.attributes
                0x0000000000000b30       0x30 /home/jbrawley/Desktop/rockbox-photo-cf-support/build/apps/gui/quickscreen.o
 .ARM.attributes
                0x0000000000000b60       0x30 /home/jbrawley/Desktop/rockbox-photo-cf-support/build/apps/gui/mask_select.o
 .ARM.attributes
                0x0000000000000b90       0x30 /home/jbrawley/Desktop/rockbox-photo-cf-support/build/apps/gui/wps.o
 .ARM.attributes
                0x0000000000000bc0       0x30 /home/jbrawley/Desktop/rockbox-photo-cf-support/build/apps/gui/scrollbar.o
 .ARM.attributes
                0x0000000000000bf0       0x30 /home/jbrawley/Desktop/rockbox-photo-cf-support/build/apps/gui/splash.o
 .ARM.attributes
                0x0000000000000c20       0x30 /home/jbrawley/Desktop/rockbox-photo-cf-support/build/apps/gui/statusbar.o
 .ARM.attributes
                0x0000000000000c50       0x30 /home/jbrawley/Desktop/rockbox-photo-cf-support/build/apps/gui/statusbar-skinned.o
 .ARM.attributes
                0x0000000000000c80       0x30 /home/jbrawley/Desktop/rockbox-photo-cf-support/build/apps/gui/yesno.o
 .ARM.attributes
                0x0000000000000cb0       0x30 /home/jbrawley/Desktop/rockbox-photo-cf-support/build/apps/gui/viewport.o
 .ARM.attributes
                0x0000000000000ce0       0x30 /home/jbrawley/Desktop/rockbox-photo-cf-support/build/apps/gui/skin_engine/skin_backdrops.o
 .ARM.attributes
                0x0000000000000d10       0x30 /home/jbrawley/Desktop/rockbox-photo-cf-support/build/apps/gui/skin_engine/skin_display.o
 .ARM.attributes
                0x0000000000000d40       0x30 /home/jbrawley/Desktop/rockbox-photo-cf-support/build/apps/gui/skin_engine/skin_engine.o
 .ARM.attributes
                0x0000000000000d70       0x30 /home/jbrawley/Desktop/rockbox-photo-cf-support/build/apps/gui/skin_engine/skin_parser.o
 .ARM.attributes
                0x0000000000000da0       0x30 /home/jbrawley/Desktop/rockbox-photo-cf-support/build/apps/gui/skin_engine/skin_render.o
 .ARM.attributes
                0x0000000000000dd0       0x30 /home/jbrawley/Desktop/rockbox-photo-cf-support/build/apps/gui/skin_engine/skin_tokens.o
 .ARM.attributes
                0x0000000000000e00       0x30 /home/jbrawley/Desktop/rockbox-photo-cf-support/build/apps/gui/backdrop.o
 .ARM.attributes
                0x0000000000000e30       0x30 /home/jbrawley/Desktop/rockbox-photo-cf-support/build/apps/recorder/bmp.o
 .ARM.attributes
                0x0000000000000e60       0x30 /home/jbrawley/Desktop/rockbox-photo-cf-support/build/apps/recorder/icons.o
 .ARM.attributes
                0x0000000000000e90       0x30 /home/jbrawley/Desktop/rockbox-photo-cf-support/build/apps/recorder/keyboard.o
 .ARM.attributes
                0x0000000000000ec0       0x30 /home/jbrawley/Desktop/rockbox-photo-cf-support/build/apps/recorder/peakmeter.o
 .ARM.attributes
                0x0000000000000ef0       0x30 /home/jbrawley/Desktop/rockbox-photo-cf-support/build/apps/recorder/resize.o
 .ARM.attributes
                0x0000000000000f20       0x30 /home/jbrawley/Desktop/rockbox-photo-cf-support/build/apps/recorder/jpeg_load.o
 .ARM.attributes
                0x0000000000000f50       0x20 /home/jbrawley/Desktop/rockbox-photo-cf-support/build/apps/recorder/jpeg_idct_arm.o
 .ARM.attributes
                0x0000000000000f70       0x30 /home/jbrawley/Desktop/rockbox-photo-cf-support/build/apps/recorder/albumart.o
 .ARM.attributes
                0x0000000000000fa0       0x30 /home/jbrawley/Desktop/rockbox-photo-cf-support/build/apps/gui/color_picker.o
 .ARM.attributes
                0x0000000000000fd0       0x30 /home/jbrawley/Desktop/rockbox-photo-cf-support/build/apps/recorder/recording.o
 .ARM.attributes
                0x0000000000001000       0x30 /home/jbrawley/Desktop/rockbox-photo-cf-support/build/apps/radio/radio.o
 .ARM.attributes
                0x0000000000001030       0x30 /home/jbrawley/Desktop/rockbox-photo-cf-support/build/apps/radio/presets.o
 .ARM.attributes
                0x0000000000001060       0x30 /home/jbrawley/Desktop/rockbox-photo-cf-support/build/apps/radio/radio_skin.o
 .ARM.attributes
                0x0000000000001090       0x30 /home/jbrawley/Desktop/rockbox-photo-cf-support/build/apps/radio/radioart.o
 .ARM.attributes
                0x00000000000010c0       0x30 /home/jbrawley/Desktop/rockbox-photo-cf-support/build/apps/audio_path.o
 .ARM.attributes
                0x00000000000010f0       0x30 /home/jbrawley/Desktop/rockbox-photo-cf-support/build/apps/audio_thread.o
 .ARM.attributes
                0x0000000000001120       0x30 /home/jbrawley/Desktop/rockbox-photo-cf-support/build/apps/pcmbuf.o
 .ARM.attributes
                0x0000000000001150       0x30 /home/jbrawley/Desktop/rockbox-photo-cf-support/build/apps/codec_thread.o
 .ARM.attributes
                0x0000000000001180       0x30 /home/jbrawley/Desktop/rockbox-photo-cf-support/build/apps/playback.o
 .ARM.attributes
                0x00000000000011b0       0x30 /home/jbrawley/Desktop/rockbox-photo-cf-support/build/apps/codecs.o
 .ARM.attributes
                0x00000000000011e0       0x30 /home/jbrawley/Desktop/rockbox-photo-cf-support/build/apps/beep.o
 .ARM.attributes
                0x0000000000001210       0x30 /home/jbrawley/Desktop/rockbox-photo-cf-support/build/apps/enc_config.o
 .ARM.attributes
                0x0000000000001240       0x30 /home/jbrawley/Desktop/rockbox-photo-cf-support/build/apps/recorder/pcm_record.o
 .ARM.attributes
                0x0000000000001270       0x30 /home/jbrawley/Desktop/rockbox-photo-cf-support/build/apps/usb_keymaps.o
 .ARM.attributes
                0x00000000000012a0       0x30 /home/jbrawley/Desktop/rockbox-photo-cf-support/build/apps/gui/usb_screen.o
 .ARM.attributes
                0x00000000000012d0       0x30 /home/jbrawley/Desktop/rockbox-photo-cf-support/build/apps/tagcache.o
 .ARM.attributes
                0x0000000000001300       0x30 /home/jbrawley/Desktop/rockbox-photo-cf-support/build/apps/keymaps/keymap-ipod.o
 .ARM.attributes
                0x0000000000001330       0x30 /home/jbrawley/Desktop/rockbox-photo-cf-support/build/apps/bitmaps/mono/default_icons.o
 .ARM.attributes
                0x0000000000001360       0x30 /home/jbrawley/Desktop/rockbox-photo-cf-support/build/apps/bitmaps/native/rockboxlogo.220x68x16.o
 .ARM.attributes
                0x0000000000001390       0x30 /home/jbrawley/Desktop/rockbox-photo-cf-support/build/apps/bitmaps/native/usblogo.176x48x16.o
 .ARM.attributes
                0x00000000000013c0       0x30 /home/jbrawley/Desktop/rockbox-photo-cf-support/build/lang/lang_core.o
 .ARM.attributes
                0x00000000000013f0       0x30 /home/jbrawley/Desktop/rockbox-photo-cf-support/build/lib/rbcodec/codecs/libspeex-voice.a(bits.o)
 .ARM.attributes
                0x0000000000001420       0x30 /home/jbrawley/Desktop/rockbox-photo-cf-support/build/lib/rbcodec/codecs/libspeex-voice.a(modes_wb.o)
 .ARM.attributes
                0x0000000000001450       0x30 /home/jbrawley/Desktop/rockbox-photo-cf-support/build/lib/rbcodec/codecs/libspeex-voice.a(quant_lsp.o)
 .ARM.attributes
                0x0000000000001480       0x30 /home/jbrawley/Desktop/rockbox-photo-cf-support/build/lib/rbcodec/codecs/libspeex-voice.a(sb_celp.o)
 .ARM.attributes
                0x00000000000014b0       0x30 /home/jbrawley/Desktop/rockbox-photo-cf-support/build/lib/rbcodec/codecs/libspeex-voice.a(speex.o)
 .ARM.attributes
                0x00000000000014e0       0x20 /home/jbrawley/Desktop/rockbox-photo-cf-support/build/lib/rbcodec/codecs/libspeex-voice.a(filters_arm4.o)
 .ARM.attributes
                0x0000000000001500       0x30 /home/jbrawley/Desktop/rockbox-photo-cf-support/build/lib/rbcodec/codecs/libspeex-voice.a(cb_search.o)
 .ARM.attributes
                0x0000000000001530       0x30 /home/jbrawley/Desktop/rockbox-photo-cf-support/build/lib/rbcodec/codecs/libspeex-voice.a(filters.o)
 .ARM.attributes
                0x0000000000001560       0x30 /home/jbrawley/Desktop/rockbox-photo-cf-support/build/lib/rbcodec/codecs/libspeex-voice.a(hexc_10_32_table.o)
 .ARM.attributes
                0x0000000000001590       0x30 /home/jbrawley/Desktop/rockbox-photo-cf-support/build/lib/rbcodec/codecs/libspeex-voice.a(hexc_table.o)
 .ARM.attributes
                0x00000000000015c0       0x30 /home/jbrawley/Desktop/rockbox-photo-cf-support/build/lib/rbcodec/codecs/libspeex-voice.a(high_lsp_tables.o)
 .ARM.attributes
                0x00000000000015f0       0x30 /home/jbrawley/Desktop/rockbox-photo-cf-support/build/lib/rbcodec/codecs/libspeex-voice.a(lsp.o)
 .ARM.attributes
                0x0000000000001620       0x30 /home/jbrawley/Desktop/rockbox-photo-cf-support/build/lib/rbcodec/codecs/libspeex-voice.a(lsp_tables_nb.o)
 .ARM.attributes
                0x0000000000001650       0x30 /home/jbrawley/Desktop/rockbox-photo-cf-support/build/lib/rbcodec/codecs/libspeex-voice.a(ltp.o)
 .ARM.attributes
                0x0000000000001680       0x30 /home/jbrawley/Desktop/rockbox-photo-cf-support/build/lib/rbcodec/codecs/libspeex-voice.a(modes.o)
 .ARM.attributes
                0x00000000000016b0       0x30 /home/jbrawley/Desktop/rockbox-photo-cf-support/build/lib/rbcodec/codecs/libspeex-voice.a(nb_celp.o)
 .ARM.attributes
                0x00000000000016e0       0x30 /home/jbrawley/Desktop/rockbox-photo-cf-support/build/lib/rbcodec/codecs/libspeex-voice.a(speex_callbacks.o)
 .ARM.attributes
                0x0000000000001710       0x30 /home/jbrawley/Desktop/rockbox-photo-cf-support/build/lib/rbcodec/codecs/libspeex-voice.a(exc_10_16_table.o)
 .ARM.attributes
                0x0000000000001740       0x30 /home/jbrawley/Desktop/rockbox-photo-cf-support/build/lib/rbcodec/codecs/libspeex-voice.a(exc_10_32_table.o)
 .ARM.attributes
                0x0000000000001770       0x30 /home/jbrawley/Desktop/rockbox-photo-cf-support/build/lib/rbcodec/codecs/libspeex-voice.a(exc_20_32_table.o)
 .ARM.attributes
                0x00000000000017a0       0x30 /home/jbrawley/Desktop/rockbox-photo-cf-support/build/lib/rbcodec/codecs/libspeex-voice.a(exc_5_256_table.o)
 .ARM.attributes
                0x00000000000017d0       0x30 /home/jbrawley/Desktop/rockbox-photo-cf-support/build/lib/rbcodec/codecs/libspeex-voice.a(exc_5_64_table.o)
 .ARM.attributes
                0x0000000000001800       0x30 /home/jbrawley/Desktop/rockbox-photo-cf-support/build/lib/rbcodec/codecs/libspeex-voice.a(exc_8_128_table.o)
 .ARM.attributes
                0x0000000000001830       0x30 /home/jbrawley/Desktop/rockbox-photo-cf-support/build/lib/rbcodec/codecs/libspeex-voice.a(gain_table.o)
 .ARM.attributes
                0x0000000000001860       0x30 /home/jbrawley/Desktop/rockbox-photo-cf-support/build/lib/rbcodec/codecs/libspeex-voice.a(gain_table_lbr.o)
 .ARM.attributes
                0x0000000000001890       0x30 /home/jbrawley/Desktop/rockbox-photo-cf-support/build/lib/librbcodec.a(metadata.o)
 .ARM.attributes
                0x00000000000018c0       0x30 /home/jbrawley/Desktop/rockbox-photo-cf-support/build/lib/librbcodec.a(id3tags.o)
 .ARM.attributes
                0x00000000000018f0       0x30 /home/jbrawley/Desktop/rockbox-photo-cf-support/build/lib/librbcodec.a(mp3.o)
 .ARM.attributes
                0x0000000000001920       0x30 /home/jbrawley/Desktop/rockbox-photo-cf-support/build/lib/librbcodec.a(mp3data.o)
 .ARM.attributes
                0x0000000000001950       0x30 /home/jbrawley/Desktop/rockbox-photo-cf-support/build/lib/librbcodec.a(compressor.o)
 .ARM.attributes
                0x0000000000001980       0x30 /home/jbrawley/Desktop/rockbox-photo-cf-support/build/lib/librbcodec.a(crossfeed.o)
 .ARM.attributes
                0x00000000000019b0       0x30 /home/jbrawley/Desktop/rockbox-photo-cf-support/build/lib/librbcodec.a(dsp_core.o)
 .ARM.attributes
                0x00000000000019e0       0x30 /home/jbrawley/Desktop/rockbox-photo-cf-support/build/lib/librbcodec.a(pbe.o)
 .ARM.attributes
                0x0000000000001a10       0x30 /home/jbrawley/Desktop/rockbox-photo-cf-support/build/lib/librbcodec.a(afr.o)
 .ARM.attributes
                0x0000000000001a40       0x30 /home/jbrawley/Desktop/rockbox-photo-cf-support/build/lib/librbcodec.a(surround.o)
 .ARM.attributes
                0x0000000000001a70       0x30 /home/jbrawley/Desktop/rockbox-photo-cf-support/build/lib/librbcodec.a(dsp_filter.o)
 .ARM.attributes
                0x0000000000001aa0       0x30 /home/jbrawley/Desktop/rockbox-photo-cf-support/build/lib/librbcodec.a(dsp_misc.o)
 .ARM.attributes
                0x0000000000001ad0       0x30 /home/jbrawley/Desktop/rockbox-photo-cf-support/build/lib/librbcodec.a(dsp_sample_io.o)
 .ARM.attributes
                0x0000000000001b00       0x30 /home/jbrawley/Desktop/rockbox-photo-cf-support/build/lib/librbcodec.a(dsp_sample_input.o)
 .ARM.attributes
                0x0000000000001b30       0x30 /home/jbrawley/Desktop/rockbox-photo-cf-support/build/lib/librbcodec.a(dsp_sample_output.o)
 .ARM.attributes
                0x0000000000001b60       0x30 /home/jbrawley/Desktop/rockbox-photo-cf-support/build/lib/librbcodec.a(eq.o)
 .ARM.attributes
                0x0000000000001b90       0x30 /home/jbrawley/Desktop/rockbox-photo-cf-support/build/lib/librbcodec.a(resample.o)
 .ARM.attributes
                0x0000000000001bc0       0x30 /home/jbrawley/Desktop/rockbox-photo-cf-support/build/lib/librbcodec.a(pga.o)
 .ARM.attributes
                0x0000000000001bf0       0x30 /home/jbrawley/Desktop/rockbox-photo-cf-support/build/lib/librbcodec.a(tdspeed.o)
 .ARM.attributes
                0x0000000000001c20       0x20 /home/jbrawley/Desktop/rockbox-photo-cf-support/build/lib/librbcodec.a(dsp_arm.o)
 .ARM.attributes
                0x0000000000001c40       0x30 /home/jbrawley/Desktop/rockbox-photo-cf-support/build/lib/librbcodec.a(replaygain.o)
 .ARM.attributes
                0x0000000000001c70       0x30 /home/jbrawley/Desktop/rockbox-photo-cf-support/build/lib/librbcodec.a(metadata_common.o)
 .ARM.attributes
                0x0000000000001ca0       0x30 /home/jbrawley/Desktop/rockbox-photo-cf-support/build/lib/librbcodec.a(a52.o)
 .ARM.attributes
                0x0000000000001cd0       0x30 /home/jbrawley/Desktop/rockbox-photo-cf-support/build/lib/librbcodec.a(adx.o)
 .ARM.attributes
                0x0000000000001d00       0x30 /home/jbrawley/Desktop/rockbox-photo-cf-support/build/lib/librbcodec.a(aiff.o)
 .ARM.attributes
                0x0000000000001d30       0x30 /home/jbrawley/Desktop/rockbox-photo-cf-support/build/lib/librbcodec.a(asap.o)
 .ARM.attributes
                0x0000000000001d60       0x30 /home/jbrawley/Desktop/rockbox-photo-cf-support/build/lib/librbcodec.a(asf.o)
 .ARM.attributes
                0x0000000000001d90       0x30 /home/jbrawley/Desktop/rockbox-photo-cf-support/build/lib/librbcodec.a(au.o)
 .ARM.attributes
                0x0000000000001dc0       0x30 /home/jbrawley/Desktop/rockbox-photo-cf-support/build/lib/librbcodec.a(ay.o)
 .ARM.attributes
                0x0000000000001df0       0x30 /home/jbrawley/Desktop/rockbox-photo-cf-support/build/lib/librbcodec.a(flac.o)
 .ARM.attributes
                0x0000000000001e20       0x30 /home/jbrawley/Desktop/rockbox-photo-cf-support/build/lib/librbcodec.a(gbs.o)
 .ARM.attributes
                0x0000000000001e50       0x30 /home/jbrawley/Desktop/rockbox-photo-cf-support/build/lib/librbcodec.a(hes.o)
 .ARM.attributes
                0x0000000000001e80       0x30 /home/jbrawley/Desktop/rockbox-photo-cf-support/build/lib/librbcodec.a(kss.o)
 .ARM.attributes
                0x0000000000001eb0       0x30 /home/jbrawley/Desktop/rockbox-photo-cf-support/build/lib/librbcodec.a(mod.o)
 .ARM.attributes
                0x0000000000001ee0       0x30 /home/jbrawley/Desktop/rockbox-photo-cf-support/build/lib/librbcodec.a(monkeys.o)
 .ARM.attributes
                0x0000000000001f10       0x30 /home/jbrawley/Desktop/rockbox-photo-cf-support/build/lib/librbcodec.a(mp4.o)
 .ARM.attributes
                0x0000000000001f40       0x30 /home/jbrawley/Desktop/rockbox-photo-cf-support/build/lib/librbcodec.a(mpc.o)
 .ARM.attributes
                0x0000000000001f70       0x30 /home/jbrawley/Desktop/rockbox-photo-cf-support/build/lib/librbcodec.a(nsf.o)
 .ARM.attributes
                0x0000000000001fa0       0x30 /home/jbrawley/Desktop/rockbox-photo-cf-support/build/lib/librbcodec.a(ogg.o)
 .ARM.attributes
                0x0000000000001fd0       0x30 /home/jbrawley/Desktop/rockbox-photo-cf-support/build/lib/librbcodec.a(oma.o)
 .ARM.attributes
                0x0000000000002000       0x30 /home/jbrawley/Desktop/rockbox-photo-cf-support/build/lib/librbcodec.a(rm.o)
 .ARM.attributes
                0x0000000000002030       0x30 /home/jbrawley/Desktop/rockbox-photo-cf-support/build/lib/librbcodec.a(sgc.o)
 .ARM.attributes
                0x0000000000002060       0x30 /home/jbrawley/Desktop/rockbox-photo-cf-support/build/lib/librbcodec.a(sid.o)
 .ARM.attributes
                0x0000000000002090       0x30 /home/jbrawley/Desktop/rockbox-photo-cf-support/build/lib/librbcodec.a(smaf.o)
 .ARM.attributes
                0x00000000000020c0       0x30 /home/jbrawley/Desktop/rockbox-photo-cf-support/build/lib/librbcodec.a(spc.o)
 .ARM.attributes
                0x00000000000020f0       0x30 /home/jbrawley/Desktop/rockbox-photo-cf-support/build/lib/librbcodec.a(tta.o)
 .ARM.attributes
                0x0000000000002120       0x30 /home/jbrawley/Desktop/rockbox-photo-cf-support/build/lib/librbcodec.a(vgm.o)
 .ARM.attributes
                0x0000000000002150       0x30 /home/jbrawley/Desktop/rockbox-photo-cf-support/build/lib/librbcodec.a(vorbis.o)
 .ARM.attributes
                0x0000000000002180       0x30 /home/jbrawley/Desktop/rockbox-photo-cf-support/build/lib/librbcodec.a(vox.o)
 .ARM.attributes
                0x00000000000021b0       0x30 /home/jbrawley/Desktop/rockbox-photo-cf-support/build/lib/librbcodec.a(wave.o)
 .ARM.attributes
                0x00000000000021e0       0x30 /home/jbrawley/Desktop/rockbox-photo-cf-support/build/lib/librbcodec.a(wavpack.o)
 .ARM.attributes
                0x0000000000002210       0x30 /home/jbrawley/Desktop/rockbox-photo-cf-support/build/lib/librbcodec.a(aac.o)
 .ARM.attributes
                0x0000000000002240       0x30 /home/jbrawley/Desktop/rockbox-photo-cf-support/build/lib/librbcodec.a(channel_mode.o)
 .ARM.attributes
                0x0000000000002270       0x30 /home/jbrawley/Desktop/rockbox-photo-cf-support/build/lib/librbcodec.a(ape.o)
 .ARM.attributes
                0x00000000000022a0       0x20 /home/jbrawley/Desktop/rockbox-photo-cf-support/build/firmware/libfirmware.a(ffs.o)
 .ARM.attributes
                0x00000000000022c0       0x20 /home/jbrawley/Desktop/rockbox-photo-cf-support/build/firmware/libfirmware.a(memcpy.o)
 .ARM.attributes
                0x00000000000022e0       0x20 /home/jbrawley/Desktop/rockbox-photo-cf-support/build/firmware/libfirmware.a(memmove.o)
 .ARM.attributes
                0x0000000000002300       0x20 /home/jbrawley/Desktop/rockbox-photo-cf-support/build/firmware/libfirmware.a(memset.o)
 .ARM.attributes
                0x0000000000002320       0x30 /home/jbrawley/Desktop/rockbox-photo-cf-support/build/firmware/libfirmware.a(strlen.o)
 .ARM.attributes
                0x0000000000002350       0x30 /home/jbrawley/Desktop/rockbox-photo-cf-support/build/firmware/libfirmware.a(ata_idle_notify.o)
 .ARM.attributes
                0x0000000000002380       0x30 /home/jbrawley/Desktop/rockbox-photo-cf-support/build/firmware/libfirmware.a(events.o)
 .ARM.attributes
                0x00000000000023b0       0x30 /home/jbrawley/Desktop/rockbox-photo-cf-support/build/firmware/libfirmware.a(backlight.o)
 .ARM.attributes
                0x00000000000023e0       0x30 /home/jbrawley/Desktop/rockbox-photo-cf-support/build/firmware/libfirmware.a(buflib_mempool.o)
 .ARM.attributes
                0x0000000000002410       0x30 /home/jbrawley/Desktop/rockbox-photo-cf-support/build/firmware/libfirmware.a(core_alloc.o)
 .ARM.attributes
                0x0000000000002440       0x30 /home/jbrawley/Desktop/rockbox-photo-cf-support/build/firmware/libfirmware.a(general.o)
 .ARM.attributes
                0x0000000000002470       0x30 /home/jbrawley/Desktop/rockbox-photo-cf-support/build/firmware/libfirmware.a(powermgmt.o)
 .ARM.attributes
                0x00000000000024a0       0x30 /home/jbrawley/Desktop/rockbox-photo-cf-support/build/firmware/libfirmware.a(system.o)
 .ARM.attributes
                0x00000000000024d0       0x30 /home/jbrawley/Desktop/rockbox-photo-cf-support/build/firmware/libfirmware.a(usb.o)
 .ARM.attributes
                0x0000000000002500       0x30 /home/jbrawley/Desktop/rockbox-photo-cf-support/build/firmware/libfirmware.a(load_code.o)
 .ARM.attributes
                0x0000000000002530       0x30 /home/jbrawley/Desktop/rockbox-photo-cf-support/build/firmware/libfirmware.a(rolo.o)
 .ARM.attributes
                0x0000000000002560       0x30 /home/jbrawley/Desktop/rockbox-photo-cf-support/build/firmware/libfirmware.a(timer.o)
 .ARM.attributes
                0x0000000000002590       0x30 /home/jbrawley/Desktop/rockbox-photo-cf-support/build/firmware/libfirmware.a(panic.o)
 .ARM.attributes
                0x00000000000025c0       0x30 /home/jbrawley/Desktop/rockbox-photo-cf-support/build/firmware/libfirmware.a(strptokspn.o)
 .ARM.attributes
                0x00000000000025f0       0x30 /home/jbrawley/Desktop/rockbox-photo-cf-support/build/firmware/libfirmware.a(version.o)
 .ARM.attributes
                0x0000000000002620       0x30 /home/jbrawley/Desktop/rockbox-photo-cf-support/build/firmware/libfirmware.a(crc32.o)
 .ARM.attributes
                0x0000000000002650       0x30 /home/jbrawley/Desktop/rockbox-photo-cf-support/build/firmware/libfirmware.a(loader_strerror.o)
 .ARM.attributes
                0x0000000000002680       0x30 /home/jbrawley/Desktop/rockbox-photo-cf-support/build/firmware/libfirmware.a(dir.o)
 .ARM.attributes
                0x00000000000026b0       0x30 /home/jbrawley/Desktop/rockbox-photo-cf-support/build/firmware/libfirmware.a(file.o)
 .ARM.attributes
                0x00000000000026e0       0x30 /home/jbrawley/Desktop/rockbox-photo-cf-support/build/firmware/libfirmware.a(file_internal.o)
 .ARM.attributes
                0x0000000000002710       0x30 /home/jbrawley/Desktop/rockbox-photo-cf-support/build/firmware/libfirmware.a(disk.o)
 .ARM.attributes
                0x0000000000002740       0x30 /home/jbrawley/Desktop/rockbox-photo-cf-support/build/firmware/libfirmware.a(fileobj_mgr.o)
 .ARM.attributes
                0x0000000000002770       0x30 /home/jbrawley/Desktop/rockbox-photo-cf-support/build/firmware/libfirmware.a(dircache.o)
 .ARM.attributes
                0x00000000000027a0       0x30 /home/jbrawley/Desktop/rockbox-photo-cf-support/build/firmware/libfirmware.a(pathfuncs.o)
 .ARM.attributes
                0x00000000000027d0       0x30 /home/jbrawley/Desktop/rockbox-photo-cf-support/build/firmware/libfirmware.a(fdprintf.o)
 .ARM.attributes
                0x0000000000002800       0x30 /home/jbrawley/Desktop/rockbox-photo-cf-support/build/firmware/libfirmware.a(linked_list.o)
 .ARM.attributes
                0x0000000000002830       0x30 /home/jbrawley/Desktop/rockbox-photo-cf-support/build/firmware/libfirmware.a(rb_namespace.o)
 .ARM.attributes
                0x0000000000002860       0x30 /home/jbrawley/Desktop/rockbox-photo-cf-support/build/firmware/libfirmware.a(strcasecmp.o)
 .ARM.attributes
                0x0000000000002890       0x30 /home/jbrawley/Desktop/rockbox-photo-cf-support/build/firmware/libfirmware.a(strcasestr.o)
 .ARM.attributes
                0x00000000000028c0       0x30 /home/jbrawley/Desktop/rockbox-photo-cf-support/build/firmware/libfirmware.a(strnatcmp.o)
 .ARM.attributes
                0x00000000000028f0       0x30 /home/jbrawley/Desktop/rockbox-photo-cf-support/build/firmware/libfirmware.a(strlcat.o)
 .ARM.attributes
                0x0000000000002920       0x30 /home/jbrawley/Desktop/rockbox-photo-cf-support/build/firmware/libfirmware.a(strlcpy.o)
 .ARM.attributes
                0x0000000000002950       0x30 /home/jbrawley/Desktop/rockbox-photo-cf-support/build/firmware/libfirmware.a(strmemccpy.o)
 .ARM.attributes
                0x0000000000002980       0x30 /home/jbrawley/Desktop/rockbox-photo-cf-support/build/firmware/libfirmware.a(structec.o)
 .ARM.attributes
                0x00000000000029b0       0x30 /home/jbrawley/Desktop/rockbox-photo-cf-support/build/firmware/libfirmware.a(timefuncs.o)
 .ARM.attributes
                0x00000000000029e0       0x30 /home/jbrawley/Desktop/rockbox-photo-cf-support/build/firmware/libfirmware.a(unicode.o)
 .ARM.attributes
                0x0000000000002a10       0x30 /home/jbrawley/Desktop/rockbox-photo-cf-support/build/firmware/libfirmware.a(vuprintf.o)
 .ARM.attributes
                0x0000000000002a40       0x30 /home/jbrawley/Desktop/rockbox-photo-cf-support/build/firmware/libfirmware.a(atoi.o)
 .ARM.attributes
                0x0000000000002a70       0x30 /home/jbrawley/Desktop/rockbox-photo-cf-support/build/firmware/libfirmware.a(errno.o)
 .ARM.attributes
                0x0000000000002aa0       0x30 /home/jbrawley/Desktop/rockbox-photo-cf-support/build/firmware/libfirmware.a(ctype.o)
 .ARM.attributes
                0x0000000000002ad0       0x30 /home/jbrawley/Desktop/rockbox-photo-cf-support/build/firmware/libfirmware.a(sprintf.o)
 .ARM.attributes
                0x0000000000002b00       0x30 /home/jbrawley/Desktop/rockbox-photo-cf-support/build/firmware/libfirmware.a(memccpy.o)
 .ARM.attributes
                0x0000000000002b30       0x30 /home/jbrawley/Desktop/rockbox-photo-cf-support/build/firmware/libfirmware.a(memchr.o)
 .ARM.attributes
                0x0000000000002b60       0x30 /home/jbrawley/Desktop/rockbox-photo-cf-support/build/firmware/libfirmware.a(memcmp.o)
 .ARM.attributes
                0x0000000000002b90       0x30 /home/jbrawley/Desktop/rockbox-photo-cf-support/build/firmware/libfirmware.a(qsort.o)
 .ARM.attributes
                0x0000000000002bc0       0x30 /home/jbrawley/Desktop/rockbox-photo-cf-support/build/firmware/libfirmware.a(random.o)
 .ARM.attributes
                0x0000000000002bf0       0x30 /home/jbrawley/Desktop/rockbox-photo-cf-support/build/firmware/libfirmware.a(strcat.o)
 .ARM.attributes
                0x0000000000002c20       0x30 /home/jbrawley/Desktop/rockbox-photo-cf-support/build/firmware/libfirmware.a(strchr.o)
 .ARM.attributes
                0x0000000000002c50       0x30 /home/jbrawley/Desktop/rockbox-photo-cf-support/build/firmware/libfirmware.a(strcmp.o)
 .ARM.attributes
                0x0000000000002c80       0x30 /home/jbrawley/Desktop/rockbox-photo-cf-support/build/firmware/libfirmware.a(strcpy.o)
 .ARM.attributes
                0x0000000000002cb0       0x30 /home/jbrawley/Desktop/rockbox-photo-cf-support/build/firmware/libfirmware.a(strcspn.o)
 .ARM.attributes
                0x0000000000002ce0       0x30 /home/jbrawley/Desktop/rockbox-photo-cf-support/build/firmware/libfirmware.a(strncmp.o)
 .ARM.attributes
                0x0000000000002d10       0x30 /home/jbrawley/Desktop/rockbox-photo-cf-support/build/firmware/libfirmware.a(strrchr.o)
 .ARM.attributes
                0x0000000000002d40       0x30 /home/jbrawley/Desktop/rockbox-photo-cf-support/build/firmware/libfirmware.a(strstr.o)
 .ARM.attributes
                0x0000000000002d70       0x30 /home/jbrawley/Desktop/rockbox-photo-cf-support/build/firmware/libfirmware.a(mktime.o)
 .ARM.attributes
                0x0000000000002da0       0x30 /home/jbrawley/Desktop/rockbox-photo-cf-support/build/firmware/libfirmware.a(gmtime.o)
 .ARM.attributes
                0x0000000000002dd0       0x30 /home/jbrawley/Desktop/rockbox-photo-cf-support/build/firmware/libfirmware.a(scroll_engine.o)
 .ARM.attributes
                0x0000000000002e00       0x30 /home/jbrawley/Desktop/rockbox-photo-cf-support/build/firmware/libfirmware.a(bidi.o)
 .ARM.attributes
                0x0000000000002e30       0x30 /home/jbrawley/Desktop/rockbox-photo-cf-support/build/firmware/libfirmware.a(font.o)
 .ARM.attributes
                0x0000000000002e60       0x30 /home/jbrawley/Desktop/rockbox-photo-cf-support/build/firmware/libfirmware.a(hangul.o)
 .ARM.attributes
                0x0000000000002e90       0x30 /home/jbrawley/Desktop/rockbox-photo-cf-support/build/firmware/libfirmware.a(lru.o)
 .ARM.attributes
                0x0000000000002ec0       0x30 /home/jbrawley/Desktop/rockbox-photo-cf-support/build/firmware/libfirmware.a(screendump.o)
 .ARM.attributes
                0x0000000000002ef0       0x30 /home/jbrawley/Desktop/rockbox-photo-cf-support/build/firmware/libfirmware.a(lcd-16bit.o)
 .ARM.attributes
                0x0000000000002f20       0x30 /home/jbrawley/Desktop/rockbox-photo-cf-support/build/firmware/libfirmware.a(diacritic.o)
 .ARM.attributes
                0x0000000000002f50       0x30 /home/jbrawley/Desktop/rockbox-photo-cf-support/build/firmware/libfirmware.a(led.o)
 .ARM.attributes
                0x0000000000002f80       0x30 /home/jbrawley/Desktop/rockbox-photo-cf-support/build/firmware/libfirmware.a(button.o)
 .ARM.attributes
                0x0000000000002fb0       0x30 /home/jbrawley/Desktop/rockbox-photo-cf-support/build/firmware/libfirmware.a(ata.o)
 .ARM.attributes
                0x0000000000002fe0       0x30 /home/jbrawley/Desktop/rockbox-photo-cf-support/build/firmware/libfirmware.a(storage.o)
 .ARM.attributes
                0x0000000000003010       0x30 /home/jbrawley/Desktop/rockbox-photo-cf-support/build/firmware/libfirmware.a(fat.o)
 .ARM.attributes
                0x0000000000003040       0x30 /home/jbrawley/Desktop/rockbox-photo-cf-support/build/firmware/libfirmware.a(rtc_pcf50605.o)
 .ARM.attributes
                0x0000000000003070       0x30 /home/jbrawley/Desktop/rockbox-photo-cf-support/build/firmware/libfirmware.a(tuner.o)
 .ARM.attributes
                0x00000000000030a0       0x30 /home/jbrawley/Desktop/rockbox-photo-cf-support/build/firmware/libfirmware.a(ipod_remote_tuner.o)
 .ARM.attributes
                0x00000000000030d0       0x30 /home/jbrawley/Desktop/rockbox-photo-cf-support/build/firmware/libfirmware.a(rds.o)
 .ARM.attributes
                0x0000000000003100       0x30 /home/jbrawley/Desktop/rockbox-photo-cf-support/build/firmware/libfirmware.a(sound.o)
 .ARM.attributes
                0x0000000000003130       0x30 /home/jbrawley/Desktop/rockbox-photo-cf-support/build/firmware/libfirmware.a(pcm_sampr.o)
 .ARM.attributes
                0x0000000000003160       0x30 /home/jbrawley/Desktop/rockbox-photo-cf-support/build/firmware/libfirmware.a(pcm.o)
 .ARM.attributes
                0x0000000000003190       0x30 /home/jbrawley/Desktop/rockbox-photo-cf-support/build/firmware/libfirmware.a(pcm_mixer.o)
 .ARM.attributes
                0x00000000000031c0       0x30 /home/jbrawley/Desktop/rockbox-photo-cf-support/build/firmware/libfirmware.a(enc_base.o)
 .ARM.attributes
                0x00000000000031f0       0x30 /home/jbrawley/Desktop/rockbox-photo-cf-support/build/firmware/libfirmware.a(audiohw-swcodec.o)
 .ARM.attributes
                0x0000000000003220       0x30 /home/jbrawley/Desktop/rockbox-photo-cf-support/build/firmware/libfirmware.a(wm8975.o)
 .ARM.attributes
                0x0000000000003250       0x30 /home/jbrawley/Desktop/rockbox-photo-cf-support/build/firmware/libfirmware.a(system-arm.o)
 .ARM.attributes
                0x0000000000003280       0x30 /home/jbrawley/Desktop/rockbox-photo-cf-support/build/firmware/libfirmware.a(ata-pp5020.o)
 .ARM.attributes
                0x00000000000032b0       0x20 /home/jbrawley/Desktop/rockbox-photo-cf-support/build/firmware/libfirmware.a(ata-as-arm.o)
 .ARM.attributes
                0x00000000000032d0       0x30 /home/jbrawley/Desktop/rockbox-photo-cf-support/build/firmware/libfirmware.a(power-ipod.o)
 .ARM.attributes
                0x0000000000003300       0x30 /home/jbrawley/Desktop/rockbox-photo-cf-support/build/firmware/libfirmware.a(piezo.o)
 .ARM.attributes
                0x0000000000003330       0x30 /home/jbrawley/Desktop/rockbox-photo-cf-support/build/firmware/libfirmware.a(pcf50605.o)
 .ARM.attributes
                0x0000000000003360       0x30 /home/jbrawley/Desktop/rockbox-photo-cf-support/build/firmware/libfirmware.a(powermgmt-ipod-pcf.o)
 .ARM.attributes
                0x0000000000003390       0x30 /home/jbrawley/Desktop/rockbox-photo-cf-support/build/firmware/libfirmware.a(i2c-pp.o)
 .ARM.attributes
                0x00000000000033c0       0x30 /home/jbrawley/Desktop/rockbox-photo-cf-support/build/firmware/libfirmware.a(timer-pp.o)
 .ARM.attributes
                0x00000000000033f0       0x30 /home/jbrawley/Desktop/rockbox-photo-cf-support/build/firmware/libfirmware.a(wmcodec-pp.o)
 .ARM.attributes
                0x0000000000003420       0x30 /home/jbrawley/Desktop/rockbox-photo-cf-support/build/firmware/libfirmware.a(usb-fw-pp502x.o)
 .ARM.attributes
                0x0000000000003450       0x30 /home/jbrawley/Desktop/rockbox-photo-cf-support/build/firmware/libfirmware.a(system-pp502x.o)
 .ARM.attributes
                0x0000000000003480       0x30 /home/jbrawley/Desktop/rockbox-photo-cf-support/build/firmware/libfirmware.a(uart-pp.o)
 .ARM.attributes
                0x00000000000034b0       0x30 /home/jbrawley/Desktop/rockbox-photo-cf-support/build/firmware/libfirmware.a(pcm-pp.o)
 .ARM.attributes
                0x00000000000034e0       0x30 /home/jbrawley/Desktop/rockbox-photo-cf-support/build/firmware/libfirmware.a(debug-pp.o)
 .ARM.attributes
                0x0000000000003510       0x30 /home/jbrawley/Desktop/rockbox-photo-cf-support/build/firmware/libfirmware.a(audio-pp.o)
 .ARM.attributes
                0x0000000000003540       0x30 /home/jbrawley/Desktop/rockbox-photo-cf-support/build/firmware/libfirmware.a(lcd-color_nano.o)
 .ARM.attributes
                0x0000000000003570       0x30 /home/jbrawley/Desktop/rockbox-photo-cf-support/build/firmware/libfirmware.a(usb_core.o)
 .ARM.attributes
                0x00000000000035a0       0x30 /home/jbrawley/Desktop/rockbox-photo-cf-support/build/firmware/libfirmware.a(usb_storage.o)
 .ARM.attributes
                0x00000000000035d0       0x30 /home/jbrawley/Desktop/rockbox-photo-cf-support/build/firmware/libfirmware.a(usb_hid.o)
 .ARM.attributes
                0x0000000000003600       0x30 /home/jbrawley/Desktop/rockbox-photo-cf-support/build/firmware/libfirmware.a(usb-drv-arc.o)
 .ARM.attributes
                0x0000000000003630       0x30 /home/jbrawley/Desktop/rockbox-photo-cf-support/build/firmware/libfirmware.a(adc-ipod-pcf.o)
 .ARM.attributes
                0x0000000000003660       0x30 /home/jbrawley/Desktop/rockbox-photo-cf-support/build/firmware/libfirmware.a(backlight-4g_color.o)
 .ARM.attributes
                0x0000000000003690       0x30 /home/jbrawley/Desktop/rockbox-photo-cf-support/build/firmware/libfirmware.a(button-clickwheel.o)
 .ARM.attributes
                0x00000000000036c0       0x20 /home/jbrawley/Desktop/rockbox-photo-cf-support/build/firmware/libfirmware.a(lcd-as-color-nano.o)
 .ARM.attributes
                0x00000000000036e0       0x30 /home/jbrawley/Desktop/rockbox-photo-cf-support/build/firmware/libfirmware.a(corelock.o)
 .ARM.attributes
                0x0000000000003710       0x30 /home/jbrawley/Desktop/rockbox-photo-cf-support/build/firmware/libfirmware.a(mrsw_lock.o)
 .ARM.attributes
                0x0000000000003740       0x30 /home/jbrawley/Desktop/rockbox-photo-cf-support/build/firmware/libfirmware.a(mutex.o)
 .ARM.attributes
                0x0000000000003770       0x30 /home/jbrawley/Desktop/rockbox-photo-cf-support/build/firmware/libfirmware.a(queue.o)
 .ARM.attributes
                0x00000000000037a0       0x30 /home/jbrawley/Desktop/rockbox-photo-cf-support/build/firmware/libfirmware.a(semaphore.o)
 .ARM.attributes
                0x00000000000037d0       0x30 /home/jbrawley/Desktop/rockbox-photo-cf-support/build/firmware/libfirmware.a(thread.o)
 .ARM.attributes
                0x0000000000003800       0x30 /home/jbrawley/Desktop/rockbox-photo-cf-support/build/firmware/libfirmware.a(thread-common.o)
 .ARM.attributes
                0x0000000000003830       0x30 /home/jbrawley/Desktop/rockbox-photo-cf-support/build/firmware/libfirmware.a(tick.o)
 .ARM.attributes
                0x0000000000003860       0x30 /home/jbrawley/Desktop/rockbox-photo-cf-support/build/firmware/libfirmware.a(timeout.o)
 .ARM.attributes
                0x0000000000003890       0x30 /home/jbrawley/Desktop/rockbox-photo-cf-support/build/firmware/libfirmware.a(sysfont.o)
 .ARM.attributes
                0x00000000000038c0       0x20 /home/jbrawley/Desktop/rockbox-photo-cf-support/build/firmware/libfirmware.a(memset16.o)
 .ARM.attributes
                0x00000000000038e0       0x30 /home/jbrawley/Desktop/rockbox-photo-cf-support/build/firmware/libfirmware.a(rb-loader.o)
 .ARM.attributes
                0x0000000000003910       0x30 /home/jbrawley/Desktop/rockbox-photo-cf-support/build/firmware/libfirmware.a(ap_int.o)
 .ARM.attributes
                0x0000000000003940       0x30 /home/jbrawley/Desktop/rockbox-photo-cf-support/build/firmware/libfirmware.a(disk_cache.o)
 .ARM.attributes
                0x0000000000003970       0x30 /home/jbrawley/Desktop/rockbox-photo-cf-support/build/firmware/libfirmware.a(arabjoin.o)
 .ARM.attributes
                0x00000000000039a0       0x30 /home/jbrawley/Desktop/rockbox-photo-cf-support/build/firmware/libfirmware.a(font_cache.o)
 .ARM.attributes
                0x00000000000039d0       0x30 /home/jbrawley/Desktop/rockbox-photo-cf-support/build/firmware/libfirmware.a(i2s-pp.o)
 .ARM.attributes
                0x0000000000003a00       0x30 /home/jbrawley/Desktop/rockbox-photo-cf-support/build/firmware/libfirmware.a(kernel-pp.o)
 .ARM.attributes
                0x0000000000003a30       0x30 /home/jbrawley/Desktop/rockbox-photo-cf-support/build/lib/libunwarminder.a(backtrace-unwarminder.o)
 .ARM.attributes
                0x0000000000003a60       0x20 /home/jbrawley/Desktop/rockbox-photo-cf-support/build/lib/libunwarminder.a(get_sp.o)
 .ARM.attributes
                0x0000000000003a80       0x30 /home/jbrawley/Desktop/rockbox-photo-cf-support/build/lib/libunwarminder.a(unwarminder.o)
 .ARM.attributes
                0x0000000000003ab0       0x30 /home/jbrawley/Desktop/rockbox-photo-cf-support/build/lib/libunwarminder.a(unwarm_thumb.o)
 .ARM.attributes
                0x0000000000003ae0       0x20 /home/jbrawley/Desktop/rockbox-photo-cf-support/build/lib/libunwarminder.a(safe_read.o)
 .ARM.attributes
                0x0000000000003b00       0x30 /home/jbrawley/Desktop/rockbox-photo-cf-support/build/lib/libunwarminder.a(unwarm_arm.o)
 .ARM.attributes
                0x0000000000003b30       0x30 /home/jbrawley/Desktop/rockbox-photo-cf-support/build/lib/libunwarminder.a(unwarm.o)
 .ARM.attributes
                0x0000000000003b60       0x30 /home/jbrawley/Desktop/rockbox-photo-cf-support/build/lib/libunwarminder.a(unwarmmem.o)
 .ARM.attributes
                0x0000000000003b90       0x30 /home/jbrawley/Desktop/rockbox-photo-cf-support/build/lib/libskin_parser.a(skin_buffer.o)
 .ARM.attributes
                0x0000000000003bc0       0x30 /home/jbrawley/Desktop/rockbox-photo-cf-support/build/lib/libskin_parser.a(skin_parser.o)
 .ARM.attributes
                0x0000000000003bf0       0x30 /home/jbrawley/Desktop/rockbox-photo-cf-support/build/lib/libskin_parser.a(skin_scan.o)
 .ARM.attributes
                0x0000000000003c20       0x30 /home/jbrawley/Desktop/rockbox-photo-cf-support/build/lib/libskin_parser.a(tag_table.o)
 .ARM.attributes
                0x0000000000003c50       0x20 /home/jbrawley/Desktop/rockbox-photo-cf-support/build/lib/libarm_support.a(support-arm.o)
 .ARM.attributes
                0x0000000000003c70       0x30 /home/jbrawley/Desktop/rockbox-photo-cf-support/build/lib/libfixedpoint.a(fixedpoint.o)
 .ARM.attributes
                0x0000000000003ca0       0x18 /usr/local/lib/gcc/arm-elf-eabi/4.9.4/libgcc.a(_lshrdi3.o)
 .ARM.attributes
                0x0000000000003cb8       0x18 /usr/local/lib/gcc/arm-elf-eabi/4.9.4/libgcc.a(_ashrdi3.o)
 .ARM.attributes
                0x0000000000003cd0       0x18 /usr/local/lib/gcc/arm-elf-eabi/4.9.4/libgcc.a(_ashldi3.o)
 .ARM.attributes
                0x0000000000003ce8       0x18 /usr/local/lib/gcc/arm-elf-eabi/4.9.4/libgcc.a(_arm_addsubdf3.o)
 .ARM.attributes
                0x0000000000003d00       0x18 /usr/local/lib/gcc/arm-elf-eabi/4.9.4/libgcc.a(_arm_muldivdf3.o)
 .ARM.attributes
                0x0000000000003d18       0x18 /usr/local/lib/gcc/arm-elf-eabi/4.9.4/libgcc.a(_arm_fixdfsi.o)
 .ARM.attributes
                0x0000000000003d30       0x18 /usr/local/lib/gcc/arm-elf-eabi/4.9.4/libgcc.a(_aeabi_ldivmod.o)
 .ARM.attributes
                0x0000000000003d48       0x18 /usr/local/lib/gcc/arm-elf-eabi/4.9.4/libgcc.a(_aeabi_uldivmod.o)
 .ARM.attributes
                0x0000000000003d60       0x30 /usr/local/lib/gcc/arm-elf-eabi/4.9.4/libgcc.a(_ctzdi2.o)
 .ARM.attributes
                0x0000000000003d90       0x30 /usr/local/lib/gcc/arm-elf-eabi/4.9.4/libgcc.a(bpabi.o)
 .ARM.attributes
                0x0000000000003dc0       0x18 /usr/local/lib/gcc/arm-elf-eabi/4.9.4/libgcc.a(_dvmd_tls.o)
 .ARM.attributes
                0x0000000000003dd8       0x18 /usr/local/lib/gcc/arm-elf-eabi/4.9.4/libgcc.a(_ctzsi2.o)
 .ARM.attributes
                0x0000000000003df0       0x30 /usr/local/lib/gcc/arm-elf-eabi/4.9.4/libgcc.a(_divdi3.o)
 .ARM.attributes
                0x0000000000003e20       0x30 /usr/local/lib/gcc/arm-elf-eabi/4.9.4/libgcc.a(_udivdi3.o)
 .ARM.attributes
                0x0000000000003e50       0x18 /usr/local/lib/gcc/arm-elf-eabi/4.9.4/libgcc.a(_clzdi2.o)

.comment        0x0000000000000000       0x11
 .comment       0x0000000000000000       0x11 /home/jbrawley/Desktop/rockbox-photo-cf-support/build/apps/action.o
                                         0x12 (size before relaxing)
 .comment       0x0000000000000011       0x12 /home/jbrawley/Desktop/rockbox-photo-cf-support/build/apps/alarm_menu.o
 .comment       0x0000000000000011       0x12 /home/jbrawley/Desktop/rockbox-photo-cf-support/build/apps/abrepeat.o
 .comment       0x0000000000000011       0x12 /home/jbrawley/Desktop/rockbox-photo-cf-support/build/apps/bookmark.o
 .comment       0x0000000000000011       0x12 /home/jbrawley/Desktop/rockbox-photo-cf-support/build/apps/core_keymap.o
 .comment       0x0000000000000011       0x12 /home/jbrawley/Desktop/rockbox-photo-cf-support/build/apps/debug_menu.o
 .comment       0x0000000000000011       0x12 /home/jbrawley/Desktop/rockbox-photo-cf-support/build/apps/filetypes.o
 .comment       0x0000000000000011       0x12 /home/jbrawley/Desktop/rockbox-photo-cf-support/build/apps/language.o
 .comment       0x0000000000000011       0x12 /home/jbrawley/Desktop/rockbox-photo-cf-support/build/apps/main.o
 .comment       0x0000000000000011       0x12 /home/jbrawley/Desktop/rockbox-photo-cf-support/build/apps/menu.o
 .comment       0x0000000000000011       0x12 /home/jbrawley/Desktop/rockbox-photo-cf-support/build/apps/menus/menu_common.o
 .comment       0x0000000000000011       0x12 /home/jbrawley/Desktop/rockbox-photo-cf-support/build/apps/menus/display_menu.o
 .comment       0x0000000000000011       0x12 /home/jbrawley/Desktop/rockbox-photo-cf-support/build/apps/menus/theme_menu.o
 .comment       0x0000000000000011       0x12 /home/jbrawley/Desktop/rockbox-photo-cf-support/build/apps/menus/plugin_menu.o
 .comment       0x0000000000000011       0x12 /home/jbrawley/Desktop/rockbox-photo-cf-support/build/apps/menus/radio_menu.o
 .comment       0x0000000000000011       0x12 /home/jbrawley/Desktop/rockbox-photo-cf-support/build/apps/menus/eq_menu.o
 .comment       0x0000000000000011       0x12 /home/jbrawley/Desktop/rockbox-photo-cf-support/build/apps/buffering.o
 .comment       0x0000000000000011       0x12 /home/jbrawley/Desktop/rockbox-photo-cf-support/build/apps/voice_thread.o
 .comment       0x0000000000000011       0x12 /home/jbrawley/Desktop/rockbox-photo-cf-support/build/apps/rbcodec_helpers.o
 .comment       0x0000000000000011       0x12 /home/jbrawley/Desktop/rockbox-photo-cf-support/build/apps/menus/main_menu.o
 .comment       0x0000000000000011       0x12 /home/jbrawley/Desktop/rockbox-photo-cf-support/build/apps/menus/playback_menu.o
 .comment       0x0000000000000011       0x12 /home/jbrawley/Desktop/rockbox-photo-cf-support/build/apps/menus/playlist_menu.o
 .comment       0x0000000000000011       0x12 /home/jbrawley/Desktop/rockbox-photo-cf-support/build/apps/menus/recording_menu.o
 .comment       0x0000000000000011       0x12 /home/jbrawley/Desktop/rockbox-photo-cf-support/build/apps/menus/settings_menu.o
 .comment       0x0000000000000011       0x12 /home/jbrawley/Desktop/rockbox-photo-cf-support/build/apps/menus/sound_menu.o
 .comment       0x0000000000000011       0x12 /home/jbrawley/Desktop/rockbox-photo-cf-support/build/apps/menus/time_menu.o
 .comment       0x0000000000000011       0x12 /home/jbrawley/Desktop/rockbox-photo-cf-support/build/apps/misc.o
 .comment       0x0000000000000011       0x12 /home/jbrawley/Desktop/rockbox-photo-cf-support/build/apps/open_plugin.o
 .comment       0x0000000000000011       0x12 /home/jbrawley/Desktop/rockbox-photo-cf-support/build/apps/onplay.o
 .comment       0x0000000000000011       0x12 /home/jbrawley/Desktop/rockbox-photo-cf-support/build/apps/playlist.o
 .comment       0x0000000000000011       0x12 /home/jbrawley/Desktop/rockbox-photo-cf-support/build/apps/playlist_catalog.o
 .comment       0x0000000000000011       0x12 /home/jbrawley/Desktop/rockbox-photo-cf-support/build/apps/playlist_viewer.o
 .comment       0x0000000000000011       0x12 /home/jbrawley/Desktop/rockbox-photo-cf-support/build/apps/plugin.o
 .comment       0x0000000000000011       0x12 /home/jbrawley/Desktop/rockbox-photo-cf-support/build/apps/root_menu.o
 .comment       0x0000000000000011       0x12 /home/jbrawley/Desktop/rockbox-photo-cf-support/build/apps/screens.o
 .comment       0x0000000000000011       0x12 /home/jbrawley/Desktop/rockbox-photo-cf-support/build/apps/settings.o
 .comment       0x0000000000000011       0x12 /home/jbrawley/Desktop/rockbox-photo-cf-support/build/apps/settings_list.o
 .comment       0x0000000000000011       0x12 /home/jbrawley/Desktop/rockbox-photo-cf-support/build/apps/shortcuts.o
 .comment       0x0000000000000011       0x12 /home/jbrawley/Desktop/rockbox-photo-cf-support/build/apps/status.o
 .comment       0x0000000000000011       0x12 /home/jbrawley/Desktop/rockbox-photo-cf-support/build/apps/cuesheet.o
 .comment       0x0000000000000011       0x12 /home/jbrawley/Desktop/rockbox-photo-cf-support/build/apps/talk.o
 .comment       0x0000000000000011       0x12 /home/jbrawley/Desktop/rockbox-photo-cf-support/build/apps/tree.o
 .comment       0x0000000000000011       0x12 /home/jbrawley/Desktop/rockbox-photo-cf-support/build/apps/tagtree.o
 .comment       0x0000000000000011       0x12 /home/jbrawley/Desktop/rockbox-photo-cf-support/build/apps/filetree.o
 .comment       0x0000000000000011       0x12 /home/jbrawley/Desktop/rockbox-photo-cf-support/build/apps/iap/iap-core.o
 .comment       0x0000000000000011       0x12 /home/jbrawley/Desktop/rockbox-photo-cf-support/build/apps/iap/iap-lingo0.o
 .comment       0x0000000000000011       0x12 /home/jbrawley/Desktop/rockbox-photo-cf-support/build/apps/iap/iap-lingo1.o
 .comment       0x0000000000000011       0x12 /home/jbrawley/Desktop/rockbox-photo-cf-support/build/apps/iap/iap-lingo2.o
 .comment       0x0000000000000011       0x12 /home/jbrawley/Desktop/rockbox-photo-cf-support/build/apps/iap/iap-lingo3.o
 .comment       0x0000000000000011       0x12 /home/jbrawley/Desktop/rockbox-photo-cf-support/build/apps/iap/iap-lingo4.o
 .comment       0x0000000000000011       0x12 /home/jbrawley/Desktop/rockbox-photo-cf-support/build/apps/iap/iap-lingo7.o
 .comment       0x0000000000000011       0x12 /home/jbrawley/Desktop/rockbox-photo-cf-support/build/apps/screen_access.o
 .comment       0x0000000000000011       0x12 /home/jbrawley/Desktop/rockbox-photo-cf-support/build/apps/gui/icon.o
 .comment       0x0000000000000011       0x12 /home/jbrawley/Desktop/rockbox-photo-cf-support/build/apps/gui/list.o
 .comment       0x0000000000000011       0x12 /home/jbrawley/Desktop/rockbox-photo-cf-support/build/apps/gui/line.o
 .comment       0x0000000000000011       0x12 /home/jbrawley/Desktop/rockbox-photo-cf-support/build/apps/gui/bitmap/list.o
 .comment       0x0000000000000011       0x12 /home/jbrawley/Desktop/rockbox-photo-cf-support/build/apps/gui/bitmap/list-skinned.o
 .comment       0x0000000000000011       0x12 /home/jbrawley/Desktop/rockbox-photo-cf-support/build/apps/gui/option_select.o
 .comment       0x0000000000000011       0x12 /home/jbrawley/Desktop/rockbox-photo-cf-support/build/apps/gui/pitchscreen.o
 .comment       0x0000000000000011       0x12 /home/jbrawley/Desktop/rockbox-photo-cf-support/build/apps/gui/quickscreen.o
 .comment       0x0000000000000011       0x12 /home/jbrawley/Desktop/rockbox-photo-cf-support/build/apps/gui/mask_select.o
 .comment       0x0000000000000011       0x12 /home/jbrawley/Desktop/rockbox-photo-cf-support/build/apps/gui/wps.o
 .comment       0x0000000000000011       0x12 /home/jbrawley/Desktop/rockbox-photo-cf-support/build/apps/gui/scrollbar.o
 .comment       0x0000000000000011       0x12 /home/jbrawley/Desktop/rockbox-photo-cf-support/build/apps/gui/splash.o
 .comment       0x0000000000000011       0x12 /home/jbrawley/Desktop/rockbox-photo-cf-support/build/apps/gui/statusbar.o
 .comment       0x0000000000000011       0x12 /home/jbrawley/Desktop/rockbox-photo-cf-support/build/apps/gui/statusbar-skinned.o
 .comment       0x0000000000000011       0x12 /home/jbrawley/Desktop/rockbox-photo-cf-support/build/apps/gui/yesno.o
 .comment       0x0000000000000011       0x12 /home/jbrawley/Desktop/rockbox-photo-cf-support/build/apps/gui/viewport.o
 .comment       0x0000000000000011       0x12 /home/jbrawley/Desktop/rockbox-photo-cf-support/build/apps/gui/skin_engine/skin_backdrops.o
 .comment       0x0000000000000011       0x12 /home/jbrawley/Desktop/rockbox-photo-cf-support/build/apps/gui/skin_engine/skin_display.o
 .comment       0x0000000000000011       0x12 /home/jbrawley/Desktop/rockbox-photo-cf-support/build/apps/gui/skin_engine/skin_engine.o
 .comment       0x0000000000000011       0x12 /home/jbrawley/Desktop/rockbox-photo-cf-support/build/apps/gui/skin_engine/skin_parser.o
 .comment       0x0000000000000011       0x12 /home/jbrawley/Desktop/rockbox-photo-cf-support/build/apps/gui/skin_engine/skin_render.o
 .comment       0x0000000000000011       0x12 /home/jbrawley/Desktop/rockbox-photo-cf-support/build/apps/gui/skin_engine/skin_tokens.o
 .comment       0x0000000000000011       0x12 /home/jbrawley/Desktop/rockbox-photo-cf-support/build/apps/gui/backdrop.o
 .comment       0x0000000000000011       0x12 /home/jbrawley/Desktop/rockbox-photo-cf-support/build/apps/recorder/bmp.o
 .comment       0x0000000000000011       0x12 /home/jbrawley/Desktop/rockbox-photo-cf-support/build/apps/recorder/icons.o
 .comment       0x0000000000000011       0x12 /home/jbrawley/Desktop/rockbox-photo-cf-support/build/apps/recorder/keyboard.o
 .comment       0x0000000000000011       0x12 /home/jbrawley/Desktop/rockbox-photo-cf-support/build/apps/recorder/peakmeter.o
 .comment       0x0000000000000011       0x12 /home/jbrawley/Desktop/rockbox-photo-cf-support/build/apps/recorder/resize.o
 .comment       0x0000000000000011       0x12 /home/jbrawley/Desktop/rockbox-photo-cf-support/build/apps/recorder/jpeg_load.o
 .comment       0x0000000000000011       0x12 /home/jbrawley/Desktop/rockbox-photo-cf-support/build/apps/recorder/albumart.o
 .comment       0x0000000000000011       0x12 /home/jbrawley/Desktop/rockbox-photo-cf-support/build/apps/gui/color_picker.o
 .comment       0x0000000000000011       0x12 /home/jbrawley/Desktop/rockbox-photo-cf-support/build/apps/recorder/recording.o
 .comment       0x0000000000000011       0x12 /home/jbrawley/Desktop/rockbox-photo-cf-support/build/apps/radio/radio.o
 .comment       0x0000000000000011       0x12 /home/jbrawley/Desktop/rockbox-photo-cf-support/build/apps/radio/presets.o
 .comment       0x0000000000000011       0x12 /home/jbrawley/Desktop/rockbox-photo-cf-support/build/apps/radio/radio_skin.o
 .comment       0x0000000000000011       0x12 /home/jbrawley/Desktop/rockbox-photo-cf-support/build/apps/radio/radioart.o
 .comment       0x0000000000000011       0x12 /home/jbrawley/Desktop/rockbox-photo-cf-support/build/apps/audio_path.o
 .comment       0x0000000000000011       0x12 /home/jbrawley/Desktop/rockbox-photo-cf-support/build/apps/audio_thread.o
 .comment       0x0000000000000011       0x12 /home/jbrawley/Desktop/rockbox-photo-cf-support/build/apps/pcmbuf.o
 .comment       0x0000000000000011       0x12 /home/jbrawley/Desktop/rockbox-photo-cf-support/build/apps/codec_thread.o
 .comment       0x0000000000000011       0x12 /home/jbrawley/Desktop/rockbox-photo-cf-support/build/apps/playback.o
 .comment       0x0000000000000011       0x12 /home/jbrawley/Desktop/rockbox-photo-cf-support/build/apps/codecs.o
 .comment       0x0000000000000011       0x12 /home/jbrawley/Desktop/rockbox-photo-cf-support/build/apps/beep.o
 .comment       0x0000000000000011       0x12 /home/jbrawley/Desktop/rockbox-photo-cf-support/build/apps/enc_config.o
 .comment       0x0000000000000011       0x12 /home/jbrawley/Desktop/rockbox-photo-cf-support/build/apps/recorder/pcm_record.o
 .comment       0x0000000000000011       0x12 /home/jbrawley/Desktop/rockbox-photo-cf-support/build/apps/usb_keymaps.o
 .comment       0x0000000000000011       0x12 /home/jbrawley/Desktop/rockbox-photo-cf-support/build/apps/gui/usb_screen.o
 .comment       0x0000000000000011       0x12 /home/jbrawley/Desktop/rockbox-photo-cf-support/build/apps/tagcache.o
 .comment       0x0000000000000011       0x12 /home/jbrawley/Desktop/rockbox-photo-cf-support/build/apps/keymaps/keymap-ipod.o
 .comment       0x0000000000000011       0x12 /home/jbrawley/Desktop/rockbox-photo-cf-support/build/apps/bitmaps/mono/default_icons.o
 .comment       0x0000000000000011       0x12 /home/jbrawley/Desktop/rockbox-photo-cf-support/build/apps/bitmaps/native/rockboxlogo.220x68x16.o
 .comment       0x0000000000000011       0x12 /home/jbrawley/Desktop/rockbox-photo-cf-support/build/apps/bitmaps/native/usblogo.176x48x16.o
 .comment       0x0000000000000011       0x12 /home/jbrawley/Desktop/rockbox-photo-cf-support/build/lang/lang_core.o
 .comment       0x0000000000000011       0x12 /home/jbrawley/Desktop/rockbox-photo-cf-support/build/lib/rbcodec/codecs/libspeex-voice.a(bits.o)
 .comment       0x0000000000000011       0x12 /home/jbrawley/Desktop/rockbox-photo-cf-support/build/lib/rbcodec/codecs/libspeex-voice.a(modes_wb.o)
 .comment       0x0000000000000011       0x12 /home/jbrawley/Desktop/rockbox-photo-cf-support/build/lib/rbcodec/codecs/libspeex-voice.a(quant_lsp.o)
 .comment       0x0000000000000011       0x12 /home/jbrawley/Desktop/rockbox-photo-cf-support/build/lib/rbcodec/codecs/libspeex-voice.a(sb_celp.o)
 .comment       0x0000000000000011       0x12 /home/jbrawley/Desktop/rockbox-photo-cf-support/build/lib/rbcodec/codecs/libspeex-voice.a(speex.o)
 .comment       0x0000000000000011       0x12 /home/jbrawley/Desktop/rockbox-photo-cf-support/build/lib/rbcodec/codecs/libspeex-voice.a(cb_search.o)
 .comment       0x0000000000000011       0x12 /home/jbrawley/Desktop/rockbox-photo-cf-support/build/lib/rbcodec/codecs/libspeex-voice.a(filters.o)
 .comment       0x0000000000000011       0x12 /home/jbrawley/Desktop/rockbox-photo-cf-support/build/lib/rbcodec/codecs/libspeex-voice.a(hexc_10_32_table.o)
 .comment       0x0000000000000011       0x12 /home/jbrawley/Desktop/rockbox-photo-cf-support/build/lib/rbcodec/codecs/libspeex-voice.a(hexc_table.o)
 .comment       0x0000000000000011       0x12 /home/jbrawley/Desktop/rockbox-photo-cf-support/build/lib/rbcodec/codecs/libspeex-voice.a(high_lsp_tables.o)
 .comment       0x0000000000000011       0x12 /home/jbrawley/Desktop/rockbox-photo-cf-support/build/lib/rbcodec/codecs/libspeex-voice.a(lsp.o)
 .comment       0x0000000000000011       0x12 /home/jbrawley/Desktop/rockbox-photo-cf-support/build/lib/rbcodec/codecs/libspeex-voice.a(lsp_tables_nb.o)
 .comment       0x0000000000000011       0x12 /home/jbrawley/Desktop/rockbox-photo-cf-support/build/lib/rbcodec/codecs/libspeex-voice.a(ltp.o)
 .comment       0x0000000000000011       0x12 /home/jbrawley/Desktop/rockbox-photo-cf-support/build/lib/rbcodec/codecs/libspeex-voice.a(modes.o)
 .comment       0x0000000000000011       0x12 /home/jbrawley/Desktop/rockbox-photo-cf-support/build/lib/rbcodec/codecs/libspeex-voice.a(nb_celp.o)
 .comment       0x0000000000000011       0x12 /home/jbrawley/Desktop/rockbox-photo-cf-support/build/lib/rbcodec/codecs/libspeex-voice.a(speex_callbacks.o)
 .comment       0x0000000000000011       0x12 /home/jbrawley/Desktop/rockbox-photo-cf-support/build/lib/rbcodec/codecs/libspeex-voice.a(exc_10_16_table.o)
 .comment       0x0000000000000011       0x12 /home/jbrawley/Desktop/rockbox-photo-cf-support/build/lib/rbcodec/codecs/libspeex-voice.a(exc_10_32_table.o)
 .comment       0x0000000000000011       0x12 /home/jbrawley/Desktop/rockbox-photo-cf-support/build/lib/rbcodec/codecs/libspeex-voice.a(exc_20_32_table.o)
 .comment       0x0000000000000011       0x12 /home/jbrawley/Desktop/rockbox-photo-cf-support/build/lib/rbcodec/codecs/libspeex-voice.a(exc_5_256_table.o)
 .comment       0x0000000000000011       0x12 /home/jbrawley/Desktop/rockbox-photo-cf-support/build/lib/rbcodec/codecs/libspeex-voice.a(exc_5_64_table.o)
 .comment       0x0000000000000011       0x12 /home/jbrawley/Desktop/rockbox-photo-cf-support/build/lib/rbcodec/codecs/libspeex-voice.a(exc_8_128_table.o)
 .comment       0x0000000000000011       0x12 /home/jbrawley/Desktop/rockbox-photo-cf-support/build/lib/rbcodec/codecs/libspeex-voice.a(gain_table.o)
 .comment       0x0000000000000011       0x12 /home/jbrawley/Desktop/rockbox-photo-cf-support/build/lib/rbcodec/codecs/libspeex-voice.a(gain_table_lbr.o)
 .comment       0x0000000000000011       0x12 /home/jbrawley/Desktop/rockbox-photo-cf-support/build/lib/librbcodec.a(metadata.o)
 .comment       0x0000000000000011       0x12 /home/jbrawley/Desktop/rockbox-photo-cf-support/build/lib/librbcodec.a(id3tags.o)
 .comment       0x0000000000000011       0x12 /home/jbrawley/Desktop/rockbox-photo-cf-support/build/lib/librbcodec.a(mp3.o)
 .comment       0x0000000000000011       0x12 /home/jbrawley/Desktop/rockbox-photo-cf-support/build/lib/librbcodec.a(mp3data.o)
 .comment       0x0000000000000011       0x12 /home/jbrawley/Desktop/rockbox-photo-cf-support/build/lib/librbcodec.a(compressor.o)
 .comment       0x0000000000000011       0x12 /home/jbrawley/Desktop/rockbox-photo-cf-support/build/lib/librbcodec.a(crossfeed.o)
 .comment       0x0000000000000011       0x12 /home/jbrawley/Desktop/rockbox-photo-cf-support/build/lib/librbcodec.a(dsp_core.o)
 .comment       0x0000000000000011       0x12 /home/jbrawley/Desktop/rockbox-photo-cf-support/build/lib/librbcodec.a(pbe.o)
 .comment       0x0000000000000011       0x12 /home/jbrawley/Desktop/rockbox-photo-cf-support/build/lib/librbcodec.a(afr.o)
 .comment       0x0000000000000011       0x12 /home/jbrawley/Desktop/rockbox-photo-cf-support/build/lib/librbcodec.a(surround.o)
 .comment       0x0000000000000011       0x12 /home/jbrawley/Desktop/rockbox-photo-cf-support/build/lib/librbcodec.a(dsp_filter.o)
 .comment       0x0000000000000011       0x12 /home/jbrawley/Desktop/rockbox-photo-cf-support/build/lib/librbcodec.a(dsp_misc.o)
 .comment       0x0000000000000011       0x12 /home/jbrawley/Desktop/rockbox-photo-cf-support/build/lib/librbcodec.a(dsp_sample_io.o)
 .comment       0x0000000000000011       0x12 /home/jbrawley/Desktop/rockbox-photo-cf-support/build/lib/librbcodec.a(dsp_sample_input.o)
 .comment       0x0000000000000011       0x12 /home/jbrawley/Desktop/rockbox-photo-cf-support/build/lib/librbcodec.a(dsp_sample_output.o)
 .comment       0x0000000000000011       0x12 /home/jbrawley/Desktop/rockbox-photo-cf-support/build/lib/librbcodec.a(eq.o)
 .comment       0x0000000000000011       0x12 /home/jbrawley/Desktop/rockbox-photo-cf-support/build/lib/librbcodec.a(resample.o)
 .comment       0x0000000000000011       0x12 /home/jbrawley/Desktop/rockbox-photo-cf-support/build/lib/librbcodec.a(pga.o)
 .comment       0x0000000000000011       0x12 /home/jbrawley/Desktop/rockbox-photo-cf-support/build/lib/librbcodec.a(tdspeed.o)
 .comment       0x0000000000000011       0x12 /home/jbrawley/Desktop/rockbox-photo-cf-support/build/lib/librbcodec.a(replaygain.o)
 .comment       0x0000000000000011       0x12 /home/jbrawley/Desktop/rockbox-photo-cf-support/build/lib/librbcodec.a(metadata_common.o)
 .comment       0x0000000000000011       0x12 /home/jbrawley/Desktop/rockbox-photo-cf-support/build/lib/librbcodec.a(a52.o)
 .comment       0x0000000000000011       0x12 /home/jbrawley/Desktop/rockbox-photo-cf-support/build/lib/librbcodec.a(adx.o)
 .comment       0x0000000000000011       0x12 /home/jbrawley/Desktop/rockbox-photo-cf-support/build/lib/librbcodec.a(aiff.o)
 .comment       0x0000000000000011       0x12 /home/jbrawley/Desktop/rockbox-photo-cf-support/build/lib/librbcodec.a(asap.o)
 .comment       0x0000000000000011       0x12 /home/jbrawley/Desktop/rockbox-photo-cf-support/build/lib/librbcodec.a(asf.o)
 .comment       0x0000000000000011       0x12 /home/jbrawley/Desktop/rockbox-photo-cf-support/build/lib/librbcodec.a(au.o)
 .comment       0x0000000000000011       0x12 /home/jbrawley/Desktop/rockbox-photo-cf-support/build/lib/librbcodec.a(ay.o)
 .comment       0x0000000000000011       0x12 /home/jbrawley/Desktop/rockbox-photo-cf-support/build/lib/librbcodec.a(flac.o)
 .comment       0x0000000000000011       0x12 /home/jbrawley/Desktop/rockbox-photo-cf-support/build/lib/librbcodec.a(gbs.o)
 .comment       0x0000000000000011       0x12 /home/jbrawley/Desktop/rockbox-photo-cf-support/build/lib/librbcodec.a(hes.o)
 .comment       0x0000000000000011       0x12 /home/jbrawley/Desktop/rockbox-photo-cf-support/build/lib/librbcodec.a(kss.o)
 .comment       0x0000000000000011       0x12 /home/jbrawley/Desktop/rockbox-photo-cf-support/build/lib/librbcodec.a(mod.o)
 .comment       0x0000000000000011       0x12 /home/jbrawley/Desktop/rockbox-photo-cf-support/build/lib/librbcodec.a(monkeys.o)
 .comment       0x0000000000000011       0x12 /home/jbrawley/Desktop/rockbox-photo-cf-support/build/lib/librbcodec.a(mp4.o)
 .comment       0x0000000000000011       0x12 /home/jbrawley/Desktop/rockbox-photo-cf-support/build/lib/librbcodec.a(mpc.o)
 .comment       0x0000000000000011       0x12 /home/jbrawley/Desktop/rockbox-photo-cf-support/build/lib/librbcodec.a(nsf.o)
 .comment       0x0000000000000011       0x12 /home/jbrawley/Desktop/rockbox-photo-cf-support/build/lib/librbcodec.a(ogg.o)
 .comment       0x0000000000000011       0x12 /home/jbrawley/Desktop/rockbox-photo-cf-support/build/lib/librbcodec.a(oma.o)
 .comment       0x0000000000000011       0x12 /home/jbrawley/Desktop/rockbox-photo-cf-support/build/lib/librbcodec.a(rm.o)
 .comment       0x0000000000000011       0x12 /home/jbrawley/Desktop/rockbox-photo-cf-support/build/lib/librbcodec.a(sgc.o)
 .comment       0x0000000000000011       0x12 /home/jbrawley/Desktop/rockbox-photo-cf-support/build/lib/librbcodec.a(sid.o)
 .comment       0x0000000000000011       0x12 /home/jbrawley/Desktop/rockbox-photo-cf-support/build/lib/librbcodec.a(smaf.o)
 .comment       0x0000000000000011       0x12 /home/jbrawley/Desktop/rockbox-photo-cf-support/build/lib/librbcodec.a(spc.o)
 .comment       0x0000000000000011       0x12 /home/jbrawley/Desktop/rockbox-photo-cf-support/build/lib/librbcodec.a(tta.o)
 .comment       0x0000000000000011       0x12 /home/jbrawley/Desktop/rockbox-photo-cf-support/build/lib/librbcodec.a(vgm.o)
 .comment       0x0000000000000011       0x12 /home/jbrawley/Desktop/rockbox-photo-cf-support/build/lib/librbcodec.a(vorbis.o)
 .comment       0x0000000000000011       0x12 /home/jbrawley/Desktop/rockbox-photo-cf-support/build/lib/librbcodec.a(vox.o)
 .comment       0x0000000000000011       0x12 /home/jbrawley/Desktop/rockbox-photo-cf-support/build/lib/librbcodec.a(wave.o)
 .comment       0x0000000000000011       0x12 /home/jbrawley/Desktop/rockbox-photo-cf-support/build/lib/librbcodec.a(wavpack.o)
 .comment       0x0000000000000011       0x12 /home/jbrawley/Desktop/rockbox-photo-cf-support/build/lib/librbcodec.a(aac.o)
 .comment       0x0000000000000011       0x12 /home/jbrawley/Desktop/rockbox-photo-cf-support/build/lib/librbcodec.a(channel_mode.o)
 .comment       0x0000000000000011       0x12 /home/jbrawley/Desktop/rockbox-photo-cf-support/build/lib/librbcodec.a(ape.o)
 .comment       0x0000000000000011       0x12 /home/jbrawley/Desktop/rockbox-photo-cf-support/build/firmware/libfirmware.a(strlen.o)
 .comment       0x0000000000000011       0x12 /home/jbrawley/Desktop/rockbox-photo-cf-support/build/firmware/libfirmware.a(ata_idle_notify.o)
 .comment       0x0000000000000011       0x12 /home/jbrawley/Desktop/rockbox-photo-cf-support/build/firmware/libfirmware.a(events.o)
 .comment       0x0000000000000011       0x12 /home/jbrawley/Desktop/rockbox-photo-cf-support/build/firmware/libfirmware.a(backlight.o)
 .comment       0x0000000000000011       0x12 /home/jbrawley/Desktop/rockbox-photo-cf-support/build/firmware/libfirmware.a(buflib_mempool.o)
 .comment       0x0000000000000011       0x12 /home/jbrawley/Desktop/rockbox-photo-cf-support/build/firmware/libfirmware.a(core_alloc.o)
 .comment       0x0000000000000011       0x12 /home/jbrawley/Desktop/rockbox-photo-cf-support/build/firmware/libfirmware.a(general.o)
 .comment       0x0000000000000011       0x12 /home/jbrawley/Desktop/rockbox-photo-cf-support/build/firmware/libfirmware.a(powermgmt.o)
 .comment       0x0000000000000011       0x12 /home/jbrawley/Desktop/rockbox-photo-cf-support/build/firmware/libfirmware.a(system.o)
 .comment       0x0000000000000011       0x12 /home/jbrawley/Desktop/rockbox-photo-cf-support/build/firmware/libfirmware.a(usb.o)
 .comment       0x0000000000000011       0x12 /home/jbrawley/Desktop/rockbox-photo-cf-support/build/firmware/libfirmware.a(load_code.o)
 .comment       0x0000000000000011       0x12 /home/jbrawley/Desktop/rockbox-photo-cf-support/build/firmware/libfirmware.a(rolo.o)
 .comment       0x0000000000000011       0x12 /home/jbrawley/Desktop/rockbox-photo-cf-support/build/firmware/libfirmware.a(timer.o)
 .comment       0x0000000000000011       0x12 /home/jbrawley/Desktop/rockbox-photo-cf-support/build/firmware/libfirmware.a(panic.o)
 .comment       0x0000000000000011       0x12 /home/jbrawley/Desktop/rockbox-photo-cf-support/build/firmware/libfirmware.a(strptokspn.o)
 .comment       0x0000000000000011       0x12 /home/jbrawley/Desktop/rockbox-photo-cf-support/build/firmware/libfirmware.a(version.o)
 .comment       0x0000000000000011       0x12 /home/jbrawley/Desktop/rockbox-photo-cf-support/build/firmware/libfirmware.a(crc32.o)
 .comment       0x0000000000000011       0x12 /home/jbrawley/Desktop/rockbox-photo-cf-support/build/firmware/libfirmware.a(loader_strerror.o)
 .comment       0x0000000000000011       0x12 /home/jbrawley/Desktop/rockbox-photo-cf-support/build/firmware/libfirmware.a(dir.o)
 .comment       0x0000000000000011       0x12 /home/jbrawley/Desktop/rockbox-photo-cf-support/build/firmware/libfirmware.a(file.o)
 .comment       0x0000000000000011       0x12 /home/jbrawley/Desktop/rockbox-photo-cf-support/build/firmware/libfirmware.a(file_internal.o)
 .comment       0x0000000000000011       0x12 /home/jbrawley/Desktop/rockbox-photo-cf-support/build/firmware/libfirmware.a(disk.o)
 .comment       0x0000000000000011       0x12 /home/jbrawley/Desktop/rockbox-photo-cf-support/build/firmware/libfirmware.a(fileobj_mgr.o)
 .comment       0x0000000000000011       0x12 /home/jbrawley/Desktop/rockbox-photo-cf-support/build/firmware/libfirmware.a(dircache.o)
 .comment       0x0000000000000011       0x12 /home/jbrawley/Desktop/rockbox-photo-cf-support/build/firmware/libfirmware.a(pathfuncs.o)
 .comment       0x0000000000000011       0x12 /home/jbrawley/Desktop/rockbox-photo-cf-support/build/firmware/libfirmware.a(fdprintf.o)
 .comment       0x0000000000000011       0x12 /home/jbrawley/Desktop/rockbox-photo-cf-support/build/firmware/libfirmware.a(linked_list.o)
 .comment       0x0000000000000011       0x12 /home/jbrawley/Desktop/rockbox-photo-cf-support/build/firmware/libfirmware.a(rb_namespace.o)
 .comment       0x0000000000000011       0x12 /home/jbrawley/Desktop/rockbox-photo-cf-support/build/firmware/libfirmware.a(strcasecmp.o)
 .comment       0x0000000000000011       0x12 /home/jbrawley/Desktop/rockbox-photo-cf-support/build/firmware/libfirmware.a(strcasestr.o)
 .comment       0x0000000000000011       0x12 /home/jbrawley/Desktop/rockbox-photo-cf-support/build/firmware/libfirmware.a(strnatcmp.o)
 .comment       0x0000000000000011       0x12 /home/jbrawley/Desktop/rockbox-photo-cf-support/build/firmware/libfirmware.a(strlcat.o)
 .comment       0x0000000000000011       0x12 /home/jbrawley/Desktop/rockbox-photo-cf-support/build/firmware/libfirmware.a(strlcpy.o)
 .comment       0x0000000000000011       0x12 /home/jbrawley/Desktop/rockbox-photo-cf-support/build/firmware/libfirmware.a(strmemccpy.o)
 .comment       0x0000000000000011       0x12 /home/jbrawley/Desktop/rockbox-photo-cf-support/build/firmware/libfirmware.a(structec.o)
 .comment       0x0000000000000011       0x12 /home/jbrawley/Desktop/rockbox-photo-cf-support/build/firmware/libfirmware.a(timefuncs.o)
 .comment       0x0000000000000011       0x12 /home/jbrawley/Desktop/rockbox-photo-cf-support/build/firmware/libfirmware.a(unicode.o)
 .comment       0x0000000000000011       0x12 /home/jbrawley/Desktop/rockbox-photo-cf-support/build/firmware/libfirmware.a(vuprintf.o)
 .comment       0x0000000000000011       0x12 /home/jbrawley/Desktop/rockbox-photo-cf-support/build/firmware/libfirmware.a(atoi.o)
 .comment       0x0000000000000011       0x12 /home/jbrawley/Desktop/rockbox-photo-cf-support/build/firmware/libfirmware.a(errno.o)
 .comment       0x0000000000000011       0x12 /home/jbrawley/Desktop/rockbox-photo-cf-support/build/firmware/libfirmware.a(ctype.o)
 .comment       0x0000000000000011       0x12 /home/jbrawley/Desktop/rockbox-photo-cf-support/build/firmware/libfirmware.a(sprintf.o)
 .comment       0x0000000000000011       0x12 /home/jbrawley/Desktop/rockbox-photo-cf-support/build/firmware/libfirmware.a(memccpy.o)
 .comment       0x0000000000000011       0x12 /home/jbrawley/Desktop/rockbox-photo-cf-support/build/firmware/libfirmware.a(memchr.o)
 .comment       0x0000000000000011       0x12 /home/jbrawley/Desktop/rockbox-photo-cf-support/build/firmware/libfirmware.a(memcmp.o)
 .comment       0x0000000000000011       0x12 /home/jbrawley/Desktop/rockbox-photo-cf-support/build/firmware/libfirmware.a(qsort.o)
 .comment       0x0000000000000011       0x12 /home/jbrawley/Desktop/rockbox-photo-cf-support/build/firmware/libfirmware.a(random.o)
 .comment       0x0000000000000011       0x12 /home/jbrawley/Desktop/rockbox-photo-cf-support/build/firmware/libfirmware.a(strcat.o)
 .comment       0x0000000000000011       0x12 /home/jbrawley/Desktop/rockbox-photo-cf-support/build/firmware/libfirmware.a(strchr.o)
 .comment       0x0000000000000011       0x12 /home/jbrawley/Desktop/rockbox-photo-cf-support/build/firmware/libfirmware.a(strcmp.o)
 .comment       0x0000000000000011       0x12 /home/jbrawley/Desktop/rockbox-photo-cf-support/build/firmware/libfirmware.a(strcpy.o)
 .comment       0x0000000000000011       0x12 /home/jbrawley/Desktop/rockbox-photo-cf-support/build/firmware/libfirmware.a(strcspn.o)
 .comment       0x0000000000000011       0x12 /home/jbrawley/Desktop/rockbox-photo-cf-support/build/firmware/libfirmware.a(strncmp.o)
 .comment       0x0000000000000011       0x12 /home/jbrawley/Desktop/rockbox-photo-cf-support/build/firmware/libfirmware.a(strrchr.o)
 .comment       0x0000000000000011       0x12 /home/jbrawley/Desktop/rockbox-photo-cf-support/build/firmware/libfirmware.a(strstr.o)
 .comment       0x0000000000000011       0x12 /home/jbrawley/Desktop/rockbox-photo-cf-support/build/firmware/libfirmware.a(mktime.o)
 .comment       0x0000000000000011       0x12 /home/jbrawley/Desktop/rockbox-photo-cf-support/build/firmware/libfirmware.a(gmtime.o)
 .comment       0x0000000000000011       0x12 /home/jbrawley/Desktop/rockbox-photo-cf-support/build/firmware/libfirmware.a(scroll_engine.o)
 .comment       0x0000000000000011       0x12 /home/jbrawley/Desktop/rockbox-photo-cf-support/build/firmware/libfirmware.a(bidi.o)
 .comment       0x0000000000000011       0x12 /home/jbrawley/Desktop/rockbox-photo-cf-support/build/firmware/libfirmware.a(font.o)
 .comment       0x0000000000000011       0x12 /home/jbrawley/Desktop/rockbox-photo-cf-support/build/firmware/libfirmware.a(hangul.o)
 .comment       0x0000000000000011       0x12 /home/jbrawley/Desktop/rockbox-photo-cf-support/build/firmware/libfirmware.a(lru.o)
 .comment       0x0000000000000011       0x12 /home/jbrawley/Desktop/rockbox-photo-cf-support/build/firmware/libfirmware.a(screendump.o)
 .comment       0x0000000000000011       0x12 /home/jbrawley/Desktop/rockbox-photo-cf-support/build/firmware/libfirmware.a(lcd-16bit.o)
 .comment       0x0000000000000011       0x12 /home/jbrawley/Desktop/rockbox-photo-cf-support/build/firmware/libfirmware.a(diacritic.o)
 .comment       0x0000000000000011       0x12 /home/jbrawley/Desktop/rockbox-photo-cf-support/build/firmware/libfirmware.a(led.o)
 .comment       0x0000000000000011       0x12 /home/jbrawley/Desktop/rockbox-photo-cf-support/build/firmware/libfirmware.a(button.o)
 .comment       0x0000000000000011       0x12 /home/jbrawley/Desktop/rockbox-photo-cf-support/build/firmware/libfirmware.a(ata.o)
 .comment       0x0000000000000011       0x12 /home/jbrawley/Desktop/rockbox-photo-cf-support/build/firmware/libfirmware.a(storage.o)
 .comment       0x0000000000000011       0x12 /home/jbrawley/Desktop/rockbox-photo-cf-support/build/firmware/libfirmware.a(fat.o)
 .comment       0x0000000000000011       0x12 /home/jbrawley/Desktop/rockbox-photo-cf-support/build/firmware/libfirmware.a(rtc_pcf50605.o)
 .comment       0x0000000000000011       0x12 /home/jbrawley/Desktop/rockbox-photo-cf-support/build/firmware/libfirmware.a(tuner.o)
 .comment       0x0000000000000011       0x12 /home/jbrawley/Desktop/rockbox-photo-cf-support/build/firmware/libfirmware.a(ipod_remote_tuner.o)
 .comment       0x0000000000000011       0x12 /home/jbrawley/Desktop/rockbox-photo-cf-support/build/firmware/libfirmware.a(rds.o)
 .comment       0x0000000000000011       0x12 /home/jbrawley/Desktop/rockbox-photo-cf-support/build/firmware/libfirmware.a(sound.o)
 .comment       0x0000000000000011       0x12 /home/jbrawley/Desktop/rockbox-photo-cf-support/build/firmware/libfirmware.a(pcm_sampr.o)
 .comment       0x0000000000000011       0x12 /home/jbrawley/Desktop/rockbox-photo-cf-support/build/firmware/libfirmware.a(pcm.o)
 .comment       0x0000000000000011       0x12 /home/jbrawley/Desktop/rockbox-photo-cf-support/build/firmware/libfirmware.a(pcm_mixer.o)
 .comment       0x0000000000000011       0x12 /home/jbrawley/Desktop/rockbox-photo-cf-support/build/firmware/libfirmware.a(enc_base.o)
 .comment       0x0000000000000011       0x12 /home/jbrawley/Desktop/rockbox-photo-cf-support/build/firmware/libfirmware.a(audiohw-swcodec.o)
 .comment       0x0000000000000011       0x12 /home/jbrawley/Desktop/rockbox-photo-cf-support/build/firmware/libfirmware.a(wm8975.o)
 .comment       0x0000000000000011       0x12 /home/jbrawley/Desktop/rockbox-photo-cf-support/build/firmware/libfirmware.a(system-arm.o)
 .comment       0x0000000000000011       0x12 /home/jbrawley/Desktop/rockbox-photo-cf-support/build/firmware/libfirmware.a(ata-pp5020.o)
 .comment       0x0000000000000011       0x12 /home/jbrawley/Desktop/rockbox-photo-cf-support/build/firmware/libfirmware.a(power-ipod.o)
 .comment       0x0000000000000011       0x12 /home/jbrawley/Desktop/rockbox-photo-cf-support/build/firmware/libfirmware.a(piezo.o)
 .comment       0x0000000000000011       0x12 /home/jbrawley/Desktop/rockbox-photo-cf-support/build/firmware/libfirmware.a(pcf50605.o)
 .comment       0x0000000000000011       0x12 /home/jbrawley/Desktop/rockbox-photo-cf-support/build/firmware/libfirmware.a(powermgmt-ipod-pcf.o)
 .comment       0x0000000000000011       0x12 /home/jbrawley/Desktop/rockbox-photo-cf-support/build/firmware/libfirmware.a(i2c-pp.o)
 .comment       0x0000000000000011       0x12 /home/jbrawley/Desktop/rockbox-photo-cf-support/build/firmware/libfirmware.a(timer-pp.o)
 .comment       0x0000000000000011       0x12 /home/jbrawley/Desktop/rockbox-photo-cf-support/build/firmware/libfirmware.a(wmcodec-pp.o)
 .comment       0x0000000000000011       0x12 /home/jbrawley/Desktop/rockbox-photo-cf-support/build/firmware/libfirmware.a(usb-fw-pp502x.o)
 .comment       0x0000000000000011       0x12 /home/jbrawley/Desktop/rockbox-photo-cf-support/build/firmware/libfirmware.a(system-pp502x.o)
 .comment       0x0000000000000011       0x12 /home/jbrawley/Desktop/rockbox-photo-cf-support/build/firmware/libfirmware.a(uart-pp.o)
 .comment       0x0000000000000011       0x12 /home/jbrawley/Desktop/rockbox-photo-cf-support/build/firmware/libfirmware.a(pcm-pp.o)
 .comment       0x0000000000000011       0x12 /home/jbrawley/Desktop/rockbox-photo-cf-support/build/firmware/libfirmware.a(debug-pp.o)
 .comment       0x0000000000000011       0x12 /home/jbrawley/Desktop/rockbox-photo-cf-support/build/firmware/libfirmware.a(audio-pp.o)
 .comment       0x0000000000000011       0x12 /home/jbrawley/Desktop/rockbox-photo-cf-support/build/firmware/libfirmware.a(lcd-color_nano.o)
 .comment       0x0000000000000011       0x12 /home/jbrawley/Desktop/rockbox-photo-cf-support/build/firmware/libfirmware.a(usb_core.o)
 .comment       0x0000000000000011       0x12 /home/jbrawley/Desktop/rockbox-photo-cf-support/build/firmware/libfirmware.a(usb_storage.o)
 .comment       0x0000000000000011       0x12 /home/jbrawley/Desktop/rockbox-photo-cf-support/build/firmware/libfirmware.a(usb_hid.o)
 .comment       0x0000000000000011       0x12 /home/jbrawley/Desktop/rockbox-photo-cf-support/build/firmware/libfirmware.a(usb-drv-arc.o)
 .comment       0x0000000000000011       0x12 /home/jbrawley/Desktop/rockbox-photo-cf-support/build/firmware/libfirmware.a(adc-ipod-pcf.o)
 .comment       0x0000000000000011       0x12 /home/jbrawley/Desktop/rockbox-photo-cf-support/build/firmware/libfirmware.a(backlight-4g_color.o)
 .comment       0x0000000000000011       0x12 /home/jbrawley/Desktop/rockbox-photo-cf-support/build/firmware/libfirmware.a(button-clickwheel.o)
 .comment       0x0000000000000011       0x12 /home/jbrawley/Desktop/rockbox-photo-cf-support/build/firmware/libfirmware.a(corelock.o)
 .comment       0x0000000000000011       0x12 /home/jbrawley/Desktop/rockbox-photo-cf-support/build/firmware/libfirmware.a(mrsw_lock.o)
 .comment       0x0000000000000011       0x12 /home/jbrawley/Desktop/rockbox-photo-cf-support/build/firmware/libfirmware.a(mutex.o)
 .comment       0x0000000000000011       0x12 /home/jbrawley/Desktop/rockbox-photo-cf-support/build/firmware/libfirmware.a(queue.o)
 .comment       0x0000000000000011       0x12 /home/jbrawley/Desktop/rockbox-photo-cf-support/build/firmware/libfirmware.a(semaphore.o)
 .comment       0x0000000000000011       0x12 /home/jbrawley/Desktop/rockbox-photo-cf-support/build/firmware/libfirmware.a(thread.o)
 .comment       0x0000000000000011       0x12 /home/jbrawley/Desktop/rockbox-photo-cf-support/build/firmware/libfirmware.a(thread-common.o)
 .comment       0x0000000000000011       0x12 /home/jbrawley/Desktop/rockbox-photo-cf-support/build/firmware/libfirmware.a(tick.o)
 .comment       0x0000000000000011       0x12 /home/jbrawley/Desktop/rockbox-photo-cf-support/build/firmware/libfirmware.a(timeout.o)
 .comment       0x0000000000000011       0x12 /home/jbrawley/Desktop/rockbox-photo-cf-support/build/firmware/libfirmware.a(sysfont.o)
 .comment       0x0000000000000011       0x12 /home/jbrawley/Desktop/rockbox-photo-cf-support/build/firmware/libfirmware.a(rb-loader.o)
 .comment       0x0000000000000011       0x12 /home/jbrawley/Desktop/rockbox-photo-cf-support/build/firmware/libfirmware.a(ap_int.o)
 .comment       0x0000000000000011       0x12 /home/jbrawley/Desktop/rockbox-photo-cf-support/build/firmware/libfirmware.a(disk_cache.o)
 .comment       0x0000000000000011       0x12 /home/jbrawley/Desktop/rockbox-photo-cf-support/build/firmware/libfirmware.a(arabjoin.o)
 .comment       0x0000000000000011       0x12 /home/jbrawley/Desktop/rockbox-photo-cf-support/build/firmware/libfirmware.a(font_cache.o)
 .comment       0x0000000000000011       0x12 /home/jbrawley/Desktop/rockbox-photo-cf-support/build/firmware/libfirmware.a(i2s-pp.o)
 .comment       0x0000000000000011       0x12 /home/jbrawley/Desktop/rockbox-photo-cf-support/build/firmware/libfirmware.a(kernel-pp.o)
 .comment       0x0000000000000011       0x12 /home/jbrawley/Desktop/rockbox-photo-cf-support/build/lib/libunwarminder.a(backtrace-unwarminder.o)
 .comment       0x0000000000000011       0x12 /home/jbrawley/Desktop/rockbox-photo-cf-support/build/lib/libunwarminder.a(unwarminder.o)
 .comment       0x0000000000000011       0x12 /home/jbrawley/Desktop/rockbox-photo-cf-support/build/lib/libunwarminder.a(unwarm_thumb.o)
 .comment       0x0000000000000011       0x12 /home/jbrawley/Desktop/rockbox-photo-cf-support/build/lib/libunwarminder.a(unwarm_arm.o)
 .comment       0x0000000000000011       0x12 /home/jbrawley/Desktop/rockbox-photo-cf-support/build/lib/libunwarminder.a(unwarm.o)
 .comment       0x0000000000000011       0x12 /home/jbrawley/Desktop/rockbox-photo-cf-support/build/lib/libunwarminder.a(unwarmmem.o)
 .comment       0x0000000000000011       0x12 /home/jbrawley/Desktop/rockbox-photo-cf-support/build/lib/libskin_parser.a(skin_buffer.o)
 .comment       0x0000000000000011       0x12 /home/jbrawley/Desktop/rockbox-photo-cf-support/build/lib/libskin_parser.a(skin_parser.o)
 .comment       0x0000000000000011       0x12 /home/jbrawley/Desktop/rockbox-photo-cf-support/build/lib/libskin_parser.a(skin_scan.o)
 .comment       0x0000000000000011       0x12 /home/jbrawley/Desktop/rockbox-photo-cf-support/build/lib/libskin_parser.a(tag_table.o)
 .comment       0x0000000000000011       0x12 /home/jbrawley/Desktop/rockbox-photo-cf-support/build/lib/libfixedpoint.a(fixedpoint.o)
 .comment       0x0000000000000011       0x12 /usr/local/lib/gcc/arm-elf-eabi/4.9.4/libgcc.a(_ctzdi2.o)
 .comment       0x0000000000000011       0x12 /usr/local/lib/gcc/arm-elf-eabi/4.9.4/libgcc.a(bpabi.o)
 .comment       0x0000000000000011       0x12 /usr/local/lib/gcc/arm-elf-eabi/4.9.4/libgcc.a(_divdi3.o)
 .comment       0x0000000000000011       0x12 /usr/local/lib/gcc/arm-elf-eabi/4.9.4/libgcc.a(_udivdi3.o)

.debug_line     0x0000000000000000      0x899
 .debug_line    0x0000000000000000       0x67 /usr/local/lib/gcc/arm-elf-eabi/4.9.4/libgcc.a(_lshrdi3.o)
 .debug_line    0x0000000000000067       0x67 /usr/local/lib/gcc/arm-elf-eabi/4.9.4/libgcc.a(_ashrdi3.o)
 .debug_line    0x00000000000000ce       0x67 /usr/local/lib/gcc/arm-elf-eabi/4.9.4/libgcc.a(_ashldi3.o)
 .debug_line    0x0000000000000135      0x164 /usr/local/lib/gcc/arm-elf-eabi/4.9.4/libgcc.a(_arm_addsubdf3.o)
 .debug_line    0x0000000000000299      0x180 /usr/local/lib/gcc/arm-elf-eabi/4.9.4/libgcc.a(_arm_muldivdf3.o)
 .debug_line    0x0000000000000419       0x78 /usr/local/lib/gcc/arm-elf-eabi/4.9.4/libgcc.a(_arm_fixdfsi.o)
 .debug_line    0x0000000000000491       0x65 /usr/local/lib/gcc/arm-elf-eabi/4.9.4/libgcc.a(_aeabi_ldivmod.o)
 .debug_line    0x00000000000004f6       0x64 /usr/local/lib/gcc/arm-elf-eabi/4.9.4/libgcc.a(_aeabi_uldivmod.o)
 .debug_line    0x000000000000055a       0x68 /usr/local/lib/gcc/arm-elf-eabi/4.9.4/libgcc.a(_ctzdi2.o)
 .debug_line    0x00000000000005c2       0x65 /usr/local/lib/gcc/arm-elf-eabi/4.9.4/libgcc.a(bpabi.o)
 .debug_line    0x0000000000000627       0x61 /usr/local/lib/gcc/arm-elf-eabi/4.9.4/libgcc.a(_dvmd_tls.o)
 .debug_line    0x0000000000000688       0x70 /usr/local/lib/gcc/arm-elf-eabi/4.9.4/libgcc.a(_ctzsi2.o)
 .debug_line    0x00000000000006f8       0x9e /usr/local/lib/gcc/arm-elf-eabi/4.9.4/libgcc.a(_divdi3.o)
 .debug_line    0x0000000000000796       0x98 /usr/local/lib/gcc/arm-elf-eabi/4.9.4/libgcc.a(_udivdi3.o)
 .debug_line    0x000000000000082e       0x6b /usr/local/lib/gcc/arm-elf-eabi/4.9.4/libgcc.a(_clzdi2.o)

.debug_info     0x0000000000000000      0xcde
 .debug_info    0x0000000000000000       0x88 /usr/local/lib/gcc/arm-elf-eabi/4.9.4/libgcc.a(_lshrdi3.o)
 .debug_info    0x0000000000000088       0x88 /usr/local/lib/gcc/arm-elf-eabi/4.9.4/libgcc.a(_ashrdi3.o)
 .debug_info    0x0000000000000110       0x88 /usr/local/lib/gcc/arm-elf-eabi/4.9.4/libgcc.a(_ashldi3.o)
 .debug_info    0x0000000000000198       0x89 /usr/local/lib/gcc/arm-elf-eabi/4.9.4/libgcc.a(_arm_addsubdf3.o)
 .debug_info    0x0000000000000221       0x89 /usr/local/lib/gcc/arm-elf-eabi/4.9.4/libgcc.a(_arm_muldivdf3.o)
 .debug_info    0x00000000000002aa       0x89 /usr/local/lib/gcc/arm-elf-eabi/4.9.4/libgcc.a(_arm_fixdfsi.o)
 .debug_info    0x0000000000000333       0x84 /usr/local/lib/gcc/arm-elf-eabi/4.9.4/libgcc.a(_aeabi_ldivmod.o)
 .debug_info    0x00000000000003b7       0x84 /usr/local/lib/gcc/arm-elf-eabi/4.9.4/libgcc.a(_aeabi_uldivmod.o)
 .debug_info    0x000000000000043b      0x177 /usr/local/lib/gcc/arm-elf-eabi/4.9.4/libgcc.a(_ctzdi2.o)
 .debug_info    0x00000000000005b2      0x164 /usr/local/lib/gcc/arm-elf-eabi/4.9.4/libgcc.a(bpabi.o)
 .debug_info    0x0000000000000716       0x88 /usr/local/lib/gcc/arm-elf-eabi/4.9.4/libgcc.a(_dvmd_tls.o)
 .debug_info    0x000000000000079e       0x88 /usr/local/lib/gcc/arm-elf-eabi/4.9.4/libgcc.a(_ctzsi2.o)
 .debug_info    0x0000000000000826      0x269 /usr/local/lib/gcc/arm-elf-eabi/4.9.4/libgcc.a(_divdi3.o)
 .debug_info    0x0000000000000a8f      0x1c7 /usr/local/lib/gcc/arm-elf-eabi/4.9.4/libgcc.a(_udivdi3.o)
 .debug_info    0x0000000000000c56       0x88 /usr/local/lib/gcc/arm-elf-eabi/4.9.4/libgcc.a(_clzdi2.o)

.debug_abbrev   0x0000000000000000      0x465
 .debug_abbrev  0x0000000000000000       0x14 /usr/local/lib/gcc/arm-elf-eabi/4.9.4/libgcc.a(_lshrdi3.o)
 .debug_abbrev  0x0000000000000014       0x14 /usr/local/lib/gcc/arm-elf-eabi/4.9.4/libgcc.a(_ashrdi3.o)
 .debug_abbrev  0x0000000000000028       0x14 /usr/local/lib/gcc/arm-elf-eabi/4.9.4/libgcc.a(_ashldi3.o)
 .debug_abbrev  0x000000000000003c       0x14 /usr/local/lib/gcc/arm-elf-eabi/4.9.4/libgcc.a(_arm_addsubdf3.o)
 .debug_abbrev  0x0000000000000050       0x14 /usr/local/lib/gcc/arm-elf-eabi/4.9.4/libgcc.a(_arm_muldivdf3.o)
 .debug_abbrev  0x0000000000000064       0x14 /usr/local/lib/gcc/arm-elf-eabi/4.9.4/libgcc.a(_arm_fixdfsi.o)
 .debug_abbrev  0x0000000000000078       0x14 /usr/local/lib/gcc/arm-elf-eabi/4.9.4/libgcc.a(_aeabi_ldivmod.o)
 .debug_abbrev  0x000000000000008c       0x14 /usr/local/lib/gcc/arm-elf-eabi/4.9.4/libgcc.a(_aeabi_uldivmod.o)
 .debug_abbrev  0x00000000000000a0       0xe8 /usr/local/lib/gcc/arm-elf-eabi/4.9.4/libgcc.a(_ctzdi2.o)
 .debug_abbrev  0x0000000000000188       0xb7 /usr/local/lib/gcc/arm-elf-eabi/4.9.4/libgcc.a(bpabi.o)
 .debug_abbrev  0x000000000000023f       0x14 /usr/local/lib/gcc/arm-elf-eabi/4.9.4/libgcc.a(_dvmd_tls.o)
 .debug_abbrev  0x0000000000000253       0x14 /usr/local/lib/gcc/arm-elf-eabi/4.9.4/libgcc.a(_ctzsi2.o)
 .debug_abbrev  0x0000000000000267      0x123 /usr/local/lib/gcc/arm-elf-eabi/4.9.4/libgcc.a(_divdi3.o)
 .debug_abbrev  0x000000000000038a       0xc7 /usr/local/lib/gcc/arm-elf-eabi/4.9.4/libgcc.a(_udivdi3.o)
 .debug_abbrev  0x0000000000000451       0x14 /usr/local/lib/gcc/arm-elf-eabi/4.9.4/libgcc.a(_clzdi2.o)

.debug_aranges  0x0000000000000000      0x1e0
 .debug_aranges
                0x0000000000000000       0x20 /usr/local/lib/gcc/arm-elf-eabi/4.9.4/libgcc.a(_lshrdi3.o)
 .debug_aranges
                0x0000000000000020       0x20 /usr/local/lib/gcc/arm-elf-eabi/4.9.4/libgcc.a(_ashrdi3.o)
 .debug_aranges
                0x0000000000000040       0x20 /usr/local/lib/gcc/arm-elf-eabi/4.9.4/libgcc.a(_ashldi3.o)
 .debug_aranges
                0x0000000000000060       0x20 /usr/local/lib/gcc/arm-elf-eabi/4.9.4/libgcc.a(_arm_addsubdf3.o)
 .debug_aranges
                0x0000000000000080       0x20 /usr/local/lib/gcc/arm-elf-eabi/4.9.4/libgcc.a(_arm_muldivdf3.o)
 .debug_aranges
                0x00000000000000a0       0x20 /usr/local/lib/gcc/arm-elf-eabi/4.9.4/libgcc.a(_arm_fixdfsi.o)
 .debug_aranges
                0x00000000000000c0       0x20 /usr/local/lib/gcc/arm-elf-eabi/4.9.4/libgcc.a(_aeabi_ldivmod.o)
 .debug_aranges
                0x00000000000000e0       0x20 /usr/local/lib/gcc/arm-elf-eabi/4.9.4/libgcc.a(_aeabi_uldivmod.o)
 .debug_aranges
                0x0000000000000100       0x20 /usr/local/lib/gcc/arm-elf-eabi/4.9.4/libgcc.a(_ctzdi2.o)
 .debug_aranges
                0x0000000000000120       0x20 /usr/local/lib/gcc/arm-elf-eabi/4.9.4/libgcc.a(bpabi.o)
 .debug_aranges
                0x0000000000000140       0x20 /usr/local/lib/gcc/arm-elf-eabi/4.9.4/libgcc.a(_dvmd_tls.o)
 .debug_aranges
                0x0000000000000160       0x20 /usr/local/lib/gcc/arm-elf-eabi/4.9.4/libgcc.a(_ctzsi2.o)
 .debug_aranges
                0x0000000000000180       0x20 /usr/local/lib/gcc/arm-elf-eabi/4.9.4/libgcc.a(_divdi3.o)
 .debug_aranges
                0x00000000000001a0       0x20 /usr/local/lib/gcc/arm-elf-eabi/4.9.4/libgcc.a(_udivdi3.o)
 .debug_aranges
                0x00000000000001c0       0x20 /usr/local/lib/gcc/arm-elf-eabi/4.9.4/libgcc.a(_clzdi2.o)

.debug_frame    0x0000000000000000      0x16c
 .debug_frame   0x0000000000000000       0x28 /usr/local/lib/gcc/arm-elf-eabi/4.9.4/libgcc.a(_aeabi_ldivmod.o)
 .debug_frame   0x0000000000000028       0x28 /usr/local/lib/gcc/arm-elf-eabi/4.9.4/libgcc.a(_aeabi_uldivmod.o)
 .debug_frame   0x0000000000000050       0x2c /usr/local/lib/gcc/arm-elf-eabi/4.9.4/libgcc.a(_ctzdi2.o)
 .debug_frame   0x000000000000007c       0x68 /usr/local/lib/gcc/arm-elf-eabi/4.9.4/libgcc.a(bpabi.o)
 .debug_frame   0x00000000000000e4       0x48 /usr/local/lib/gcc/arm-elf-eabi/4.9.4/libgcc.a(_divdi3.o)
 .debug_frame   0x000000000000012c       0x40 /usr/local/lib/gcc/arm-elf-eabi/4.9.4/libgcc.a(_udivdi3.o)

.debug_loc      0x0000000000000000      0x585
 .debug_loc     0x0000000000000000       0x85 /usr/local/lib/gcc/arm-elf-eabi/4.9.4/libgcc.a(_ctzdi2.o)
 .debug_loc     0x0000000000000085       0xa0 /usr/local/lib/gcc/arm-elf-eabi/4.9.4/libgcc.a(bpabi.o)
 .debug_loc     0x0000000000000125      0x27d /usr/local/lib/gcc/arm-elf-eabi/4.9.4/libgcc.a(_divdi3.o)
 .debug_loc     0x00000000000003a2      0x1e3 /usr/local/lib/gcc/arm-elf-eabi/4.9.4/libgcc.a(_udivdi3.o)

.debug_str      0x0000000000000000      0x295
 .debug_str     0x0000000000000000      0x17d /usr/local/lib/gcc/arm-elf-eabi/4.9.4/libgcc.a(_ctzdi2.o)
                                        0x1c8 (size before relaxing)
 .debug_str     0x000000000000017d       0x7e /usr/local/lib/gcc/arm-elf-eabi/4.9.4/libgcc.a(bpabi.o)
                                        0x152 (size before relaxing)
 .debug_str     0x00000000000001fb       0x9a /usr/local/lib/gcc/arm-elf-eabi/4.9.4/libgcc.a(_divdi3.o)
                                        0x1dd (size before relaxing)
 .debug_str     0x0000000000000295      0x1ba /usr/local/lib/gcc/arm-elf-eabi/4.9.4/libgcc.a(_udivdi3.o)

.debug_ranges   0x0000000000000000       0x18
 .debug_ranges  0x0000000000000000       0x18 /usr/local/lib/gcc/arm-elf-eabi/4.9.4/libgcc.a(_udivdi3.o)
